ARM GAS  /tmp/ccnR15H2.s 			page 1


   1              		.syntax unified
   2              		.cpu cortex-m4
   3              		.eabi_attribute 27, 3
   4              		.fpu fpv4-sp-d16
   5              		.eabi_attribute 20, 1
   6              		.eabi_attribute 21, 1
   7              		.eabi_attribute 23, 3
   8              		.eabi_attribute 24, 1
   9              		.eabi_attribute 25, 1
  10              		.eabi_attribute 26, 1
  11              		.eabi_attribute 30, 2
  12              		.eabi_attribute 34, 1
  13              		.eabi_attribute 18, 4
  14              		.thumb
  15              		.file	"adc_it.c"
  16              		.text
  17              	.Ltext0:
  18              		.cfi_sections	.debug_frame
  19              		.section	.text.adcThread,"ax",%progbits
  20              		.align	2
  21              		.p2align 4,,15
  22              		.thumb
  23              		.thumb_func
  24              		.type	adcThread, %function
  25              	adcThread:
  26              	.LFB120:
  27              		.file 1 "adc_it.c"
  28              		.loc 1 191 0
  29              		.cfi_startproc
  30              		@ Volatile: function does not return.
  31              		@ args = 0, pretend = 0, frame = 0
  32              		@ frame_needed = 0, uses_anonymous_args = 0
  33              	.LVL0:
  34 0000 08B5     		push	{r3, lr}
  35              		.cfi_def_cfa_offset 8
  36              		.cfi_offset 3, -8
  37              		.cfi_offset 14, -4
  38              	.LVL1:
  39              	.L2:
  40              		.loc 1 194 0 discriminator 1
  41 0002 C820     		movs	r0, #200
  42 0004 FFF7FEFF 		bl	chThdSleep
  43              	.LVL2:
  44              		.loc 1 195 0 discriminator 1
  45 0008 0648     		ldr	r0, .L4
  46 000a 0749     		ldr	r1, .L4+4
  47 000c 074A     		ldr	r2, .L4+8
  48 000e 0A23     		movs	r3, #10
  49 0010 FFF7FEFF 		bl	adcStartConversion
  50              	.LVL3:
  51              		.loc 1 196 0 discriminator 1
  52 0014 0648     		ldr	r0, .L4+12
  53 0016 0749     		ldr	r1, .L4+16
  54 0018 074A     		ldr	r2, .L4+20
  55 001a 0A23     		movs	r3, #10
  56 001c FFF7FEFF 		bl	adcStartConversion
  57              	.LVL4:
ARM GAS  /tmp/ccnR15H2.s 			page 2


  58 0020 EFE7     		b	.L2
  59              	.L5:
  60 0022 00BF     		.align	2
  61              	.L4:
  62 0024 00000000 		.word	ADCD1
  63 0028 00000000 		.word	.LANCHOR0
  64 002c 00000000 		.word	.LANCHOR1
  65 0030 00000000 		.word	ADCD3
  66 0034 00000000 		.word	.LANCHOR2
  67 0038 00000000 		.word	.LANCHOR3
  68              		.cfi_endproc
  69              	.LFE120:
  70              		.size	adcThread, .-adcThread
  71 003c AFF30080 		.section	.text.adccallback,"ax",%progbits
  72              		.align	2
  73              		.p2align 4,,15
  74              		.thumb
  75              		.thumb_func
  76              		.type	adccallback, %function
  77              	adccallback:
  78              	.LFB119:
  79              		.loc 1 58 0
  80              		.cfi_startproc
  81              		@ args = 0, pretend = 0, frame = 72
  82              		@ frame_needed = 0, uses_anonymous_args = 0
  83              		@ link register save eliminated.
  84              	.LVL5:
  85 0000 2DE9F00F 		push	{r4, r5, r6, r7, r8, r9, r10, fp}
  86              		.cfi_def_cfa_offset 32
  87              		.cfi_offset 4, -32
  88              		.cfi_offset 5, -28
  89              		.cfi_offset 6, -24
  90              		.cfi_offset 7, -20
  91              		.cfi_offset 8, -16
  92              		.cfi_offset 9, -12
  93              		.cfi_offset 10, -8
  94              		.cfi_offset 11, -4
  95              		.loc 1 65 0
  96 0004 0378     		ldrb	r3, [r0]	@ zero_extendqisi2
  97 0006 042B     		cmp	r3, #4
  98              		.loc 1 58 0
  99 0008 92B0     		sub	sp, sp, #72
 100              		.cfi_def_cfa_offset 104
 101              		.loc 1 65 0
 102 000a 03D0     		beq	.L11
 103              		.loc 1 137 0
 104 000c 12B0     		add	sp, sp, #72
 105              		@ sp needed
 106 000e BDE8F00F 		pop	{r4, r5, r6, r7, r8, r9, r10, fp}
 107 0012 7047     		bx	lr
 108              	.L11:
 109              	.LVL6:
 110              		.loc 1 65 0
 111 0014 0021     		movs	r1, #0
 112              	.LVL7:
 113 0016 0A20     		movs	r0, #10
 114              	.LVL8:
ARM GAS  /tmp/ccnR15H2.s 			page 3


 115 0018 9A4A     		ldr	r2, .L13
 116              	.LVL9:
 117 001a 9B4B     		ldr	r3, .L13+4
 118 001c 1091     		str	r1, [sp, #64]
 119 001e 0F91     		str	r1, [sp, #60]
 120 0020 0E91     		str	r1, [sp, #56]
 121 0022 0D91     		str	r1, [sp, #52]
 122 0024 0B91     		str	r1, [sp, #44]
 123 0026 0A91     		str	r1, [sp, #40]
 124 0028 0991     		str	r1, [sp, #36]
 125 002a 0891     		str	r1, [sp, #32]
 126 002c 0791     		str	r1, [sp, #28]
 127 002e 0691     		str	r1, [sp, #24]
 128 0030 0591     		str	r1, [sp, #20]
 129 0032 0491     		str	r1, [sp, #16]
 130 0034 0391     		str	r1, [sp, #12]
 131 0036 8B46     		mov	fp, r1
 132 0038 8A46     		mov	r10, r1
 133 003a 8946     		mov	r9, r1
 134 003c 8846     		mov	r8, r1
 135 003e 8C46     		mov	ip, r1
 136 0040 0F46     		mov	r7, r1
 137 0042 0C90     		str	r0, [sp, #48]
 138 0044 1191     		str	r1, [sp, #68]
 139 0046 04E0     		b	.L9
 140              	.LVL10:
 141              	.L12:
 142              	.LBB4:
 143              	.LBB5:
 144              		.loc 1 106 0
 145 0048 0D91     		str	r1, [sp, #52]
 146              		.loc 1 107 0
 147 004a 0E96     		str	r6, [sp, #56]
 148              		.loc 1 108 0
 149 004c 0F95     		str	r5, [sp, #60]
 150              		.loc 1 109 0
 151 004e 1090     		str	r0, [sp, #64]
 152              		.loc 1 110 0
 153 0050 1194     		str	r4, [sp, #68]
 154              	.LVL11:
 155              	.L9:
 156              		.loc 1 90 0
 157 0052 1588     		ldrh	r5, [r2]
 158              		.loc 1 91 0
 159 0054 5488     		ldrh	r4, [r2, #2]
 160              		.loc 1 92 0
 161 0056 9088     		ldrh	r0, [r2, #4]
 162              		.loc 1 96 0
 163 0058 039E     		ldr	r6, [sp, #12]
 164              		.loc 1 93 0
 165 005a D188     		ldrh	r1, [r2, #6]
 166              		.loc 1 90 0
 167 005c 2F44     		add	r7, r7, r5
 168              		.loc 1 91 0
 169 005e 6444     		add	r4, ip, r4
 170              		.loc 1 94 0
 171 0060 1589     		ldrh	r5, [r2, #8]
ARM GAS  /tmp/ccnR15H2.s 			page 4


 172              		.loc 1 91 0
 173 0062 0194     		str	r4, [sp, #4]
 174              		.loc 1 92 0
 175 0064 8044     		add	r8, r8, r0
 176              		.loc 1 95 0
 177 0066 5489     		ldrh	r4, [r2, #10]
 178              		.loc 1 96 0
 179 0068 9089     		ldrh	r0, [r2, #12]
 180              		.loc 1 90 0
 181 006a 0297     		str	r7, [sp, #8]
 182              		.loc 1 94 0
 183 006c AA44     		add	r10, r10, r5
 184              		.loc 1 97 0
 185 006e 049F     		ldr	r7, [sp, #16]
 186 0070 D589     		ldrh	r5, [r2, #14]
 187              		.loc 1 96 0
 188 0072 0644     		add	r6, r6, r0
 189              		.loc 1 95 0
 190 0074 A344     		add	fp, fp, r4
 191              		.loc 1 98 0
 192 0076 0598     		ldr	r0, [sp, #20]
 193 0078 148A     		ldrh	r4, [r2, #16]
 194              		.loc 1 96 0
 195 007a 0396     		str	r6, [sp, #12]
 196              		.loc 1 97 0
 197 007c 2F44     		add	r7, r7, r5
 198              		.loc 1 98 0
 199 007e 2044     		add	r0, r0, r4
 200              		.loc 1 100 0
 201 0080 069E     		ldr	r6, [sp, #24]
 202              		.loc 1 101 0
 203 0082 5C88     		ldrh	r4, [r3, #2]
 204              		.loc 1 97 0
 205 0084 0497     		str	r7, [sp, #16]
 206              		.loc 1 93 0
 207 0086 8944     		add	r9, r9, r1
 208              		.loc 1 101 0
 209 0088 079F     		ldr	r7, [sp, #28]
 210              		.loc 1 100 0
 211 008a 1988     		ldrh	r1, [r3]
 212              		.loc 1 103 0
 213 008c DD88     		ldrh	r5, [r3, #6]
 214              		.loc 1 98 0
 215 008e 0590     		str	r0, [sp, #20]
 216              		.loc 1 100 0
 217 0090 0E44     		add	r6, r6, r1
 218              		.loc 1 101 0
 219 0092 2744     		add	r7, r7, r4
 220              		.loc 1 102 0
 221 0094 9888     		ldrh	r0, [r3, #4]
 222              		.loc 1 104 0
 223 0096 1C89     		ldrh	r4, [r3, #8]
 224              		.loc 1 102 0
 225 0098 0899     		ldr	r1, [sp, #32]
 226              		.loc 1 100 0
 227 009a 0696     		str	r6, [sp, #24]
 228              		.loc 1 101 0
ARM GAS  /tmp/ccnR15H2.s 			page 5


 229 009c 0797     		str	r7, [sp, #28]
 230              		.loc 1 103 0
 231 009e 099E     		ldr	r6, [sp, #36]
 232              		.loc 1 104 0
 233 00a0 0A9F     		ldr	r7, [sp, #40]
 234              		.loc 1 102 0
 235 00a2 0144     		add	r1, r1, r0
 236              		.loc 1 103 0
 237 00a4 2E44     		add	r6, r6, r5
 238              		.loc 1 104 0
 239 00a6 2744     		add	r7, r7, r4
 240              		.loc 1 105 0
 241 00a8 5889     		ldrh	r0, [r3, #10]
 242              		.loc 1 102 0
 243 00aa 0891     		str	r1, [sp, #32]
 244              		.loc 1 103 0
 245 00ac 0996     		str	r6, [sp, #36]
 246              		.loc 1 106 0
 247 00ae 9989     		ldrh	r1, [r3, #12]
 248              		.loc 1 104 0
 249 00b0 0A97     		str	r7, [sp, #40]
 250              		.loc 1 105 0
 251 00b2 0B9C     		ldr	r4, [sp, #44]
 252              		.loc 1 106 0
 253 00b4 0D9F     		ldr	r7, [sp, #52]
 254              		.loc 1 107 0
 255 00b6 DE89     		ldrh	r6, [r3, #14]
 256              		.loc 1 108 0
 257 00b8 1D8A     		ldrh	r5, [r3, #16]
 258              		.loc 1 107 0
 259 00ba DDF838C0 		ldr	ip, [sp, #56]
 260              		.loc 1 105 0
 261 00be 0444     		add	r4, r4, r0
 262              		.loc 1 106 0
 263 00c0 3944     		add	r1, r1, r7
 264              		.loc 1 109 0
 265 00c2 588A     		ldrh	r0, [r3, #18]
 266 00c4 109F     		ldr	r7, [sp, #64]
 267              		.loc 1 105 0
 268 00c6 0B94     		str	r4, [sp, #44]
 269              		.loc 1 108 0
 270 00c8 0F9C     		ldr	r4, [sp, #60]
 271              		.loc 1 109 0
 272 00ca 3844     		add	r0, r0, r7
 273              		.loc 1 89 0
 274 00cc 0C9F     		ldr	r7, [sp, #48]
 275              		.loc 1 107 0
 276 00ce 6644     		add	r6, r6, ip
 277              		.loc 1 108 0
 278 00d0 2544     		add	r5, r5, r4
 279              		.loc 1 110 0
 280 00d2 DDF844C0 		ldr	ip, [sp, #68]
 281 00d6 9C8A     		ldrh	r4, [r3, #20]
 282              		.loc 1 89 0
 283 00d8 013F     		subs	r7, r7, #1
 284              		.loc 1 110 0
 285 00da 6444     		add	r4, r4, ip
ARM GAS  /tmp/ccnR15H2.s 			page 6


 286              	.LVL12:
 287              		.loc 1 89 0
 288 00dc 0C97     		str	r7, [sp, #48]
 289              	.LVL13:
 290 00de 02F11202 		add	r2, r2, #18
 291 00e2 03F11603 		add	r3, r3, #22
 292              		.loc 1 90 0
 293 00e6 029F     		ldr	r7, [sp, #8]
 294              	.LVL14:
 295              		.loc 1 91 0
 296 00e8 DDF804C0 		ldr	ip, [sp, #4]
 297              		.loc 1 89 0
 298 00ec ACD1     		bne	.L12
 299              		.loc 1 113 0
 300 00ee 674B     		ldr	r3, .L13+8
 301 00f0 0C91     		str	r1, [sp, #48]
 302              	.LVL15:
 303 00f2 0D90     		str	r0, [sp, #52]
 304 00f4 6649     		ldr	r1, .L13+12
 305 00f6 A3FB0720 		umull	r2, r0, r3, r7
 306 00fa C008     		lsrs	r0, r0, #3
 307 00fc 0880     		strh	r0, [r1]	@ movhi
 308              		.loc 1 114 0
 309 00fe 654A     		ldr	r2, .L13+16
 310 0100 A3FB0C01 		umull	r0, r1, r3, ip
 311 0104 C908     		lsrs	r1, r1, #3
 312 0106 1180     		strh	r1, [r2]	@ movhi
 313              		.loc 1 115 0
 314 0108 A3FB0802 		umull	r0, r2, r3, r8
 315              		.loc 1 116 0
 316 010c A3FB0910 		umull	r1, r0, r3, r9
 317              		.loc 1 115 0
 318 0110 6149     		ldr	r1, .L13+20
 319 0112 D208     		lsrs	r2, r2, #3
 320 0114 0A80     		strh	r2, [r1]	@ movhi
 321              		.loc 1 116 0
 322 0116 6149     		ldr	r1, .L13+24
 323 0118 C008     		lsrs	r0, r0, #3
 324 011a 0880     		strh	r0, [r1]	@ movhi
 325              		.loc 1 117 0
 326 011c A3FB0A21 		umull	r2, r1, r3, r10
 327              		.loc 1 118 0
 328 0120 A3FB0B20 		umull	r2, r0, r3, fp
 329              		.loc 1 117 0
 330 0124 5E4A     		ldr	r2, .L13+28
 331 0126 C908     		lsrs	r1, r1, #3
 332 0128 1180     		strh	r1, [r2]	@ movhi
 333              		.loc 1 118 0
 334 012a 5E49     		ldr	r1, .L13+32
 335              		.loc 1 120 0
 336 012c 049A     		ldr	r2, [sp, #16]
 337              		.loc 1 118 0
 338 012e C008     		lsrs	r0, r0, #3
 339 0130 0880     		strh	r0, [r1]	@ movhi
 340              		.loc 1 119 0
 341 0132 0398     		ldr	r0, [sp, #12]
 342 0134 A3FB0001 		umull	r0, r1, r3, r0
ARM GAS  /tmp/ccnR15H2.s 			page 7


 343              		.loc 1 120 0
 344 0138 A3FB0220 		umull	r2, r0, r3, r2
 345              		.loc 1 119 0
 346 013c 5A4A     		ldr	r2, .L13+36
 347 013e C908     		lsrs	r1, r1, #3
 348 0140 1180     		strh	r1, [r2]	@ movhi
 349              		.loc 1 120 0
 350 0142 5A49     		ldr	r1, .L13+40
 351              		.loc 1 124 0
 352 0144 069A     		ldr	r2, [sp, #24]
 353              		.loc 1 120 0
 354 0146 C008     		lsrs	r0, r0, #3
 355 0148 0880     		strh	r0, [r1]	@ movhi
 356              		.loc 1 121 0
 357 014a 0598     		ldr	r0, [sp, #20]
 358 014c A3FB0001 		umull	r0, r1, r3, r0
 359              		.loc 1 124 0
 360 0150 A3FB0220 		umull	r2, r0, r3, r2
 361              		.loc 1 121 0
 362 0154 564A     		ldr	r2, .L13+44
 363 0156 C908     		lsrs	r1, r1, #3
 364 0158 1180     		strh	r1, [r2]	@ movhi
 365              		.loc 1 124 0
 366 015a 5649     		ldr	r1, .L13+48
 367              		.loc 1 126 0
 368 015c 089A     		ldr	r2, [sp, #32]
 369              		.loc 1 124 0
 370 015e C008     		lsrs	r0, r0, #3
 371 0160 0880     		strh	r0, [r1]	@ movhi
 372              		.loc 1 125 0
 373 0162 0798     		ldr	r0, [sp, #28]
 374 0164 A3FB0001 		umull	r0, r1, r3, r0
 375              		.loc 1 126 0
 376 0168 A3FB0220 		umull	r2, r0, r3, r2
 377              		.loc 1 125 0
 378 016c 524A     		ldr	r2, .L13+52
 379 016e C908     		lsrs	r1, r1, #3
 380 0170 1180     		strh	r1, [r2]	@ movhi
 381              		.loc 1 126 0
 382 0172 5249     		ldr	r1, .L13+56
 383              		.loc 1 128 0
 384 0174 0A9A     		ldr	r2, [sp, #40]
 385              		.loc 1 126 0
 386 0176 C008     		lsrs	r0, r0, #3
 387 0178 0880     		strh	r0, [r1]	@ movhi
 388              		.loc 1 127 0
 389 017a 0998     		ldr	r0, [sp, #36]
 390 017c A3FB0001 		umull	r0, r1, r3, r0
 391              		.loc 1 128 0
 392 0180 A3FB0220 		umull	r2, r0, r3, r2
 393 0184 C008     		lsrs	r0, r0, #3
 394 0186 0E90     		str	r0, [sp, #56]
 395 0188 4D4A     		ldr	r2, .L13+60
 396              		.loc 1 127 0
 397 018a 4E48     		ldr	r0, .L13+64
 398 018c 1760     		str	r7, [r2]
 399 018e C908     		lsrs	r1, r1, #3
ARM GAS  /tmp/ccnR15H2.s 			page 8


 400 0190 0180     		strh	r1, [r0]	@ movhi
 401 0192 4D4A     		ldr	r2, .L13+68
 402 0194 4D49     		ldr	r1, .L13+72
 403 0196 4E48     		ldr	r0, .L13+76
 404 0198 C1F800C0 		str	ip, [r1]
 405 019c C2F80090 		str	r9, [r2]
 406 01a0 4C49     		ldr	r1, .L13+80
 407 01a2 4D4A     		ldr	r2, .L13+84
 408 01a4 C0F80080 		str	r8, [r0]
 409 01a8 4C4F     		ldr	r7, .L13+88
 410 01aa 4D48     		ldr	r0, .L13+92
 411 01ac C2F800A0 		str	r10, [r2]
 412 01b0 C1F800B0 		str	fp, [r1]
 413 01b4 049A     		ldr	r2, [sp, #16]
 414 01b6 0399     		ldr	r1, [sp, #12]
 415 01b8 0160     		str	r1, [r0]
 416 01ba 3A60     		str	r2, [r7]
 417              		.loc 1 129 0
 418 01bc 0B9F     		ldr	r7, [sp, #44]
 419              		.loc 1 130 0
 420 01be 0C98     		ldr	r0, [sp, #48]
 421 01c0 DFF84CC1 		ldr	ip, .L13+140
 422 01c4 DFF84C81 		ldr	r8, .L13+144
 423 01c8 DFF84C91 		ldr	r9, .L13+148
 424 01cc DFF84CB1 		ldr	fp, .L13+152
 425              		.loc 1 129 0
 426 01d0 A3FB0771 		umull	r7, r1, r3, r7
 427              		.loc 1 130 0
 428 01d4 A3FB0002 		umull	r0, r2, r3, r0
 429              		.loc 1 129 0
 430 01d8 C908     		lsrs	r1, r1, #3
 431 01da 0391     		str	r1, [sp, #12]
 432              		.loc 1 130 0
 433 01dc 4FEAD20A 		lsr	r10, r2, #3
 434 01e0 0599     		ldr	r1, [sp, #20]
 435 01e2 069A     		ldr	r2, [sp, #24]
 436 01e4 CCF80010 		str	r1, [ip]
 437 01e8 C8F80020 		str	r2, [r8]
 438              		.loc 1 132 0
 439 01ec A3FB05C2 		umull	ip, r2, r3, r5
 440 01f0 4FEAD20C 		lsr	ip, r2, #3
 441 01f4 089A     		ldr	r2, [sp, #32]
 442 01f6 C9F80020 		str	r2, [r9]
 443 01fa 099A     		ldr	r2, [sp, #36]
 444 01fc CBF80020 		str	r2, [fp]
 445 0200 DFF81CB1 		ldr	fp, .L13+156
 446 0204 0B9A     		ldr	r2, [sp, #44]
 447 0206 0798     		ldr	r0, [sp, #28]
 448              		.loc 1 131 0
 449 0208 A3FB0671 		umull	r7, r1, r3, r6
 450 020c 0A9F     		ldr	r7, [sp, #40]
 451 020e CBF80070 		str	r7, [fp]
 452 0212 344F     		ldr	r7, .L13+96
 453 0214 DFF80CB1 		ldr	fp, .L13+160
 454 0218 3A60     		str	r2, [r7]
 455 021a 0C9F     		ldr	r7, [sp, #48]
 456 021c CBF80070 		str	r7, [fp]
ARM GAS  /tmp/ccnR15H2.s 			page 9


 457 0220 4FEAD108 		lsr	r8, r1, #3
 458 0224 304F     		ldr	r7, .L13+100
 459 0226 3149     		ldr	r1, .L13+104
 460 0228 3E60     		str	r6, [r7]
 461 022a 0860     		str	r0, [r1]
 462 022c 304F     		ldr	r7, .L13+108
 463              		.loc 1 133 0
 464 022e 0D98     		ldr	r0, [sp, #52]
 465 0230 DFF8F4B0 		ldr	fp, .L13+164
 466 0234 3C60     		str	r4, [r7]
 467 0236 A3FB0009 		umull	r0, r9, r3, r0
 468 023a 2E4E     		ldr	r6, .L13+112
 469 023c CBF80050 		str	r5, [fp]
 470              		.loc 1 134 0
 471 0240 A3FB0413 		umull	r1, r3, r3, r4
 472              		.loc 1 128 0
 473 0244 2C4C     		ldr	r4, .L13+116
 474 0246 0D9D     		ldr	r5, [sp, #52]
 475 0248 DDF838B0 		ldr	fp, [sp, #56]
 476 024c 3560     		str	r5, [r6]
 477 024e A4F800B0 		strh	fp, [r4]	@ movhi
 478              		.loc 1 129 0
 479 0252 039D     		ldr	r5, [sp, #12]
 480              		.loc 1 130 0
 481 0254 2948     		ldr	r0, .L13+120
 482              		.loc 1 132 0
 483 0256 2A49     		ldr	r1, .L13+124
 484              		.loc 1 134 0
 485 0258 2A4A     		ldr	r2, .L13+128
 486              		.loc 1 129 0
 487 025a 2B4E     		ldr	r6, .L13+132
 488              		.loc 1 131 0
 489 025c 2B4F     		ldr	r7, .L13+136
 490              		.loc 1 133 0
 491 025e DFF8CCB0 		ldr	fp, .L13+168
 492              		.loc 1 129 0
 493 0262 3580     		strh	r5, [r6]	@ movhi
 494              		.loc 1 133 0
 495 0264 4FEAD909 		lsr	r9, r9, #3
 496              		.loc 1 134 0
 497 0268 DB08     		lsrs	r3, r3, #3
 498              		.loc 1 130 0
 499 026a A0F800A0 		strh	r10, [r0]	@ movhi
 500              		.loc 1 131 0
 501 026e A7F80080 		strh	r8, [r7]	@ movhi
 502              		.loc 1 132 0
 503 0272 A1F800C0 		strh	ip, [r1]	@ movhi
 504              		.loc 1 133 0
 505 0276 ABF80090 		strh	r9, [fp]	@ movhi
 506              		.loc 1 134 0
 507 027a 1380     		strh	r3, [r2]	@ movhi
 508              	.LBE5:
 509              	.LBE4:
 510              		.loc 1 137 0
 511 027c 12B0     		add	sp, sp, #72
 512              		@ sp needed
 513 027e BDE8F00F 		pop	{r4, r5, r6, r7, r8, r9, r10, fp}
ARM GAS  /tmp/ccnR15H2.s 			page 10


 514 0282 7047     		bx	lr
 515              	.L14:
 516              		.align	2
 517              	.L13:
 518 0284 00000000 		.word	.LANCHOR1
 519 0288 00000000 		.word	.LANCHOR3
 520 028c CDCCCCCC 		.word	-858993459
 521 0290 00000000 		.word	.LANCHOR24
 522 0294 00000000 		.word	.LANCHOR25
 523 0298 00000000 		.word	.LANCHOR26
 524 029c 00000000 		.word	.LANCHOR27
 525 02a0 00000000 		.word	.LANCHOR28
 526 02a4 00000000 		.word	.LANCHOR29
 527 02a8 00000000 		.word	.LANCHOR30
 528 02ac 00000000 		.word	.LANCHOR31
 529 02b0 00000000 		.word	.LANCHOR32
 530 02b4 00000000 		.word	.LANCHOR33
 531 02b8 00000000 		.word	.LANCHOR34
 532 02bc 00000000 		.word	.LANCHOR35
 533 02c0 00000000 		.word	.LANCHOR4
 534 02c4 00000000 		.word	.LANCHOR36
 535 02c8 00000000 		.word	.LANCHOR7
 536 02cc 00000000 		.word	.LANCHOR5
 537 02d0 00000000 		.word	.LANCHOR6
 538 02d4 00000000 		.word	.LANCHOR9
 539 02d8 00000000 		.word	.LANCHOR8
 540 02dc 00000000 		.word	.LANCHOR11
 541 02e0 00000000 		.word	.LANCHOR10
 542 02e4 00000000 		.word	.LANCHOR18
 543 02e8 00000000 		.word	.LANCHOR20
 544 02ec 00000000 		.word	.LANCHOR14
 545 02f0 00000000 		.word	.LANCHOR23
 546 02f4 00000000 		.word	.LANCHOR22
 547 02f8 00000000 		.word	.LANCHOR37
 548 02fc 00000000 		.word	.LANCHOR39
 549 0300 00000000 		.word	.LANCHOR41
 550 0304 00000000 		.word	.LANCHOR43
 551 0308 00000000 		.word	.LANCHOR38
 552 030c 00000000 		.word	.LANCHOR40
 553 0310 00000000 		.word	.LANCHOR12
 554 0314 00000000 		.word	.LANCHOR13
 555 0318 00000000 		.word	.LANCHOR15
 556 031c 00000000 		.word	.LANCHOR16
 557 0320 00000000 		.word	.LANCHOR17
 558 0324 00000000 		.word	.LANCHOR19
 559 0328 00000000 		.word	.LANCHOR21
 560 032c 00000000 		.word	.LANCHOR42
 561              		.cfi_endproc
 562              	.LFE119:
 563              		.size	adccallback, .-adccallback
 564              		.section	.text.Adc_Init,"ax",%progbits
 565              		.align	2
 566              		.p2align 4,,15
 567              		.global	Adc_Init
 568              		.thumb
 569              		.thumb_func
 570              		.type	Adc_Init, %function
ARM GAS  /tmp/ccnR15H2.s 			page 11


 571              	Adc_Init:
 572              	.LFB121:
 573              		.loc 1 201 0
 574              		.cfi_startproc
 575              		@ args = 0, pretend = 0, frame = 0
 576              		@ frame_needed = 0, uses_anonymous_args = 0
 577 0000 2DE9F041 		push	{r4, r5, r6, r7, r8, lr}
 578              		.cfi_def_cfa_offset 24
 579              		.cfi_offset 4, -24
 580              		.cfi_offset 5, -20
 581              		.cfi_offset 6, -16
 582              		.cfi_offset 7, -12
 583              		.cfi_offset 8, -8
 584              		.cfi_offset 14, -4
 585              		.loc 1 202 0
 586 0004 4FF09040 		mov	r0, #1207959552
 587              		.loc 1 201 0
 588 0008 82B0     		sub	sp, sp, #8
 589              		.cfi_def_cfa_offset 32
 590              		.loc 1 202 0
 591 000a 0221     		movs	r1, #2
 592 000c 0322     		movs	r2, #3
 593 000e FFF7FEFF 		bl	_pal_lld_setgroupmode
 594              	.LVL16:
 595              		.loc 1 205 0
 596 0012 DFF81081 		ldr	r8, .L16+32
 597              		.loc 1 206 0
 598 0016 3B4D     		ldr	r5, .L16
 599              		.loc 1 211 0
 600 0018 3B4F     		ldr	r7, .L16+4
 601              		.loc 1 213 0
 602 001a 3C4E     		ldr	r6, .L16+8
 603              		.loc 1 217 0
 604 001c 3C4C     		ldr	r4, .L16+12
 605              		.loc 1 203 0
 606 001e 4FF09040 		mov	r0, #1207959552
 607 0022 0421     		movs	r1, #4
 608 0024 0322     		movs	r2, #3
 609 0026 FFF7FEFF 		bl	_pal_lld_setgroupmode
 610              	.LVL17:
 611              		.loc 1 204 0
 612 002a 4FF09040 		mov	r0, #1207959552
 613 002e 0821     		movs	r1, #8
 614 0030 0322     		movs	r2, #3
 615 0032 FFF7FEFF 		bl	_pal_lld_setgroupmode
 616              	.LVL18:
 617              		.loc 1 205 0
 618 0036 4046     		mov	r0, r8
 619 0038 1021     		movs	r1, #16
 620 003a 0322     		movs	r2, #3
 621 003c FFF7FEFF 		bl	_pal_lld_setgroupmode
 622              	.LVL19:
 623              		.loc 1 206 0
 624 0040 2846     		mov	r0, r5
 625 0042 0121     		movs	r1, #1
 626 0044 0322     		movs	r2, #3
 627 0046 FFF7FEFF 		bl	_pal_lld_setgroupmode
ARM GAS  /tmp/ccnR15H2.s 			page 12


 628              	.LVL20:
 629              		.loc 1 207 0
 630 004a 2846     		mov	r0, r5
 631 004c 0221     		movs	r1, #2
 632 004e 0322     		movs	r2, #3
 633 0050 FFF7FEFF 		bl	_pal_lld_setgroupmode
 634              	.LVL21:
 635              		.loc 1 208 0
 636 0054 2846     		mov	r0, r5
 637 0056 0421     		movs	r1, #4
 638 0058 0322     		movs	r2, #3
 639 005a FFF7FEFF 		bl	_pal_lld_setgroupmode
 640              	.LVL22:
 641              		.loc 1 209 0
 642 005e 2846     		mov	r0, r5
 643 0060 0821     		movs	r1, #8
 644 0062 0322     		movs	r2, #3
 645 0064 FFF7FEFF 		bl	_pal_lld_setgroupmode
 646              	.LVL23:
 647              		.loc 1 210 0
 648 0068 4046     		mov	r0, r8
 649 006a 0421     		movs	r1, #4
 650 006c 0322     		movs	r2, #3
 651 006e FFF7FEFF 		bl	_pal_lld_setgroupmode
 652              	.LVL24:
 653              		.loc 1 211 0
 654 0072 3846     		mov	r0, r7
 655 0074 0221     		movs	r1, #2
 656 0076 0322     		movs	r2, #3
 657 0078 FFF7FEFF 		bl	_pal_lld_setgroupmode
 658              	.LVL25:
 659              		.loc 1 213 0
 660 007c 3046     		mov	r0, r6
 661 007e 4FF40071 		mov	r1, #512
 662 0082 0322     		movs	r2, #3
 663 0084 FFF7FEFF 		bl	_pal_lld_setgroupmode
 664              	.LVL26:
 665              		.loc 1 214 0
 666 0088 3046     		mov	r0, r6
 667 008a 8021     		movs	r1, #128
 668 008c 0322     		movs	r2, #3
 669 008e FFF7FEFF 		bl	_pal_lld_setgroupmode
 670              	.LVL27:
 671              		.loc 1 215 0
 672 0092 3846     		mov	r0, r7
 673 0094 4FF40051 		mov	r1, #8192
 674 0098 0322     		movs	r2, #3
 675 009a FFF7FEFF 		bl	_pal_lld_setgroupmode
 676              	.LVL28:
 677              		.loc 1 216 0
 678 009e 3046     		mov	r0, r6
 679 00a0 4FF48071 		mov	r1, #256
 680 00a4 0322     		movs	r2, #3
 681 00a6 FFF7FEFF 		bl	_pal_lld_setgroupmode
 682              	.LVL29:
 683              		.loc 1 217 0
 684 00aa 2046     		mov	r0, r4
ARM GAS  /tmp/ccnR15H2.s 			page 13


 685 00ac 4FF48061 		mov	r1, #1024
 686 00b0 0322     		movs	r2, #3
 687 00b2 FFF7FEFF 		bl	_pal_lld_setgroupmode
 688              	.LVL30:
 689              		.loc 1 218 0
 690 00b6 2046     		mov	r0, r4
 691 00b8 4FF40061 		mov	r1, #2048
 692 00bc 0322     		movs	r2, #3
 693 00be FFF7FEFF 		bl	_pal_lld_setgroupmode
 694              	.LVL31:
 695              		.loc 1 219 0
 696 00c2 2046     		mov	r0, r4
 697 00c4 4FF48051 		mov	r1, #4096
 698 00c8 0322     		movs	r2, #3
 699 00ca FFF7FEFF 		bl	_pal_lld_setgroupmode
 700              	.LVL32:
 701              		.loc 1 220 0
 702 00ce 0322     		movs	r2, #3
 703 00d0 2046     		mov	r0, r4
 704 00d2 4FF48041 		mov	r1, #16384
 705 00d6 FFF7FEFF 		bl	_pal_lld_setgroupmode
 706              	.LVL33:
 707              		.loc 1 221 0
 708 00da 0E48     		ldr	r0, .L16+16
 709 00dc 0021     		movs	r1, #0
 710 00de FFF7FEFF 		bl	adcStart
 711              	.LVL34:
 712              		.loc 1 222 0
 713 00e2 0D48     		ldr	r0, .L16+20
 714 00e4 0021     		movs	r1, #0
 715 00e6 FFF7FEFF 		bl	adcStart
 716              	.LVL35:
 717              		.loc 1 223 0
 718 00ea 0023     		movs	r3, #0
 719 00ec 0093     		str	r3, [sp]
 720 00ee 4FF4DC71 		mov	r1, #440
 721 00f2 0A4B     		ldr	r3, .L16+24
 722 00f4 0A48     		ldr	r0, .L16+28
 723 00f6 4022     		movs	r2, #64
 724 00f8 FFF7FEFF 		bl	chThdCreateStatic
 725              	.LVL36:
 726              		.loc 1 224 0
 727 00fc 02B0     		add	sp, sp, #8
 728              		@ sp needed
 729 00fe BDE8F081 		pop	{r4, r5, r6, r7, r8, pc}
 730              	.L17:
 731 0102 00BF     		.align	2
 732              	.L16:
 733 0104 00080048 		.word	1207961600
 734 0108 00040048 		.word	1207960576
 735 010c 00100048 		.word	1207963648
 736 0110 000C0048 		.word	1207962624
 737 0114 00000000 		.word	ADCD1
 738 0118 00000000 		.word	ADCD3
 739 011c 00000000 		.word	adcThread
 740 0120 00000000 		.word	.LANCHOR44
 741 0124 00140048 		.word	1207964672
ARM GAS  /tmp/ccnR15H2.s 			page 14


 742              		.cfi_endproc
 743              	.LFE121:
 744              		.size	Adc_Init, .-Adc_Init
 745              		.global	adc_buff20
 746              		.global	adc_buff19
 747              		.global	adc_buff18
 748              		.global	adc_buff17
 749              		.global	adc_buff16
 750              		.global	adc_buff15
 751              		.global	adc_buff14
 752              		.global	adc_buff13
 753              		.global	adc_buff12
 754              		.global	adc_buff11
 755              		.global	adc_buff10
 756              		.global	adc_buff9
 757              		.global	adc_buff8
 758              		.global	adc_buff7
 759              		.global	adc_buff6
 760              		.global	adc_buff5
 761              		.global	adc_buff4
 762              		.global	adc_buff3
 763              		.global	adc_buff2
 764              		.global	adc_buff
 765              		.global	adc_val20
 766              		.global	adc_val19
 767              		.global	adc_val18
 768              		.global	adc_val17
 769              		.global	adc_val16
 770              		.global	adc_val15
 771              		.global	adc_val14
 772              		.global	adc_val13
 773              		.global	adc_val12
 774              		.global	adc_val11
 775              		.global	adc_val10
 776              		.global	adc_val9
 777              		.global	adc_val8
 778              		.global	adc_val7
 779              		.global	adc_val6
 780              		.global	adc_val5
 781              		.global	adc_val4
 782              		.global	adc_val3
 783              		.global	adc_val2
 784              		.global	adc_val
 785 0128 AFF30080 		.section	.bss.adc_buff8,"aw",%nobits
 785      AFF30080 
 786              		.align	2
 787              		.set	.LANCHOR11,. + 0
 788              		.type	adc_buff8, %object
 789              		.size	adc_buff8, 4
 790              	adc_buff8:
 791 0000 00000000 		.space	4
 792              		.section	.bss.adc_buff9,"aw",%nobits
 793              		.align	2
 794              		.set	.LANCHOR12,. + 0
 795              		.type	adc_buff9, %object
 796              		.size	adc_buff9, 4
 797              	adc_buff9:
ARM GAS  /tmp/ccnR15H2.s 			page 15


 798 0000 00000000 		.space	4
 799              		.section	.bss.adc_val19,"aw",%nobits
 800              		.align	1
 801              		.set	.LANCHOR42,. + 0
 802              		.type	adc_val19, %object
 803              		.size	adc_val19, 2
 804              	adc_val19:
 805 0000 0000     		.space	2
 806              		.section	.bss.adc_val20,"aw",%nobits
 807              		.align	1
 808              		.set	.LANCHOR43,. + 0
 809              		.type	adc_val20, %object
 810              		.size	adc_val20, 2
 811              	adc_val20:
 812 0000 0000     		.space	2
 813              		.section	.rodata.adcgrpcfg,"a",%progbits
 814              		.align	2
 815              		.set	.LANCHOR0,. + 0
 816              		.type	adcgrpcfg, %object
 817              		.size	adcgrpcfg, 48
 818              	adcgrpcfg:
 819 0000 00       		.byte	0
 820 0001 00       		.space	1
 821 0002 0900     		.short	9
 822 0004 00000000 		.word	adccallback
 823 0008 00000000 		.word	0
 824 000c 00000000 		.word	0
 825 0010 0000FF0F 		.word	268369920
 826 0014 00000000 		.word	0
 827 0018 00499224 		.word	613566720
 828 001c 00000000 		.word	0
 829 0020 80301005 		.word	84947072
 830 0024 C681240A 		.word	170164678
 831 0028 00000000 		.word	0
 832 002c 00000000 		.word	0
 833              		.section	.bss.wa_adcThread,"aw",%nobits
 834              		.align	3
 835              		.set	.LANCHOR44,. + 0
 836              		.type	wa_adcThread, %object
 837              		.size	wa_adcThread, 440
 838              	wa_adcThread:
 839 0000 00000000 		.space	440
 839      00000000 
 839      00000000 
 839      00000000 
 839      00000000 
 840              		.section	.bss.samples3,"aw",%nobits
 841              		.align	2
 842              		.set	.LANCHOR3,. + 0
 843              		.type	samples3, %object
 844              		.size	samples3, 220
 845              	samples3:
 846 0000 00000000 		.space	220
 846      00000000 
 846      00000000 
 846      00000000 
 846      00000000 
ARM GAS  /tmp/ccnR15H2.s 			page 16


 847              		.section	.bss.adc_val10,"aw",%nobits
 848              		.align	1
 849              		.set	.LANCHOR33,. + 0
 850              		.type	adc_val10, %object
 851              		.size	adc_val10, 2
 852              	adc_val10:
 853 0000 0000     		.space	2
 854              		.section	.rodata.adcgrpcfg3,"a",%progbits
 855              		.align	2
 856              		.set	.LANCHOR2,. + 0
 857              		.type	adcgrpcfg3, %object
 858              		.size	adcgrpcfg3, 48
 859              	adcgrpcfg3:
 860 0000 00       		.byte	0
 861 0001 00       		.space	1
 862 0002 0B00     		.short	11
 863 0004 00000000 		.word	adccallback
 864 0008 00000000 		.word	0
 865 000c 00000000 		.word	0
 866 0010 0000FF0F 		.word	268369920
 867 0014 00000000 		.word	0
 868 0018 20019224 		.word	613548320
 869 001c 24090000 		.word	2340
 870 0020 40203405 		.word	87302208
 871 0024 C681240A 		.word	170164678
 872 0028 0B030000 		.word	779
 873 002c 00000000 		.word	0
 874              		.section	.bss.adc_val11,"aw",%nobits
 875              		.align	1
 876              		.set	.LANCHOR34,. + 0
 877              		.type	adc_val11, %object
 878              		.size	adc_val11, 2
 879              	adc_val11:
 880 0000 0000     		.space	2
 881              		.section	.bss.adc_val12,"aw",%nobits
 882              		.align	1
 883              		.set	.LANCHOR35,. + 0
 884              		.type	adc_val12, %object
 885              		.size	adc_val12, 2
 886              	adc_val12:
 887 0000 0000     		.space	2
 888              		.section	.bss.adc_val9,"aw",%nobits
 889              		.align	1
 890              		.set	.LANCHOR32,. + 0
 891              		.type	adc_val9, %object
 892              		.size	adc_val9, 2
 893              	adc_val9:
 894 0000 0000     		.space	2
 895              		.section	.bss.adc_val14,"aw",%nobits
 896              		.align	1
 897              		.set	.LANCHOR37,. + 0
 898              		.type	adc_val14, %object
 899              		.size	adc_val14, 2
 900              	adc_val14:
 901 0000 0000     		.space	2
 902              		.section	.bss.adc_buff10,"aw",%nobits
 903              		.align	2
ARM GAS  /tmp/ccnR15H2.s 			page 17


 904              		.set	.LANCHOR13,. + 0
 905              		.type	adc_buff10, %object
 906              		.size	adc_buff10, 4
 907              	adc_buff10:
 908 0000 00000000 		.space	4
 909              		.section	.bss.adc_buff11,"aw",%nobits
 910              		.align	2
 911              		.set	.LANCHOR14,. + 0
 912              		.type	adc_buff11, %object
 913              		.size	adc_buff11, 4
 914              	adc_buff11:
 915 0000 00000000 		.space	4
 916              		.section	.bss.adc_buff12,"aw",%nobits
 917              		.align	2
 918              		.set	.LANCHOR15,. + 0
 919              		.type	adc_buff12, %object
 920              		.size	adc_buff12, 4
 921              	adc_buff12:
 922 0000 00000000 		.space	4
 923              		.section	.bss.adc_buff13,"aw",%nobits
 924              		.align	2
 925              		.set	.LANCHOR16,. + 0
 926              		.type	adc_buff13, %object
 927              		.size	adc_buff13, 4
 928              	adc_buff13:
 929 0000 00000000 		.space	4
 930              		.section	.bss.adc_buff14,"aw",%nobits
 931              		.align	2
 932              		.set	.LANCHOR17,. + 0
 933              		.type	adc_buff14, %object
 934              		.size	adc_buff14, 4
 935              	adc_buff14:
 936 0000 00000000 		.space	4
 937              		.section	.bss.adc_buff15,"aw",%nobits
 938              		.align	2
 939              		.set	.LANCHOR18,. + 0
 940              		.type	adc_buff15, %object
 941              		.size	adc_buff15, 4
 942              	adc_buff15:
 943 0000 00000000 		.space	4
 944              		.section	.bss.adc_buff20,"aw",%nobits
 945              		.align	2
 946              		.set	.LANCHOR23,. + 0
 947              		.type	adc_buff20, %object
 948              		.size	adc_buff20, 4
 949              	adc_buff20:
 950 0000 00000000 		.space	4
 951              		.section	.bss.adc_buff17,"aw",%nobits
 952              		.align	2
 953              		.set	.LANCHOR20,. + 0
 954              		.type	adc_buff17, %object
 955              		.size	adc_buff17, 4
 956              	adc_buff17:
 957 0000 00000000 		.space	4
 958              		.section	.bss.adc_buff18,"aw",%nobits
 959              		.align	2
 960              		.set	.LANCHOR21,. + 0
ARM GAS  /tmp/ccnR15H2.s 			page 18


 961              		.type	adc_buff18, %object
 962              		.size	adc_buff18, 4
 963              	adc_buff18:
 964 0000 00000000 		.space	4
 965              		.section	.bss.adc_buff19,"aw",%nobits
 966              		.align	2
 967              		.set	.LANCHOR22,. + 0
 968              		.type	adc_buff19, %object
 969              		.size	adc_buff19, 4
 970              	adc_buff19:
 971 0000 00000000 		.space	4
 972              		.section	.bss.adc_val13,"aw",%nobits
 973              		.align	1
 974              		.set	.LANCHOR36,. + 0
 975              		.type	adc_val13, %object
 976              		.size	adc_val13, 2
 977              	adc_val13:
 978 0000 0000     		.space	2
 979              		.section	.bss.adc_val18,"aw",%nobits
 980              		.align	1
 981              		.set	.LANCHOR41,. + 0
 982              		.type	adc_val18, %object
 983              		.size	adc_val18, 2
 984              	adc_val18:
 985 0000 0000     		.space	2
 986              		.section	.bss.adc_val16,"aw",%nobits
 987              		.align	1
 988              		.set	.LANCHOR39,. + 0
 989              		.type	adc_val16, %object
 990              		.size	adc_val16, 2
 991              	adc_val16:
 992 0000 0000     		.space	2
 993              		.section	.bss.adc_val15,"aw",%nobits
 994              		.align	1
 995              		.set	.LANCHOR38,. + 0
 996              		.type	adc_val15, %object
 997              		.size	adc_val15, 2
 998              	adc_val15:
 999 0000 0000     		.space	2
 1000              		.section	.bss.adc_val2,"aw",%nobits
 1001              		.align	1
 1002              		.set	.LANCHOR25,. + 0
 1003              		.type	adc_val2, %object
 1004              		.size	adc_val2, 2
 1005              	adc_val2:
 1006 0000 0000     		.space	2
 1007              		.section	.bss.adc_val3,"aw",%nobits
 1008              		.align	1
 1009              		.set	.LANCHOR26,. + 0
 1010              		.type	adc_val3, %object
 1011              		.size	adc_val3, 2
 1012              	adc_val3:
 1013 0000 0000     		.space	2
 1014              		.section	.bss.adc_val4,"aw",%nobits
 1015              		.align	1
 1016              		.set	.LANCHOR27,. + 0
 1017              		.type	adc_val4, %object
ARM GAS  /tmp/ccnR15H2.s 			page 19


 1018              		.size	adc_val4, 2
 1019              	adc_val4:
 1020 0000 0000     		.space	2
 1021              		.section	.bss.adc_val5,"aw",%nobits
 1022              		.align	1
 1023              		.set	.LANCHOR28,. + 0
 1024              		.type	adc_val5, %object
 1025              		.size	adc_val5, 2
 1026              	adc_val5:
 1027 0000 0000     		.space	2
 1028              		.section	.bss.adc_val6,"aw",%nobits
 1029              		.align	1
 1030              		.set	.LANCHOR29,. + 0
 1031              		.type	adc_val6, %object
 1032              		.size	adc_val6, 2
 1033              	adc_val6:
 1034 0000 0000     		.space	2
 1035              		.section	.bss.adc_val7,"aw",%nobits
 1036              		.align	1
 1037              		.set	.LANCHOR30,. + 0
 1038              		.type	adc_val7, %object
 1039              		.size	adc_val7, 2
 1040              	adc_val7:
 1041 0000 0000     		.space	2
 1042              		.section	.bss.adc_val8,"aw",%nobits
 1043              		.align	1
 1044              		.set	.LANCHOR31,. + 0
 1045              		.type	adc_val8, %object
 1046              		.size	adc_val8, 2
 1047              	adc_val8:
 1048 0000 0000     		.space	2
 1049              		.section	.bss.samples,"aw",%nobits
 1050              		.align	2
 1051              		.set	.LANCHOR1,. + 0
 1052              		.type	samples, %object
 1053              		.size	samples, 180
 1054              	samples:
 1055 0000 00000000 		.space	180
 1055      00000000 
 1055      00000000 
 1055      00000000 
 1055      00000000 
 1056              		.section	.bss.adc_val,"aw",%nobits
 1057              		.align	1
 1058              		.set	.LANCHOR24,. + 0
 1059              		.type	adc_val, %object
 1060              		.size	adc_val, 2
 1061              	adc_val:
 1062 0000 0000     		.space	2
 1063              		.section	.bss.adc_buff16,"aw",%nobits
 1064              		.align	2
 1065              		.set	.LANCHOR19,. + 0
 1066              		.type	adc_buff16, %object
 1067              		.size	adc_buff16, 4
 1068              	adc_buff16:
 1069 0000 00000000 		.space	4
 1070              		.section	.bss.adc_val17,"aw",%nobits
ARM GAS  /tmp/ccnR15H2.s 			page 20


 1071              		.align	1
 1072              		.set	.LANCHOR40,. + 0
 1073              		.type	adc_val17, %object
 1074              		.size	adc_val17, 2
 1075              	adc_val17:
 1076 0000 0000     		.space	2
 1077              		.section	.bss.adc_buff,"aw",%nobits
 1078              		.align	2
 1079              		.set	.LANCHOR4,. + 0
 1080              		.type	adc_buff, %object
 1081              		.size	adc_buff, 4
 1082              	adc_buff:
 1083 0000 00000000 		.space	4
 1084              		.section	.bss.adc_buff2,"aw",%nobits
 1085              		.align	2
 1086              		.set	.LANCHOR5,. + 0
 1087              		.type	adc_buff2, %object
 1088              		.size	adc_buff2, 4
 1089              	adc_buff2:
 1090 0000 00000000 		.space	4
 1091              		.section	.bss.adc_buff3,"aw",%nobits
 1092              		.align	2
 1093              		.set	.LANCHOR6,. + 0
 1094              		.type	adc_buff3, %object
 1095              		.size	adc_buff3, 4
 1096              	adc_buff3:
 1097 0000 00000000 		.space	4
 1098              		.section	.bss.adc_buff4,"aw",%nobits
 1099              		.align	2
 1100              		.set	.LANCHOR7,. + 0
 1101              		.type	adc_buff4, %object
 1102              		.size	adc_buff4, 4
 1103              	adc_buff4:
 1104 0000 00000000 		.space	4
 1105              		.section	.bss.adc_buff5,"aw",%nobits
 1106              		.align	2
 1107              		.set	.LANCHOR8,. + 0
 1108              		.type	adc_buff5, %object
 1109              		.size	adc_buff5, 4
 1110              	adc_buff5:
 1111 0000 00000000 		.space	4
 1112              		.section	.bss.adc_buff6,"aw",%nobits
 1113              		.align	2
 1114              		.set	.LANCHOR9,. + 0
 1115              		.type	adc_buff6, %object
 1116              		.size	adc_buff6, 4
 1117              	adc_buff6:
 1118 0000 00000000 		.space	4
 1119              		.section	.bss.adc_buff7,"aw",%nobits
 1120              		.align	2
 1121              		.set	.LANCHOR10,. + 0
 1122              		.type	adc_buff7, %object
 1123              		.size	adc_buff7, 4
 1124              	adc_buff7:
 1125 0000 00000000 		.space	4
 1126              		.text
 1127              	.Letext0:
ARM GAS  /tmp/ccnR15H2.s 			page 21


 1128              		.file 2 "/usr/lib/gcc/arm-none-eabi/4.8/include/stddef.h"
 1129              		.file 3 "/usr/include/newlib/machine/_default_types.h"
 1130              		.file 4 "/usr/include/newlib/stdint.h"
 1131              		.file 5 "../../../../os/ports/GCC/ARMCMx/chtypes.h"
 1132              		.file 6 "../../../../os/kernel/include/chlists.h"
 1133              		.file 7 "../../../../os/kernel/include/chthreads.h"
 1134              		.file 8 "../../../../os/ports/GCC/ARMCMx/chcore_v7m.h"
 1135              		.file 9 "../../../../os/kernel/include/chmtx.h"
 1136              		.file 10 "../../../../os/hal/platforms/STM32F30x/stm32f30x.h"
 1137              		.file 11 "../../../../os/hal/platforms/STM32F30x/stm32_dma.h"
 1138              		.file 12 "../../../../os/hal/platforms/STM32/pal_lld.h"
 1139              		.file 13 "../../../../os/hal/include/adc.h"
 1140              		.file 14 "../../../../os/hal/platforms/STM32F30x/adc_lld.h"
 1141              		.file 15 "../../../../os/ports/common/ARMCMx/CMSIS/include/core_cm4.h"