ARM GAS  /tmp/ccVEjULj.s 			page 1


   1              		.syntax unified
   2              		.cpu cortex-m4
   3              		.eabi_attribute 27, 3
   4              		.fpu fpv4-sp-d16
   5              		.eabi_attribute 20, 1
   6              		.eabi_attribute 21, 1
   7              		.eabi_attribute 23, 3
   8              		.eabi_attribute 24, 1
   9              		.eabi_attribute 25, 1
  10              		.eabi_attribute 26, 1
  11              		.eabi_attribute 30, 2
  12              		.eabi_attribute 34, 1
  13              		.eabi_attribute 18, 4
  14              		.thumb
  15              		.file	"can_lld.c"
  16              		.text
  17              	.Ltext0:
  18              		.cfi_sections	.debug_frame
  19              		.section	.text.can_lld_set_filters,"ax",%progbits
  20              		.align	2
  21              		.p2align 4,,15
  22              		.thumb
  23              		.thumb_func
  24              		.type	can_lld_set_filters, %function
  25              	can_lld_set_filters:
  26              	.LFB118:
  27              		.file 1 "../../../../os/hal/platforms/STM32/can_lld.c"
  28              		.loc 1 69 0
  29              		.cfi_startproc
  30              		@ args = 0, pretend = 0, frame = 0
  31              		@ frame_needed = 0, uses_anonymous_args = 0
  32              		@ link register save eliminated.
  33              	.LVL0:
  34 0000 F0B4     		push	{r4, r5, r6, r7}
  35              		.cfi_def_cfa_offset 16
  36              		.cfi_offset 4, -16
  37              		.cfi_offset 5, -12
  38              		.cfi_offset 6, -8
  39              		.cfi_offset 7, -4
  40              		.loc 1 72 0
  41 0002 444C     		ldr	r4, .L22
  42              		.loc 1 75 0
  43 0004 444B     		ldr	r3, .L22+4
  44              		.loc 1 72 0
  45 0006 E569     		ldr	r5, [r4, #28]
  46 0008 45F00075 		orr	r5, r5, #33554432
  47 000c E561     		str	r5, [r4, #28]
  48              		.loc 1 75 0
  49 000e D3F80042 		ldr	r4, [r3, #512]
  50 0012 240C     		lsrs	r4, r4, #16
  51 0014 2404     		lsls	r4, r4, #16
  52 0016 44F00104 		orr	r4, r4, #1
  53 001a 44EA0024 		orr	r4, r4, r0, lsl #8
  54 001e C3F80042 		str	r4, [r3, #512]
  55              		.loc 1 76 0
  56 0022 0029     		cmp	r1, #0
  57 0024 5BD0     		beq	.L2
ARM GAS  /tmp/ccVEjULj.s 			page 2


  58              	.LBB13:
  59              		.loc 1 80 0
  60 0026 0025     		movs	r5, #0
  61 0028 C3F81C52 		str	r5, [r3, #540]
  62              		.loc 1 84 0
  63 002c 2846     		mov	r0, r5
  64              	.LVL1:
  65              		.loc 1 81 0
  66 002e C3F80452 		str	r5, [r3, #516]
  67              		.loc 1 85 0
  68 0032 2C46     		mov	r4, r5
  69              		.loc 1 82 0
  70 0034 C3F80C52 		str	r5, [r3, #524]
  71              		.loc 1 83 0
  72 0038 C3F81452 		str	r5, [r3, #532]
  73              	.LVL2:
  74              	.L4:
  75 003c C300     		lsls	r3, r0, #3
  76 003e 03F18043 		add	r3, r3, #1073741824
  77 0042 03F5C843 		add	r3, r3, #25600
  78              		.loc 1 84 0 discriminator 2
  79 0046 0130     		adds	r0, r0, #1
  80              	.LVL3:
  81 0048 0E28     		cmp	r0, #14
  82              		.loc 1 85 0 discriminator 2
  83 004a C3F84042 		str	r4, [r3, #576]
  84              		.loc 1 86 0 discriminator 2
  85 004e C3F84442 		str	r4, [r3, #580]
  86              		.loc 1 84 0 discriminator 2
  87 0052 F3D1     		bne	.L4
  88              		.loc 1 93 0
  89 0054 304B     		ldr	r3, .L22+4
  90              		.loc 1 84 0
  91 0056 0026     		movs	r6, #0
  92              		.loc 1 91 0
  93 0058 0127     		movs	r7, #1
  94              	.LVL4:
  95              	.L9:
  96 005a 1568     		ldr	r5, [r2]
  97              		.loc 1 92 0
  98 005c 1479     		ldrb	r4, [r2, #4]	@ zero_extendqisi2
  99 005e E800     		lsls	r0, r5, #3
 100 0060 00F18040 		add	r0, r0, #1073741824
 101 0064 14F0010F 		tst	r4, #1
 102 0068 00F5C840 		add	r0, r0, #25600
 103              		.loc 1 90 0
 104 006c 06F10106 		add	r6, r6, #1
 105              	.LVL5:
 106              		.loc 1 91 0
 107 0070 07FA05F5 		lsl	r5, r7, r5
 108              	.LVL6:
 109              		.loc 1 92 0
 110 0074 05D0     		beq	.L5
 111              		.loc 1 93 0
 112 0076 D3F80442 		ldr	r4, [r3, #516]
 113 007a 2C43     		orrs	r4, r4, r5
 114 007c C3F80442 		str	r4, [r3, #516]
ARM GAS  /tmp/ccVEjULj.s 			page 3


 115 0080 1479     		ldrb	r4, [r2, #4]	@ zero_extendqisi2
 116              	.L5:
 117              		.loc 1 94 0
 118 0082 14F0020F 		tst	r4, #2
 119 0086 05D0     		beq	.L6
 120              		.loc 1 95 0
 121 0088 D3F80C42 		ldr	r4, [r3, #524]
 122 008c 2C43     		orrs	r4, r4, r5
 123 008e C3F80C42 		str	r4, [r3, #524]
 124 0092 1479     		ldrb	r4, [r2, #4]	@ zero_extendqisi2
 125              	.L6:
 126              		.loc 1 96 0
 127 0094 6407     		lsls	r4, r4, #29
 128 0096 04D5     		bpl	.L7
 129              		.loc 1 97 0
 130 0098 D3F81442 		ldr	r4, [r3, #532]
 131 009c 2C43     		orrs	r4, r4, r5
 132 009e C3F81442 		str	r4, [r3, #532]
 133              	.L7:
 134              		.loc 1 98 0
 135 00a2 9468     		ldr	r4, [r2, #8]
 136 00a4 C0F84042 		str	r4, [r0, #576]
 137              		.loc 1 99 0
 138 00a8 D468     		ldr	r4, [r2, #12]
 139 00aa C0F84442 		str	r4, [r0, #580]
 140              		.loc 1 100 0
 141 00ae D3F81C02 		ldr	r0, [r3, #540]
 142              		.loc 1 90 0
 143 00b2 8E42     		cmp	r6, r1
 144              		.loc 1 100 0
 145 00b4 45EA0005 		orr	r5, r5, r0
 146              	.LVL7:
 147              		.loc 1 101 0
 148 00b8 02F11002 		add	r2, r2, #16
 149              	.LVL8:
 150              		.loc 1 100 0
 151 00bc C3F81C52 		str	r5, [r3, #540]
 152              		.loc 1 90 0
 153 00c0 CBD1     		bne	.L9
 154              	.LVL9:
 155              	.L8:
 156              	.LBE13:
 157              		.loc 1 116 0
 158 00c2 154A     		ldr	r2, .L22+4
 159              		.loc 1 119 0
 160 00c4 134B     		ldr	r3, .L22
 161              		.loc 1 116 0
 162 00c6 D2F80012 		ldr	r1, [r2, #512]
 163              	.LVL10:
 164 00ca 21F00101 		bic	r1, r1, #1
 165 00ce C2F80012 		str	r1, [r2, #512]
 166              		.loc 1 119 0
 167 00d2 DA69     		ldr	r2, [r3, #28]
 168 00d4 22F00072 		bic	r2, r2, #33554432
 169 00d8 DA61     		str	r2, [r3, #28]
 170              		.loc 1 120 0
 171 00da F0BC     		pop	{r4, r5, r6, r7}
ARM GAS  /tmp/ccVEjULj.s 			page 4


 172 00dc 7047     		bx	lr
 173              	.LVL11:
 174              	.L2:
 175 00de C200     		lsls	r2, r0, #3
 176              	.LVL12:
 177              		.loc 1 113 0
 178 00e0 0124     		movs	r4, #1
 179 00e2 02F18042 		add	r2, r2, #1073741824
 180 00e6 02F5C842 		add	r2, r2, #25600
 181 00ea 04FA00F0 		lsl	r0, r4, r0
 182              	.LVL13:
 183 00ee 2043     		orrs	r0, r0, r4
 184              		.loc 1 107 0
 185 00f0 C3F84012 		str	r1, [r3, #576]
 186              		.loc 1 108 0
 187 00f4 C3F84412 		str	r1, [r3, #580]
 188              		.loc 1 109 0
 189 00f8 C2F84012 		str	r1, [r2, #576]
 190              		.loc 1 110 0
 191 00fc C2F84412 		str	r1, [r2, #580]
 192              		.loc 1 111 0
 193 0100 C3F80412 		str	r1, [r3, #516]
 194              		.loc 1 112 0
 195 0104 C3F81412 		str	r1, [r3, #532]
 196              		.loc 1 113 0
 197 0108 C3F80C02 		str	r0, [r3, #524]
 198              		.loc 1 114 0
 199 010c C3F81C02 		str	r0, [r3, #540]
 200 0110 D7E7     		b	.L8
 201              	.L23:
 202 0112 00BF     		.align	2
 203              	.L22:
 204 0114 00100240 		.word	1073876992
 205 0118 00640040 		.word	1073767424
 206              		.cfi_endproc
 207              	.LFE118:
 208              		.size	can_lld_set_filters, .-can_lld_set_filters
 209 011c AFF30080 		.section	.text.Vector8C,"ax",%progbits
 210              		.align	2
 211              		.p2align 4,,15
 212              		.global	Vector8C
 213              		.thumb
 214              		.thumb_func
 215              		.type	Vector8C, %function
 216              	Vector8C:
 217              	.LFB123:
 218              		.loc 1 248 0
 219              		.cfi_startproc
 220              		@ args = 0, pretend = 0, frame = 0
 221              		@ frame_needed = 0, uses_anonymous_args = 0
 222 0000 10B5     		push	{r4, lr}
 223              		.cfi_def_cfa_offset 8
 224              		.cfi_offset 4, -8
 225              		.cfi_offset 14, -4
 226              	.LBB18:
 227              	.LBB19:
 228              		.loc 1 132 0
ARM GAS  /tmp/ccVEjULj.s 			page 5


 229 0002 114C     		ldr	r4, .L28
 230              	.LBE19:
 231              	.LBE18:
 232              		.loc 1 250 0
 233 0004 FFF7FEFF 		bl	dbg_check_enter_isr
 234              	.LVL14:
 235              	.LBB23:
 236              	.LBB22:
 237              		.loc 1 132 0
 238 0008 636B     		ldr	r3, [r4, #52]
 239 000a 104A     		ldr	r2, .L28+4
 240 000c 9A60     		str	r2, [r3, #8]
 241              	.LBB20:
 242              		.loc 1 133 0
 243 000e 2023     		movs	r3, #32
 244              	@ 133 "../../../../os/hal/platforms/STM32/can_lld.c" 1
 245 0010 83F31188 		msr     BASEPRI, r3
 246              	@ 0 "" 2
 247              		.thumb
 248              	.LBE20:
 249 0014 FFF7FEFF 		bl	dbg_check_lock_from_isr
 250              	.LVL15:
 251              		.loc 1 134 0
 252 0018 2369     		ldr	r3, [r4, #16]
 253 001a 002B     		cmp	r3, #0
 254 001c 05DA     		bge	.L26
 255              	.L27:
 256              		.loc 1 135 0
 257 001e 0C48     		ldr	r0, .L28+8
 258 0020 FFF7FEFF 		bl	chSemSignalI
 259              	.LVL16:
 260              		.loc 1 134 0
 261 0024 2369     		ldr	r3, [r4, #16]
 262 0026 002B     		cmp	r3, #0
 263 0028 F9DB     		blt	.L27
 264              	.L26:
 265              		.loc 1 136 0
 266 002a 0A48     		ldr	r0, .L28+12
 267 002c 0121     		movs	r1, #1
 268 002e FFF7FEFF 		bl	chEvtBroadcastFlagsI
 269              	.LVL17:
 270              		.loc 1 137 0
 271 0032 FFF7FEFF 		bl	dbg_check_unlock_from_isr
 272              	.LVL18:
 273              	.LBB21:
 274 0036 0023     		movs	r3, #0
 275              	@ 137 "../../../../os/hal/platforms/STM32/can_lld.c" 1
 276 0038 83F31188 		msr     BASEPRI, r3
 277              	@ 0 "" 2
 278              		.thumb
 279              	.LBE21:
 280              	.LBE22:
 281              	.LBE23:
 282              		.loc 1 254 0
 283 003c FFF7FEFF 		bl	dbg_check_leave_isr
 284              	.LVL19:
 285              		.loc 1 255 0
ARM GAS  /tmp/ccVEjULj.s 			page 6


 286 0040 BDE81040 		pop	{r4, lr}
 287              		.loc 1 254 0
 288 0044 FFF7FEBF 		b	_port_irq_epilogue
 289              	.LVL20:
 290              	.L29:
 291              		.align	2
 292              	.L28:
 293 0048 00000000 		.word	.LANCHOR0
 294 004c 01010100 		.word	65793
 295 0050 08000000 		.word	.LANCHOR0+8
 296 0054 24000000 		.word	.LANCHOR0+36
 297              		.cfi_endproc
 298              	.LFE123:
 299              		.size	Vector8C, .-Vector8C
 300 0058 AFF30080 		.section	.text.Vector94,"ax",%progbits
 300      AFF30080 
 301              		.align	2
 302              		.p2align 4,,15
 303              		.global	Vector94
 304              		.thumb
 305              		.thumb_func
 306              		.type	Vector94, %function
 307              	Vector94:
 308              	.LFB124:
 309              		.loc 1 277 0
 310              		.cfi_startproc
 311              		@ args = 0, pretend = 0, frame = 0
 312              		@ frame_needed = 0, uses_anonymous_args = 0
 313 0000 38B5     		push	{r3, r4, r5, lr}
 314              		.cfi_def_cfa_offset 16
 315              		.cfi_offset 3, -16
 316              		.cfi_offset 4, -12
 317              		.cfi_offset 5, -8
 318              		.cfi_offset 14, -4
 319              	.LBB30:
 320              	.LBB31:
 321              		.loc 1 179 0
 322 0002 1E4C     		ldr	r4, .L43
 323              	.LBE31:
 324              	.LBE30:
 325              		.loc 1 279 0
 326 0004 FFF7FEFF 		bl	dbg_check_enter_isr
 327              	.LVL21:
 328              	.LBB38:
 329              	.LBB36:
 330              		.loc 1 179 0
 331 0008 636B     		ldr	r3, [r4, #52]
 332 000a 1D69     		ldr	r5, [r3, #16]
 333              	.LVL22:
 334              		.loc 1 180 0
 335 000c AA07     		lsls	r2, r5, #30
 336 000e 18D1     		bne	.L42
 337              	.L31:
 338              		.loc 1 189 0
 339 0010 EB06     		lsls	r3, r5, #27
 340 0012 10D5     		bpl	.L35
 341              		.loc 1 191 0
ARM GAS  /tmp/ccVEjULj.s 			page 7


 342 0014 636B     		ldr	r3, [r4, #52]
 343 0016 1024     		movs	r4, #16
 344 0018 1C61     		str	r4, [r3, #16]
 345              	.LBB32:
 346              		.loc 1 192 0
 347 001a 2023     		movs	r3, #32
 348              	@ 192 "../../../../os/hal/platforms/STM32/can_lld.c" 1
 349 001c 83F31188 		msr     BASEPRI, r3
 350              	@ 0 "" 2
 351              		.thumb
 352              	.LBE32:
 353 0020 FFF7FEFF 		bl	dbg_check_lock_from_isr
 354              	.LVL23:
 355              		.loc 1 193 0
 356 0024 2146     		mov	r1, r4
 357 0026 1648     		ldr	r0, .L43+4
 358 0028 FFF7FEFF 		bl	chEvtBroadcastFlagsI
 359              	.LVL24:
 360              		.loc 1 194 0
 361 002c FFF7FEFF 		bl	dbg_check_unlock_from_isr
 362              	.LVL25:
 363              	.LBB33:
 364 0030 0023     		movs	r3, #0
 365              	@ 194 "../../../../os/hal/platforms/STM32/can_lld.c" 1
 366 0032 83F31188 		msr     BASEPRI, r3
 367              	@ 0 "" 2
 368              		.thumb
 369              	.L35:
 370              	.LBE33:
 371              	.LBE36:
 372              	.LBE38:
 373              		.loc 1 283 0
 374 0036 FFF7FEFF 		bl	dbg_check_leave_isr
 375              	.LVL26:
 376              		.loc 1 284 0
 377 003a BDE83840 		pop	{r3, r4, r5, lr}
 378              	.LVL27:
 379              		.loc 1 283 0
 380 003e FFF7FEBF 		b	_port_irq_epilogue
 381              	.LVL28:
 382              	.L42:
 383              	.LBB39:
 384              	.LBB37:
 385              		.loc 1 182 0
 386 0042 5A69     		ldr	r2, [r3, #20]
 387 0044 22F01002 		bic	r2, r2, #16
 388 0048 5A61     		str	r2, [r3, #20]
 389              	.LBB34:
 390              		.loc 1 183 0
 391 004a 2023     		movs	r3, #32
 392              	@ 183 "../../../../os/hal/platforms/STM32/can_lld.c" 1
 393 004c 83F31188 		msr     BASEPRI, r3
 394              	@ 0 "" 2
 395              		.thumb
 396              	.LBE34:
 397 0050 FFF7FEFF 		bl	dbg_check_lock_from_isr
 398              	.LVL29:
ARM GAS  /tmp/ccVEjULj.s 			page 8


 399              		.loc 1 184 0
 400 0054 E369     		ldr	r3, [r4, #28]
 401 0056 002B     		cmp	r3, #0
 402 0058 05DA     		bge	.L33
 403              	.L34:
 404              		.loc 1 185 0
 405 005a 0A48     		ldr	r0, .L43+8
 406 005c FFF7FEFF 		bl	chSemSignalI
 407              	.LVL30:
 408              		.loc 1 184 0
 409 0060 E369     		ldr	r3, [r4, #28]
 410 0062 002B     		cmp	r3, #0
 411 0064 F9DB     		blt	.L34
 412              	.L33:
 413              		.loc 1 186 0
 414 0066 0848     		ldr	r0, .L43+12
 415 0068 0221     		movs	r1, #2
 416 006a FFF7FEFF 		bl	chEvtBroadcastFlagsI
 417              	.LVL31:
 418              		.loc 1 187 0
 419 006e FFF7FEFF 		bl	dbg_check_unlock_from_isr
 420              	.LVL32:
 421              	.LBB35:
 422 0072 0023     		movs	r3, #0
 423              	@ 187 "../../../../os/hal/platforms/STM32/can_lld.c" 1
 424 0074 83F31188 		msr     BASEPRI, r3
 425              	@ 0 "" 2
 426              		.thumb
 427 0078 CAE7     		b	.L31
 428              	.L44:
 429 007a 00BF     		.align	2
 430              	.L43:
 431 007c 00000000 		.word	.LANCHOR0
 432 0080 28000000 		.word	.LANCHOR0+40
 433 0084 14000000 		.word	.LANCHOR0+20
 434 0088 20000000 		.word	.LANCHOR0+32
 435              	.LBE35:
 436              	.LBE37:
 437              	.LBE39:
 438              		.cfi_endproc
 439              	.LFE124:
 440              		.size	Vector94, .-Vector94
 441 008c AFF30080 		.section	.text.Vector98,"ax",%progbits
 442              		.align	2
 443              		.p2align 4,,15
 444              		.global	Vector98
 445              		.thumb
 446              		.thumb_func
 447              		.type	Vector98, %function
 448              	Vector98:
 449              	.LFB125:
 450              		.loc 1 291 0
 451              		.cfi_startproc
 452              		@ args = 0, pretend = 0, frame = 0
 453              		@ frame_needed = 0, uses_anonymous_args = 0
 454 0000 38B5     		push	{r3, r4, r5, lr}
 455              		.cfi_def_cfa_offset 16
ARM GAS  /tmp/ccVEjULj.s 			page 9


 456              		.cfi_offset 3, -16
 457              		.cfi_offset 4, -12
 458              		.cfi_offset 5, -8
 459              		.cfi_offset 14, -4
 460              	.LBB47:
 461              	.LBB48:
 462              		.loc 1 208 0
 463 0002 214C     		ldr	r4, .L59
 464              	.LBE48:
 465              	.LBE47:
 466              		.loc 1 293 0
 467 0004 FFF7FEFF 		bl	dbg_check_enter_isr
 468              	.LVL33:
 469              	.LBB57:
 470              	.LBB55:
 471              		.loc 1 208 0
 472 0008 626B     		ldr	r2, [r4, #52]
 473 000a 5568     		ldr	r5, [r2, #4]
 474              	.LVL34:
 475              		.loc 1 209 0
 476 000c 1C23     		movs	r3, #28
 477              		.loc 1 212 0
 478 000e 2907     		lsls	r1, r5, #28
 479              		.loc 1 209 0
 480 0010 5360     		str	r3, [r2, #4]
 481              		.loc 1 212 0
 482 0012 23D4     		bmi	.L58
 483              	.L46:
 484              		.loc 1 221 0
 485 0014 6B07     		lsls	r3, r5, #29
 486 0016 1BD5     		bpl	.L47
 487              	.LBB49:
 488              		.loc 1 223 0
 489 0018 636B     		ldr	r3, [r4, #52]
 490 001a 9C69     		ldr	r4, [r3, #24]
 491              	.LVL35:
 492              		.loc 1 225 0
 493 001c 9A69     		ldr	r2, [r3, #24]
 494              		.loc 1 226 0
 495 001e 04F00705 		and	r5, r4, #7
 496              	.LVL36:
 497              		.loc 1 225 0
 498 0022 22F07002 		bic	r2, r2, #112
 499              		.loc 1 227 0
 500 0026 14F0700F 		tst	r4, #112
 501              		.loc 1 225 0
 502 002a 9A61     		str	r2, [r3, #24]
 503              		.loc 1 228 0
 504 002c 18BF     		it	ne
 505 002e 45F00805 		orrne	r5, r5, #8
 506              	.LVL37:
 507              	.LBB50:
 508              		.loc 1 230 0
 509 0032 2023     		movs	r3, #32
 510              	@ 230 "../../../../os/hal/platforms/STM32/can_lld.c" 1
 511 0034 83F31188 		msr     BASEPRI, r3
 512              	@ 0 "" 2
ARM GAS  /tmp/ccVEjULj.s 			page 10


 513              		.thumb
 514              	.LBE50:
 515 0038 FFF7FEFF 		bl	dbg_check_lock_from_isr
 516              	.LVL38:
 517              		.loc 1 233 0
 518 003c 45EA0441 		orr	r1, r5, r4, lsl #16
 519 0040 1248     		ldr	r0, .L59+4
 520 0042 FFF7FEFF 		bl	chEvtBroadcastFlagsI
 521              	.LVL39:
 522              		.loc 1 234 0
 523 0046 FFF7FEFF 		bl	dbg_check_unlock_from_isr
 524              	.LVL40:
 525              	.LBB51:
 526 004a 0023     		movs	r3, #0
 527              	@ 234 "../../../../os/hal/platforms/STM32/can_lld.c" 1
 528 004c 83F31188 		msr     BASEPRI, r3
 529              	@ 0 "" 2
 530              	.LVL41:
 531              		.thumb
 532              	.L47:
 533              	.LBE51:
 534              	.LBE49:
 535              	.LBE55:
 536              	.LBE57:
 537              		.loc 1 297 0
 538 0050 FFF7FEFF 		bl	dbg_check_leave_isr
 539              	.LVL42:
 540              		.loc 1 298 0
 541 0054 BDE83840 		pop	{r3, r4, r5, lr}
 542              		.loc 1 297 0
 543 0058 FFF7FEBF 		b	_port_irq_epilogue
 544              	.LVL43:
 545              	.L58:
 546              	.LBB58:
 547              	.LBB56:
 548              		.loc 1 214 0
 549 005c 1168     		ldr	r1, [r2]
 550              		.loc 1 213 0
 551 005e 0323     		movs	r3, #3
 552              		.loc 1 214 0
 553 0060 21F00201 		bic	r1, r1, #2
 554              		.loc 1 213 0
 555 0064 2370     		strb	r3, [r4]
 556              	.LBB52:
 557              		.loc 1 215 0
 558 0066 2023     		movs	r3, #32
 559              	.LBE52:
 560              		.loc 1 214 0
 561 0068 1160     		str	r1, [r2]
 562              	.LBB53:
 563              		.loc 1 215 0
 564              	@ 215 "../../../../os/hal/platforms/STM32/can_lld.c" 1
 565 006a 83F31188 		msr     BASEPRI, r3
 566              	@ 0 "" 2
 567              		.thumb
 568              	.LBE53:
 569 006e FFF7FEFF 		bl	dbg_check_lock_from_isr
ARM GAS  /tmp/ccVEjULj.s 			page 11


 570              	.LVL44:
 571              		.loc 1 216 0
 572 0072 04F13000 		add	r0, r4, #48
 573 0076 0021     		movs	r1, #0
 574 0078 FFF7FEFF 		bl	chEvtBroadcastFlagsI
 575              	.LVL45:
 576              		.loc 1 217 0
 577 007c FFF7FEFF 		bl	dbg_check_unlock_from_isr
 578              	.LVL46:
 579              	.LBB54:
 580 0080 0023     		movs	r3, #0
 581              	@ 217 "../../../../os/hal/platforms/STM32/can_lld.c" 1
 582 0082 83F31188 		msr     BASEPRI, r3
 583              	@ 0 "" 2
 584              		.thumb
 585 0086 C5E7     		b	.L46
 586              	.L60:
 587              		.align	2
 588              	.L59:
 589 0088 00000000 		.word	.LANCHOR0
 590 008c 28000000 		.word	.LANCHOR0+40
 591              	.LBE54:
 592              	.LBE56:
 593              	.LBE58:
 594              		.cfi_endproc
 595              	.LFE125:
 596              		.size	Vector98, .-Vector98
 597              		.section	.text.can_lld_init,"ax",%progbits
 598              		.align	2
 599              		.p2align 4,,15
 600              		.global	can_lld_init
 601              		.thumb
 602              		.thumb_func
 603              		.type	can_lld_init, %function
 604              	can_lld_init:
 605              	.LFB126:
 606              		.loc 1 368 0
 607              		.cfi_startproc
 608              		@ args = 0, pretend = 0, frame = 0
 609              		@ frame_needed = 0, uses_anonymous_args = 0
 610 0000 10B5     		push	{r4, lr}
 611              		.cfi_def_cfa_offset 8
 612              		.cfi_offset 4, -8
 613              		.cfi_offset 14, -4
 614              		.loc 1 372 0
 615 0002 064C     		ldr	r4, .L62
 616 0004 2046     		mov	r0, r4
 617 0006 FFF7FEFF 		bl	canObjectInit
 618              	.LVL47:
 619              		.loc 1 385 0
 620 000a 0021     		movs	r1, #0
 621              		.loc 1 373 0
 622 000c 044B     		ldr	r3, .L62+4
 623 000e 6363     		str	r3, [r4, #52]
 624              		.loc 1 385 0
 625 0010 0A46     		mov	r2, r1
 626 0012 0E20     		movs	r0, #14
ARM GAS  /tmp/ccVEjULj.s 			page 12


 627              		.loc 1 388 0
 628 0014 BDE81040 		pop	{r4, lr}
 629              		.loc 1 385 0
 630 0018 FFF7FEBF 		b	can_lld_set_filters
 631              	.LVL48:
 632              	.L63:
 633              		.align	2
 634              	.L62:
 635 001c 00000000 		.word	.LANCHOR0
 636 0020 00640040 		.word	1073767424
 637              		.cfi_endproc
 638              	.LFE126:
 639              		.size	can_lld_init, .-can_lld_init
 640 0024 AFF30080 		.section	.text.can_lld_start,"ax",%progbits
 640      AFF30080 
 640      AFF30080 
 641              		.align	2
 642              		.p2align 4,,15
 643              		.global	can_lld_start
 644              		.thumb
 645              		.thumb_func
 646              		.type	can_lld_start, %function
 647              	can_lld_start:
 648              	.LFB127:
 649              		.loc 1 397 0
 650              		.cfi_startproc
 651              		@ args = 0, pretend = 0, frame = 0
 652              		@ frame_needed = 0, uses_anonymous_args = 0
 653              	.LVL49:
 654              		.loc 1 401 0
 655 0000 194B     		ldr	r3, .L69
 656 0002 9842     		cmp	r0, r3
 657              		.loc 1 397 0
 658 0004 10B5     		push	{r4, lr}
 659              		.cfi_def_cfa_offset 8
 660              		.cfi_offset 4, -8
 661              		.cfi_offset 14, -4
 662              		.loc 1 397 0
 663 0006 0446     		mov	r4, r0
 664              		.loc 1 401 0
 665 0008 17D0     		beq	.L68
 666              	.LVL50:
 667              	.L65:
 668              		.loc 1 433 0
 669 000a 636B     		ldr	r3, [r4, #52]
 670              		.loc 1 432 0
 671 000c 0221     		movs	r1, #2
 672              		.loc 1 433 0
 673 000e 0122     		movs	r2, #1
 674              		.loc 1 432 0
 675 0010 2170     		strb	r1, [r4]
 676              		.loc 1 433 0
 677 0012 1A60     		str	r2, [r3]
 678              		.loc 1 434 0
 679 0014 5A68     		ldr	r2, [r3, #4]
 680 0016 D107     		lsls	r1, r2, #31
 681 0018 07D4     		bmi	.L66
ARM GAS  /tmp/ccVEjULj.s 			page 13


 682              	.L67:
 683              		.loc 1 435 0
 684 001a 0620     		movs	r0, #6
 685 001c 0121     		movs	r1, #1
 686 001e FFF7FEFF 		bl	chSchGoSleepTimeoutS
 687              	.LVL51:
 688              		.loc 1 434 0
 689 0022 636B     		ldr	r3, [r4, #52]
 690 0024 5A68     		ldr	r2, [r3, #4]
 691 0026 D207     		lsls	r2, r2, #31
 692 0028 F7D5     		bpl	.L67
 693              	.L66:
 694              		.loc 1 437 0
 695 002a 6268     		ldr	r2, [r4, #4]
 696              		.loc 1 442 0
 697 002c 0F49     		ldr	r1, .L69+4
 698              		.loc 1 437 0
 699 002e 5068     		ldr	r0, [r2, #4]
 700              		.loc 1 439 0
 701 0030 1268     		ldr	r2, [r2]
 702              		.loc 1 437 0
 703 0032 D861     		str	r0, [r3, #28]
 704              		.loc 1 439 0
 705 0034 1A60     		str	r2, [r3]
 706              		.loc 1 442 0
 707 0036 5961     		str	r1, [r3, #20]
 708 0038 10BD     		pop	{r4, pc}
 709              	.LVL52:
 710              	.L68:
 711              		.loc 1 402 0
 712 003a 1320     		movs	r0, #19
 713              	.LVL53:
 714 003c B021     		movs	r1, #176
 715 003e FFF7FEFF 		bl	nvicEnableVector
 716              	.LVL54:
 717              		.loc 1 404 0
 718 0042 1420     		movs	r0, #20
 719 0044 B021     		movs	r1, #176
 720 0046 FFF7FEFF 		bl	nvicEnableVector
 721              	.LVL55:
 722              		.loc 1 406 0
 723 004a 1520     		movs	r0, #21
 724 004c B021     		movs	r1, #176
 725 004e FFF7FEFF 		bl	nvicEnableVector
 726              	.LVL56:
 727              		.loc 1 408 0
 728 0052 1620     		movs	r0, #22
 729 0054 B021     		movs	r1, #176
 730 0056 FFF7FEFF 		bl	nvicEnableVector
 731              	.LVL57:
 732              		.loc 1 410 0
 733 005a 054B     		ldr	r3, .L69+8
 734 005c DA69     		ldr	r2, [r3, #28]
 735 005e 42F00072 		orr	r2, r2, #33554432
 736 0062 DA61     		str	r2, [r3, #28]
 737 0064 D1E7     		b	.L65
 738              	.L70:
ARM GAS  /tmp/ccVEjULj.s 			page 14


 739 0066 00BF     		.align	2
 740              	.L69:
 741 0068 00000000 		.word	.LANCHOR0
 742 006c 5B8F0100 		.word	102235
 743 0070 00100240 		.word	1073876992
 744              		.cfi_endproc
 745              	.LFE127:
 746              		.size	can_lld_start, .-can_lld_start
 747 0074 AFF30080 		.section	.text.can_lld_stop,"ax",%progbits
 747      AFF30080 
 747      AFF30080 
 748              		.align	2
 749              		.p2align 4,,15
 750              		.global	can_lld_stop
 751              		.thumb
 752              		.thumb_func
 753              		.type	can_lld_stop, %function
 754              	can_lld_stop:
 755              	.LFB128:
 756              		.loc 1 455 0
 757              		.cfi_startproc
 758              		@ args = 0, pretend = 0, frame = 0
 759              		@ frame_needed = 0, uses_anonymous_args = 0
 760              	.LVL58:
 761 0000 08B5     		push	{r3, lr}
 762              		.cfi_def_cfa_offset 8
 763              		.cfi_offset 3, -8
 764              		.cfi_offset 14, -4
 765              		.loc 1 458 0
 766 0002 0378     		ldrb	r3, [r0]	@ zero_extendqisi2
 767 0004 032B     		cmp	r3, #3
 768 0006 00D0     		beq	.L73
 769              	.LVL59:
 770              	.L71:
 771 0008 08BD     		pop	{r3, pc}
 772              	.LVL60:
 773              	.L73:
 774              		.loc 1 460 0
 775 000a 0D4B     		ldr	r3, .L74
 776 000c 9842     		cmp	r0, r3
 777 000e FBD1     		bne	.L71
 778              		.loc 1 467 0
 779 0010 0C4B     		ldr	r3, .L74+4
 780 0012 0D4A     		ldr	r2, .L74+8
 781 0014 1A60     		str	r2, [r3]
 782              		.loc 1 468 0
 783 0016 0022     		movs	r2, #0
 784 0018 5A61     		str	r2, [r3, #20]
 785              		.loc 1 469 0
 786 001a 1320     		movs	r0, #19
 787              	.LVL61:
 788 001c FFF7FEFF 		bl	nvicDisableVector
 789              	.LVL62:
 790              		.loc 1 470 0
 791 0020 1420     		movs	r0, #20
 792 0022 FFF7FEFF 		bl	nvicDisableVector
 793              	.LVL63:
ARM GAS  /tmp/ccVEjULj.s 			page 15


 794              		.loc 1 471 0
 795 0026 1520     		movs	r0, #21
 796 0028 FFF7FEFF 		bl	nvicDisableVector
 797              	.LVL64:
 798              		.loc 1 472 0
 799 002c 1620     		movs	r0, #22
 800 002e FFF7FEFF 		bl	nvicDisableVector
 801              	.LVL65:
 802              		.loc 1 473 0
 803 0032 064B     		ldr	r3, .L74+12
 804 0034 DA69     		ldr	r2, [r3, #28]
 805 0036 22F00072 		bic	r2, r2, #33554432
 806 003a DA61     		str	r2, [r3, #28]
 807 003c E4E7     		b	.L71
 808              	.L75:
 809 003e 00BF     		.align	2
 810              	.L74:
 811 0040 00000000 		.word	.LANCHOR0
 812 0044 00640040 		.word	1073767424
 813 0048 02000100 		.word	65538
 814 004c 00100240 		.word	1073876992
 815              		.cfi_endproc
 816              	.LFE128:
 817              		.size	can_lld_stop, .-can_lld_stop
 818              		.section	.text.can_lld_is_tx_empty,"ax",%progbits
 819              		.align	2
 820              		.p2align 4,,15
 821              		.global	can_lld_is_tx_empty
 822              		.thumb
 823              		.thumb_func
 824              		.type	can_lld_is_tx_empty, %function
 825              	can_lld_is_tx_empty:
 826              	.LFB129:
 827              		.loc 1 502 0
 828              		.cfi_startproc
 829              		@ args = 0, pretend = 0, frame = 0
 830              		@ frame_needed = 0, uses_anonymous_args = 0
 831              		@ link register save eliminated.
 832              	.LVL66:
 833              		.loc 1 504 0
 834 0000 0329     		cmp	r1, #3
 835 0002 1AD8     		bhi	.L83
 836 0004 DFE801F0 		tbb	[pc, r1]
 837              	.L79:
 838 0008 11       		.byte	(.L78-.L79)/2
 839 0009 0C       		.byte	(.L80-.L79)/2
 840 000a 07       		.byte	(.L81-.L79)/2
 841 000b 02       		.byte	(.L82-.L79)/2
 842              		.p2align 1
 843              	.L82:
 844              		.loc 1 512 0
 845 000c 436B     		ldr	r3, [r0, #52]
 846 000e 9868     		ldr	r0, [r3, #8]
 847              	.LVL67:
 848 0010 C0F30070 		ubfx	r0, r0, #28, #1
 849 0014 7047     		bx	lr
 850              	.LVL68:
ARM GAS  /tmp/ccVEjULj.s 			page 16


 851              	.L81:
 852              		.loc 1 510 0
 853 0016 436B     		ldr	r3, [r0, #52]
 854 0018 9868     		ldr	r0, [r3, #8]
 855              	.LVL69:
 856 001a C0F3C060 		ubfx	r0, r0, #27, #1
 857 001e 7047     		bx	lr
 858              	.LVL70:
 859              	.L80:
 860              		.loc 1 508 0
 861 0020 436B     		ldr	r3, [r0, #52]
 862 0022 9868     		ldr	r0, [r3, #8]
 863              	.LVL71:
 864 0024 C0F38060 		ubfx	r0, r0, #26, #1
 865 0028 7047     		bx	lr
 866              	.LVL72:
 867              	.L78:
 868              		.loc 1 506 0
 869 002a 436B     		ldr	r3, [r0, #52]
 870 002c 9B68     		ldr	r3, [r3, #8]
 871 002e 13F0E05F 		tst	r3, #469762048
 872 0032 0CBF     		ite	eq
 873 0034 0020     		moveq	r0, #0
 874 0036 0120     		movne	r0, #1
 875              	.LVL73:
 876 0038 7047     		bx	lr
 877              	.LVL74:
 878              	.L83:
 879              		.loc 1 514 0
 880 003a 0020     		movs	r0, #0
 881              	.LVL75:
 882              		.loc 1 516 0
 883 003c 7047     		bx	lr
 884              		.cfi_endproc
 885              	.LFE129:
 886              		.size	can_lld_is_tx_empty, .-can_lld_is_tx_empty
 887 003e 00BF     		.section	.text.can_lld_transmit,"ax",%progbits
 888              		.align	2
 889              		.p2align 4,,15
 890              		.global	can_lld_transmit
 891              		.thumb
 892              		.thumb_func
 893              		.type	can_lld_transmit, %function
 894              	can_lld_transmit:
 895              	.LFB130:
 896              		.loc 1 529 0
 897              		.cfi_startproc
 898              		@ args = 0, pretend = 0, frame = 0
 899              		@ frame_needed = 0, uses_anonymous_args = 0
 900              		@ link register save eliminated.
 901              	.LVL76:
 902 0000 10B4     		push	{r4}
 903              		.cfi_def_cfa_offset 4
 904              		.cfi_offset 4, -4
 905              		.loc 1 534 0
 906 0002 0329     		cmp	r1, #3
 907 0004 1BD8     		bhi	.L84
ARM GAS  /tmp/ccVEjULj.s 			page 17


 908 0006 DFE801F0 		tbb	[pc, r1]
 909              	.L87:
 910 000a 2E       		.byte	(.L86-.L87)/2
 911 000b 2A       		.byte	(.L88-.L87)/2
 912 000c 1D       		.byte	(.L89-.L87)/2
 913 000d 02       		.byte	(.L90-.L87)/2
 914              		.p2align 1
 915              	.L90:
 916              		.loc 1 545 0
 917 000e 436B     		ldr	r3, [r0, #52]
 918 0010 03F5D073 		add	r3, r3, #416
 919              	.LVL77:
 920              	.L91:
 921              		.loc 1 552 0
 922 0014 1178     		ldrb	r1, [r2]	@ zero_extendqisi2
 923 0016 8806     		lsls	r0, r1, #26
 924              	.LVL78:
 925 0018 1AD5     		bpl	.L92
 926              	.L94:
 927              		.loc 1 553 0
 928 001a C1F30010 		ubfx	r0, r1, #4, #1
 929 001e 5468     		ldr	r4, [r2, #4]
 930 0020 4000     		lsls	r0, r0, #1
 931 0022 40EAC400 		orr	r0, r0, r4, lsl #3
 932 0026 40F00400 		orr	r0, r0, #4
 933              	.LVL79:
 934              	.L93:
 935              		.loc 1 557 0
 936 002a 01F00F01 		and	r1, r1, #15
 937 002e 5960     		str	r1, [r3, #4]
 938              		.loc 1 558 0
 939 0030 9168     		ldr	r1, [r2, #8]
 940 0032 9960     		str	r1, [r3, #8]
 941              		.loc 1 559 0
 942 0034 D268     		ldr	r2, [r2, #12]
 943              	.LVL80:
 944 0036 DA60     		str	r2, [r3, #12]
 945              		.loc 1 560 0
 946 0038 40F00101 		orr	r1, r0, #1
 947 003c 1960     		str	r1, [r3]
 948              	.LVL81:
 949              	.L84:
 950              		.loc 1 561 0
 951 003e 5DF8044B 		ldr	r4, [sp], #4
 952 0042 7047     		bx	lr
 953              	.LVL82:
 954              	.L89:
 955              		.loc 1 552 0
 956 0044 1178     		ldrb	r1, [r2]	@ zero_extendqisi2
 957              	.LVL83:
 958              		.loc 1 542 0
 959 0046 436B     		ldr	r3, [r0, #52]
 960              		.loc 1 552 0
 961 0048 8806     		lsls	r0, r1, #26
 962              	.LVL84:
 963              		.loc 1 542 0
 964 004a 03F5C873 		add	r3, r3, #400
ARM GAS  /tmp/ccVEjULj.s 			page 18


 965              	.LVL85:
 966              		.loc 1 552 0
 967 004e E4D4     		bmi	.L94
 968              	.L92:
 969              		.loc 1 556 0
 970 0050 9488     		ldrh	r4, [r2, #4]
 971 0052 C1F30010 		ubfx	r0, r1, #4, #1
 972 0056 6405     		lsls	r4, r4, #21
 973 0058 44EA4000 		orr	r0, r4, r0, lsl #1
 974              	.LVL86:
 975 005c E5E7     		b	.L93
 976              	.LVL87:
 977              	.L88:
 978              		.loc 1 539 0
 979 005e 436B     		ldr	r3, [r0, #52]
 980 0060 03F5C073 		add	r3, r3, #384
 981              	.LVL88:
 982              		.loc 1 540 0
 983 0064 D6E7     		b	.L91
 984              	.LVL89:
 985              	.L86:
 986              		.loc 1 536 0
 987 0066 416B     		ldr	r1, [r0, #52]
 988              	.LVL90:
 989 0068 8B68     		ldr	r3, [r1, #8]
 990 006a C3F30163 		ubfx	r3, r3, #24, #2
 991 006e 1833     		adds	r3, r3, #24
 992 0070 01EB0313 		add	r3, r1, r3, lsl #4
 993              	.LVL91:
 994              		.loc 1 537 0
 995 0074 CEE7     		b	.L91
 996              		.cfi_endproc
 997              	.LFE130:
 998              		.size	can_lld_transmit, .-can_lld_transmit
 999 0076 00BFAFF3 		.section	.text.can_lld_is_rx_nonempty,"ax",%progbits
 999      0080AFF3 
 999      0080
 1000              		.align	2
 1001              		.p2align 4,,15
 1002              		.global	can_lld_is_rx_nonempty
 1003              		.thumb
 1004              		.thumb_func
 1005              		.type	can_lld_is_rx_nonempty, %function
 1006              	can_lld_is_rx_nonempty:
 1007              	.LFB131:
 1008              		.loc 1 575 0
 1009              		.cfi_startproc
 1010              		@ args = 0, pretend = 0, frame = 0
 1011              		@ frame_needed = 0, uses_anonymous_args = 0
 1012              		@ link register save eliminated.
 1013              	.LVL92:
 1014              		.loc 1 577 0
 1015 0000 0129     		cmp	r1, #1
 1016 0002 11D0     		beq	.L97
 1017 0004 0AD3     		bcc	.L98
 1018 0006 0229     		cmp	r1, #2
 1019 0008 06D1     		bne	.L105
ARM GAS  /tmp/ccVEjULj.s 			page 19


 1020              		.loc 1 584 0
 1021 000a 436B     		ldr	r3, [r0, #52]
 1022              	.L104:
 1023 000c 1869     		ldr	r0, [r3, #16]
 1024              	.LVL93:
 1025 000e 10F00300 		ands	r0, r0, #3
 1026 0012 18BF     		it	ne
 1027 0014 0120     		movne	r0, #1
 1028 0016 7047     		bx	lr
 1029              	.LVL94:
 1030              	.L105:
 1031              		.loc 1 586 0
 1032 0018 0020     		movs	r0, #0
 1033              	.LVL95:
 1034              		.loc 1 588 0
 1035 001a 7047     		bx	lr
 1036              	.LVL96:
 1037              	.L98:
 1038              		.loc 1 579 0
 1039 001c 436B     		ldr	r3, [r0, #52]
 1040 001e DA68     		ldr	r2, [r3, #12]
 1041 0020 9207     		lsls	r2, r2, #30
 1042 0022 F3D0     		beq	.L104
 1043 0024 0120     		movs	r0, #1
 1044              	.LVL97:
 1045 0026 7047     		bx	lr
 1046              	.LVL98:
 1047              	.L97:
 1048              		.loc 1 582 0
 1049 0028 436B     		ldr	r3, [r0, #52]
 1050 002a D868     		ldr	r0, [r3, #12]
 1051              	.LVL99:
 1052 002c 10F00300 		ands	r0, r0, #3
 1053 0030 18BF     		it	ne
 1054 0032 0120     		movne	r0, #1
 1055 0034 7047     		bx	lr
 1056              		.cfi_endproc
 1057              	.LFE131:
 1058              		.size	can_lld_is_rx_nonempty, .-can_lld_is_rx_nonempty
 1059 0036 00BFAFF3 		.section	.text.can_lld_receive,"ax",%progbits
 1059      0080AFF3 
 1059      0080
 1060              		.align	2
 1061              		.p2align 4,,15
 1062              		.global	can_lld_receive
 1063              		.thumb
 1064              		.thumb_func
 1065              		.type	can_lld_receive, %function
 1066              	can_lld_receive:
 1067              	.LFB132:
 1068              		.loc 1 601 0
 1069              		.cfi_startproc
 1070              		@ args = 0, pretend = 0, frame = 0
 1071              		@ frame_needed = 0, uses_anonymous_args = 0
 1072              		@ link register save eliminated.
 1073              	.LVL100:
 1074 0000 10B4     		push	{r4}
ARM GAS  /tmp/ccVEjULj.s 			page 20


 1075              		.cfi_def_cfa_offset 4
 1076              		.cfi_offset 4, -4
 1077              		.loc 1 604 0
 1078 0002 0029     		cmp	r1, #0
 1079 0004 30D1     		bne	.L107
 1080              		.loc 1 605 0
 1081 0006 436B     		ldr	r3, [r0, #52]
 1082 0008 D968     		ldr	r1, [r3, #12]
 1083              	.LVL101:
 1084 000a 8907     		lsls	r1, r1, #30
 1085 000c 33D0     		beq	.L116
 1086              	.L108:
 1087              	.LVL102:
 1088              		.loc 1 617 0
 1089 000e D3F8B041 		ldr	r4, [r3, #432]
 1090              	.LVL103:
 1091              		.loc 1 618 0
 1092 0012 D3F8B411 		ldr	r1, [r3, #436]
 1093              	.LVL104:
 1094              		.loc 1 619 0
 1095 0016 D3F8B831 		ldr	r3, [r3, #440]
 1096 001a D360     		str	r3, [r2, #12]
 1097              		.loc 1 620 0
 1098 001c 436B     		ldr	r3, [r0, #52]
 1099 001e D3F8BC31 		ldr	r3, [r3, #444]
 1100 0022 1361     		str	r3, [r2, #16]
 1101              		.loc 1 623 0
 1102 0024 436B     		ldr	r3, [r0, #52]
 1103 0026 2020     		movs	r0, #32
 1104              	.LVL105:
 1105 0028 D860     		str	r0, [r3, #12]
 1106              		.loc 1 627 0
 1107 002a D868     		ldr	r0, [r3, #12]
 1108 002c 8007     		lsls	r0, r0, #30
 1109 002e 41D0     		beq	.L117
 1110              	.L113:
 1111              		.loc 1 651 0
 1112 0030 1079     		ldrb	r0, [r2, #4]	@ zero_extendqisi2
 1113 0032 C4F34003 		ubfx	r3, r4, #1, #1
 1114 0036 63F30410 		bfi	r0, r3, #4, #1
 1115              		.loc 1 652 0
 1116 003a C4F38003 		ubfx	r3, r4, #2, #1
 1117 003e 63F34510 		bfi	r0, r3, #5, #1
 1118 0042 1071     		strb	r0, [r2, #4]
 1119              		.loc 1 653 0
 1120 0044 002B     		cmp	r3, #0
 1121 0046 2FD0     		beq	.L114
 1122              		.loc 1 654 0
 1123 0048 9368     		ldr	r3, [r2, #8]
 1124 004a E408     		lsrs	r4, r4, #3
 1125              	.LVL106:
 1126 004c 64F31C03 		bfi	r3, r4, #0, #29
 1127 0050 9360     		str	r3, [r2, #8]
 1128              	.L115:
 1129              		.loc 1 657 0
 1130 0052 1379     		ldrb	r3, [r2, #4]	@ zero_extendqisi2
 1131              		.loc 1 660 0
ARM GAS  /tmp/ccVEjULj.s 			page 21


 1132 0054 5DF8044B 		ldr	r4, [sp], #4
 1133              		.loc 1 658 0
 1134 0058 080A     		lsrs	r0, r1, #8
 1135              		.loc 1 657 0
 1136 005a 61F30303 		bfi	r3, r1, #0, #4
 1137              		.loc 1 659 0
 1138 005e 090C     		lsrs	r1, r1, #16
 1139              	.LVL107:
 1140              		.loc 1 657 0
 1141 0060 1371     		strb	r3, [r2, #4]
 1142              		.loc 1 658 0
 1143 0062 1070     		strb	r0, [r2]
 1144              		.loc 1 659 0
 1145 0064 5180     		strh	r1, [r2, #2]	@ movhi
 1146              		.loc 1 660 0
 1147 0066 7047     		bx	lr
 1148              	.LVL108:
 1149              	.L107:
 1150              		.loc 1 614 0
 1151 0068 0129     		cmp	r1, #1
 1152 006a 28D0     		beq	.L111
 1153 006c 0229     		cmp	r1, #2
 1154 006e 28D0     		beq	.L118
 1155              	.LVL109:
 1156              	.L106:
 1157              		.loc 1 660 0
 1158 0070 5DF8044B 		ldr	r4, [sp], #4
 1159 0074 7047     		bx	lr
 1160              	.L116:
 1161              		.loc 1 607 0
 1162 0076 1969     		ldr	r1, [r3, #16]
 1163 0078 8C07     		lsls	r4, r1, #30
 1164 007a F9D0     		beq	.L106
 1165              	.L109:
 1166              	.LVL110:
 1167              		.loc 1 632 0
 1168 007c D3F8C041 		ldr	r4, [r3, #448]
 1169              	.LVL111:
 1170              		.loc 1 633 0
 1171 0080 D3F8C411 		ldr	r1, [r3, #452]
 1172              	.LVL112:
 1173              		.loc 1 634 0
 1174 0084 D3F8C831 		ldr	r3, [r3, #456]
 1175 0088 D360     		str	r3, [r2, #12]
 1176              		.loc 1 635 0
 1177 008a 436B     		ldr	r3, [r0, #52]
 1178 008c D3F8CC31 		ldr	r3, [r3, #460]
 1179 0090 1361     		str	r3, [r2, #16]
 1180              		.loc 1 638 0
 1181 0092 436B     		ldr	r3, [r0, #52]
 1182 0094 2020     		movs	r0, #32
 1183              	.LVL113:
 1184 0096 1861     		str	r0, [r3, #16]
 1185              		.loc 1 642 0
 1186 0098 1869     		ldr	r0, [r3, #16]
 1187 009a 8007     		lsls	r0, r0, #30
 1188 009c C8D1     		bne	.L113
ARM GAS  /tmp/ccVEjULj.s 			page 22


 1189              		.loc 1 643 0
 1190 009e 5869     		ldr	r0, [r3, #20]
 1191 00a0 40F01000 		orr	r0, r0, #16
 1192 00a4 5861     		str	r0, [r3, #20]
 1193 00a6 C3E7     		b	.L113
 1194              	.L114:
 1195              		.loc 1 656 0
 1196 00a8 1389     		ldrh	r3, [r2, #8]
 1197 00aa 640D     		lsrs	r4, r4, #21
 1198              	.LVL114:
 1199 00ac 64F30A03 		bfi	r3, r4, #0, #11
 1200 00b0 1381     		strh	r3, [r2, #8]	@ movhi
 1201 00b2 CEE7     		b	.L115
 1202              	.LVL115:
 1203              	.L117:
 1204              		.loc 1 628 0
 1205 00b4 5869     		ldr	r0, [r3, #20]
 1206 00b6 40F00200 		orr	r0, r0, #2
 1207 00ba 5861     		str	r0, [r3, #20]
 1208 00bc B8E7     		b	.L113
 1209              	.LVL116:
 1210              	.L111:
 1211 00be 436B     		ldr	r3, [r0, #52]
 1212 00c0 A5E7     		b	.L108
 1213              	.L118:
 1214 00c2 436B     		ldr	r3, [r0, #52]
 1215 00c4 DAE7     		b	.L109
 1216              		.cfi_endproc
 1217              	.LFE132:
 1218              		.size	can_lld_receive, .-can_lld_receive
 1219 00c6 00BFAFF3 		.section	.text.can_lld_sleep,"ax",%progbits
 1219      0080AFF3 
 1219      0080
 1220              		.align	2
 1221              		.p2align 4,,15
 1222              		.global	can_lld_sleep
 1223              		.thumb
 1224              		.thumb_func
 1225              		.type	can_lld_sleep, %function
 1226              	can_lld_sleep:
 1227              	.LFB133:
 1228              		.loc 1 670 0
 1229              		.cfi_startproc
 1230              		@ args = 0, pretend = 0, frame = 0
 1231              		@ frame_needed = 0, uses_anonymous_args = 0
 1232              		@ link register save eliminated.
 1233              	.LVL117:
 1234              		.loc 1 672 0
 1235 0000 436B     		ldr	r3, [r0, #52]
 1236 0002 1A68     		ldr	r2, [r3]
 1237 0004 42F00202 		orr	r2, r2, #2
 1238 0008 1A60     		str	r2, [r3]
 1239 000a 7047     		bx	lr
 1240              		.cfi_endproc
 1241              	.LFE133:
 1242              		.size	can_lld_sleep, .-can_lld_sleep
 1243 000c AFF30080 		.section	.text.can_lld_wakeup,"ax",%progbits
ARM GAS  /tmp/ccVEjULj.s 			page 23


 1244              		.align	2
 1245              		.p2align 4,,15
 1246              		.global	can_lld_wakeup
 1247              		.thumb
 1248              		.thumb_func
 1249              		.type	can_lld_wakeup, %function
 1250              	can_lld_wakeup:
 1251              	.LFB134:
 1252              		.loc 1 682 0
 1253              		.cfi_startproc
 1254              		@ args = 0, pretend = 0, frame = 0
 1255              		@ frame_needed = 0, uses_anonymous_args = 0
 1256              		@ link register save eliminated.
 1257              	.LVL118:
 1258              		.loc 1 684 0
 1259 0000 436B     		ldr	r3, [r0, #52]
 1260 0002 1A68     		ldr	r2, [r3]
 1261 0004 22F00202 		bic	r2, r2, #2
 1262 0008 1A60     		str	r2, [r3]
 1263 000a 7047     		bx	lr
 1264              		.cfi_endproc
 1265              	.LFE134:
 1266              		.size	can_lld_wakeup, .-can_lld_wakeup
 1267 000c AFF30080 		.section	.text.canSTM32SetFilters,"ax",%progbits
 1268              		.align	2
 1269              		.p2align 4,,15
 1270              		.global	canSTM32SetFilters
 1271              		.thumb
 1272              		.thumb_func
 1273              		.type	canSTM32SetFilters, %function
 1274              	canSTM32SetFilters:
 1275              	.LFB135:
 1276              		.loc 1 700 0
 1277              		.cfi_startproc
 1278              		@ args = 0, pretend = 0, frame = 0
 1279              		@ frame_needed = 0, uses_anonymous_args = 0
 1280              	.LVL119:
 1281              		.loc 1 702 0
 1282 0000 831E     		subs	r3, r0, #2
 1283 0002 0B2B     		cmp	r3, #11
 1284              		.loc 1 700 0
 1285 0004 70B5     		push	{r4, r5, r6, lr}
 1286              		.cfi_def_cfa_offset 16
 1287              		.cfi_offset 4, -16
 1288              		.cfi_offset 5, -12
 1289              		.cfi_offset 6, -8
 1290              		.cfi_offset 14, -4
 1291              		.loc 1 700 0
 1292 0006 0446     		mov	r4, r0
 1293 0008 0D46     		mov	r5, r1
 1294 000a 1646     		mov	r6, r2
 1295              		.loc 1 702 0
 1296 000c 0FD8     		bhi	.L122
 1297              		.loc 1 702 0 is_stmt 0 discriminator 2
 1298 000e 0D29     		cmp	r1, #13
 1299 0010 0DD8     		bhi	.L122
 1300              	.LVL120:
ARM GAS  /tmp/ccVEjULj.s 			page 24


 1301              	.L123:
 1302              		.loc 1 707 0 is_stmt 1
 1303 0012 094B     		ldr	r3, .L128
 1304 0014 1B78     		ldrb	r3, [r3]	@ zero_extendqisi2
 1305 0016 012B     		cmp	r3, #1
 1306 0018 02D0     		beq	.L124
 1307              		.loc 1 707 0 is_stmt 0 discriminator 1
 1308 001a 0848     		ldr	r0, .L128+4
 1309 001c FFF7FEFF 		bl	chDbgPanic
 1310              	.LVL121:
 1311              	.L124:
 1312              		.loc 1 715 0 is_stmt 1
 1313 0020 2046     		mov	r0, r4
 1314 0022 2946     		mov	r1, r5
 1315 0024 3246     		mov	r2, r6
 1316              		.loc 1 716 0
 1317 0026 BDE87040 		pop	{r4, r5, r6, lr}
 1318              	.LVL122:
 1319              		.loc 1 715 0
 1320 002a FFF7FEBF 		b	can_lld_set_filters
 1321              	.LVL123:
 1322              	.L122:
 1323              		.loc 1 702 0 discriminator 1
 1324 002e 0448     		ldr	r0, .L128+8
 1325              	.LVL124:
 1326 0030 FFF7FEFF 		bl	chDbgPanic
 1327              	.LVL125:
 1328 0034 EDE7     		b	.L123
 1329              	.L129:
 1330 0036 00BF     		.align	2
 1331              	.L128:
 1332 0038 00000000 		.word	.LANCHOR0
 1333 003c 18000000 		.word	.LC1
 1334 0040 00000000 		.word	.LC0
 1335              		.cfi_endproc
 1336              	.LFE135:
 1337              		.size	canSTM32SetFilters, .-canSTM32SetFilters
 1338              		.global	CAND1
 1339 0044 AFF30080 		.section	.bss.CAND1,"aw",%nobits
 1339      AFF30080 
 1339      AFF30080 
 1340              		.align	2
 1341              		.set	.LANCHOR0,. + 0
 1342              		.type	CAND1, %object
 1343              		.size	CAND1, 56
 1344              	CAND1:
 1345 0000 00000000 		.space	56
 1345      00000000 
 1345      00000000 
 1345      00000000 
 1345      00000000 
 1346              		.section	.rodata.str1.4,"aMS",%progbits,1
 1347              		.align	2
 1348              	.LC0:
 1349 0000 2263616E 		.ascii	"\"canSTM32SetFilters\"()\000"
 1349      53544D33 
 1349      32536574 
ARM GAS  /tmp/ccVEjULj.s 			page 25


 1349      46696C74 
 1349      65727322 
 1350 0017 00       		.space	1
 1351              	.LC1:
 1352 0018 63616E53 		.ascii	"canSTM32SetFilters(), #1\000"
 1352      544D3332 
 1352      53657446 
 1352      696C7465 
 1352      72732829 
 1353 0031 000000   		.text
 1354              	.Letext0:
 1355              		.file 2 "/usr/include/newlib/machine/_default_types.h"
 1356              		.file 3 "/usr/include/newlib/stdint.h"
 1357              		.file 4 "../../../../os/ports/GCC/ARMCMx/chtypes.h"
 1358              		.file 5 "../../../../os/kernel/include/chlists.h"
 1359              		.file 6 "../../../../os/kernel/include/chthreads.h"
 1360              		.file 7 "../../../../os/ports/GCC/ARMCMx/chcore_v7m.h"
 1361              		.file 8 "../../../../os/kernel/include/chsem.h"
 1362              		.file 9 "../../../../os/kernel/include/chmtx.h"
 1363              		.file 10 "../../../../os/kernel/include/chevents.h"
 1364              		.file 11 "../../../../os/hal/platforms/STM32F30x/stm32f30x.h"
 1365              		.file 12 "../../../../os/hal/include/can.h"
 1366              		.file 13 "../../../../os/hal/platforms/STM32/can_lld.h"
 1367              		.file 14 "../../../../os/ports/common/ARMCMx/CMSIS/include/core_cm4.h"
 1368              		.file 15 "../../../../os/kernel/include/chdebug.h"
 1369              		.file 16 "../../../../os/ports/common/ARMCMx/nvic.h"
 1370              		.file 17 "../../../../os/kernel/include/chschd.h"