ARM GAS  /tmp/cc5I5UEh.s 			page 1


   1              		.syntax unified
   2              		.cpu cortex-m4
   3              		.eabi_attribute 27, 3
   4              		.fpu fpv4-sp-d16
   5              		.eabi_attribute 20, 1
   6              		.eabi_attribute 21, 1
   7              		.eabi_attribute 23, 3
   8              		.eabi_attribute 24, 1
   9              		.eabi_attribute 25, 1
  10              		.eabi_attribute 26, 1
  11              		.eabi_attribute 30, 2
  12              		.eabi_attribute 34, 1
  13              		.eabi_attribute 18, 4
  14              		.thumb
  15              		.file	"chcore_v7m.c"
  16              		.text
  17              	.Ltext0:
  18              		.cfi_sections	.debug_frame
  19              		.section	.text._port_switch_from_isr,"ax",%progbits
  20              		.align	2
  21              		.p2align 4,,15
  22              		.global	_port_switch_from_isr
  23              		.thumb
  24              		.thumb_func
  25              		.type	_port_switch_from_isr, %function
  26              	_port_switch_from_isr:
  27              	.LFB11:
  28              		.file 1 "../../../../os/ports/GCC/ARMCMx/chcore_v7m.c"
  29              		.loc 1 200 0
  30              		.cfi_startproc
  31              		@ Naked Function: prologue and epilogue provided by programmer.
  32              		@ args = 0, pretend = 0, frame = 0
  33              		@ frame_needed = 0, uses_anonymous_args = 0
  34              		.loc 1 202 0
  35 0000 FFF7FEFF 		bl	dbg_check_lock
  36              	.LVL0:
  37              		.loc 1 203 0
  38 0004 FFF7FEFF 		bl	chSchDoReschedule
  39              	.LVL1:
  40              		.loc 1 204 0
  41 0008 FFF7FEFF 		bl	dbg_check_unlock
  42              	.LVL2:
  43              		.loc 1 205 0
  44              	@ 205 "../../../../os/ports/GCC/ARMCMx/chcore_v7m.c" 1
  45              		_port_exit_from_isr:
  46              	@ 0 "" 2
  47              		.loc 1 207 0
  48              	@ 207 "../../../../os/ports/GCC/ARMCMx/chcore_v7m.c" 1
  49 000c 00DF     		svc     #0
  50              	@ 0 "" 2
  51              		.loc 1 214 0
  52              		.thumb
  53              		.cfi_endproc
  54              	.LFE11:
  55              		.size	_port_switch_from_isr, .-_port_switch_from_isr
  56 000e 00BF     		.section	.text.SVCallVector,"ax",%progbits
  57              		.align	2
ARM GAS  /tmp/cc5I5UEh.s 			page 2


  58              		.p2align 4,,15
  59              		.global	SVCallVector
  60              		.thumb
  61              		.thumb_func
  62              		.type	SVCallVector, %function
  63              	SVCallVector:
  64              	.LFB8:
  65              		.loc 1 58 0
  66              		.cfi_startproc
  67              		@ args = 0, pretend = 0, frame = 0
  68              		@ frame_needed = 0, uses_anonymous_args = 0
  69              		@ link register save eliminated.
  70              		.loc 1 62 0
  71              	@ 62 "../../../../os/ports/GCC/ARMCMx/chcore_v7m.c" 1
  72 0000 EFF30982 		mrs     r2, PSP
  73              	@ 0 "" 2
  74              	.LVL3:
  75              		.loc 1 70 0
  76              		.thumb
  77 0004 064B     		ldr	r3, .L3
  78 0006 D2F8CC10 		ldr	r1, [r2, #204]
  79 000a 5960     		str	r1, [r3, #4]
  80              		.loc 1 71 0
  81 000c 9968     		ldr	r1, [r3, #8]
  82 000e 6831     		adds	r1, r1, #104
  83              		.loc 1 66 0
  84 0010 6832     		adds	r2, r2, #104
  85              	.LVL4:
  86              		.loc 1 71 0
  87 0012 9960     		str	r1, [r3, #8]
  88              		.loc 1 73 0
  89              	@ 73 "../../../../os/ports/GCC/ARMCMx/chcore_v7m.c" 1
  90 0014 82F30988 		msr     PSP, r2
  91              	@ 0 "" 2
  92              		.thumb
  93              	.LBB2:
  94              		.loc 1 74 0
  95 0018 0023     		movs	r3, #0
  96              	@ 74 "../../../../os/ports/GCC/ARMCMx/chcore_v7m.c" 1
  97 001a 83F31188 		msr     BASEPRI, r3
  98              	@ 0 "" 2
  99              		.thumb
 100 001e 7047     		bx	lr
 101              	.L4:
 102              		.align	2
 103              	.L3:
 104 0020 30EF00E0 		.word	-536809680
 105              	.LBE2:
 106              		.cfi_endproc
 107              	.LFE8:
 108              		.size	SVCallVector, .-SVCallVector
 109 0024 AFF30080 		.section	.text._port_init,"ax",%progbits
 109      AFF30080 
 109      AFF30080 
 110              		.align	2
 111              		.p2align 4,,15
 112              		.global	_port_init
ARM GAS  /tmp/cc5I5UEh.s 			page 3


 113              		.thumb
 114              		.thumb_func
 115              		.type	_port_init, %function
 116              	_port_init:
 117              	.LFB9:
 118              		.loc 1 111 0
 119              		.cfi_startproc
 120              		@ args = 0, pretend = 0, frame = 0
 121              		@ frame_needed = 0, uses_anonymous_args = 0
 122 0000 08B5     		push	{r3, lr}
 123              		.cfi_def_cfa_offset 8
 124              		.cfi_offset 3, -8
 125              		.cfi_offset 14, -4
 126              		.loc 1 114 0
 127 0002 0A4B     		ldr	r3, .L6
 128              		.loc 1 115 0
 129 0004 0A4A     		ldr	r2, .L6+4
 130              		.loc 1 114 0
 131 0006 0021     		movs	r1, #0
 132 0008 9960     		str	r1, [r3, #8]
 133              		.loc 1 118 0
 134 000a 0720     		movs	r0, #7
 135              		.loc 1 115 0
 136 000c DA60     		str	r2, [r3, #12]
 137              		.loc 1 118 0
 138 000e 1021     		movs	r1, #16
 139 0010 FFF7FEFF 		bl	nvicSetSystemHandlerPriority
 140              	.LVL5:
 141              		.loc 1 120 0
 142 0014 0A20     		movs	r0, #10
 143 0016 4FF40071 		mov	r1, #512
 144 001a FFF7FEFF 		bl	nvicSetSystemHandlerPriority
 145              	.LVL6:
 146              		.loc 1 122 0
 147 001e 0B20     		movs	r0, #11
 148 0020 8021     		movs	r1, #128
 149              		.loc 1 124 0
 150 0022 BDE80840 		pop	{r3, lr}
 151              		.loc 1 122 0
 152 0026 FFF7FEBF 		b	nvicSetSystemHandlerPriority
 153              	.LVL7:
 154              	.L7:
 155 002a 00BF     		.align	2
 156              	.L6:
 157 002c 00ED00E0 		.word	-536810240
 158 0030 0003FA05 		.word	100270848
 159              		.cfi_endproc
 160              	.LFE9:
 161              		.size	_port_init, .-_port_init
 162 0034 AFF30080 		.section	.text._port_irq_epilogue,"ax",%progbits
 162      AFF30080 
 162      AFF30080 
 163              		.align	2
 164              		.p2align 4,,15
 165              		.global	_port_irq_epilogue
 166              		.thumb
 167              		.thumb_func
ARM GAS  /tmp/cc5I5UEh.s 			page 4


 168              		.type	_port_irq_epilogue, %function
 169              	_port_irq_epilogue:
 170              	.LFB10:
 171              		.loc 1 141 0
 172              		.cfi_startproc
 173              		@ args = 0, pretend = 0, frame = 0
 174              		@ frame_needed = 0, uses_anonymous_args = 0
 175              		@ link register save eliminated.
 176              	.LBB3:
 177              		.loc 1 143 0
 178 0000 2023     		movs	r3, #32
 179              	@ 143 "../../../../os/ports/GCC/ARMCMx/chcore_v7m.c" 1
 180 0002 83F31188 		msr     BASEPRI, r3
 181              	@ 0 "" 2
 182              		.thumb
 183              	.LBE3:
 184              		.loc 1 144 0
 185 0006 1A4B     		ldr	r3, .L17
 186 0008 5B68     		ldr	r3, [r3, #4]
 187 000a 13F40063 		ands	r3, r3, #2048
 188 000e 22D0     		beq	.L9
 189              	.LBB4:
 190              		.loc 1 148 0
 191              	@ 148 "../../../../os/ports/GCC/ARMCMx/chcore_v7m.c" 1
 192 0010 EFF30983 		mrs     r3, PSP
 193              	@ 0 "" 2
 194              	.LVL8:
 195              		.loc 1 152 0
 196              		.thumb
 197 0014 A3F16802 		sub	r2, r3, #104
 198              	.LVL9:
 199              		.loc 1 153 0
 200              	@ 153 "../../../../os/ports/GCC/ARMCMx/chcore_v7m.c" 1
 201 0018 82F30988 		msr     PSP, r2
 202              	@ 0 "" 2
 203              		.loc 1 158 0
 204              		.thumb
 205 001c 1549     		ldr	r1, .L17+4
 206              		.loc 1 154 0
 207 001e 4FF08070 		mov	r0, #16777216
 208              		.loc 1 158 0
 209 0022 8A69     		ldr	r2, [r1, #24]
 210              	.LVL10:
 211              		.loc 1 154 0
 212 0024 43F84C0C 		str	r0, [r3, #-76]
 213              		.loc 1 158 0
 214 0028 92F82300 		ldrb	r0, [r2, #35]	@ zero_extendqisi2
 215 002c 0968     		ldr	r1, [r1]
 216 002e 9268     		ldr	r2, [r2, #8]
 217 0030 8968     		ldr	r1, [r1, #8]
 218 0032 98B1     		cbz	r0, .L10
 219              		.loc 1 158 0 is_stmt 0 discriminator 1
 220 0034 9142     		cmp	r1, r2
 221 0036 94BF     		ite	ls
 222 0038 0022     		movls	r2, #0
 223 003a 0122     		movhi	r2, #1
 224 003c A2B1     		cbz	r2, .L12
ARM GAS  /tmp/cc5I5UEh.s 			page 5


 225              	.L16:
 226              		.loc 1 160 0 is_stmt 1
 227 003e 0E4A     		ldr	r2, .L17+8
 228 0040 43F8502C 		str	r2, [r3, #-80]
 229              		.loc 1 163 0
 230              	@ 163 "../../../../os/ports/GCC/ARMCMx/chcore_v7m.c" 1
 231 0044 F1EE10FA 		vmrs    APSR_nzcv, FPSCR
 232              	@ 0 "" 2
 233              		.thumb
 234              	.L13:
 235              	.LBB5:
 236              		.loc 1 178 0
 237 0048 0C4A     		ldr	r2, .L17+12
 238 004a 5168     		ldr	r1, [r2, #4]
 239              	.LVL11:
 240 004c 5966     		str	r1, [r3, #100]
 241              		.loc 1 182 0
 242 004e 41F00101 		orr	r1, r1, #1
 243              	.LVL12:
 244 0052 5160     		str	r1, [r2, #4]
 245              	.LBE5:
 246              		.loc 1 188 0
 247 0054 7047     		bx	lr
 248              	.LVL13:
 249              	.L9:
 250              	.LBE4:
 251              	.LBB6:
 252              		.loc 1 190 0
 253              	@ 190 "../../../../os/ports/GCC/ARMCMx/chcore_v7m.c" 1
 254 0056 83F31188 		msr     BASEPRI, r3
 255              	@ 0 "" 2
 256              		.thumb
 257 005a 7047     		bx	lr
 258              	.LVL14:
 259              	.L10:
 260              	.LBE6:
 261              	.LBB7:
 262              		.loc 1 158 0 discriminator 2
 263 005c 9142     		cmp	r1, r2
 264 005e 34BF     		ite	cc
 265 0060 0022     		movcc	r2, #0
 266 0062 0122     		movcs	r2, #1
 267 0064 002A     		cmp	r2, #0
 268 0066 EAD1     		bne	.L16
 269              	.L12:
 270              		.loc 1 169 0
 271 0068 054A     		ldr	r2, .L17+16
 272 006a 43F8502C 		str	r2, [r3, #-80]
 273 006e EBE7     		b	.L13
 274              	.L18:
 275              		.align	2
 276              	.L17:
 277 0070 00ED00E0 		.word	-536810240
 278 0074 00000000 		.word	rlist
 279 0078 00000000 		.word	_port_switch_from_isr
 280 007c 30EF00E0 		.word	-536809680
 281 0080 0C000000 		.word	_port_exit_from_isr
ARM GAS  /tmp/cc5I5UEh.s 			page 6


 282              	.LBE7:
 283              		.cfi_endproc
 284              	.LFE10:
 285              		.size	_port_irq_epilogue, .-_port_irq_epilogue
 286 0084 AFF30080 		.section	.text.SysTickVector,"ax",%progbits
 286      AFF30080 
 286      AFF30080 
 287              		.align	2
 288              		.p2align 4,,15
 289              		.global	SysTickVector
 290              		.thumb
 291              		.thumb_func
 292              		.type	SysTickVector, %function
 293              	SysTickVector:
 294              	.LFB7:
 295              		.loc 1 40 0
 296              		.cfi_startproc
 297              		@ args = 0, pretend = 0, frame = 0
 298              		@ frame_needed = 0, uses_anonymous_args = 0
 299 0000 08B5     		push	{r3, lr}
 300              		.cfi_def_cfa_offset 8
 301              		.cfi_offset 3, -8
 302              		.cfi_offset 14, -4
 303              		.loc 1 42 0
 304 0002 FFF7FEFF 		bl	dbg_check_enter_isr
 305              	.LVL15:
 306              	.LBB8:
 307              		.loc 1 44 0
 308 0006 2023     		movs	r3, #32
 309              	@ 44 "../../../../os/ports/GCC/ARMCMx/chcore_v7m.c" 1
 310 0008 83F31188 		msr     BASEPRI, r3
 311              	@ 0 "" 2
 312              		.thumb
 313              	.LBE8:
 314 000c FFF7FEFF 		bl	dbg_check_lock_from_isr
 315              	.LVL16:
 316              		.loc 1 45 0
 317 0010 FFF7FEFF 		bl	chSysTimerHandlerI
 318              	.LVL17:
 319              		.loc 1 46 0
 320 0014 FFF7FEFF 		bl	dbg_check_unlock_from_isr
 321              	.LVL18:
 322              	.LBB9:
 323 0018 0023     		movs	r3, #0
 324              	@ 46 "../../../../os/ports/GCC/ARMCMx/chcore_v7m.c" 1
 325 001a 83F31188 		msr     BASEPRI, r3
 326              	@ 0 "" 2
 327              		.thumb
 328              	.LBE9:
 329              		.loc 1 48 0
 330 001e FFF7FEFF 		bl	dbg_check_leave_isr
 331              	.LVL19:
 332              		.loc 1 49 0
 333 0022 BDE80840 		pop	{r3, lr}
 334              		.loc 1 48 0
 335 0026 FFF7FEBF 		b	_port_irq_epilogue
 336              	.LVL20:
ARM GAS  /tmp/cc5I5UEh.s 			page 7


 337              		.cfi_endproc
 338              	.LFE7:
 339              		.size	SysTickVector, .-SysTickVector
 340 002a 00BFAFF3 		.section	.text._port_switch,"ax",%progbits
 340      0080
 341              		.align	2
 342              		.p2align 4,,15
 343              		.global	_port_switch
 344              		.thumb
 345              		.thumb_func
 346              		.type	_port_switch, %function
 347              	_port_switch:
 348              	.LFB12:
 349              		.loc 1 229 0
 350              		.cfi_startproc
 351              		@ Naked Function: prologue and epilogue provided by programmer.
 352              		@ args = 0, pretend = 0, frame = 0
 353              		@ frame_needed = 0, uses_anonymous_args = 0
 354              	.LVL21:
 355              		.loc 1 231 0
 356              	@ 231 "../../../../os/ports/GCC/ARMCMx/chcore_v7m.c" 1
 357 0000 2DE9F04F 		push    {r4, r5, r6, r7, r8, r9, r10, r11, lr}
 358              	@ 0 "" 2
 359              		.loc 1 234 0
 360              	@ 234 "../../../../os/ports/GCC/ARMCMx/chcore_v7m.c" 1
 361 0004 2DED108A 		vpush   {s16-s31}
 362              	@ 0 "" 2
 363              		.loc 1 237 0
 364              	@ 237 "../../../../os/ports/GCC/ARMCMx/chcore_v7m.c" 1
 365 0008 C1F80CD0 		str     sp, [r1, #12]                          
 366 000c D0F80CD0 		ldr     sp, [r0, #12]
 367              	@ 0 "" 2
 368              		.loc 1 241 0
 369              	@ 241 "../../../../os/ports/GCC/ARMCMx/chcore_v7m.c" 1
 370 0010 BDEC108A 		vpop    {s16-s31}
 371              	@ 0 "" 2
 372              		.loc 1 243 0
 373              	@ 243 "../../../../os/ports/GCC/ARMCMx/chcore_v7m.c" 1
 374 0014 BDE8F08F 		pop     {r4, r5, r6, r7, r8, r9, r10, r11, pc}
 375              	@ 0 "" 2
 376              		.loc 1 245 0
 377              		.thumb
 378              		.cfi_endproc
 379              	.LFE12:
 380              		.size	_port_switch, .-_port_switch
 381 0018 AFF30080 		.section	.text._port_thread_start,"ax",%progbits
 381      AFF30080 
 382              		.align	2
 383              		.p2align 4,,15
 384              		.global	_port_thread_start
 385              		.thumb
 386              		.thumb_func
 387              		.type	_port_thread_start, %function
 388              	_port_thread_start:
 389              	.LFB13:
 390              		.loc 1 252 0
 391              		.cfi_startproc
ARM GAS  /tmp/cc5I5UEh.s 			page 8


 392              		@ args = 0, pretend = 0, frame = 0
 393              		@ frame_needed = 0, uses_anonymous_args = 0
 394 0000 08B5     		push	{r3, lr}
 395              		.cfi_def_cfa_offset 8
 396              		.cfi_offset 3, -8
 397              		.cfi_offset 14, -4
 398              		.loc 1 254 0
 399 0002 FFF7FEFF 		bl	dbg_check_unlock
 400              	.LVL22:
 401              	.LBB10:
 402 0006 0023     		movs	r3, #0
 403              	@ 254 "../../../../os/ports/GCC/ARMCMx/chcore_v7m.c" 1
 404 0008 83F31188 		msr     BASEPRI, r3
 405              	@ 0 "" 2
 406              		.thumb
 407              	.LBE10:
 408              		.loc 1 255 0
 409              	@ 255 "../../../../os/ports/GCC/ARMCMx/chcore_v7m.c" 1
 410 000c 2846     		mov     r0, r5                                 
 411 000e A047     		blx     r4                                     
 412 0010 FFF7FEFF 		bl      chThdExit
 413              	@ 0 "" 2
 414              		.thumb
 415 0014 08BD     		pop	{r3, pc}
 416              		.cfi_endproc
 417              	.LFE13:
 418              		.size	_port_thread_start, .-_port_thread_start
 419 0016 00BFAFF3 		.text
 419      0080AFF3 
 419      0080
 420              	.Letext0:
 421              		.file 2 "/usr/include/newlib/machine/_default_types.h"
 422              		.file 3 "/usr/include/newlib/stdint.h"
 423              		.file 4 "../../../../os/ports/GCC/ARMCMx/chtypes.h"
 424              		.file 5 "../../../../os/kernel/include/chlists.h"
 425              		.file 6 "../../../../os/kernel/include/chthreads.h"
 426              		.file 7 "../../../../os/ports/GCC/ARMCMx/chcore_v7m.h"
 427              		.file 8 "../../../../os/ports/common/ARMCMx/nvic.h"
 428              		.file 9 "../../../../os/kernel/include/chschd.h"
 429              		.file 10 "../../../../os/kernel/include/chmtx.h"
 430              		.file 11 "../../../../os/kernel/include/chdebug.h"
 431              		.file 12 "../../../../os/kernel/include/chsys.h"