ARM GAS  /tmp/cc5I5UEh.s 			page 1


   1              		.syntax unified
   2              		.cpu cortex-m4
   3              		.eabi_attribute 27, 3
   4              		.fpu fpv4-sp-d16
   5              		.eabi_attribute 20, 1
   6              		.eabi_attribute 21, 1
   7              		.eabi_attribute 23, 3
   8              		.eabi_attribute 24, 1
   9              		.eabi_attribute 25, 1
  10              		.eabi_attribute 26, 1
  11              		.eabi_attribute 30, 2
  12              		.eabi_attribute 34, 1
  13              		.eabi_attribute 18, 4
  14              		.thumb
  15              		.file	"chcore_v7m.c"
  16              		.text
  17              	.Ltext0:
  18              		.cfi_sections	.debug_frame
  19              		.section	.text._port_switch_from_isr,"ax",%progbits
  20              		.align	2
  21              		.p2align 4,,15
  22              		.global	_port_switch_from_isr
  23              		.thumb
  24              		.thumb_func
  25              		.type	_port_switch_from_isr, %function
  26              	_port_switch_from_isr:
  27              	.LFB11:
  28              		.file 1 "../../../../os/ports/GCC/ARMCMx/chcore_v7m.c"
  29              		.loc 1 200 0
  30              		.cfi_startproc
  31              		@ Naked Function: prologue and epilogue provided by programmer.
  32              		@ args = 0, pretend = 0, frame = 0
  33              		@ frame_needed = 0, uses_anonymous_args = 0
  34              		.loc 1 202 0
  35 0000 FFF7FEFF 		bl	dbg_check_lock
  36              	.LVL0:
  37              		.loc 1 203 0
  38 0004 FFF7FEFF 		bl	chSchDoReschedule
  39              	.LVL1:
  40              		.loc 1 204 0
  41 0008 FFF7FEFF 		bl	dbg_check_unlock
  42              	.LVL2:
  43              		.loc 1 205 0
  44              	@ 205 "../../../../os/ports/GCC/ARMCMx/chcore_v7m.c" 1
  45              		_port_exit_from_isr:
  46              	@ 0 "" 2
  47              		.loc 1 207 0
  48              	@ 207 "../../../../os/ports/GCC/ARMCMx/chcore_v7m.c" 1
  49 000c 00DF     		svc     #0
  50              	@ 0 "" 2
  51              		.loc 1 214 0
  52              		.thumb
  53              		.cfi_endproc
  54              	.LFE11:
  55              		.size	_port_switch_from_isr, .-_port_switch_from_isr
  56 000e 00BF     		.section	.text.SVCallVector,"ax",%progbits
  57              		.align	2
ARM GAS  /tmp/cc5I5UEh.s 			page 2


  58              		.p2align 4,,15
  59              		.global	SVCallVector
  60              		.thumb
  61              		.thumb_func
  62              		.type	SVCallVector, %function
  63              	SVCallVector:
  64              	.LFB8:
  65              		.loc 1 58 0
  66              		.cfi_startproc
  67              		@ args = 0, pretend = 0, frame = 0
  68              		@ frame_needed = 0, uses_anonymous_args = 0
  69              		@ link register save eliminated.
  70              		.loc 1 62 0
  71              	@ 62 "../../../../os/ports/GCC/ARMCMx/chcore_v7m.c" 1
  72 0000 EFF30982 		mrs     r2, PSP
  73              	@ 0 "" 2
  74              	.LVL3:
  75              		.loc 1 70 0
  76              		.thumb
  77 0004 064B     		ldr	r3, .L3
  78 0006 D2F8CC10 		ldr	r1, [r2, #204]
  79 000a 5960     		str	r1, [r3, #4]
  80              		.loc 1 71 0
  81 000c 9968     		ldr	r1, [r3, #8]
  82 000e 6831     		adds	r1, r1, #104
  83              		.loc 1 66 0
  84 0010 6832     		adds	r2, r2, #104
  85              	.LVL4:
  86              		.loc 1 71 0
  87 0012 9960     		str	r1, [r3, #8]
  88              		.loc 1 73 0
  89              	@ 73 "../../../../os/ports/GCC/ARMCMx/chcore_v7m.c" 1
  90 0014 82F30988 		msr     PSP, r2
  91              	@ 0 "" 2
  92              		.thumb
  93              	.LBB2:
  94              		.loc 1 74 0
  95 0018 0023     		movs	r3, #0
  96              	@ 74 "../../../../os/ports/GCC/ARMCMx/chcore_v7m.c" 1
  97 001a 83F31188 		msr     BASEPRI, r3
  98              	@ 0 "" 2
  99              		.thumb
 100 001e 7047     		bx	lr
 101              	.L4:
 102              		.align	2
 103              	.L3:
 104 0020 30EF00E0 		.word	-536809680
 105              	.LBE2:
 106              		.cfi_endproc
 107              	.LFE8:
 108              		.size	SVCallVector, .-SVCallVector
 109 0024 AFF30080 		.section	.text._port_init,"ax",%progbits
 109      AFF30080 
 109      AFF30080 
 110              		.align	2
 111              		.p2align 4,,15
 112              		.global	_port_init
ARM GAS  /tmp/cc5I5UEh.s 			page 3


 113              		.thumb
 114              		.thumb_func
 115              		.type	_port_init, %function
 116              	_port_init:
 117              	.LFB9:
 118              		.loc 1 111 0
 119              		.cfi_startproc
 120              		@ args = 0, pretend = 0, frame = 0
 121              		@ frame_needed = 0, uses_anonymous_args = 0
 122 0000 08B5     		push	{r3, lr}
 123              		.cfi_def_cfa_offset 8
 124              		.cfi_offset 3, -8
 125              		.cfi_offset 14, -4
 126              		.loc 1 114 0
 127 0002 0A4B     		ldr	r3, .L6
 128              		.loc 1 115 0
 129 0004 0A4A     		ldr	r2, .L6+4
 130              		.loc 1 114 0
 131 0006 0021     		movs	r1, #0
 132 0008 9960     		str	r1, [r3, #8]
 133              		.loc 1 118 0
 134 000a 0720     		movs	r0, #7
 135              		.loc 1 115 0
 136 000c DA60     		str	r2, [r3, #12]
 137              		.loc 1 118 0
 138 000e 1021     		movs	r1, #16
 139 0010 FFF7FEFF 		bl	nvicSetSystemHandlerPriority
 140              	.LVL5:
 141              		.loc 1 120 0
 142 0014 0A20     		movs	r0, #10
 143 0016 4FF40071 		mov	r1, #512
 144 001a FFF7FEFF 		bl	nvicSetSystemHandlerPriority
 145              	.LVL6:
 146              		.loc 1 122 0
 147 001e 0B20     		movs	r0, #11
 148 0020 8021     		movs	r1, #128
 149              		.loc 1 124 0
 150 0022 BDE80840 		pop	{r3, lr}
 151              		.loc 1 122 0
 152 0026 FFF7FEBF 		b	nvicSetSystemHandlerPriority
 153              	.LVL7:
 154              	.L7:
 155 002a 00BF     		.align	2
 156              	.L6:
 157 002c 00ED00E0 		.word	-536810240
 158 0030 0003FA05 		.word	100270848
 159              		.cfi_endproc
 160              	.LFE9:
 161              		.size	_port_init, .-_port_init
 162 0034 AFF30080 		.section	.text._port_irq_epilogue,"ax",%progbits
 162      AFF30080 
 162      AFF30080 
 163              		.align	2
 164              		.p2align 4,,15
 165              		.global	_port_irq_epilogue
 166              		.thumb
 167              		.thumb_func
ARM GAS  /tmp/cc5I5UEh.s 			page 4


 168              		.type	_port_irq_epilogue, %function
 169              	_port_irq_epilogue:
 170              	.LFB10:
 171              		.loc 1 141 0
 172              		.cfi_startproc
 173              		@ args = 0, pretend = 0, frame = 0
 174              		@ frame_needed = 0, uses_anonymous_args = 0
 175              		@ link register save eliminated.
 176              	.LBB3:
 177              		.loc 1 143 0
 178 0000 2023     		movs	r3, #32
 179              	@ 143 "../../../../os/ports/GCC/ARMCMx/chcore_v7m.c" 1
 180 0002 83F31188 		msr     BASEPRI, r3
 181              	@ 0 "" 2
 182              		.thumb
 183              	.LBE3:
 184              		.loc 1 144 0
 185 0006 1A4B     		ldr	r3, .L17
 186 0008 5B68     		ldr	r3, [r3, #4]
 187 000a 13F40063 		ands	r3, r3, #2048
 188 000e 22D0     		beq	.L9
 189              	.LBB4:
 190              		.loc 1 148 0
 191              	@ 148 "../../../../os/ports/GCC/ARMCMx/chcore_v7m.c" 1
 192 0010 EFF30983 		mrs     r3, PSP
 193              	@ 0 "" 2
 194              	.LVL8:
 195              		.loc 1 152 0
 196              		.thumb
 197 0014 A3F16802 		sub	r2, r3, #104
 198              	.LVL9:
 199              		.loc 1 153 0
 200              	@ 153 "../../../../os/ports/GCC/ARMCMx/chcore_v7m.c" 1
 201 0018 82F30988 		msr     PSP, r2
 202              	@ 0 "" 2
 203              		.loc 1 158 0
 204              		.thumb
 205 001c 1549     		ldr	r1, .L17+4
 206              		.loc 1 154 0
 207 001e 4FF08070 		mov	r0, #16777216
 208              		.loc 1 158 0
 209 0022 8A69     		ldr	r2, [r1, #24]
 210              	.LVL10:
 211              		.loc 1 154 0
 212 0024 43F84C0C 		str	r0, [r3, #-76]
 213              		.loc 1 158 0
 214 0028 92F82300 		ldrb	r0, [r2, #35]	@ zero_extendqisi2
 215 002c 0968     		ldr	r1, [r1]
 216 002e 9268     		ldr	r2, [r2, #8]
 217 0030 8968     		ldr	r1, [r1, #8]
 218 0032 98B1     		cbz	r0, .L10
 219              		.loc 1 158 0 is_stmt 0 discriminator 1
 220 0034 9142     		cmp	r1, r2
 221 0036 94BF     		ite	ls
 222 0038 0022     		movls	r2, #0
 223 003a 0122     		movhi	r2, #1
 224 003c A2B1     		cbz	r2, .L12
ARM GAS  /tmp/cc5I5UEh.s 			page 5


 225              	.L16:
 226              		.loc 1 160 0 is_stmt 1
 227 003e 0E4A     		ldr	r2, .L17+8
 228 0040 43F8502C 		str	r2, [r3, #-80]
 229              		.loc 1 163 0
 230              	@ 163 "../../../../os/ports/GCC/ARMCMx/chcore_v7m.c" 1
 231 0044 F1EE10FA 		vmrs    APSR_nzcv, FPSCR
 232              	@ 0 "" 2
 233              		.thumb
 234              	.L13:
 235              	.LBB5:
 236              		.loc 1 178 0
 237 0048 0C4A     		ldr	r2, .L17+12
 238 004a 5168     		ldr	r1, [r2, #4]
 239              	.LVL11:
 240 004c 5966     		str	r1, [r3, #100]
 241              		.loc 1 182 0
 242 004e 41F00101 		orr	r1, r1, #1
 243              	.LVL12:
 244 0052 5160     		str	r1, [r2, #4]
 245              	.LBE5:
 246              		.loc 1 188 0
 247 0054 7047     		bx	lr
 248              	.LVL13:
 249              	.L9:
 250              	.LBE4:
 251              	.LBB6:
 252              		.loc 1 190 0
 253              	@ 190 "../../../../os/ports/GCC/ARMCMx/chcore_v7m.c" 1
 254 0056 83F31188 		msr     BASEPRI, r3
 255              	@ 0 "" 2
 256              		.thumb
 257 005a 7047     		bx	lr
 258              	.LVL14:
 259              	.L10:
 260              	.LBE6:
 261              	.LBB7:
 262              		.loc 1 158 0 discriminator 2
 263 005c 9142     		cmp	r1, r2
 264 005e 34BF     		ite	cc
 265 0060 0022     		movcc	r2, #0
 266 0062 0122     		movcs	r2, #1
 267 0064 002A     		cmp	r2, #0
 268 0066 EAD1     		bne	.L16
 269              	.L12:
 270              		.loc 1 169 0
 271 0068 054A     		ldr	r2, .L17+16
 272 006a 43F8502C 		str	r2, [r3, #-80]
 273 006e EBE7     		b	.L13
 274              	.L18:
 275              		.align	2
 276              	.L17:
 277 0070 00ED00E0 		.word	-536810240
 278 0074 00000000 		.word	rlist
 279 0078 00000000 		.word	_port_switch_from_isr
 280 007c 30EF00E0 		.word	-536809680
 281 0080 0C000000 		.word	_port_exit_from_isr
ARM GAS  /tmp/cc5I5UEh.s 			page 6


 282              	.LBE7:
 283              		.cfi_endproc
 284              	.LFE10:
 285              		.size	_port_irq_epilogue, .-_port_irq_epilogue
 286 0084 AFF30080 		.section	.text.SysTickVector,"ax",%progbits
 286      AFF30080 
 286      AFF30080 
 287              		.align	2
 288              		.p2align 4,,15
 289              		.global	SysTickVector
 290              		.thumb
 291              		.thumb_func
 292              		.type	SysTickVector, %function
 293              	SysTickVector:
 294              	.LFB7:
 295              		.loc 1 40 0
 296              		.cfi_startproc
 297              		@ args = 0, pretend = 0, frame = 0
 298              		@ frame_needed = 0, uses_anonymous_args = 0
 299 0000 08B5     		push	{r3, lr}
 300              		.cfi_def_cfa_offset 8
 301              		.cfi_offset 3, -8
 302              		.cfi_offset 14, -4
 303              		.loc 1 42 0
 304 0002 FFF7FEFF 		bl	dbg_check_enter_isr
 305              	.LVL15:
 306              	.LBB8:
 307              		.loc 1 44 0
 308 0006 2023     		movs	r3, #32
 309              	@ 44 "../../../../os/ports/GCC/ARMCMx/chcore_v7m.c" 1
 310 0008 83F31188 		msr     BASEPRI, r3
 311              	@ 0 "" 2
 312              		.thumb
 313              	.LBE8:
 314 000c FFF7FEFF 		bl	dbg_check_lock_from_isr
 315              	.LVL16:
 316              		.loc 1 45 0
 317 0010 FFF7FEFF 		bl	chSysTimerHandlerI
 318              	.LVL17:
 319              		.loc 1 46 0
 320 0014 FFF7FEFF 		bl	dbg_check_unlock_from_isr
 321              	.LVL18:
 322              	.LBB9:
 323 0018 0023     		movs	r3, #0
 324              	@ 46 "../../../../os/ports/GCC/ARMCMx/chcore_v7m.c" 1
 325 001a 83F31188 		msr     BASEPRI, r3
 326              	@ 0 "" 2
 327              		.thumb
 328              	.LBE9:
 329              		.loc 1 48 0
 330 001e FFF7FEFF 		bl	dbg_check_leave_isr
 331              	.LVL19:
 332              		.loc 1 49 0
 333 0022 BDE80840 		pop	{r3, lr}
 334              		.loc 1 48 0
 335 0026 FFF7FEBF 		b	_port_irq_epilogue
 336              	.LVL20:
ARM GAS  /tmp/cc5I5UEh.s 			page 7


 337              		.cfi_endproc
 338              	.LFE7:
 339              		.size	SysTickVector, .-SysTickVector
 340 002a 00BFAFF3 		.section	.text._port_switch,"ax",%progbits
 340      0080
 341              		.align	2
 342              		.p2align 4,,15
 343              		.global	_port_switch
 344              		.thumb
 345              		.thumb_func
 346              		.type	_port_switch, %function
 347              	_port_switch:
 348              	.LFB12:
 349              		.loc 1 229 0
 350              		.cfi_startproc
 351              		@ Naked Function: prologue and epilogue provided by programmer.
 352              		@ args = 0, pretend = 0, frame = 0
 353              		@ frame_needed = 0, uses_anonymous_args = 0
 354              	.LVL21:
 355              		.loc 1 231 0
 356              	@ 231 "../../../../os/ports/GCC/ARMCMx/chcore_v7m.c" 1
 357 0000 2DE9F04F 		push    {r4, r5, r6, r7, r8, r9, r10, r11, lr}
 358              	@ 0 "" 2
 359              		.loc 1 234 0
 360              	@ 234 "../../../../os/ports/GCC/ARMCMx/chcore_v7m.c" 1
 361 0004 2DED108A 		vpush   {s16-s31}
 362              	@ 0 "" 2
 363              		.loc 1 237 0
 364              	@ 237 "../../../../os/ports/GCC/ARMCMx/chcore_v7m.c" 1
 365 0008 C1F80CD0 		str     sp, [r1, #12]                          
 366 000c D0F80CD0 		ldr     sp, [r0, #12]
 367              	@ 0 "" 2
 368              		.loc 1 241 0
 369              	@ 241 "../../../../os/ports/GCC/ARMCMx/chcore_v7m.c" 1
 370 0010 BDEC108A 		vpop    {s16-s31}
 371              	@ 0 "" 2
 372              		.loc 1 243 0
 373              	@ 243 "../../../../os/ports/GCC/ARMCMx/chcore_v7m.c" 1
 374 0014 BDE8F08F 		pop     {r4, r5, r6, r7, r8, r9, r10, r11, pc}
 375              	@ 0 "" 2
 376              		.loc 1 245 0
 377              		.thumb
 378              		.cfi_endproc
 379              	.LFE12:
 380              		.size	_port_switch, .-_port_switch
 381 0018 AFF30080 		.section	.text._port_thread_start,"ax",%progbits
 381      AFF30080 
 382              		.align	2
 383              		.p2align 4,,15
 384              		.global	_port_thread_start
 385              		.thumb
 386              		.thumb_func
 387              		.type	_port_thread_start, %function
 388              	_port_thread_start:
 389              	.LFB13:
 390              		.loc 1 252 0
 391              		.cfi_startproc
ARM GAS  /tmp/cc5I5UEh.s 			page 8


 392              		@ args = 0, pretend = 0, frame = 0
 393              		@ frame_needed = 0, uses_anonymous_args = 0
 394 0000 08B5     		push	{r3, lr}
 395              		.cfi_def_cfa_offset 8
 396              		.cfi_offset 3, -8
 397              		.cfi_offset 14, -4
 398              		.loc 1 254 0
 399 0002 FFF7FEFF 		bl	dbg_check_unlock
 400              	.LVL22:
 401              	.LBB10:
 402 0006 0023     		movs	r3, #0
 403              	@ 254 "../../../../os/ports/GCC/ARMCMx/chcore_v7m.c" 1
 404 0008 83F31188 		msr     BASEPRI, r3
 405              	@ 0 "" 2
 406              		.thumb
 407              	.LBE10:
 408              		.loc 1 255 0
 409              	@ 255 "../../../../os/ports/GCC/ARMCMx/chcore_v7m.c" 1
 410 000c 2846     		mov     r0, r5                                 
 411 000e A047     		blx     r4                                     
 412 0010 FFF7FEFF 		bl      chThdExit
 413              	@ 0 "" 2
 414              		.thumb
 415 0014 08BD     		pop	{r3, pc}
 416              		.cfi_endproc
 417              	.LFE13:
 418              		.size	_port_thread_start, .-_port_thread_start
 419 0016 00BFAFF3 		.text
 419      0080AFF3 
 419      0080
 420              	.Letext0:
 421              		.file 2 "/usr/include/newlib/machine/_default_types.h"
 422              		.file 3 "/usr/include/newlib/stdint.h"
 423              		.file 4 "../../../../os/ports/GCC/ARMCMx/chtypes.h"
 424              		.file 5 "../../../../os/kernel/include/chlists.h"
 425              		.file 6 "../../../../os/kernel/include/chthreads.h"
 426              		.file 7 "../../../../os/ports/GCC/ARMCMx/chcore_v7m.h"
 427              		.file 8 "../../../../os/ports/common/ARMCMx/nvic.h"
 428              		.file 9 "../../../../os/kernel/include/chschd.h"
 429              		.file 10 "../../../../os/kernel/include/chmtx.h"
 430              		.file 11 "../../../../os/kernel/include/chdebug.h"
 431              		.file 12 "../../../../os/kernel/include/chsys.h"
 432              		.section	.debug_info,"",%progbits
 433              	.Ldebug_info0:
 434 0000 B90A0000 		.4byte	0xab9
 435 0004 0400     		.2byte	0x4
 436 0006 00000000 		.4byte	.Ldebug_abbrev0
 437 000a 04       		.byte	0x4
 438 000b 01       		.uleb128 0x1
 439 000c 49040000 		.4byte	.LASF114
 440 0010 01       		.byte	0x1
 441 0011 7C050000 		.4byte	.LASF115
 442 0015 F1030000 		.4byte	.LASF116
 443 0019 18000000 		.4byte	.Ldebug_ranges0+0x18
 444 001d 00000000 		.4byte	0
 445 0021 00000000 		.4byte	.Ldebug_line0
 446 0025 02       		.uleb128 0x2
ARM GAS  /tmp/cc5I5UEh.s 			page 9


 447 0026 04       		.byte	0x4
 448 0027 05       		.byte	0x5
 449 0028 696E7400 		.ascii	"int\000"
 450 002c 03       		.uleb128 0x3
 451 002d 04       		.byte	0x4
 452 002e 07       		.byte	0x7
 453 002f 5E010000 		.4byte	.LASF0
 454 0033 03       		.uleb128 0x3
 455 0034 01       		.byte	0x1
 456 0035 06       		.byte	0x6
 457 0036 82000000 		.4byte	.LASF1
 458 003a 04       		.uleb128 0x4
 459 003b 1D000000 		.4byte	.LASF5
 460 003f 02       		.byte	0x2
 461 0040 1D       		.byte	0x1d
 462 0041 45000000 		.4byte	0x45
 463 0045 03       		.uleb128 0x3
 464 0046 01       		.byte	0x1
 465 0047 08       		.byte	0x8
 466 0048 FC020000 		.4byte	.LASF2
 467 004c 03       		.uleb128 0x3
 468 004d 02       		.byte	0x2
 469 004e 05       		.byte	0x5
 470 004f 1A030000 		.4byte	.LASF3
 471 0053 03       		.uleb128 0x3
 472 0054 02       		.byte	0x2
 473 0055 07       		.byte	0x7
 474 0056 C6010000 		.4byte	.LASF4
 475 005a 04       		.uleb128 0x4
 476 005b C0030000 		.4byte	.LASF6
 477 005f 02       		.byte	0x2
 478 0060 3F       		.byte	0x3f
 479 0061 65000000 		.4byte	0x65
 480 0065 03       		.uleb128 0x3
 481 0066 04       		.byte	0x4
 482 0067 05       		.byte	0x5
 483 0068 C2000000 		.4byte	.LASF7
 484 006c 04       		.uleb128 0x4
 485 006d FC000000 		.4byte	.LASF8
 486 0071 02       		.byte	0x2
 487 0072 41       		.byte	0x41
 488 0073 77000000 		.4byte	0x77
 489 0077 03       		.uleb128 0x3
 490 0078 04       		.byte	0x4
 491 0079 07       		.byte	0x7
 492 007a 91010000 		.4byte	.LASF9
 493 007e 03       		.uleb128 0x3
 494 007f 08       		.byte	0x8
 495 0080 05       		.byte	0x5
 496 0081 74000000 		.4byte	.LASF10
 497 0085 04       		.uleb128 0x4
 498 0086 BB020000 		.4byte	.LASF11
 499 008a 02       		.byte	0x2
 500 008b 5B       		.byte	0x5b
 501 008c 90000000 		.4byte	0x90
 502 0090 03       		.uleb128 0x3
 503 0091 08       		.byte	0x8
ARM GAS  /tmp/cc5I5UEh.s 			page 10


 504 0092 07       		.byte	0x7
 505 0093 50000000 		.4byte	.LASF12
 506 0097 04       		.uleb128 0x4
 507 0098 43050000 		.4byte	.LASF13
 508 009c 03       		.byte	0x3
 509 009d 2A       		.byte	0x2a
 510 009e 3A000000 		.4byte	0x3a
 511 00a2 04       		.uleb128 0x4
 512 00a3 F4020000 		.4byte	.LASF14
 513 00a7 03       		.byte	0x3
 514 00a8 41       		.byte	0x41
 515 00a9 5A000000 		.4byte	0x5a
 516 00ad 04       		.uleb128 0x4
 517 00ae 7E030000 		.4byte	.LASF15
 518 00b2 03       		.byte	0x3
 519 00b3 42       		.byte	0x42
 520 00b4 6C000000 		.4byte	0x6c
 521 00b8 04       		.uleb128 0x4
 522 00b9 14000000 		.4byte	.LASF16
 523 00bd 03       		.byte	0x3
 524 00be 4E       		.byte	0x4e
 525 00bf 85000000 		.4byte	0x85
 526 00c3 03       		.uleb128 0x3
 527 00c4 01       		.byte	0x1
 528 00c5 02       		.byte	0x2
 529 00c6 EE020000 		.4byte	.LASF17
 530 00ca 04       		.uleb128 0x4
 531 00cb 10020000 		.4byte	.LASF18
 532 00cf 04       		.byte	0x4
 533 00d0 25       		.byte	0x25
 534 00d1 97000000 		.4byte	0x97
 535 00d5 04       		.uleb128 0x4
 536 00d6 D8000000 		.4byte	.LASF19
 537 00da 04       		.byte	0x4
 538 00db 26       		.byte	0x26
 539 00dc 97000000 		.4byte	0x97
 540 00e0 04       		.uleb128 0x4
 541 00e1 D2020000 		.4byte	.LASF20
 542 00e5 04       		.byte	0x4
 543 00e6 27       		.byte	0x27
 544 00e7 97000000 		.4byte	0x97
 545 00eb 04       		.uleb128 0x4
 546 00ec B8000000 		.4byte	.LASF21
 547 00f0 04       		.byte	0x4
 548 00f1 28       		.byte	0x28
 549 00f2 97000000 		.4byte	0x97
 550 00f6 04       		.uleb128 0x4
 551 00f7 E6020000 		.4byte	.LASF22
 552 00fb 04       		.byte	0x4
 553 00fc 29       		.byte	0x29
 554 00fd AD000000 		.4byte	0xad
 555 0101 04       		.uleb128 0x4
 556 0102 DE010000 		.4byte	.LASF23
 557 0106 04       		.byte	0x4
 558 0107 2A       		.byte	0x2a
 559 0108 A2000000 		.4byte	0xa2
 560 010c 04       		.uleb128 0x4
ARM GAS  /tmp/cc5I5UEh.s 			page 11


 561 010d 37020000 		.4byte	.LASF24
 562 0111 04       		.byte	0x4
 563 0112 2C       		.byte	0x2c
 564 0113 AD000000 		.4byte	0xad
 565 0117 04       		.uleb128 0x4
 566 0118 AB030000 		.4byte	.LASF25
 567 011c 04       		.byte	0x4
 568 011d 2E       		.byte	0x2e
 569 011e AD000000 		.4byte	0xad
 570 0122 04       		.uleb128 0x4
 571 0123 6C030000 		.4byte	.LASF26
 572 0127 05       		.byte	0x5
 573 0128 23       		.byte	0x23
 574 0129 2D010000 		.4byte	0x12d
 575 012d 05       		.uleb128 0x5
 576 012e 6C030000 		.4byte	.LASF26
 577 0132 4C       		.byte	0x4c
 578 0133 06       		.byte	0x6
 579 0134 57       		.byte	0x57
 580 0135 36020000 		.4byte	0x236
 581 0139 06       		.uleb128 0x6
 582 013a 51030000 		.4byte	.LASF27
 583 013e 06       		.byte	0x6
 584 013f 58       		.byte	0x58
 585 0140 57020000 		.4byte	0x257
 586 0144 00       		.byte	0
 587 0145 06       		.uleb128 0x6
 588 0146 DF020000 		.4byte	.LASF28
 589 014a 06       		.byte	0x6
 590 014b 5A       		.byte	0x5a
 591 014c 57020000 		.4byte	0x257
 592 0150 04       		.byte	0x4
 593 0151 06       		.uleb128 0x6
 594 0152 6D000000 		.4byte	.LASF29
 595 0156 06       		.byte	0x6
 596 0157 5C       		.byte	0x5c
 597 0158 F6000000 		.4byte	0xf6
 598 015c 08       		.byte	0x8
 599 015d 06       		.uleb128 0x6
 600 015e BC050000 		.4byte	.LASF30
 601 0162 06       		.byte	0x6
 602 0163 5D       		.byte	0x5d
 603 0164 24050000 		.4byte	0x524
 604 0168 0C       		.byte	0xc
 605 0169 06       		.uleb128 0x6
 606 016a E1000000 		.4byte	.LASF31
 607 016e 06       		.byte	0x6
 608 016f 5F       		.byte	0x5f
 609 0170 57020000 		.4byte	0x257
 610 0174 10       		.byte	0x10
 611 0175 06       		.uleb128 0x6
 612 0176 77020000 		.4byte	.LASF32
 613 017a 06       		.byte	0x6
 614 017b 60       		.byte	0x60
 615 017c 57020000 		.4byte	0x257
 616 0180 14       		.byte	0x14
 617 0181 06       		.uleb128 0x6
ARM GAS  /tmp/cc5I5UEh.s 			page 12


 618 0182 75050000 		.4byte	.LASF33
 619 0186 06       		.byte	0x6
 620 0187 67       		.byte	0x67
 621 0188 0E080000 		.4byte	0x80e
 622 018c 18       		.byte	0x18
 623 018d 06       		.uleb128 0x6
 624 018e 53010000 		.4byte	.LASF34
 625 0192 06       		.byte	0x6
 626 0193 6D       		.byte	0x6d
 627 0194 20080000 		.4byte	0x820
 628 0198 1C       		.byte	0x1c
 629 0199 06       		.uleb128 0x6
 630 019a 24030000 		.4byte	.LASF35
 631 019e 06       		.byte	0x6
 632 019f 72       		.byte	0x72
 633 01a0 D5000000 		.4byte	0xd5
 634 01a4 20       		.byte	0x20
 635 01a5 06       		.uleb128 0x6
 636 01a6 5E030000 		.4byte	.LASF36
 637 01aa 06       		.byte	0x6
 638 01ab 76       		.byte	0x76
 639 01ac CA000000 		.4byte	0xca
 640 01b0 21       		.byte	0x21
 641 01b1 06       		.uleb128 0x6
 642 01b2 27050000 		.4byte	.LASF37
 643 01b6 06       		.byte	0x6
 644 01b7 7B       		.byte	0x7b
 645 01b8 E0000000 		.4byte	0xe0
 646 01bc 22       		.byte	0x22
 647 01bd 06       		.uleb128 0x6
 648 01be 34030000 		.4byte	.LASF38
 649 01c2 06       		.byte	0x6
 650 01c3 81       		.byte	0x81
 651 01c4 EB000000 		.4byte	0xeb
 652 01c8 23       		.byte	0x23
 653 01c9 06       		.uleb128 0x6
 654 01ca CA030000 		.4byte	.LASF39
 655 01ce 06       		.byte	0x6
 656 01cf 88       		.byte	0x88
 657 01d0 36070000 		.4byte	0x736
 658 01d4 24       		.byte	0x24
 659 01d5 07       		.uleb128 0x7
 660 01d6 705F7500 		.ascii	"p_u\000"
 661 01da 06       		.byte	0x6
 662 01db AD       		.byte	0xad
 663 01dc D9070000 		.4byte	0x7d9
 664 01e0 28       		.byte	0x28
 665 01e1 06       		.uleb128 0x6
 666 01e2 C2050000 		.4byte	.LASF40
 667 01e6 06       		.byte	0x6
 668 01e7 B2       		.byte	0xb2
 669 01e8 7D020000 		.4byte	0x27d
 670 01ec 2C       		.byte	0x2c
 671 01ed 06       		.uleb128 0x6
 672 01ee 72010000 		.4byte	.LASF41
 673 01f2 06       		.byte	0x6
 674 01f3 B8       		.byte	0xb8
ARM GAS  /tmp/cc5I5UEh.s 			page 13


 675 01f4 5D020000 		.4byte	0x25d
 676 01f8 30       		.byte	0x30
 677 01f9 06       		.uleb128 0x6
 678 01fa 00000000 		.4byte	.LASF42
 679 01fe 06       		.byte	0x6
 680 01ff BC       		.byte	0xbc
 681 0200 01010000 		.4byte	0x101
 682 0204 38       		.byte	0x38
 683 0205 06       		.uleb128 0x6
 684 0206 73030000 		.4byte	.LASF43
 685 020a 06       		.byte	0x6
 686 020b C2       		.byte	0xc2
 687 020c 0C010000 		.4byte	0x10c
 688 0210 3C       		.byte	0x3c
 689 0211 06       		.uleb128 0x6
 690 0212 10030000 		.4byte	.LASF44
 691 0216 06       		.byte	0x6
 692 0217 C9       		.byte	0xc9
 693 0218 26080000 		.4byte	0x826
 694 021c 40       		.byte	0x40
 695 021d 06       		.uleb128 0x6
 696 021e B5030000 		.4byte	.LASF45
 697 0222 06       		.byte	0x6
 698 0223 CD       		.byte	0xcd
 699 0224 F6000000 		.4byte	0xf6
 700 0228 44       		.byte	0x44
 701 0229 06       		.uleb128 0x6
 702 022a A8000000 		.4byte	.LASF46
 703 022e 06       		.byte	0x6
 704 022f D3       		.byte	0xd3
 705 0230 93020000 		.4byte	0x293
 706 0234 48       		.byte	0x48
 707 0235 00       		.byte	0
 708 0236 08       		.uleb128 0x8
 709 0237 08       		.byte	0x8
 710 0238 05       		.byte	0x5
 711 0239 5A       		.byte	0x5a
 712 023a 57020000 		.4byte	0x257
 713 023e 06       		.uleb128 0x6
 714 023f 51030000 		.4byte	.LASF27
 715 0243 05       		.byte	0x5
 716 0244 5B       		.byte	0x5b
 717 0245 57020000 		.4byte	0x257
 718 0249 00       		.byte	0
 719 024a 06       		.uleb128 0x6
 720 024b DF020000 		.4byte	.LASF28
 721 024f 05       		.byte	0x5
 722 0250 5D       		.byte	0x5d
 723 0251 57020000 		.4byte	0x257
 724 0255 04       		.byte	0x4
 725 0256 00       		.byte	0
 726 0257 09       		.uleb128 0x9
 727 0258 04       		.byte	0x4
 728 0259 22010000 		.4byte	0x122
 729 025d 04       		.uleb128 0x4
 730 025e 85020000 		.4byte	.LASF47
 731 0262 05       		.byte	0x5
ARM GAS  /tmp/cc5I5UEh.s 			page 14


 732 0263 5F       		.byte	0x5f
 733 0264 36020000 		.4byte	0x236
 734 0268 08       		.uleb128 0x8
 735 0269 04       		.byte	0x4
 736 026a 05       		.byte	0x5
 737 026b 64       		.byte	0x64
 738 026c 7D020000 		.4byte	0x27d
 739 0270 06       		.uleb128 0x6
 740 0271 51030000 		.4byte	.LASF27
 741 0275 05       		.byte	0x5
 742 0276 66       		.byte	0x66
 743 0277 57020000 		.4byte	0x257
 744 027b 00       		.byte	0
 745 027c 00       		.byte	0
 746 027d 04       		.uleb128 0x4
 747 027e 2B020000 		.4byte	.LASF48
 748 0282 05       		.byte	0x5
 749 0283 69       		.byte	0x69
 750 0284 68020000 		.4byte	0x268
 751 0288 04       		.uleb128 0x4
 752 0289 24010000 		.4byte	.LASF49
 753 028d 07       		.byte	0x7
 754 028e DE       		.byte	0xde
 755 028f 93020000 		.4byte	0x293
 756 0293 0A       		.uleb128 0xa
 757 0294 04       		.byte	0x4
 758 0295 04       		.uleb128 0x4
 759 0296 49020000 		.4byte	.LASF50
 760 029a 07       		.byte	0x7
 761 029b E4       		.byte	0xe4
 762 029c B8000000 		.4byte	0xb8
 763 02a0 05       		.uleb128 0x5
 764 02a1 7D010000 		.4byte	.LASF51
 765 02a5 68       		.byte	0x68
 766 02a6 07       		.byte	0x7
 767 02a7 E6       		.byte	0xe6
 768 02a8 D8030000 		.4byte	0x3d8
 769 02ac 07       		.uleb128 0x7
 770 02ad 723000   		.ascii	"r0\000"
 771 02b0 07       		.byte	0x7
 772 02b1 E7       		.byte	0xe7
 773 02b2 88020000 		.4byte	0x288
 774 02b6 00       		.byte	0
 775 02b7 07       		.uleb128 0x7
 776 02b8 723100   		.ascii	"r1\000"
 777 02bb 07       		.byte	0x7
 778 02bc E8       		.byte	0xe8
 779 02bd 88020000 		.4byte	0x288
 780 02c1 04       		.byte	0x4
 781 02c2 07       		.uleb128 0x7
 782 02c3 723200   		.ascii	"r2\000"
 783 02c6 07       		.byte	0x7
 784 02c7 E9       		.byte	0xe9
 785 02c8 88020000 		.4byte	0x288
 786 02cc 08       		.byte	0x8
 787 02cd 07       		.uleb128 0x7
 788 02ce 723300   		.ascii	"r3\000"
ARM GAS  /tmp/cc5I5UEh.s 			page 15


 789 02d1 07       		.byte	0x7
 790 02d2 EA       		.byte	0xea
 791 02d3 88020000 		.4byte	0x288
 792 02d7 0C       		.byte	0xc
 793 02d8 07       		.uleb128 0x7
 794 02d9 72313200 		.ascii	"r12\000"
 795 02dd 07       		.byte	0x7
 796 02de EB       		.byte	0xeb
 797 02df 88020000 		.4byte	0x288
 798 02e3 10       		.byte	0x10
 799 02e4 06       		.uleb128 0x6
 800 02e5 6B010000 		.4byte	.LASF52
 801 02e9 07       		.byte	0x7
 802 02ea EC       		.byte	0xec
 803 02eb 88020000 		.4byte	0x288
 804 02ef 14       		.byte	0x14
 805 02f0 07       		.uleb128 0x7
 806 02f1 706300   		.ascii	"pc\000"
 807 02f4 07       		.byte	0x7
 808 02f5 ED       		.byte	0xed
 809 02f6 88020000 		.4byte	0x288
 810 02fa 18       		.byte	0x18
 811 02fb 06       		.uleb128 0x6
 812 02fc 3E030000 		.4byte	.LASF53
 813 0300 07       		.byte	0x7
 814 0301 EE       		.byte	0xee
 815 0302 88020000 		.4byte	0x288
 816 0306 1C       		.byte	0x1c
 817 0307 07       		.uleb128 0x7
 818 0308 733000   		.ascii	"s0\000"
 819 030b 07       		.byte	0x7
 820 030c F0       		.byte	0xf0
 821 030d 88020000 		.4byte	0x288
 822 0311 20       		.byte	0x20
 823 0312 07       		.uleb128 0x7
 824 0313 733100   		.ascii	"s1\000"
 825 0316 07       		.byte	0x7
 826 0317 F1       		.byte	0xf1
 827 0318 88020000 		.4byte	0x288
 828 031c 24       		.byte	0x24
 829 031d 07       		.uleb128 0x7
 830 031e 733200   		.ascii	"s2\000"
 831 0321 07       		.byte	0x7
 832 0322 F2       		.byte	0xf2
 833 0323 88020000 		.4byte	0x288
 834 0327 28       		.byte	0x28
 835 0328 07       		.uleb128 0x7
 836 0329 733300   		.ascii	"s3\000"
 837 032c 07       		.byte	0x7
 838 032d F3       		.byte	0xf3
 839 032e 88020000 		.4byte	0x288
 840 0332 2C       		.byte	0x2c
 841 0333 07       		.uleb128 0x7
 842 0334 733400   		.ascii	"s4\000"
 843 0337 07       		.byte	0x7
 844 0338 F4       		.byte	0xf4
 845 0339 88020000 		.4byte	0x288
ARM GAS  /tmp/cc5I5UEh.s 			page 16


 846 033d 30       		.byte	0x30
 847 033e 07       		.uleb128 0x7
 848 033f 733500   		.ascii	"s5\000"
 849 0342 07       		.byte	0x7
 850 0343 F5       		.byte	0xf5
 851 0344 88020000 		.4byte	0x288
 852 0348 34       		.byte	0x34
 853 0349 07       		.uleb128 0x7
 854 034a 733600   		.ascii	"s6\000"
 855 034d 07       		.byte	0x7
 856 034e F6       		.byte	0xf6
 857 034f 88020000 		.4byte	0x288
 858 0353 38       		.byte	0x38
 859 0354 07       		.uleb128 0x7
 860 0355 733700   		.ascii	"s7\000"
 861 0358 07       		.byte	0x7
 862 0359 F7       		.byte	0xf7
 863 035a 88020000 		.4byte	0x288
 864 035e 3C       		.byte	0x3c
 865 035f 07       		.uleb128 0x7
 866 0360 733800   		.ascii	"s8\000"
 867 0363 07       		.byte	0x7
 868 0364 F8       		.byte	0xf8
 869 0365 88020000 		.4byte	0x288
 870 0369 40       		.byte	0x40
 871 036a 07       		.uleb128 0x7
 872 036b 733900   		.ascii	"s9\000"
 873 036e 07       		.byte	0x7
 874 036f F9       		.byte	0xf9
 875 0370 88020000 		.4byte	0x288
 876 0374 44       		.byte	0x44
 877 0375 07       		.uleb128 0x7
 878 0376 73313000 		.ascii	"s10\000"
 879 037a 07       		.byte	0x7
 880 037b FA       		.byte	0xfa
 881 037c 88020000 		.4byte	0x288
 882 0380 48       		.byte	0x48
 883 0381 07       		.uleb128 0x7
 884 0382 73313100 		.ascii	"s11\000"
 885 0386 07       		.byte	0x7
 886 0387 FB       		.byte	0xfb
 887 0388 88020000 		.4byte	0x288
 888 038c 4C       		.byte	0x4c
 889 038d 07       		.uleb128 0x7
 890 038e 73313200 		.ascii	"s12\000"
 891 0392 07       		.byte	0x7
 892 0393 FC       		.byte	0xfc
 893 0394 88020000 		.4byte	0x288
 894 0398 50       		.byte	0x50
 895 0399 07       		.uleb128 0x7
 896 039a 73313300 		.ascii	"s13\000"
 897 039e 07       		.byte	0x7
 898 039f FD       		.byte	0xfd
 899 03a0 88020000 		.4byte	0x288
 900 03a4 54       		.byte	0x54
 901 03a5 07       		.uleb128 0x7
 902 03a6 73313400 		.ascii	"s14\000"
ARM GAS  /tmp/cc5I5UEh.s 			page 17


 903 03aa 07       		.byte	0x7
 904 03ab FE       		.byte	0xfe
 905 03ac 88020000 		.4byte	0x288
 906 03b0 58       		.byte	0x58
 907 03b1 07       		.uleb128 0x7
 908 03b2 73313500 		.ascii	"s15\000"
 909 03b6 07       		.byte	0x7
 910 03b7 FF       		.byte	0xff
 911 03b8 88020000 		.4byte	0x288
 912 03bc 5C       		.byte	0x5c
 913 03bd 0B       		.uleb128 0xb
 914 03be 58030000 		.4byte	.LASF54
 915 03c2 07       		.byte	0x7
 916 03c3 0001     		.2byte	0x100
 917 03c5 88020000 		.4byte	0x288
 918 03c9 60       		.byte	0x60
 919 03ca 0B       		.uleb128 0xb
 920 03cb B5020000 		.4byte	.LASF55
 921 03cf 07       		.byte	0x7
 922 03d0 0101     		.2byte	0x101
 923 03d2 88020000 		.4byte	0x288
 924 03d6 64       		.byte	0x64
 925 03d7 00       		.byte	0
 926 03d8 0C       		.uleb128 0xc
 927 03d9 EA030000 		.4byte	.LASF56
 928 03dd 64       		.byte	0x64
 929 03de 07       		.byte	0x7
 930 03df 0501     		.2byte	0x105
 931 03e1 24050000 		.4byte	0x524
 932 03e5 0D       		.uleb128 0xd
 933 03e6 73313600 		.ascii	"s16\000"
 934 03ea 07       		.byte	0x7
 935 03eb 0701     		.2byte	0x107
 936 03ed 88020000 		.4byte	0x288
 937 03f1 00       		.byte	0
 938 03f2 0D       		.uleb128 0xd
 939 03f3 73313700 		.ascii	"s17\000"
 940 03f7 07       		.byte	0x7
 941 03f8 0801     		.2byte	0x108
 942 03fa 88020000 		.4byte	0x288
 943 03fe 04       		.byte	0x4
 944 03ff 0D       		.uleb128 0xd
 945 0400 73313800 		.ascii	"s18\000"
 946 0404 07       		.byte	0x7
 947 0405 0901     		.2byte	0x109
 948 0407 88020000 		.4byte	0x288
 949 040b 08       		.byte	0x8
 950 040c 0D       		.uleb128 0xd
 951 040d 73313900 		.ascii	"s19\000"
 952 0411 07       		.byte	0x7
 953 0412 0A01     		.2byte	0x10a
 954 0414 88020000 		.4byte	0x288
 955 0418 0C       		.byte	0xc
 956 0419 0D       		.uleb128 0xd
 957 041a 73323000 		.ascii	"s20\000"
 958 041e 07       		.byte	0x7
 959 041f 0B01     		.2byte	0x10b
ARM GAS  /tmp/cc5I5UEh.s 			page 18


 960 0421 88020000 		.4byte	0x288
 961 0425 10       		.byte	0x10
 962 0426 0D       		.uleb128 0xd
 963 0427 73323100 		.ascii	"s21\000"
 964 042b 07       		.byte	0x7
 965 042c 0C01     		.2byte	0x10c
 966 042e 88020000 		.4byte	0x288
 967 0432 14       		.byte	0x14
 968 0433 0D       		.uleb128 0xd
 969 0434 73323200 		.ascii	"s22\000"
 970 0438 07       		.byte	0x7
 971 0439 0D01     		.2byte	0x10d
 972 043b 88020000 		.4byte	0x288
 973 043f 18       		.byte	0x18
 974 0440 0D       		.uleb128 0xd
 975 0441 73323300 		.ascii	"s23\000"
 976 0445 07       		.byte	0x7
 977 0446 0E01     		.2byte	0x10e
 978 0448 88020000 		.4byte	0x288
 979 044c 1C       		.byte	0x1c
 980 044d 0D       		.uleb128 0xd
 981 044e 73323400 		.ascii	"s24\000"
 982 0452 07       		.byte	0x7
 983 0453 0F01     		.2byte	0x10f
 984 0455 88020000 		.4byte	0x288
 985 0459 20       		.byte	0x20
 986 045a 0D       		.uleb128 0xd
 987 045b 73323500 		.ascii	"s25\000"
 988 045f 07       		.byte	0x7
 989 0460 1001     		.2byte	0x110
 990 0462 88020000 		.4byte	0x288
 991 0466 24       		.byte	0x24
 992 0467 0D       		.uleb128 0xd
 993 0468 73323600 		.ascii	"s26\000"
 994 046c 07       		.byte	0x7
 995 046d 1101     		.2byte	0x111
 996 046f 88020000 		.4byte	0x288
 997 0473 28       		.byte	0x28
 998 0474 0D       		.uleb128 0xd
 999 0475 73323700 		.ascii	"s27\000"
 1000 0479 07       		.byte	0x7
 1001 047a 1201     		.2byte	0x112
 1002 047c 88020000 		.4byte	0x288
 1003 0480 2C       		.byte	0x2c
 1004 0481 0D       		.uleb128 0xd
 1005 0482 73323800 		.ascii	"s28\000"
 1006 0486 07       		.byte	0x7
 1007 0487 1301     		.2byte	0x113
 1008 0489 88020000 		.4byte	0x288
 1009 048d 30       		.byte	0x30
 1010 048e 0D       		.uleb128 0xd
 1011 048f 73323900 		.ascii	"s29\000"
 1012 0493 07       		.byte	0x7
 1013 0494 1401     		.2byte	0x114
 1014 0496 88020000 		.4byte	0x288
 1015 049a 34       		.byte	0x34
 1016 049b 0D       		.uleb128 0xd
ARM GAS  /tmp/cc5I5UEh.s 			page 19


 1017 049c 73333000 		.ascii	"s30\000"
 1018 04a0 07       		.byte	0x7
 1019 04a1 1501     		.2byte	0x115
 1020 04a3 88020000 		.4byte	0x288
 1021 04a7 38       		.byte	0x38
 1022 04a8 0D       		.uleb128 0xd
 1023 04a9 73333100 		.ascii	"s31\000"
 1024 04ad 07       		.byte	0x7
 1025 04ae 1601     		.2byte	0x116
 1026 04b0 88020000 		.4byte	0x288
 1027 04b4 3C       		.byte	0x3c
 1028 04b5 0D       		.uleb128 0xd
 1029 04b6 723400   		.ascii	"r4\000"
 1030 04b9 07       		.byte	0x7
 1031 04ba 1801     		.2byte	0x118
 1032 04bc 88020000 		.4byte	0x288
 1033 04c0 40       		.byte	0x40
 1034 04c1 0D       		.uleb128 0xd
 1035 04c2 723500   		.ascii	"r5\000"
 1036 04c5 07       		.byte	0x7
 1037 04c6 1901     		.2byte	0x119
 1038 04c8 88020000 		.4byte	0x288
 1039 04cc 44       		.byte	0x44
 1040 04cd 0D       		.uleb128 0xd
 1041 04ce 723600   		.ascii	"r6\000"
 1042 04d1 07       		.byte	0x7
 1043 04d2 1A01     		.2byte	0x11a
 1044 04d4 88020000 		.4byte	0x288
 1045 04d8 48       		.byte	0x48
 1046 04d9 0D       		.uleb128 0xd
 1047 04da 723700   		.ascii	"r7\000"
 1048 04dd 07       		.byte	0x7
 1049 04de 1B01     		.2byte	0x11b
 1050 04e0 88020000 		.4byte	0x288
 1051 04e4 4C       		.byte	0x4c
 1052 04e5 0D       		.uleb128 0xd
 1053 04e6 723800   		.ascii	"r8\000"
 1054 04e9 07       		.byte	0x7
 1055 04ea 1C01     		.2byte	0x11c
 1056 04ec 88020000 		.4byte	0x288
 1057 04f0 50       		.byte	0x50
 1058 04f1 0D       		.uleb128 0xd
 1059 04f2 723900   		.ascii	"r9\000"
 1060 04f5 07       		.byte	0x7
 1061 04f6 1D01     		.2byte	0x11d
 1062 04f8 88020000 		.4byte	0x288
 1063 04fc 54       		.byte	0x54
 1064 04fd 0D       		.uleb128 0xd
 1065 04fe 72313000 		.ascii	"r10\000"
 1066 0502 07       		.byte	0x7
 1067 0503 1E01     		.2byte	0x11e
 1068 0505 88020000 		.4byte	0x288
 1069 0509 58       		.byte	0x58
 1070 050a 0D       		.uleb128 0xd
 1071 050b 72313100 		.ascii	"r11\000"
 1072 050f 07       		.byte	0x7
 1073 0510 1F01     		.2byte	0x11f
ARM GAS  /tmp/cc5I5UEh.s 			page 20


 1074 0512 88020000 		.4byte	0x288
 1075 0516 5C       		.byte	0x5c
 1076 0517 0D       		.uleb128 0xd
 1077 0518 6C7200   		.ascii	"lr\000"
 1078 051b 07       		.byte	0x7
 1079 051c 2001     		.2byte	0x120
 1080 051e 88020000 		.4byte	0x288
 1081 0522 60       		.byte	0x60
 1082 0523 00       		.byte	0
 1083 0524 0C       		.uleb128 0xc
 1084 0525 BE010000 		.4byte	.LASF57
 1085 0529 04       		.byte	0x4
 1086 052a 07       		.byte	0x7
 1087 052b 2A01     		.2byte	0x12a
 1088 052d 3F050000 		.4byte	0x53f
 1089 0531 0D       		.uleb128 0xd
 1090 0532 72313300 		.ascii	"r13\000"
 1091 0536 07       		.byte	0x7
 1092 0537 2B01     		.2byte	0x12b
 1093 0539 3F050000 		.4byte	0x53f
 1094 053d 00       		.byte	0
 1095 053e 00       		.byte	0
 1096 053f 09       		.uleb128 0x9
 1097 0540 04       		.byte	0x4
 1098 0541 D8030000 		.4byte	0x3d8
 1099 0545 04       		.uleb128 0x4
 1100 0546 9C030000 		.4byte	.LASF58
 1101 054a 08       		.byte	0x8
 1102 054b 33       		.byte	0x33
 1103 054c 50050000 		.4byte	0x550
 1104 0550 0E       		.uleb128 0xe
 1105 0551 AD000000 		.4byte	0xad
 1106 0555 03       		.uleb128 0x3
 1107 0556 04       		.byte	0x4
 1108 0557 07       		.byte	0x7
 1109 0558 5A020000 		.4byte	.LASF59
 1110 055c 08       		.uleb128 0x8
 1111 055d 8C       		.byte	0x8c
 1112 055e 08       		.byte	0x8
 1113 055f 82       		.byte	0x82
 1114 0560 61060000 		.4byte	0x661
 1115 0564 06       		.uleb128 0x6
 1116 0565 67000000 		.4byte	.LASF60
 1117 0569 08       		.byte	0x8
 1118 056a 83       		.byte	0x83
 1119 056b 45050000 		.4byte	0x545
 1120 056f 00       		.byte	0
 1121 0570 06       		.uleb128 0x6
 1122 0571 D9010000 		.4byte	.LASF61
 1123 0575 08       		.byte	0x8
 1124 0576 84       		.byte	0x84
 1125 0577 45050000 		.4byte	0x545
 1126 057b 04       		.byte	0x4
 1127 057c 06       		.uleb128 0x6
 1128 057d A3010000 		.4byte	.LASF62
 1129 0581 08       		.byte	0x8
 1130 0582 85       		.byte	0x85
ARM GAS  /tmp/cc5I5UEh.s 			page 21


 1131 0583 45050000 		.4byte	0x545
 1132 0587 08       		.byte	0x8
 1133 0588 06       		.uleb128 0x6
 1134 0589 E4010000 		.4byte	.LASF63
 1135 058d 08       		.byte	0x8
 1136 058e 86       		.byte	0x86
 1137 058f 45050000 		.4byte	0x545
 1138 0593 0C       		.byte	0xc
 1139 0594 07       		.uleb128 0x7
 1140 0595 53435200 		.ascii	"SCR\000"
 1141 0599 08       		.byte	0x8
 1142 059a 87       		.byte	0x87
 1143 059b 45050000 		.4byte	0x545
 1144 059f 10       		.byte	0x10
 1145 05a0 07       		.uleb128 0x7
 1146 05a1 43435200 		.ascii	"CCR\000"
 1147 05a5 08       		.byte	0x8
 1148 05a6 88       		.byte	0x88
 1149 05a7 45050000 		.4byte	0x545
 1150 05ab 14       		.byte	0x14
 1151 05ac 06       		.uleb128 0x6
 1152 05ad D1030000 		.4byte	.LASF64
 1153 05b1 08       		.byte	0x8
 1154 05b2 89       		.byte	0x89
 1155 05b3 71060000 		.4byte	0x671
 1156 05b7 18       		.byte	0x18
 1157 05b8 06       		.uleb128 0x6
 1158 05b9 0A030000 		.4byte	.LASF65
 1159 05bd 08       		.byte	0x8
 1160 05be 8A       		.byte	0x8a
 1161 05bf 45050000 		.4byte	0x545
 1162 05c3 24       		.byte	0x24
 1163 05c4 06       		.uleb128 0x6
 1164 05c5 72020000 		.4byte	.LASF66
 1165 05c9 08       		.byte	0x8
 1166 05ca 8B       		.byte	0x8b
 1167 05cb 45050000 		.4byte	0x545
 1168 05cf 28       		.byte	0x28
 1169 05d0 06       		.uleb128 0x6
 1170 05d1 AF050000 		.4byte	.LASF67
 1171 05d5 08       		.byte	0x8
 1172 05d6 8C       		.byte	0x8c
 1173 05d7 45050000 		.4byte	0x545
 1174 05db 2C       		.byte	0x2c
 1175 05dc 06       		.uleb128 0x6
 1176 05dd EA010000 		.4byte	.LASF68
 1177 05e1 08       		.byte	0x8
 1178 05e2 8D       		.byte	0x8d
 1179 05e3 45050000 		.4byte	0x545
 1180 05e7 30       		.byte	0x30
 1181 05e8 06       		.uleb128 0x6
 1182 05e9 F7010000 		.4byte	.LASF69
 1183 05ed 08       		.byte	0x8
 1184 05ee 8E       		.byte	0x8e
 1185 05ef 45050000 		.4byte	0x545
 1186 05f3 34       		.byte	0x34
 1187 05f4 06       		.uleb128 0x6
ARM GAS  /tmp/cc5I5UEh.s 			page 22


 1188 05f5 E9000000 		.4byte	.LASF70
 1189 05f9 08       		.byte	0x8
 1190 05fa 8F       		.byte	0x8f
 1191 05fb 45050000 		.4byte	0x545
 1192 05ff 38       		.byte	0x38
 1193 0600 06       		.uleb128 0x6
 1194 0601 F7000000 		.4byte	.LASF71
 1195 0605 08       		.byte	0x8
 1196 0606 90       		.byte	0x90
 1197 0607 45050000 		.4byte	0x545
 1198 060b 3C       		.byte	0x3c
 1199 060c 07       		.uleb128 0x7
 1200 060d 50465200 		.ascii	"PFR\000"
 1201 0611 08       		.byte	0x8
 1202 0612 91       		.byte	0x91
 1203 0613 86060000 		.4byte	0x686
 1204 0617 40       		.byte	0x40
 1205 0618 07       		.uleb128 0x7
 1206 0619 44465200 		.ascii	"DFR\000"
 1207 061d 08       		.byte	0x8
 1208 061e 92       		.byte	0x92
 1209 061f 45050000 		.4byte	0x545
 1210 0623 48       		.byte	0x48
 1211 0624 07       		.uleb128 0x7
 1212 0625 41445200 		.ascii	"ADR\000"
 1213 0629 08       		.byte	0x8
 1214 062a 93       		.byte	0x93
 1215 062b 45050000 		.4byte	0x545
 1216 062f 4C       		.byte	0x4c
 1217 0630 06       		.uleb128 0x6
 1218 0631 38050000 		.4byte	.LASF72
 1219 0635 08       		.byte	0x8
 1220 0636 94       		.byte	0x94
 1221 0637 9B060000 		.4byte	0x69b
 1222 063b 50       		.byte	0x50
 1223 063c 07       		.uleb128 0x7
 1224 063d 53415200 		.ascii	"SAR\000"
 1225 0641 08       		.byte	0x8
 1226 0642 95       		.byte	0x95
 1227 0643 B0060000 		.4byte	0x6b0
 1228 0647 60       		.byte	0x60
 1229 0648 06       		.uleb128 0x6
 1230 0649 8F030000 		.4byte	.LASF73
 1231 064d 08       		.byte	0x8
 1232 064e 96       		.byte	0x96
 1233 064f B5060000 		.4byte	0x6b5
 1234 0653 74       		.byte	0x74
 1235 0654 06       		.uleb128 0x6
 1236 0655 A9050000 		.4byte	.LASF74
 1237 0659 08       		.byte	0x8
 1238 065a 97       		.byte	0x97
 1239 065b 45050000 		.4byte	0x545
 1240 065f 88       		.byte	0x88
 1241 0660 00       		.byte	0
 1242 0661 0F       		.uleb128 0xf
 1243 0662 45050000 		.4byte	0x545
 1244 0666 71060000 		.4byte	0x671
ARM GAS  /tmp/cc5I5UEh.s 			page 23


 1245 066a 10       		.uleb128 0x10
 1246 066b 55050000 		.4byte	0x555
 1247 066f 02       		.byte	0x2
 1248 0670 00       		.byte	0
 1249 0671 0E       		.uleb128 0xe
 1250 0672 61060000 		.4byte	0x661
 1251 0676 0F       		.uleb128 0xf
 1252 0677 45050000 		.4byte	0x545
 1253 067b 86060000 		.4byte	0x686
 1254 067f 10       		.uleb128 0x10
 1255 0680 55050000 		.4byte	0x555
 1256 0684 01       		.byte	0x1
 1257 0685 00       		.byte	0
 1258 0686 0E       		.uleb128 0xe
 1259 0687 76060000 		.4byte	0x676
 1260 068b 0F       		.uleb128 0xf
 1261 068c 45050000 		.4byte	0x545
 1262 0690 9B060000 		.4byte	0x69b
 1263 0694 10       		.uleb128 0x10
 1264 0695 55050000 		.4byte	0x555
 1265 0699 03       		.byte	0x3
 1266 069a 00       		.byte	0
 1267 069b 0E       		.uleb128 0xe
 1268 069c 8B060000 		.4byte	0x68b
 1269 06a0 0F       		.uleb128 0xf
 1270 06a1 45050000 		.4byte	0x545
 1271 06a5 B0060000 		.4byte	0x6b0
 1272 06a9 10       		.uleb128 0x10
 1273 06aa 55050000 		.4byte	0x555
 1274 06ae 04       		.byte	0x4
 1275 06af 00       		.byte	0
 1276 06b0 0E       		.uleb128 0xe
 1277 06b1 A0060000 		.4byte	0x6a0
 1278 06b5 0E       		.uleb128 0xe
 1279 06b6 A0060000 		.4byte	0x6a0
 1280 06ba 04       		.uleb128 0x4
 1281 06bb 27000000 		.4byte	.LASF75
 1282 06bf 08       		.byte	0x8
 1283 06c0 98       		.byte	0x98
 1284 06c1 5C050000 		.4byte	0x55c
 1285 06c5 08       		.uleb128 0x8
 1286 06c6 18       		.byte	0x18
 1287 06c7 08       		.byte	0x8
 1288 06c8 C5       		.byte	0xc5
 1289 06c9 16070000 		.4byte	0x716
 1290 06cd 06       		.uleb128 0x6
 1291 06ce 8F030000 		.4byte	.LASF73
 1292 06d2 08       		.byte	0x8
 1293 06d3 C6       		.byte	0xc6
 1294 06d4 26070000 		.4byte	0x726
 1295 06d8 00       		.byte	0
 1296 06d9 06       		.uleb128 0x6
 1297 06da 54020000 		.4byte	.LASF76
 1298 06de 08       		.byte	0x8
 1299 06df C7       		.byte	0xc7
 1300 06e0 45050000 		.4byte	0x545
 1301 06e4 04       		.byte	0x4
ARM GAS  /tmp/cc5I5UEh.s 			page 24


 1302 06e5 06       		.uleb128 0x6
 1303 06e6 66030000 		.4byte	.LASF77
 1304 06ea 08       		.byte	0x8
 1305 06eb C8       		.byte	0xc8
 1306 06ec 45050000 		.4byte	0x545
 1307 06f0 08       		.byte	0x8
 1308 06f1 06       		.uleb128 0x6
 1309 06f2 0D000000 		.4byte	.LASF78
 1310 06f6 08       		.byte	0x8
 1311 06f7 C9       		.byte	0xc9
 1312 06f8 45050000 		.4byte	0x545
 1313 06fc 0C       		.byte	0xc
 1314 06fd 06       		.uleb128 0x6
 1315 06fe C6020000 		.4byte	.LASF79
 1316 0702 08       		.byte	0x8
 1317 0703 CA       		.byte	0xca
 1318 0704 45050000 		.4byte	0x545
 1319 0708 10       		.byte	0x10
 1320 0709 06       		.uleb128 0x6
 1321 070a CC020000 		.4byte	.LASF80
 1322 070e 08       		.byte	0x8
 1323 070f CB       		.byte	0xcb
 1324 0710 45050000 		.4byte	0x545
 1325 0714 14       		.byte	0x14
 1326 0715 00       		.byte	0
 1327 0716 0F       		.uleb128 0xf
 1328 0717 45050000 		.4byte	0x545
 1329 071b 26070000 		.4byte	0x726
 1330 071f 10       		.uleb128 0x10
 1331 0720 55050000 		.4byte	0x555
 1332 0724 00       		.byte	0
 1333 0725 00       		.byte	0
 1334 0726 0E       		.uleb128 0xe
 1335 0727 16070000 		.4byte	0x716
 1336 072b 04       		.uleb128 0x4
 1337 072c 2C030000 		.4byte	.LASF81
 1338 0730 08       		.byte	0x8
 1339 0731 CC       		.byte	0xcc
 1340 0732 C5060000 		.4byte	0x6c5
 1341 0736 0E       		.uleb128 0xe
 1342 0737 17010000 		.4byte	0x117
 1343 073b 08       		.uleb128 0x8
 1344 073c 1C       		.byte	0x1c
 1345 073d 09       		.byte	0x9
 1346 073e 57       		.byte	0x57
 1347 073f 8C070000 		.4byte	0x78c
 1348 0743 06       		.uleb128 0x6
 1349 0744 87030000 		.4byte	.LASF82
 1350 0748 09       		.byte	0x9
 1351 0749 58       		.byte	0x58
 1352 074a 5D020000 		.4byte	0x25d
 1353 074e 00       		.byte	0
 1354 074f 06       		.uleb128 0x6
 1355 0750 43030000 		.4byte	.LASF83
 1356 0754 09       		.byte	0x9
 1357 0755 59       		.byte	0x59
 1358 0756 F6000000 		.4byte	0xf6
ARM GAS  /tmp/cc5I5UEh.s 			page 25


 1359 075a 08       		.byte	0x8
 1360 075b 06       		.uleb128 0x6
 1361 075c 7F020000 		.4byte	.LASF84
 1362 0760 09       		.byte	0x9
 1363 0761 5B       		.byte	0x5b
 1364 0762 24050000 		.4byte	0x524
 1365 0766 0C       		.byte	0xc
 1366 0767 06       		.uleb128 0x6
 1367 0768 EF010000 		.4byte	.LASF85
 1368 076c 09       		.byte	0x9
 1369 076d 5E       		.byte	0x5e
 1370 076e 57020000 		.4byte	0x257
 1371 0772 10       		.byte	0x10
 1372 0773 06       		.uleb128 0x6
 1373 0774 9C020000 		.4byte	.LASF86
 1374 0778 09       		.byte	0x9
 1375 0779 5F       		.byte	0x5f
 1376 077a 57020000 		.4byte	0x257
 1377 077e 14       		.byte	0x14
 1378 077f 06       		.uleb128 0x6
 1379 0780 92020000 		.4byte	.LASF87
 1380 0784 09       		.byte	0x9
 1381 0785 62       		.byte	0x62
 1382 0786 57020000 		.4byte	0x257
 1383 078a 18       		.byte	0x18
 1384 078b 00       		.byte	0
 1385 078c 04       		.uleb128 0x4
 1386 078d 2E050000 		.4byte	.LASF88
 1387 0791 09       		.byte	0x9
 1388 0792 64       		.byte	0x64
 1389 0793 3B070000 		.4byte	0x73b
 1390 0797 05       		.uleb128 0x5
 1391 0798 43020000 		.4byte	.LASF89
 1392 079c 10       		.byte	0x10
 1393 079d 0A       		.byte	0xa
 1394 079e 25       		.byte	0x25
 1395 079f C8070000 		.4byte	0x7c8
 1396 07a3 06       		.uleb128 0x6
 1397 07a4 B0000000 		.4byte	.LASF90
 1398 07a8 0A       		.byte	0xa
 1399 07a9 26       		.byte	0x26
 1400 07aa 5D020000 		.4byte	0x25d
 1401 07ae 00       		.byte	0
 1402 07af 06       		.uleb128 0x6
 1403 07b0 B4050000 		.4byte	.LASF91
 1404 07b4 0A       		.byte	0xa
 1405 07b5 28       		.byte	0x28
 1406 07b6 57020000 		.4byte	0x257
 1407 07ba 08       		.byte	0x8
 1408 07bb 06       		.uleb128 0x6
 1409 07bc A4030000 		.4byte	.LASF92
 1410 07c0 0A       		.byte	0xa
 1411 07c1 2A       		.byte	0x2a
 1412 07c2 C8070000 		.4byte	0x7c8
 1413 07c6 0C       		.byte	0xc
 1414 07c7 00       		.byte	0
 1415 07c8 09       		.uleb128 0x9
ARM GAS  /tmp/cc5I5UEh.s 			page 26


 1416 07c9 04       		.byte	0x4
 1417 07ca 97070000 		.4byte	0x797
 1418 07ce 04       		.uleb128 0x4
 1419 07cf 43020000 		.4byte	.LASF89
 1420 07d3 0A       		.byte	0xa
 1421 07d4 2C       		.byte	0x2c
 1422 07d5 97070000 		.4byte	0x797
 1423 07d9 11       		.uleb128 0x11
 1424 07da 04       		.byte	0x4
 1425 07db 06       		.byte	0x6
 1426 07dc 8F       		.byte	0x8f
 1427 07dd 0E080000 		.4byte	0x80e
 1428 07e1 12       		.uleb128 0x12
 1429 07e2 06000000 		.4byte	.LASF93
 1430 07e6 06       		.byte	0x6
 1431 07e7 96       		.byte	0x96
 1432 07e8 01010000 		.4byte	0x101
 1433 07ec 12       		.uleb128 0x12
 1434 07ed EE000000 		.4byte	.LASF94
 1435 07f1 06       		.byte	0x6
 1436 07f2 9D       		.byte	0x9d
 1437 07f3 01010000 		.4byte	0x101
 1438 07f7 12       		.uleb128 0x12
 1439 07f8 6E050000 		.4byte	.LASF95
 1440 07fc 06       		.byte	0x6
 1441 07fd A4       		.byte	0xa4
 1442 07fe 93020000 		.4byte	0x293
 1443 0802 12       		.uleb128 0x12
 1444 0803 4A030000 		.4byte	.LASF96
 1445 0807 06       		.byte	0x6
 1446 0808 AB       		.byte	0xab
 1447 0809 0C010000 		.4byte	0x10c
 1448 080d 00       		.byte	0
 1449 080e 09       		.uleb128 0x9
 1450 080f 04       		.byte	0x4
 1451 0810 14080000 		.4byte	0x814
 1452 0814 13       		.uleb128 0x13
 1453 0815 19080000 		.4byte	0x819
 1454 0819 03       		.uleb128 0x3
 1455 081a 01       		.byte	0x1
 1456 081b 08       		.byte	0x8
 1457 081c 97030000 		.4byte	.LASF97
 1458 0820 09       		.uleb128 0x9
 1459 0821 04       		.byte	0x4
 1460 0822 95020000 		.4byte	0x295
 1461 0826 09       		.uleb128 0x9
 1462 0827 04       		.byte	0x4
 1463 0828 CE070000 		.4byte	0x7ce
 1464 082c 14       		.uleb128 0x14
 1465 082d A8010000 		.4byte	.LASF98
 1466 0831 01       		.byte	0x1
 1467 0832 C8       		.byte	0xc8
 1468 0833 00000000 		.4byte	.LFB11
 1469 0837 0E000000 		.4byte	.LFE11-.LFB11
 1470 083b 01       		.uleb128 0x1
 1471 083c 9C       		.byte	0x9c
 1472 083d 5D080000 		.4byte	0x85d
ARM GAS  /tmp/cc5I5UEh.s 			page 27


 1473 0841 15       		.uleb128 0x15
 1474 0842 04000000 		.4byte	.LVL0
 1475 0846 6D0A0000 		.4byte	0xa6d
 1476 084a 15       		.uleb128 0x15
 1477 084b 08000000 		.4byte	.LVL1
 1478 084f 740A0000 		.4byte	0xa74
 1479 0853 15       		.uleb128 0x15
 1480 0854 0C000000 		.4byte	.LVL2
 1481 0858 7B0A0000 		.4byte	0xa7b
 1482 085c 00       		.byte	0
 1483 085d 14       		.uleb128 0x14
 1484 085e CB000000 		.4byte	.LASF99
 1485 0862 01       		.byte	0x1
 1486 0863 3A       		.byte	0x3a
 1487 0864 00000000 		.4byte	.LFB8
 1488 0868 24000000 		.4byte	.LFE8-.LFB8
 1489 086c 01       		.uleb128 0x1
 1490 086d 9C       		.byte	0x9c
 1491 086e 99080000 		.4byte	0x899
 1492 0872 16       		.uleb128 0x16
 1493 0873 DA020000 		.4byte	.LASF100
 1494 0877 01       		.byte	0x1
 1495 0878 3B       		.byte	0x3b
 1496 0879 99080000 		.4byte	0x899
 1497 087d 00000000 		.4byte	.LLST0
 1498 0881 17       		.uleb128 0x17
 1499 0882 18000000 		.4byte	.LBB2
 1500 0886 0C000000 		.4byte	.LBE2-.LBB2
 1501 088a 18       		.uleb128 0x18
 1502 088b 746D7000 		.ascii	"tmp\000"
 1503 088f 01       		.byte	0x1
 1504 0890 4A       		.byte	0x4a
 1505 0891 AD000000 		.4byte	0xad
 1506 0895 01       		.uleb128 0x1
 1507 0896 53       		.byte	0x53
 1508 0897 00       		.byte	0
 1509 0898 00       		.byte	0
 1510 0899 09       		.uleb128 0x9
 1511 089a 04       		.byte	0x4
 1512 089b A0020000 		.4byte	0x2a0
 1513 089f 14       		.uleb128 0x14
 1514 08a0 4B050000 		.4byte	.LASF101
 1515 08a4 01       		.byte	0x1
 1516 08a5 6F       		.byte	0x6f
 1517 08a6 00000000 		.4byte	.LFB9
 1518 08aa 34000000 		.4byte	.LFE9-.LFB9
 1519 08ae 01       		.uleb128 0x1
 1520 08af 9C       		.byte	0x9c
 1521 08b0 FC080000 		.4byte	0x8fc
 1522 08b4 19       		.uleb128 0x19
 1523 08b5 14000000 		.4byte	.LVL5
 1524 08b9 820A0000 		.4byte	0xa82
 1525 08bd CC080000 		.4byte	0x8cc
 1526 08c1 1A       		.uleb128 0x1a
 1527 08c2 01       		.uleb128 0x1
 1528 08c3 51       		.byte	0x51
 1529 08c4 01       		.uleb128 0x1
ARM GAS  /tmp/cc5I5UEh.s 			page 28


 1530 08c5 40       		.byte	0x40
 1531 08c6 1A       		.uleb128 0x1a
 1532 08c7 01       		.uleb128 0x1
 1533 08c8 50       		.byte	0x50
 1534 08c9 01       		.uleb128 0x1
 1535 08ca 37       		.byte	0x37
 1536 08cb 00       		.byte	0
 1537 08cc 19       		.uleb128 0x19
 1538 08cd 1E000000 		.4byte	.LVL6
 1539 08d1 820A0000 		.4byte	0xa82
 1540 08d5 E6080000 		.4byte	0x8e6
 1541 08d9 1A       		.uleb128 0x1a
 1542 08da 01       		.uleb128 0x1
 1543 08db 51       		.byte	0x51
 1544 08dc 03       		.uleb128 0x3
 1545 08dd 0A       		.byte	0xa
 1546 08de 0002     		.2byte	0x200
 1547 08e0 1A       		.uleb128 0x1a
 1548 08e1 01       		.uleb128 0x1
 1549 08e2 50       		.byte	0x50
 1550 08e3 01       		.uleb128 0x1
 1551 08e4 3A       		.byte	0x3a
 1552 08e5 00       		.byte	0
 1553 08e6 1B       		.uleb128 0x1b
 1554 08e7 2A000000 		.4byte	.LVL7
 1555 08eb 820A0000 		.4byte	0xa82
 1556 08ef 1A       		.uleb128 0x1a
 1557 08f0 01       		.uleb128 0x1
 1558 08f1 51       		.byte	0x51
 1559 08f2 02       		.uleb128 0x2
 1560 08f3 08       		.byte	0x8
 1561 08f4 80       		.byte	0x80
 1562 08f5 1A       		.uleb128 0x1a
 1563 08f6 01       		.uleb128 0x1
 1564 08f7 50       		.byte	0x50
 1565 08f8 01       		.uleb128 0x1
 1566 08f9 3B       		.byte	0x3b
 1567 08fa 00       		.byte	0
 1568 08fb 00       		.byte	0
 1569 08fc 14       		.uleb128 0x14
 1570 08fd FD010000 		.4byte	.LASF102
 1571 0901 01       		.byte	0x1
 1572 0902 8D       		.byte	0x8d
 1573 0903 00000000 		.4byte	.LFB10
 1574 0907 84000000 		.4byte	.LFE10-.LFB10
 1575 090b 01       		.uleb128 0x1
 1576 090c 9C       		.byte	0x9c
 1577 090d 76090000 		.4byte	0x976
 1578 0911 1C       		.uleb128 0x1c
 1579 0912 00000000 		.4byte	.LBB3
 1580 0916 06000000 		.4byte	.LBE3-.LBB3
 1581 091a 2C090000 		.4byte	0x92c
 1582 091e 18       		.uleb128 0x18
 1583 091f 746D7000 		.ascii	"tmp\000"
 1584 0923 01       		.byte	0x1
 1585 0924 8F       		.byte	0x8f
 1586 0925 AD000000 		.4byte	0xad
ARM GAS  /tmp/cc5I5UEh.s 			page 29


 1587 0929 01       		.uleb128 0x1
 1588 092a 53       		.byte	0x53
 1589 092b 00       		.byte	0
 1590 092c 1D       		.uleb128 0x1d
 1591 092d 00000000 		.4byte	.Ldebug_ranges0+0
 1592 0931 5E090000 		.4byte	0x95e
 1593 0935 16       		.uleb128 0x16
 1594 0936 DA020000 		.4byte	.LASF100
 1595 093a 01       		.byte	0x1
 1596 093b 91       		.byte	0x91
 1597 093c 99080000 		.4byte	0x899
 1598 0940 21000000 		.4byte	.LLST1
 1599 0944 17       		.uleb128 0x17
 1600 0945 48000000 		.4byte	.LBB5
 1601 0949 0C000000 		.4byte	.LBE5-.LBB5
 1602 094d 16       		.uleb128 0x16
 1603 094e B5020000 		.4byte	.LASF55
 1604 0952 01       		.byte	0x1
 1605 0953 AE       		.byte	0xae
 1606 0954 AD000000 		.4byte	0xad
 1607 0958 5E000000 		.4byte	.LLST2
 1608 095c 00       		.byte	0
 1609 095d 00       		.byte	0
 1610 095e 17       		.uleb128 0x17
 1611 095f 56000000 		.4byte	.LBB6
 1612 0963 06000000 		.4byte	.LBE6-.LBB6
 1613 0967 18       		.uleb128 0x18
 1614 0968 746D7000 		.ascii	"tmp\000"
 1615 096c 01       		.byte	0x1
 1616 096d BE       		.byte	0xbe
 1617 096e AD000000 		.4byte	0xad
 1618 0972 01       		.uleb128 0x1
 1619 0973 53       		.byte	0x53
 1620 0974 00       		.byte	0
 1621 0975 00       		.byte	0
 1622 0976 14       		.uleb128 0x14
 1623 0977 42000000 		.4byte	.LASF103
 1624 097b 01       		.byte	0x1
 1625 097c 28       		.byte	0x28
 1626 097d 00000000 		.4byte	.LFB7
 1627 0981 2A000000 		.4byte	.LFE7-.LFB7
 1628 0985 01       		.uleb128 0x1
 1629 0986 9C       		.byte	0x9c
 1630 0987 F8090000 		.4byte	0x9f8
 1631 098b 1C       		.uleb128 0x1c
 1632 098c 06000000 		.4byte	.LBB8
 1633 0990 06000000 		.4byte	.LBE8-.LBB8
 1634 0994 A6090000 		.4byte	0x9a6
 1635 0998 18       		.uleb128 0x18
 1636 0999 746D7000 		.ascii	"tmp\000"
 1637 099d 01       		.byte	0x1
 1638 099e 2C       		.byte	0x2c
 1639 099f AD000000 		.4byte	0xad
 1640 09a3 01       		.uleb128 0x1
 1641 09a4 53       		.byte	0x53
 1642 09a5 00       		.byte	0
 1643 09a6 1C       		.uleb128 0x1c
ARM GAS  /tmp/cc5I5UEh.s 			page 30


 1644 09a7 18000000 		.4byte	.LBB9
 1645 09ab 06000000 		.4byte	.LBE9-.LBB9
 1646 09af C1090000 		.4byte	0x9c1
 1647 09b3 18       		.uleb128 0x18
 1648 09b4 746D7000 		.ascii	"tmp\000"
 1649 09b8 01       		.byte	0x1
 1650 09b9 2E       		.byte	0x2e
 1651 09ba AD000000 		.4byte	0xad
 1652 09be 01       		.uleb128 0x1
 1653 09bf 53       		.byte	0x53
 1654 09c0 00       		.byte	0
 1655 09c1 15       		.uleb128 0x15
 1656 09c2 06000000 		.4byte	.LVL15
 1657 09c6 990A0000 		.4byte	0xa99
 1658 09ca 15       		.uleb128 0x15
 1659 09cb 10000000 		.4byte	.LVL16
 1660 09cf A00A0000 		.4byte	0xaa0
 1661 09d3 15       		.uleb128 0x15
 1662 09d4 14000000 		.4byte	.LVL17
 1663 09d8 A70A0000 		.4byte	0xaa7
 1664 09dc 15       		.uleb128 0x15
 1665 09dd 18000000 		.4byte	.LVL18
 1666 09e1 AE0A0000 		.4byte	0xaae
 1667 09e5 15       		.uleb128 0x15
 1668 09e6 22000000 		.4byte	.LVL19
 1669 09ea B50A0000 		.4byte	0xab5
 1670 09ee 1E       		.uleb128 0x1e
 1671 09ef 2A000000 		.4byte	.LVL20
 1672 09f3 FC080000 		.4byte	0x8fc
 1673 09f7 00       		.byte	0
 1674 09f8 14       		.uleb128 0x14
 1675 09f9 84010000 		.4byte	.LASF104
 1676 09fd 01       		.byte	0x1
 1677 09fe E5       		.byte	0xe5
 1678 09ff 00000000 		.4byte	.LFB12
 1679 0a03 18000000 		.4byte	.LFE12-.LFB12
 1680 0a07 01       		.uleb128 0x1
 1681 0a08 9C       		.byte	0x9c
 1682 0a09 280A0000 		.4byte	0xa28
 1683 0a0d 1F       		.uleb128 0x1f
 1684 0a0e 6E747000 		.ascii	"ntp\000"
 1685 0a12 01       		.byte	0x1
 1686 0a13 E5       		.byte	0xe5
 1687 0a14 57020000 		.4byte	0x257
 1688 0a18 01       		.uleb128 0x1
 1689 0a19 50       		.byte	0x50
 1690 0a1a 1F       		.uleb128 0x1f
 1691 0a1b 6F747000 		.ascii	"otp\000"
 1692 0a1f 01       		.byte	0x1
 1693 0a20 E5       		.byte	0xe5
 1694 0a21 57020000 		.4byte	0x257
 1695 0a25 01       		.uleb128 0x1
 1696 0a26 51       		.byte	0x51
 1697 0a27 00       		.byte	0
 1698 0a28 14       		.uleb128 0x14
 1699 0a29 18020000 		.4byte	.LASF105
 1700 0a2d 01       		.byte	0x1
ARM GAS  /tmp/cc5I5UEh.s 			page 31


 1701 0a2e FC       		.byte	0xfc
 1702 0a2f 00000000 		.4byte	.LFB13
 1703 0a33 16000000 		.4byte	.LFE13-.LFB13
 1704 0a37 01       		.uleb128 0x1
 1705 0a38 9C       		.byte	0x9c
 1706 0a39 620A0000 		.4byte	0xa62
 1707 0a3d 1C       		.uleb128 0x1c
 1708 0a3e 06000000 		.4byte	.LBB10
 1709 0a42 06000000 		.4byte	.LBE10-.LBB10
 1710 0a46 580A0000 		.4byte	0xa58
 1711 0a4a 18       		.uleb128 0x18
 1712 0a4b 746D7000 		.ascii	"tmp\000"
 1713 0a4f 01       		.byte	0x1
 1714 0a50 FE       		.byte	0xfe
 1715 0a51 AD000000 		.4byte	0xad
 1716 0a55 01       		.uleb128 0x1
 1717 0a56 53       		.byte	0x53
 1718 0a57 00       		.byte	0
 1719 0a58 15       		.uleb128 0x15
 1720 0a59 06000000 		.4byte	.LVL22
 1721 0a5d 7B0A0000 		.4byte	0xa7b
 1722 0a61 00       		.byte	0
 1723 0a62 20       		.uleb128 0x20
 1724 0a63 3D050000 		.4byte	.LASF117
 1725 0a67 09       		.byte	0x9
 1726 0a68 68       		.byte	0x68
 1727 0a69 8C070000 		.4byte	0x78c
 1728 0a6d 21       		.uleb128 0x21
 1729 0a6e 63020000 		.4byte	.LASF106
 1730 0a72 0B       		.byte	0xb
 1731 0a73 E0       		.byte	0xe0
 1732 0a74 21       		.uleb128 0x21
 1733 0a75 2D010000 		.4byte	.LASF107
 1734 0a79 09       		.byte	0x9
 1735 0a7a A1       		.byte	0xa1
 1736 0a7b 21       		.uleb128 0x21
 1737 0a7c A4020000 		.4byte	.LASF108
 1738 0a80 0B       		.byte	0xb
 1739 0a81 E1       		.byte	0xe1
 1740 0a82 22       		.uleb128 0x22
 1741 0a83 07010000 		.4byte	.LASF118
 1742 0a87 08       		.byte	0x8
 1743 0a88 1E01     		.2byte	0x11e
 1744 0a8a 990A0000 		.4byte	0xa99
 1745 0a8e 23       		.uleb128 0x23
 1746 0a8f AD000000 		.4byte	0xad
 1747 0a93 23       		.uleb128 0x23
 1748 0a94 AD000000 		.4byte	0xad
 1749 0a98 00       		.byte	0
 1750 0a99 21       		.uleb128 0x21
 1751 0a9a 3F010000 		.4byte	.LASF109
 1752 0a9e 0B       		.byte	0xb
 1753 0a9f E4       		.byte	0xe4
 1754 0aa0 21       		.uleb128 0x21
 1755 0aa1 56050000 		.4byte	.LASF110
 1756 0aa5 0B       		.byte	0xb
 1757 0aa6 E2       		.byte	0xe2
ARM GAS  /tmp/cc5I5UEh.s 			page 32


 1758 0aa7 21       		.uleb128 0x21
 1759 0aa8 2F000000 		.4byte	.LASF111
 1760 0aac 0C       		.byte	0xc
 1761 0aad F0       		.byte	0xf0
 1762 0aae 21       		.uleb128 0x21
 1763 0aaf 8E000000 		.4byte	.LASF112
 1764 0ab3 0B       		.byte	0xb
 1765 0ab4 E3       		.byte	0xe3
 1766 0ab5 21       		.uleb128 0x21
 1767 0ab6 D6030000 		.4byte	.LASF113
 1768 0aba 0B       		.byte	0xb
 1769 0abb E5       		.byte	0xe5
 1770 0abc 00       		.byte	0
 1771              		.section	.debug_abbrev,"",%progbits
 1772              	.Ldebug_abbrev0:
 1773 0000 01       		.uleb128 0x1
 1774 0001 11       		.uleb128 0x11
 1775 0002 01       		.byte	0x1
 1776 0003 25       		.uleb128 0x25
 1777 0004 0E       		.uleb128 0xe
 1778 0005 13       		.uleb128 0x13
 1779 0006 0B       		.uleb128 0xb
 1780 0007 03       		.uleb128 0x3
 1781 0008 0E       		.uleb128 0xe
 1782 0009 1B       		.uleb128 0x1b
 1783 000a 0E       		.uleb128 0xe
 1784 000b 55       		.uleb128 0x55
 1785 000c 17       		.uleb128 0x17
 1786 000d 11       		.uleb128 0x11
 1787 000e 01       		.uleb128 0x1
 1788 000f 10       		.uleb128 0x10
 1789 0010 17       		.uleb128 0x17
 1790 0011 00       		.byte	0
 1791 0012 00       		.byte	0
 1792 0013 02       		.uleb128 0x2
 1793 0014 24       		.uleb128 0x24
 1794 0015 00       		.byte	0
 1795 0016 0B       		.uleb128 0xb
 1796 0017 0B       		.uleb128 0xb
 1797 0018 3E       		.uleb128 0x3e
 1798 0019 0B       		.uleb128 0xb
 1799 001a 03       		.uleb128 0x3
 1800 001b 08       		.uleb128 0x8
 1801 001c 00       		.byte	0
 1802 001d 00       		.byte	0
 1803 001e 03       		.uleb128 0x3
 1804 001f 24       		.uleb128 0x24
 1805 0020 00       		.byte	0
 1806 0021 0B       		.uleb128 0xb
 1807 0022 0B       		.uleb128 0xb
 1808 0023 3E       		.uleb128 0x3e
 1809 0024 0B       		.uleb128 0xb
 1810 0025 03       		.uleb128 0x3
 1811 0026 0E       		.uleb128 0xe
 1812 0027 00       		.byte	0
 1813 0028 00       		.byte	0
 1814 0029 04       		.uleb128 0x4
ARM GAS  /tmp/cc5I5UEh.s 			page 33


 1815 002a 16       		.uleb128 0x16
 1816 002b 00       		.byte	0
 1817 002c 03       		.uleb128 0x3
 1818 002d 0E       		.uleb128 0xe
 1819 002e 3A       		.uleb128 0x3a
 1820 002f 0B       		.uleb128 0xb
 1821 0030 3B       		.uleb128 0x3b
 1822 0031 0B       		.uleb128 0xb
 1823 0032 49       		.uleb128 0x49
 1824 0033 13       		.uleb128 0x13
 1825 0034 00       		.byte	0
 1826 0035 00       		.byte	0
 1827 0036 05       		.uleb128 0x5
 1828 0037 13       		.uleb128 0x13
 1829 0038 01       		.byte	0x1
 1830 0039 03       		.uleb128 0x3
 1831 003a 0E       		.uleb128 0xe
 1832 003b 0B       		.uleb128 0xb
 1833 003c 0B       		.uleb128 0xb
 1834 003d 3A       		.uleb128 0x3a
 1835 003e 0B       		.uleb128 0xb
 1836 003f 3B       		.uleb128 0x3b
 1837 0040 0B       		.uleb128 0xb
 1838 0041 01       		.uleb128 0x1
 1839 0042 13       		.uleb128 0x13
 1840 0043 00       		.byte	0
 1841 0044 00       		.byte	0
 1842 0045 06       		.uleb128 0x6
 1843 0046 0D       		.uleb128 0xd
 1844 0047 00       		.byte	0
 1845 0048 03       		.uleb128 0x3
 1846 0049 0E       		.uleb128 0xe
 1847 004a 3A       		.uleb128 0x3a
 1848 004b 0B       		.uleb128 0xb
 1849 004c 3B       		.uleb128 0x3b
 1850 004d 0B       		.uleb128 0xb
 1851 004e 49       		.uleb128 0x49
 1852 004f 13       		.uleb128 0x13
 1853 0050 38       		.uleb128 0x38
 1854 0051 0B       		.uleb128 0xb
 1855 0052 00       		.byte	0
 1856 0053 00       		.byte	0
 1857 0054 07       		.uleb128 0x7
 1858 0055 0D       		.uleb128 0xd
 1859 0056 00       		.byte	0
 1860 0057 03       		.uleb128 0x3
 1861 0058 08       		.uleb128 0x8
 1862 0059 3A       		.uleb128 0x3a
 1863 005a 0B       		.uleb128 0xb
 1864 005b 3B       		.uleb128 0x3b
 1865 005c 0B       		.uleb128 0xb
 1866 005d 49       		.uleb128 0x49
 1867 005e 13       		.uleb128 0x13
 1868 005f 38       		.uleb128 0x38
 1869 0060 0B       		.uleb128 0xb
 1870 0061 00       		.byte	0
 1871 0062 00       		.byte	0
ARM GAS  /tmp/cc5I5UEh.s 			page 34


 1872 0063 08       		.uleb128 0x8
 1873 0064 13       		.uleb128 0x13
 1874 0065 01       		.byte	0x1
 1875 0066 0B       		.uleb128 0xb
 1876 0067 0B       		.uleb128 0xb
 1877 0068 3A       		.uleb128 0x3a
 1878 0069 0B       		.uleb128 0xb
 1879 006a 3B       		.uleb128 0x3b
 1880 006b 0B       		.uleb128 0xb
 1881 006c 01       		.uleb128 0x1
 1882 006d 13       		.uleb128 0x13
 1883 006e 00       		.byte	0
 1884 006f 00       		.byte	0
 1885 0070 09       		.uleb128 0x9
 1886 0071 0F       		.uleb128 0xf
 1887 0072 00       		.byte	0
 1888 0073 0B       		.uleb128 0xb
 1889 0074 0B       		.uleb128 0xb
 1890 0075 49       		.uleb128 0x49
 1891 0076 13       		.uleb128 0x13
 1892 0077 00       		.byte	0
 1893 0078 00       		.byte	0
 1894 0079 0A       		.uleb128 0xa
 1895 007a 0F       		.uleb128 0xf
 1896 007b 00       		.byte	0
 1897 007c 0B       		.uleb128 0xb
 1898 007d 0B       		.uleb128 0xb
 1899 007e 00       		.byte	0
 1900 007f 00       		.byte	0
 1901 0080 0B       		.uleb128 0xb
 1902 0081 0D       		.uleb128 0xd
 1903 0082 00       		.byte	0
 1904 0083 03       		.uleb128 0x3
 1905 0084 0E       		.uleb128 0xe
 1906 0085 3A       		.uleb128 0x3a
 1907 0086 0B       		.uleb128 0xb
 1908 0087 3B       		.uleb128 0x3b
 1909 0088 05       		.uleb128 0x5
 1910 0089 49       		.uleb128 0x49
 1911 008a 13       		.uleb128 0x13
 1912 008b 38       		.uleb128 0x38
 1913 008c 0B       		.uleb128 0xb
 1914 008d 00       		.byte	0
 1915 008e 00       		.byte	0
 1916 008f 0C       		.uleb128 0xc
 1917 0090 13       		.uleb128 0x13
 1918 0091 01       		.byte	0x1
 1919 0092 03       		.uleb128 0x3
 1920 0093 0E       		.uleb128 0xe
 1921 0094 0B       		.uleb128 0xb
 1922 0095 0B       		.uleb128 0xb
 1923 0096 3A       		.uleb128 0x3a
 1924 0097 0B       		.uleb128 0xb
 1925 0098 3B       		.uleb128 0x3b
 1926 0099 05       		.uleb128 0x5
 1927 009a 01       		.uleb128 0x1
 1928 009b 13       		.uleb128 0x13
ARM GAS  /tmp/cc5I5UEh.s 			page 35


 1929 009c 00       		.byte	0
 1930 009d 00       		.byte	0
 1931 009e 0D       		.uleb128 0xd
 1932 009f 0D       		.uleb128 0xd
 1933 00a0 00       		.byte	0
 1934 00a1 03       		.uleb128 0x3
 1935 00a2 08       		.uleb128 0x8
 1936 00a3 3A       		.uleb128 0x3a
 1937 00a4 0B       		.uleb128 0xb
 1938 00a5 3B       		.uleb128 0x3b
 1939 00a6 05       		.uleb128 0x5
 1940 00a7 49       		.uleb128 0x49
 1941 00a8 13       		.uleb128 0x13
 1942 00a9 38       		.uleb128 0x38
 1943 00aa 0B       		.uleb128 0xb
 1944 00ab 00       		.byte	0
 1945 00ac 00       		.byte	0
 1946 00ad 0E       		.uleb128 0xe
 1947 00ae 35       		.uleb128 0x35
 1948 00af 00       		.byte	0
 1949 00b0 49       		.uleb128 0x49
 1950 00b1 13       		.uleb128 0x13
 1951 00b2 00       		.byte	0
 1952 00b3 00       		.byte	0
 1953 00b4 0F       		.uleb128 0xf
 1954 00b5 01       		.uleb128 0x1
 1955 00b6 01       		.byte	0x1
 1956 00b7 49       		.uleb128 0x49
 1957 00b8 13       		.uleb128 0x13
 1958 00b9 01       		.uleb128 0x1
 1959 00ba 13       		.uleb128 0x13
 1960 00bb 00       		.byte	0
 1961 00bc 00       		.byte	0
 1962 00bd 10       		.uleb128 0x10
 1963 00be 21       		.uleb128 0x21
 1964 00bf 00       		.byte	0
 1965 00c0 49       		.uleb128 0x49
 1966 00c1 13       		.uleb128 0x13
 1967 00c2 2F       		.uleb128 0x2f
 1968 00c3 0B       		.uleb128 0xb
 1969 00c4 00       		.byte	0
 1970 00c5 00       		.byte	0
 1971 00c6 11       		.uleb128 0x11
 1972 00c7 17       		.uleb128 0x17
 1973 00c8 01       		.byte	0x1
 1974 00c9 0B       		.uleb128 0xb
 1975 00ca 0B       		.uleb128 0xb
 1976 00cb 3A       		.uleb128 0x3a
 1977 00cc 0B       		.uleb128 0xb
 1978 00cd 3B       		.uleb128 0x3b
 1979 00ce 0B       		.uleb128 0xb
 1980 00cf 01       		.uleb128 0x1
 1981 00d0 13       		.uleb128 0x13
 1982 00d1 00       		.byte	0
 1983 00d2 00       		.byte	0
 1984 00d3 12       		.uleb128 0x12
 1985 00d4 0D       		.uleb128 0xd
ARM GAS  /tmp/cc5I5UEh.s 			page 36


 1986 00d5 00       		.byte	0
 1987 00d6 03       		.uleb128 0x3
 1988 00d7 0E       		.uleb128 0xe
 1989 00d8 3A       		.uleb128 0x3a
 1990 00d9 0B       		.uleb128 0xb
 1991 00da 3B       		.uleb128 0x3b
 1992 00db 0B       		.uleb128 0xb
 1993 00dc 49       		.uleb128 0x49
 1994 00dd 13       		.uleb128 0x13
 1995 00de 00       		.byte	0
 1996 00df 00       		.byte	0
 1997 00e0 13       		.uleb128 0x13
 1998 00e1 26       		.uleb128 0x26
 1999 00e2 00       		.byte	0
 2000 00e3 49       		.uleb128 0x49
 2001 00e4 13       		.uleb128 0x13
 2002 00e5 00       		.byte	0
 2003 00e6 00       		.byte	0
 2004 00e7 14       		.uleb128 0x14
 2005 00e8 2E       		.uleb128 0x2e
 2006 00e9 01       		.byte	0x1
 2007 00ea 3F       		.uleb128 0x3f
 2008 00eb 19       		.uleb128 0x19
 2009 00ec 03       		.uleb128 0x3
 2010 00ed 0E       		.uleb128 0xe
 2011 00ee 3A       		.uleb128 0x3a
 2012 00ef 0B       		.uleb128 0xb
 2013 00f0 3B       		.uleb128 0x3b
 2014 00f1 0B       		.uleb128 0xb
 2015 00f2 27       		.uleb128 0x27
 2016 00f3 19       		.uleb128 0x19
 2017 00f4 11       		.uleb128 0x11
 2018 00f5 01       		.uleb128 0x1
 2019 00f6 12       		.uleb128 0x12
 2020 00f7 06       		.uleb128 0x6
 2021 00f8 40       		.uleb128 0x40
 2022 00f9 18       		.uleb128 0x18
 2023 00fa 9742     		.uleb128 0x2117
 2024 00fc 19       		.uleb128 0x19
 2025 00fd 01       		.uleb128 0x1
 2026 00fe 13       		.uleb128 0x13
 2027 00ff 00       		.byte	0
 2028 0100 00       		.byte	0
 2029 0101 15       		.uleb128 0x15
 2030 0102 898201   		.uleb128 0x4109
 2031 0105 00       		.byte	0
 2032 0106 11       		.uleb128 0x11
 2033 0107 01       		.uleb128 0x1
 2034 0108 31       		.uleb128 0x31
 2035 0109 13       		.uleb128 0x13
 2036 010a 00       		.byte	0
 2037 010b 00       		.byte	0
 2038 010c 16       		.uleb128 0x16
 2039 010d 34       		.uleb128 0x34
 2040 010e 00       		.byte	0
 2041 010f 03       		.uleb128 0x3
 2042 0110 0E       		.uleb128 0xe
ARM GAS  /tmp/cc5I5UEh.s 			page 37


 2043 0111 3A       		.uleb128 0x3a
 2044 0112 0B       		.uleb128 0xb
 2045 0113 3B       		.uleb128 0x3b
 2046 0114 0B       		.uleb128 0xb
 2047 0115 49       		.uleb128 0x49
 2048 0116 13       		.uleb128 0x13
 2049 0117 02       		.uleb128 0x2
 2050 0118 17       		.uleb128 0x17
 2051 0119 00       		.byte	0
 2052 011a 00       		.byte	0
 2053 011b 17       		.uleb128 0x17
 2054 011c 0B       		.uleb128 0xb
 2055 011d 01       		.byte	0x1
 2056 011e 11       		.uleb128 0x11
 2057 011f 01       		.uleb128 0x1
 2058 0120 12       		.uleb128 0x12
 2059 0121 06       		.uleb128 0x6
 2060 0122 00       		.byte	0
 2061 0123 00       		.byte	0
 2062 0124 18       		.uleb128 0x18
 2063 0125 34       		.uleb128 0x34
 2064 0126 00       		.byte	0
 2065 0127 03       		.uleb128 0x3
 2066 0128 08       		.uleb128 0x8
 2067 0129 3A       		.uleb128 0x3a
 2068 012a 0B       		.uleb128 0xb
 2069 012b 3B       		.uleb128 0x3b
 2070 012c 0B       		.uleb128 0xb
 2071 012d 49       		.uleb128 0x49
 2072 012e 13       		.uleb128 0x13
 2073 012f 02       		.uleb128 0x2
 2074 0130 18       		.uleb128 0x18
 2075 0131 00       		.byte	0
 2076 0132 00       		.byte	0
 2077 0133 19       		.uleb128 0x19
 2078 0134 898201   		.uleb128 0x4109
 2079 0137 01       		.byte	0x1
 2080 0138 11       		.uleb128 0x11
 2081 0139 01       		.uleb128 0x1
 2082 013a 31       		.uleb128 0x31
 2083 013b 13       		.uleb128 0x13
 2084 013c 01       		.uleb128 0x1
 2085 013d 13       		.uleb128 0x13
 2086 013e 00       		.byte	0
 2087 013f 00       		.byte	0
 2088 0140 1A       		.uleb128 0x1a
 2089 0141 8A8201   		.uleb128 0x410a
 2090 0144 00       		.byte	0
 2091 0145 02       		.uleb128 0x2
 2092 0146 18       		.uleb128 0x18
 2093 0147 9142     		.uleb128 0x2111
 2094 0149 18       		.uleb128 0x18
 2095 014a 00       		.byte	0
 2096 014b 00       		.byte	0
 2097 014c 1B       		.uleb128 0x1b
 2098 014d 898201   		.uleb128 0x4109
 2099 0150 01       		.byte	0x1
ARM GAS  /tmp/cc5I5UEh.s 			page 38


 2100 0151 11       		.uleb128 0x11
 2101 0152 01       		.uleb128 0x1
 2102 0153 9542     		.uleb128 0x2115
 2103 0155 19       		.uleb128 0x19
 2104 0156 31       		.uleb128 0x31
 2105 0157 13       		.uleb128 0x13
 2106 0158 00       		.byte	0
 2107 0159 00       		.byte	0
 2108 015a 1C       		.uleb128 0x1c
 2109 015b 0B       		.uleb128 0xb
 2110 015c 01       		.byte	0x1
 2111 015d 11       		.uleb128 0x11
 2112 015e 01       		.uleb128 0x1
 2113 015f 12       		.uleb128 0x12
 2114 0160 06       		.uleb128 0x6
 2115 0161 01       		.uleb128 0x1
 2116 0162 13       		.uleb128 0x13
 2117 0163 00       		.byte	0
 2118 0164 00       		.byte	0
 2119 0165 1D       		.uleb128 0x1d
 2120 0166 0B       		.uleb128 0xb
 2121 0167 01       		.byte	0x1
 2122 0168 55       		.uleb128 0x55
 2123 0169 17       		.uleb128 0x17
 2124 016a 01       		.uleb128 0x1
 2125 016b 13       		.uleb128 0x13
 2126 016c 00       		.byte	0
 2127 016d 00       		.byte	0
 2128 016e 1E       		.uleb128 0x1e
 2129 016f 898201   		.uleb128 0x4109
 2130 0172 00       		.byte	0
 2131 0173 11       		.uleb128 0x11
 2132 0174 01       		.uleb128 0x1
 2133 0175 9542     		.uleb128 0x2115
 2134 0177 19       		.uleb128 0x19
 2135 0178 31       		.uleb128 0x31
 2136 0179 13       		.uleb128 0x13
 2137 017a 00       		.byte	0
 2138 017b 00       		.byte	0
 2139 017c 1F       		.uleb128 0x1f
 2140 017d 05       		.uleb128 0x5
 2141 017e 00       		.byte	0
 2142 017f 03       		.uleb128 0x3
 2143 0180 08       		.uleb128 0x8
 2144 0181 3A       		.uleb128 0x3a
 2145 0182 0B       		.uleb128 0xb
 2146 0183 3B       		.uleb128 0x3b
 2147 0184 0B       		.uleb128 0xb
 2148 0185 49       		.uleb128 0x49
 2149 0186 13       		.uleb128 0x13
 2150 0187 02       		.uleb128 0x2
 2151 0188 18       		.uleb128 0x18
 2152 0189 00       		.byte	0
 2153 018a 00       		.byte	0
 2154 018b 20       		.uleb128 0x20
 2155 018c 34       		.uleb128 0x34
 2156 018d 00       		.byte	0
ARM GAS  /tmp/cc5I5UEh.s 			page 39


 2157 018e 03       		.uleb128 0x3
 2158 018f 0E       		.uleb128 0xe
 2159 0190 3A       		.uleb128 0x3a
 2160 0191 0B       		.uleb128 0xb
 2161 0192 3B       		.uleb128 0x3b
 2162 0193 0B       		.uleb128 0xb
 2163 0194 49       		.uleb128 0x49
 2164 0195 13       		.uleb128 0x13
 2165 0196 3F       		.uleb128 0x3f
 2166 0197 19       		.uleb128 0x19
 2167 0198 3C       		.uleb128 0x3c
 2168 0199 19       		.uleb128 0x19
 2169 019a 00       		.byte	0
 2170 019b 00       		.byte	0
 2171 019c 21       		.uleb128 0x21
 2172 019d 2E       		.uleb128 0x2e
 2173 019e 00       		.byte	0
 2174 019f 3F       		.uleb128 0x3f
 2175 01a0 19       		.uleb128 0x19
 2176 01a1 03       		.uleb128 0x3
 2177 01a2 0E       		.uleb128 0xe
 2178 01a3 3A       		.uleb128 0x3a
 2179 01a4 0B       		.uleb128 0xb
 2180 01a5 3B       		.uleb128 0x3b
 2181 01a6 0B       		.uleb128 0xb
 2182 01a7 27       		.uleb128 0x27
 2183 01a8 19       		.uleb128 0x19
 2184 01a9 3C       		.uleb128 0x3c
 2185 01aa 19       		.uleb128 0x19
 2186 01ab 00       		.byte	0
 2187 01ac 00       		.byte	0
 2188 01ad 22       		.uleb128 0x22
 2189 01ae 2E       		.uleb128 0x2e
 2190 01af 01       		.byte	0x1
 2191 01b0 3F       		.uleb128 0x3f
 2192 01b1 19       		.uleb128 0x19
 2193 01b2 03       		.uleb128 0x3
 2194 01b3 0E       		.uleb128 0xe
 2195 01b4 3A       		.uleb128 0x3a
 2196 01b5 0B       		.uleb128 0xb
 2197 01b6 3B       		.uleb128 0x3b
 2198 01b7 05       		.uleb128 0x5
 2199 01b8 27       		.uleb128 0x27
 2200 01b9 19       		.uleb128 0x19
 2201 01ba 3C       		.uleb128 0x3c
 2202 01bb 19       		.uleb128 0x19
 2203 01bc 01       		.uleb128 0x1
 2204 01bd 13       		.uleb128 0x13
 2205 01be 00       		.byte	0
 2206 01bf 00       		.byte	0
 2207 01c0 23       		.uleb128 0x23
 2208 01c1 05       		.uleb128 0x5
 2209 01c2 00       		.byte	0
 2210 01c3 49       		.uleb128 0x49
 2211 01c4 13       		.uleb128 0x13
 2212 01c5 00       		.byte	0
 2213 01c6 00       		.byte	0
ARM GAS  /tmp/cc5I5UEh.s 			page 40


 2214 01c7 00       		.byte	0
 2215              		.section	.debug_loc,"",%progbits
 2216              	.Ldebug_loc0:
 2217              	.LLST0:
 2218 0000 04000000 		.4byte	.LVL3
 2219 0004 12000000 		.4byte	.LVL4
 2220 0008 0400     		.2byte	0x4
 2221 000a 72       		.byte	0x72
 2222 000b E800     		.sleb128 104
 2223 000d 9F       		.byte	0x9f
 2224 000e 12000000 		.4byte	.LVL4
 2225 0012 24000000 		.4byte	.LFE8
 2226 0016 0100     		.2byte	0x1
 2227 0018 52       		.byte	0x52
 2228 0019 00000000 		.4byte	0
 2229 001d 00000000 		.4byte	0
 2230              	.LLST1:
 2231 0021 14000000 		.4byte	.LVL8
 2232 0025 18000000 		.4byte	.LVL9
 2233 0029 0400     		.2byte	0x4
 2234 002b 73       		.byte	0x73
 2235 002c 987F     		.sleb128 -104
 2236 002e 9F       		.byte	0x9f
 2237 002f 18000000 		.4byte	.LVL9
 2238 0033 24000000 		.4byte	.LVL10
 2239 0037 0100     		.2byte	0x1
 2240 0039 52       		.byte	0x52
 2241 003a 24000000 		.4byte	.LVL10
 2242 003e 56000000 		.4byte	.LVL13
 2243 0042 0400     		.2byte	0x4
 2244 0044 73       		.byte	0x73
 2245 0045 987F     		.sleb128 -104
 2246 0047 9F       		.byte	0x9f
 2247 0048 5C000000 		.4byte	.LVL14
 2248 004c 84000000 		.4byte	.LFE10
 2249 0050 0400     		.2byte	0x4
 2250 0052 73       		.byte	0x73
 2251 0053 987F     		.sleb128 -104
 2252 0055 9F       		.byte	0x9f
 2253 0056 00000000 		.4byte	0
 2254 005a 00000000 		.4byte	0
 2255              	.LLST2:
 2256 005e 4C000000 		.4byte	.LVL11
 2257 0062 52000000 		.4byte	.LVL12
 2258 0066 0100     		.2byte	0x1
 2259 0068 51       		.byte	0x51
 2260 0069 52000000 		.4byte	.LVL12
 2261 006d 56000000 		.4byte	.LVL13
 2262 0071 0300     		.2byte	0x3
 2263 0073 73       		.byte	0x73
 2264 0074 E400     		.sleb128 100
 2265 0076 00000000 		.4byte	0
 2266 007a 00000000 		.4byte	0
 2267              		.section	.debug_aranges,"",%progbits
 2268 0000 4C000000 		.4byte	0x4c
 2269 0004 0200     		.2byte	0x2
 2270 0006 00000000 		.4byte	.Ldebug_info0
ARM GAS  /tmp/cc5I5UEh.s 			page 41


 2271 000a 04       		.byte	0x4
 2272 000b 00       		.byte	0
 2273 000c 0000     		.2byte	0
 2274 000e 0000     		.2byte	0
 2275 0010 00000000 		.4byte	.LFB11
 2276 0014 0E000000 		.4byte	.LFE11-.LFB11
 2277 0018 00000000 		.4byte	.LFB8
 2278 001c 24000000 		.4byte	.LFE8-.LFB8
 2279 0020 00000000 		.4byte	.LFB9
 2280 0024 34000000 		.4byte	.LFE9-.LFB9
 2281 0028 00000000 		.4byte	.LFB10
 2282 002c 84000000 		.4byte	.LFE10-.LFB10
 2283 0030 00000000 		.4byte	.LFB7
 2284 0034 2A000000 		.4byte	.LFE7-.LFB7
 2285 0038 00000000 		.4byte	.LFB12
 2286 003c 18000000 		.4byte	.LFE12-.LFB12
 2287 0040 00000000 		.4byte	.LFB13
 2288 0044 16000000 		.4byte	.LFE13-.LFB13
 2289 0048 00000000 		.4byte	0
 2290 004c 00000000 		.4byte	0
 2291              		.section	.debug_ranges,"",%progbits
 2292              	.Ldebug_ranges0:
 2293 0000 10000000 		.4byte	.LBB4
 2294 0004 56000000 		.4byte	.LBE4
 2295 0008 5C000000 		.4byte	.LBB7
 2296 000c 84000000 		.4byte	.LBE7
 2297 0010 00000000 		.4byte	0
 2298 0014 00000000 		.4byte	0
 2299 0018 00000000 		.4byte	.LFB11
 2300 001c 0E000000 		.4byte	.LFE11
 2301 0020 00000000 		.4byte	.LFB8
 2302 0024 24000000 		.4byte	.LFE8
 2303 0028 00000000 		.4byte	.LFB9
 2304 002c 34000000 		.4byte	.LFE9
 2305 0030 00000000 		.4byte	.LFB10
 2306 0034 84000000 		.4byte	.LFE10
 2307 0038 00000000 		.4byte	.LFB7
 2308 003c 2A000000 		.4byte	.LFE7
 2309 0040 00000000 		.4byte	.LFB12
 2310 0044 18000000 		.4byte	.LFE12
 2311 0048 00000000 		.4byte	.LFB13
 2312 004c 16000000 		.4byte	.LFE13
 2313 0050 00000000 		.4byte	0
 2314 0054 00000000 		.4byte	0
 2315              		.section	.debug_line,"",%progbits
 2316              	.Ldebug_line0:
 2317 0000 07020000 		.section	.debug_str,"MS",%progbits,1
 2317      02004601 
 2317      00000201 
 2317      FB0E0D00 
 2317      01010101 
 2318              	.LASF42:
 2319 0000 705F6D73 		.ascii	"p_msg\000"
 2319      6700
 2320              	.LASF93:
 2321 0006 7264796D 		.ascii	"rdymsg\000"
 2321      736700
ARM GAS  /tmp/cc5I5UEh.s 			page 42


 2322              	.LASF78:
 2323 000d 46504453 		.ascii	"FPDSCR\000"
 2323      435200
 2324              	.LASF16:
 2325 0014 75696E74 		.ascii	"uint64_t\000"
 2325      36345F74 
 2325      00
 2326              	.LASF5:
 2327 001d 5F5F7569 		.ascii	"__uint8_t\000"
 2327      6E74385F 
 2327      7400
 2328              	.LASF75:
 2329 0027 434D785F 		.ascii	"CMx_SCB\000"
 2329      53434200 
 2330              	.LASF111:
 2331 002f 63685379 		.ascii	"chSysTimerHandlerI\000"
 2331      7354696D 
 2331      65724861 
 2331      6E646C65 
 2331      724900
 2332              	.LASF103:
 2333 0042 53797354 		.ascii	"SysTickVector\000"
 2333      69636B56 
 2333      6563746F 
 2333      7200
 2334              	.LASF12:
 2335 0050 6C6F6E67 		.ascii	"long long unsigned int\000"
 2335      206C6F6E 
 2335      6720756E 
 2335      7369676E 
 2335      65642069 
 2336              	.LASF60:
 2337 0067 43505549 		.ascii	"CPUID\000"
 2337      4400
 2338              	.LASF29:
 2339 006d 705F7072 		.ascii	"p_prio\000"
 2339      696F00
 2340              	.LASF10:
 2341 0074 6C6F6E67 		.ascii	"long long int\000"
 2341      206C6F6E 
 2341      6720696E 
 2341      7400
 2342              	.LASF1:
 2343 0082 7369676E 		.ascii	"signed char\000"
 2343      65642063 
 2343      68617200 
 2344              	.LASF112:
 2345 008e 6462675F 		.ascii	"dbg_check_unlock_from_isr\000"
 2345      63686563 
 2345      6B5F756E 
 2345      6C6F636B 
 2345      5F66726F 
 2346              	.LASF46:
 2347 00a8 705F6D70 		.ascii	"p_mpool\000"
 2347      6F6F6C00 
 2348              	.LASF90:
 2349 00b0 6D5F7175 		.ascii	"m_queue\000"
ARM GAS  /tmp/cc5I5UEh.s 			page 43


 2349      65756500 
 2350              	.LASF21:
 2351 00b8 74736C69 		.ascii	"tslices_t\000"
 2351      6365735F 
 2351      7400
 2352              	.LASF7:
 2353 00c2 6C6F6E67 		.ascii	"long int\000"
 2353      20696E74 
 2353      00
 2354              	.LASF99:
 2355 00cb 53564361 		.ascii	"SVCallVector\000"
 2355      6C6C5665 
 2355      63746F72 
 2355      00
 2356              	.LASF19:
 2357 00d8 74737461 		.ascii	"tstate_t\000"
 2357      74655F74 
 2357      00
 2358              	.LASF31:
 2359 00e1 705F6E65 		.ascii	"p_newer\000"
 2359      77657200 
 2360              	.LASF70:
 2361 00e9 42464152 		.ascii	"BFAR\000"
 2361      00
 2362              	.LASF94:
 2363 00ee 65786974 		.ascii	"exitcode\000"
 2363      636F6465 
 2363      00
 2364              	.LASF71:
 2365 00f7 41465352 		.ascii	"AFSR\000"
 2365      00
 2366              	.LASF8:
 2367 00fc 5F5F7569 		.ascii	"__uint32_t\000"
 2367      6E743332 
 2367      5F7400
 2368              	.LASF118:
 2369 0107 6E766963 		.ascii	"nvicSetSystemHandlerPriority\000"
 2369      53657453 
 2369      79737465 
 2369      6D48616E 
 2369      646C6572 
 2370              	.LASF49:
 2371 0124 72656761 		.ascii	"regarm_t\000"
 2371      726D5F74 
 2371      00
 2372              	.LASF107:
 2373 012d 63685363 		.ascii	"chSchDoReschedule\000"
 2373      68446F52 
 2373      65736368 
 2373      6564756C 
 2373      6500
 2374              	.LASF109:
 2375 013f 6462675F 		.ascii	"dbg_check_enter_isr\000"
 2375      63686563 
 2375      6B5F656E 
 2375      7465725F 
 2375      69737200 
ARM GAS  /tmp/cc5I5UEh.s 			page 44


 2376              	.LASF34:
 2377 0153 705F7374 		.ascii	"p_stklimit\000"
 2377      6B6C696D 
 2377      697400
 2378              	.LASF0:
 2379 015e 756E7369 		.ascii	"unsigned int\000"
 2379      676E6564 
 2379      20696E74 
 2379      00
 2380              	.LASF52:
 2381 016b 6C725F74 		.ascii	"lr_thd\000"
 2381      686400
 2382              	.LASF41:
 2383 0172 705F6D73 		.ascii	"p_msgqueue\000"
 2383      67717565 
 2383      756500
 2384              	.LASF51:
 2385 017d 65787463 		.ascii	"extctx\000"
 2385      747800
 2386              	.LASF104:
 2387 0184 5F706F72 		.ascii	"_port_switch\000"
 2387      745F7377 
 2387      69746368 
 2387      00
 2388              	.LASF9:
 2389 0191 6C6F6E67 		.ascii	"long unsigned int\000"
 2389      20756E73 
 2389      69676E65 
 2389      6420696E 
 2389      7400
 2390              	.LASF62:
 2391 01a3 56544F52 		.ascii	"VTOR\000"
 2391      00
 2392              	.LASF98:
 2393 01a8 5F706F72 		.ascii	"_port_switch_from_isr\000"
 2393      745F7377 
 2393      69746368 
 2393      5F66726F 
 2393      6D5F6973 
 2394              	.LASF57:
 2395 01be 636F6E74 		.ascii	"context\000"
 2395      65787400 
 2396              	.LASF4:
 2397 01c6 73686F72 		.ascii	"short unsigned int\000"
 2397      7420756E 
 2397      7369676E 
 2397      65642069 
 2397      6E7400
 2398              	.LASF61:
 2399 01d9 49435352 		.ascii	"ICSR\000"
 2399      00
 2400              	.LASF23:
 2401 01de 6D73675F 		.ascii	"msg_t\000"
 2401      7400
 2402              	.LASF63:
 2403 01e4 41495243 		.ascii	"AIRCR\000"
 2403      5200
ARM GAS  /tmp/cc5I5UEh.s 			page 45


 2404              	.LASF68:
 2405 01ea 44465352 		.ascii	"DFSR\000"
 2405      00
 2406              	.LASF85:
 2407 01ef 725F6E65 		.ascii	"r_newer\000"
 2407      77657200 
 2408              	.LASF69:
 2409 01f7 4D4D4641 		.ascii	"MMFAR\000"
 2409      5200
 2410              	.LASF102:
 2411 01fd 5F706F72 		.ascii	"_port_irq_epilogue\000"
 2411      745F6972 
 2411      715F6570 
 2411      696C6F67 
 2411      756500
 2412              	.LASF18:
 2413 0210 746D6F64 		.ascii	"tmode_t\000"
 2413      655F7400 
 2414              	.LASF105:
 2415 0218 5F706F72 		.ascii	"_port_thread_start\000"
 2415      745F7468 
 2415      72656164 
 2415      5F737461 
 2415      727400
 2416              	.LASF48:
 2417 022b 54687265 		.ascii	"ThreadsList\000"
 2417      6164734C 
 2417      69737400 
 2418              	.LASF24:
 2419 0237 6576656E 		.ascii	"eventmask_t\000"
 2419      746D6173 
 2419      6B5F7400 
 2420              	.LASF89:
 2421 0243 4D757465 		.ascii	"Mutex\000"
 2421      7800
 2422              	.LASF50:
 2423 0249 73746B61 		.ascii	"stkalign_t\000"
 2423      6C69676E 
 2423      5F7400
 2424              	.LASF76:
 2425 0254 46504343 		.ascii	"FPCCR\000"
 2425      5200
 2426              	.LASF59:
 2427 025a 73697A65 		.ascii	"sizetype\000"
 2427      74797065 
 2427      00
 2428              	.LASF106:
 2429 0263 6462675F 		.ascii	"dbg_check_lock\000"
 2429      63686563 
 2429      6B5F6C6F 
 2429      636B00
 2430              	.LASF66:
 2431 0272 43465352 		.ascii	"CFSR\000"
 2431      00
 2432              	.LASF32:
 2433 0277 705F6F6C 		.ascii	"p_older\000"
 2433      64657200 
ARM GAS  /tmp/cc5I5UEh.s 			page 46


 2434              	.LASF84:
 2435 027f 725F6374 		.ascii	"r_ctx\000"
 2435      7800
 2436              	.LASF47:
 2437 0285 54687265 		.ascii	"ThreadsQueue\000"
 2437      61647351 
 2437      75657565 
 2437      00
 2438              	.LASF87:
 2439 0292 725F6375 		.ascii	"r_current\000"
 2439      7272656E 
 2439      7400
 2440              	.LASF86:
 2441 029c 725F6F6C 		.ascii	"r_older\000"
 2441      64657200 
 2442              	.LASF108:
 2443 02a4 6462675F 		.ascii	"dbg_check_unlock\000"
 2443      63686563 
 2443      6B5F756E 
 2443      6C6F636B 
 2443      00
 2444              	.LASF55:
 2445 02b5 66706363 		.ascii	"fpccr\000"
 2445      7200
 2446              	.LASF11:
 2447 02bb 5F5F7569 		.ascii	"__uint64_t\000"
 2447      6E743634 
 2447      5F7400
 2448              	.LASF79:
 2449 02c6 4D564652 		.ascii	"MVFR0\000"
 2449      3000
 2450              	.LASF80:
 2451 02cc 4D564652 		.ascii	"MVFR1\000"
 2451      3100
 2452              	.LASF20:
 2453 02d2 74726566 		.ascii	"trefs_t\000"
 2453      735F7400 
 2454              	.LASF100:
 2455 02da 63747870 		.ascii	"ctxp\000"
 2455      00
 2456              	.LASF28:
 2457 02df 705F7072 		.ascii	"p_prev\000"
 2457      657600
 2458              	.LASF22:
 2459 02e6 74707269 		.ascii	"tprio_t\000"
 2459      6F5F7400 
 2460              	.LASF17:
 2461 02ee 5F426F6F 		.ascii	"_Bool\000"
 2461      6C00
 2462              	.LASF14:
 2463 02f4 696E7433 		.ascii	"int32_t\000"
 2463      325F7400 
 2464              	.LASF2:
 2465 02fc 756E7369 		.ascii	"unsigned char\000"
 2465      676E6564 
 2465      20636861 
 2465      7200
ARM GAS  /tmp/cc5I5UEh.s 			page 47


 2466              	.LASF65:
 2467 030a 53484353 		.ascii	"SHCSR\000"
 2467      5200
 2468              	.LASF44:
 2469 0310 705F6D74 		.ascii	"p_mtxlist\000"
 2469      786C6973 
 2469      7400
 2470              	.LASF3:
 2471 031a 73686F72 		.ascii	"short int\000"
 2471      7420696E 
 2471      7400
 2472              	.LASF35:
 2473 0324 705F7374 		.ascii	"p_state\000"
 2473      61746500 
 2474              	.LASF81:
 2475 032c 434D785F 		.ascii	"CMx_FPU\000"
 2475      46505500 
 2476              	.LASF38:
 2477 0334 705F7072 		.ascii	"p_preempt\000"
 2477      65656D70 
 2477      7400
 2478              	.LASF53:
 2479 033e 78707372 		.ascii	"xpsr\000"
 2479      00
 2480              	.LASF83:
 2481 0343 725F7072 		.ascii	"r_prio\000"
 2481      696F00
 2482              	.LASF96:
 2483 034a 65776D61 		.ascii	"ewmask\000"
 2483      736B00
 2484              	.LASF27:
 2485 0351 705F6E65 		.ascii	"p_next\000"
 2485      787400
 2486              	.LASF54:
 2487 0358 66707363 		.ascii	"fpscr\000"
 2487      7200
 2488              	.LASF36:
 2489 035e 705F666C 		.ascii	"p_flags\000"
 2489      61677300 
 2490              	.LASF77:
 2491 0366 46504341 		.ascii	"FPCAR\000"
 2491      5200
 2492              	.LASF26:
 2493 036c 54687265 		.ascii	"Thread\000"
 2493      616400
 2494              	.LASF43:
 2495 0373 705F6570 		.ascii	"p_epending\000"
 2495      656E6469 
 2495      6E6700
 2496              	.LASF15:
 2497 037e 75696E74 		.ascii	"uint32_t\000"
 2497      33325F74 
 2497      00
 2498              	.LASF82:
 2499 0387 725F7175 		.ascii	"r_queue\000"
 2499      65756500 
 2500              	.LASF73:
ARM GAS  /tmp/cc5I5UEh.s 			page 48


 2501 038f 756E7573 		.ascii	"unused1\000"
 2501      65643100 
 2502              	.LASF97:
 2503 0397 63686172 		.ascii	"char\000"
 2503      00
 2504              	.LASF58:
 2505 039c 494F5245 		.ascii	"IOREG32\000"
 2505      47333200 
 2506              	.LASF92:
 2507 03a4 6D5F6E65 		.ascii	"m_next\000"
 2507      787400
 2508              	.LASF25:
 2509 03ab 73797374 		.ascii	"systime_t\000"
 2509      696D655F 
 2509      7400
 2510              	.LASF45:
 2511 03b5 705F7265 		.ascii	"p_realprio\000"
 2511      616C7072 
 2511      696F00
 2512              	.LASF6:
 2513 03c0 5F5F696E 		.ascii	"__int32_t\000"
 2513      7433325F 
 2513      7400
 2514              	.LASF39:
 2515 03ca 705F7469 		.ascii	"p_time\000"
 2515      6D6500
 2516              	.LASF64:
 2517 03d1 53485052 		.ascii	"SHPR\000"
 2517      00
 2518              	.LASF113:
 2519 03d6 6462675F 		.ascii	"dbg_check_leave_isr\000"
 2519      63686563 
 2519      6B5F6C65 
 2519      6176655F 
 2519      69737200 
 2520              	.LASF56:
 2521 03ea 696E7463 		.ascii	"intctx\000"
 2521      747800
 2522              	.LASF116:
 2523 03f1 2F686F6D 		.ascii	"/home/jordyaw/Documents/referensi/coba/ChibiOS_2.5."
 2523      652F6A6F 
 2523      72647961 
 2523      772F446F 
 2523      63756D65 
 2524 0424 32782F74 		.ascii	"2x/testhal/STM32F30x/WSC/board joule\000"
 2524      65737468 
 2524      616C2F53 
 2524      544D3332 
 2524      46333078 
 2525              	.LASF114:
 2526 0449 474E5520 		.ascii	"GNU C 4.8.3 -mcpu=cortex-m4 -mfloat-abi=softfp -mfp"
 2526      4320342E 
 2526      382E3320 
 2526      2D6D6370 
 2526      753D636F 
 2527 047c 753D6670 		.ascii	"u=fpv4-sp-d16 -mno-thumb-interwork -mthumb -ggdb -O"
 2527      76342D73 
ARM GAS  /tmp/cc5I5UEh.s 			page 49


 2527      702D6431 
 2527      36202D6D 
 2527      6E6F2D74 
 2528 04af 32202D66 		.ascii	"2 -fomit-frame-pointer -falign-functions=16 -fsingl"
 2528      6F6D6974 
 2528      2D667261 
 2528      6D652D70 
 2528      6F696E74 
 2529 04e2 652D7072 		.ascii	"e-precision-constant -ffunction-sections -fdata-sec"
 2529      65636973 
 2529      696F6E2D 
 2529      636F6E73 
 2529      74616E74 
 2530 0515 74696F6E 		.ascii	"tions -fno-common\000"
 2530      73202D66 
 2530      6E6F2D63 
 2530      6F6D6D6F 
 2530      6E00
 2531              	.LASF37:
 2532 0527 705F7265 		.ascii	"p_refs\000"
 2532      667300
 2533              	.LASF88:
 2534 052e 52656164 		.ascii	"ReadyList\000"
 2534      794C6973 
 2534      7400
 2535              	.LASF72:
 2536 0538 4D4D4652 		.ascii	"MMFR\000"
 2536      00
 2537              	.LASF117:
 2538 053d 726C6973 		.ascii	"rlist\000"
 2538      7400
 2539              	.LASF13:
 2540 0543 75696E74 		.ascii	"uint8_t\000"
 2540      385F7400 
 2541              	.LASF101:
 2542 054b 5F706F72 		.ascii	"_port_init\000"
 2542      745F696E 
 2542      697400
 2543              	.LASF110:
 2544 0556 6462675F 		.ascii	"dbg_check_lock_from_isr\000"
 2544      63686563 
 2544      6B5F6C6F 
 2544      636B5F66 
 2544      726F6D5F 
 2545              	.LASF95:
 2546 056e 77746F62 		.ascii	"wtobjp\000"
 2546      6A7000
 2547              	.LASF33:
 2548 0575 705F6E61 		.ascii	"p_name\000"
 2548      6D6500
 2549              	.LASF115:
 2550 057c 2E2E2F2E 		.ascii	"../../../../os/ports/GCC/ARMCMx/chcore_v7m.c\000"
 2550      2E2F2E2E 
 2550      2F2E2E2F 
 2550      6F732F70 
 2550      6F727473 
 2551              	.LASF74:
ARM GAS  /tmp/cc5I5UEh.s 			page 50


 2552 05a9 43504143 		.ascii	"CPACR\000"
 2552      5200
 2553              	.LASF67:
 2554 05af 48465352 		.ascii	"HFSR\000"
 2554      00
 2555              	.LASF91:
 2556 05b4 6D5F6F77 		.ascii	"m_owner\000"
 2556      6E657200 
 2557              	.LASF30:
 2558 05bc 705F6374 		.ascii	"p_ctx\000"
 2558      7800
 2559              	.LASF40:
 2560 05c2 705F7761 		.ascii	"p_waiting\000"
 2560      6974696E 
 2560      6700
 2561              		.ident	"GCC: (4.8.3-18ubuntu2+12) 4.8.3"
ARM GAS  /tmp/cc5I5UEh.s 			page 51


DEFINED SYMBOLS
                            *ABS*:0000000000000000 chcore_v7m.c
     /tmp/cc5I5UEh.s:20     .text._port_switch_from_isr:0000000000000000 $t
     /tmp/cc5I5UEh.s:26     .text._port_switch_from_isr:0000000000000000 _port_switch_from_isr
     /tmp/cc5I5UEh.s:45     .text._port_switch_from_isr:000000000000000c _port_exit_from_isr
     /tmp/cc5I5UEh.s:57     .text.SVCallVector:0000000000000000 $t
     /tmp/cc5I5UEh.s:63     .text.SVCallVector:0000000000000000 SVCallVector
     /tmp/cc5I5UEh.s:104    .text.SVCallVector:0000000000000020 $d
     /tmp/cc5I5UEh.s:110    .text._port_init:0000000000000000 $t
     /tmp/cc5I5UEh.s:116    .text._port_init:0000000000000000 _port_init
     /tmp/cc5I5UEh.s:157    .text._port_init:000000000000002c $d
     /tmp/cc5I5UEh.s:163    .text._port_irq_epilogue:0000000000000000 $t
     /tmp/cc5I5UEh.s:169    .text._port_irq_epilogue:0000000000000000 _port_irq_epilogue
     /tmp/cc5I5UEh.s:277    .text._port_irq_epilogue:0000000000000070 $d
     /tmp/cc5I5UEh.s:287    .text.SysTickVector:0000000000000000 $t
     /tmp/cc5I5UEh.s:293    .text.SysTickVector:0000000000000000 SysTickVector
     /tmp/cc5I5UEh.s:341    .text._port_switch:0000000000000000 $t
     /tmp/cc5I5UEh.s:347    .text._port_switch:0000000000000000 _port_switch
     /tmp/cc5I5UEh.s:382    .text._port_thread_start:0000000000000000 $t
     /tmp/cc5I5UEh.s:388    .text._port_thread_start:0000000000000000 _port_thread_start
                     .debug_frame:0000000000000010 $d
     /tmp/cc5I5UEh.s:109    .text.SVCallVector:0000000000000024 $t
     /tmp/cc5I5UEh.s:162    .text._port_init:0000000000000034 $t
     /tmp/cc5I5UEh.s:286    .text._port_irq_epilogue:0000000000000084 $t

UNDEFINED SYMBOLS
dbg_check_lock
chSchDoReschedule
dbg_check_unlock
nvicSetSystemHandlerPriority
rlist
dbg_check_enter_isr
dbg_check_lock_from_isr
chSysTimerHandlerI
dbg_check_unlock_from_isr
dbg_check_leave_isr
chThdExit
