ARM GAS  /tmp/ccsk3OHt.s 			page 1


   1              		.syntax unified
   2              		.cpu cortex-m4
   3              		.eabi_attribute 27, 3
   4              		.fpu fpv4-sp-d16
   5              		.eabi_attribute 20, 1
   6              		.eabi_attribute 21, 1
   7              		.eabi_attribute 23, 3
   8              		.eabi_attribute 24, 1
   9              		.eabi_attribute 25, 1
  10              		.eabi_attribute 26, 1
  11              		.eabi_attribute 30, 2
  12              		.eabi_attribute 34, 1
  13              		.eabi_attribute 18, 4
  14              		.thumb
  15              		.file	"chthreads.c"
  16              		.text
  17              	.Ltext0:
  18              		.cfi_sections	.debug_frame
  19              		.section	.text._thread_init,"ax",%progbits
  20              		.align	2
  21              		.p2align 4,,15
  22              		.global	_thread_init
  23              		.thumb
  24              		.thumb_func
  25              		.type	_thread_init, %function
  26              	_thread_init:
  27              	.LFB7:
  28              		.file 1 "../../../../os/kernel/src/chthreads.c"
  29              		.loc 1 69 0
  30              		.cfi_startproc
  31              		@ args = 0, pretend = 0, frame = 0
  32              		@ frame_needed = 0, uses_anonymous_args = 0
  33              		@ link register save eliminated.
  34              	.LVL0:
  35 0000 2DE9F007 		push	{r4, r5, r6, r7, r8, r9, r10}
  36              		.cfi_def_cfa_offset 28
  37              		.cfi_offset 4, -28
  38              		.cfi_offset 5, -24
  39              		.cfi_offset 6, -20
  40              		.cfi_offset 7, -16
  41              		.cfi_offset 8, -12
  42              		.cfi_offset 9, -8
  43              		.cfi_offset 10, -4
  44              		.loc 1 92 0
  45 0004 144C     		ldr	r4, .L2
  46              		.loc 1 78 0
  47 0006 4164     		str	r1, [r0, #68]
  48              		.loc 1 92 0
  49 0008 6569     		ldr	r5, [r4, #20]
  50 000a 4561     		str	r5, [r0, #20]
  51              		.loc 1 73 0
  52 000c 0022     		movs	r2, #0
  53              		.loc 1 98 0
  54 000e 00F13006 		add	r6, r0, #48
  55              		.loc 1 72 0
  56 0012 4FF0020A 		mov	r10, #2
  57              		.loc 1 75 0
ARM GAS  /tmp/ccsk3OHt.s 			page 2


  58 0016 4FF01409 		mov	r9, #20
  59              		.loc 1 88 0
  60 001a 4FF00108 		mov	r8, #1
  61              		.loc 1 101 0
  62 001e 00F14C07 		add	r7, r0, #76
  63              		.loc 1 95 0
  64 0022 00F12C0C 		add	ip, r0, #44
  65              		.loc 1 92 0
  66 0026 0461     		str	r4, [r0, #16]
  67              		.loc 1 71 0
  68 0028 8160     		str	r1, [r0, #8]
  69              		.loc 1 72 0
  70 002a 80F820A0 		strb	r10, [r0, #32]
  71              		.loc 1 92 0
  72 002e 6061     		str	r0, [r4, #20]
  73              		.loc 1 75 0
  74 0030 80F82390 		strb	r9, [r0, #35]
  75              		.loc 1 88 0
  76 0034 80F82280 		strb	r8, [r0, #34]
  77              		.loc 1 73 0
  78 0038 80F82120 		strb	r2, [r0, #33]
  79              		.loc 1 79 0
  80 003c 0264     		str	r2, [r0, #64]
  81              		.loc 1 82 0
  82 003e C263     		str	r2, [r0, #60]
  83              		.loc 1 85 0
  84 0040 4262     		str	r2, [r0, #36]
  85              		.loc 1 91 0
  86 0042 8261     		str	r2, [r0, #24]
  87              		.loc 1 92 0
  88 0044 2861     		str	r0, [r5, #16]
  89              		.loc 1 101 0
  90 0046 C761     		str	r7, [r0, #28]
  91              		.loc 1 98 0
  92 0048 4663     		str	r6, [r0, #52]
  93 004a 0663     		str	r6, [r0, #48]
  94              		.loc 1 95 0
  95 004c C0F82CC0 		str	ip, [r0, #44]
  96              		.loc 1 107 0
  97 0050 BDE8F007 		pop	{r4, r5, r6, r7, r8, r9, r10}
  98 0054 7047     		bx	lr
  99              	.L3:
 100 0056 00BF     		.align	2
 101              	.L2:
 102 0058 00000000 		.word	rlist
 103              		.cfi_endproc
 104              	.LFE7:
 105              		.size	_thread_init, .-_thread_init
 106 005c AFF30080 		.section	.text._thread_memfill,"ax",%progbits
 107              		.align	2
 108              		.p2align 4,,15
 109              		.global	_thread_memfill
 110              		.thumb
 111              		.thumb_func
 112              		.type	_thread_memfill, %function
 113              	_thread_memfill:
 114              	.LFB8:
ARM GAS  /tmp/ccsk3OHt.s 			page 3


 115              		.loc 1 119 0
 116              		.cfi_startproc
 117              		@ args = 0, pretend = 0, frame = 0
 118              		@ frame_needed = 0, uses_anonymous_args = 0
 119              		@ link register save eliminated.
 120              	.LVL1:
 121              		.loc 1 121 0
 122 0000 8842     		cmp	r0, r1
 123 0002 03D2     		bcs	.L4
 124              	.L7:
 125              		.loc 1 122 0
 126 0004 00F8012B 		strb	r2, [r0], #1
 127              	.LVL2:
 128              		.loc 1 121 0
 129 0008 8842     		cmp	r0, r1
 130 000a FBD1     		bne	.L7
 131              	.L4:
 132 000c 7047     		bx	lr
 133              		.cfi_endproc
 134              	.LFE8:
 135              		.size	_thread_memfill, .-_thread_memfill
 136 000e 00BF     		.section	.text.chThdCreateI,"ax",%progbits
 137              		.align	2
 138              		.p2align 4,,15
 139              		.global	chThdCreateI
 140              		.thumb
 141              		.thumb_func
 142              		.type	chThdCreateI, %function
 143              	chThdCreateI:
 144              	.LFB9:
 145              		.loc 1 151 0
 146              		.cfi_startproc
 147              		@ args = 4, pretend = 0, frame = 8
 148              		@ frame_needed = 0, uses_anonymous_args = 0
 149              	.LVL3:
 150 0000 2DE9F04F 		push	{r4, r5, r6, r7, r8, r9, r10, fp, lr}
 151              		.cfi_def_cfa_offset 36
 152              		.cfi_offset 4, -36
 153              		.cfi_offset 5, -32
 154              		.cfi_offset 6, -28
 155              		.cfi_offset 7, -24
 156              		.cfi_offset 8, -20
 157              		.cfi_offset 9, -16
 158              		.cfi_offset 10, -12
 159              		.cfi_offset 11, -8
 160              		.cfi_offset 14, -4
 161 0004 0446     		mov	r4, r0
 162              	.LVL4:
 163 0006 83B0     		sub	sp, sp, #12
 164              		.cfi_def_cfa_offset 48
 165              		.loc 1 151 0
 166 0008 0D46     		mov	r5, r1
 167 000a 1746     		mov	r7, r2
 168 000c 9846     		mov	r8, r3
 169              		.loc 1 155 0
 170 000e FFF7FEFF 		bl	chDbgCheckClassI
 171              	.LVL5:
ARM GAS  /tmp/ccsk3OHt.s 			page 4


 172              		.loc 1 157 0
 173 0012 14B1     		cbz	r4, .L11
 174              		.loc 1 157 0 is_stmt 0 discriminator 2
 175 0014 B5F59C7F 		cmp	r5, #312
 176 0018 38D2     		bcs	.L16
 177              	.L11:
 178              		.loc 1 157 0 discriminator 1
 179 001a 1F48     		ldr	r0, .L17
 180 001c FFF7FEFF 		bl	chDbgPanic
 181              	.LVL6:
 182              	.L12:
 183              	.LBB16:
 184              	.LBB17:
 185              		.loc 1 92 0 is_stmt 1
 186 0020 1E4E     		ldr	r6, .L17+4
 187              	.LBE17:
 188              	.LBE16:
 189              		.loc 1 160 0
 190 0022 0C98     		ldr	r0, [sp, #48]
 191              	.LBB24:
 192              	.LBB18:
 193              		.loc 1 92 0
 194 0024 7369     		ldr	r3, [r6, #20]
 195              	.LBE18:
 196              	.LBE24:
 197              		.loc 1 160 0
 198 0026 A5F16401 		sub	r1, r5, #100
 199 002a 2144     		add	r1, r1, r4
 200              	.LBB25:
 201              	.LBB19:
 202              		.loc 1 95 0
 203 002c 04F12C02 		add	r2, r4, #44
 204              		.loc 1 73 0
 205 0030 0025     		movs	r5, #0
 206              	.LVL7:
 207              	.LBE19:
 208              	.LBE25:
 209              		.loc 1 160 0
 210 0032 E160     		str	r1, [r4, #12]
 211              	.LBB26:
 212              	.LBB20:
 213              		.loc 1 95 0
 214 0034 0192     		str	r2, [sp, #4]
 215              	.LBE20:
 216              	.LBE26:
 217              		.loc 1 160 0
 218 0036 4864     		str	r0, [r1, #68]
 219              	.LBB27:
 220              	.LBB21:
 221              		.loc 1 72 0
 222 0038 4FF0020B 		mov	fp, #2
 223              		.loc 1 75 0
 224 003c 4FF0140A 		mov	r10, #20
 225              		.loc 1 88 0
 226 0040 4FF00109 		mov	r9, #1
 227              	.LBE21:
 228              	.LBE27:
ARM GAS  /tmp/ccsk3OHt.s 			page 5


 229              		.loc 1 160 0
 230 0044 1648     		ldr	r0, .L17+8
 231 0046 0866     		str	r0, [r1, #96]
 232              	.LVL8:
 233 0048 C1F84080 		str	r8, [r1, #64]
 234              	.LBB28:
 235              	.LBB22:
 236              		.loc 1 92 0
 237 004c 6361     		str	r3, [r4, #20]
 238              		.loc 1 71 0
 239 004e A760     		str	r7, [r4, #8]
 240              		.loc 1 92 0
 241 0050 2661     		str	r6, [r4, #16]
 242              		.loc 1 78 0
 243 0052 6764     		str	r7, [r4, #68]
 244              		.loc 1 72 0
 245 0054 84F820B0 		strb	fp, [r4, #32]
 246              		.loc 1 92 0
 247 0058 7461     		str	r4, [r6, #20]
 248              		.loc 1 73 0
 249 005a 84F82150 		strb	r5, [r4, #33]
 250              		.loc 1 79 0
 251 005e 2564     		str	r5, [r4, #64]
 252              		.loc 1 82 0
 253 0060 E563     		str	r5, [r4, #60]
 254              		.loc 1 85 0
 255 0062 6562     		str	r5, [r4, #36]
 256              		.loc 1 91 0
 257 0064 A561     		str	r5, [r4, #24]
 258              		.loc 1 75 0
 259 0066 84F823A0 		strb	r10, [r4, #35]
 260              		.loc 1 88 0
 261 006a 84F82290 		strb	r9, [r4, #34]
 262              		.loc 1 92 0
 263 006e 1C61     		str	r4, [r3, #16]
 264              		.loc 1 95 0
 265 0070 019B     		ldr	r3, [sp, #4]
 266 0072 E362     		str	r3, [r4, #44]
 267              		.loc 1 98 0
 268 0074 04F13002 		add	r2, r4, #48
 269              		.loc 1 101 0
 270 0078 04F14C0C 		add	ip, r4, #76
 271              	.LBE22:
 272              	.LBE28:
 273              		.loc 1 162 0
 274 007c 2046     		mov	r0, r4
 275              	.LBB29:
 276              	.LBB23:
 277              		.loc 1 98 0
 278 007e 6263     		str	r2, [r4, #52]
 279 0080 2263     		str	r2, [r4, #48]
 280              		.loc 1 101 0
 281 0082 C4F81CC0 		str	ip, [r4, #28]
 282              	.LBE23:
 283              	.LBE29:
 284              		.loc 1 162 0
 285 0086 03B0     		add	sp, sp, #12
ARM GAS  /tmp/ccsk3OHt.s 			page 6


 286              		@ sp needed
 287 0088 BDE8F08F 		pop	{r4, r5, r6, r7, r8, r9, r10, fp, pc}
 288              	.LVL9:
 289              	.L16:
 290              		.loc 1 157 0 discriminator 1
 291 008c 7F2F     		cmp	r7, #127
 292 008e C4D8     		bhi	.L11
 293 0090 B8F1000F 		cmp	r8, #0
 294 0094 C4D1     		bne	.L12
 295 0096 C0E7     		b	.L11
 296              	.L18:
 297              		.align	2
 298              	.L17:
 299 0098 00000000 		.word	.LC0
 300 009c 00000000 		.word	rlist
 301 00a0 00000000 		.word	_port_thread_start
 302              		.cfi_endproc
 303              	.LFE9:
 304              		.size	chThdCreateI, .-chThdCreateI
 305 00a4 AFF30080 		.section	.text.chThdCreateStatic,"ax",%progbits
 305      AFF30080 
 305      AFF30080 
 306              		.align	2
 307              		.p2align 4,,15
 308              		.global	chThdCreateStatic
 309              		.thumb
 310              		.thumb_func
 311              		.type	chThdCreateStatic, %function
 312              	chThdCreateStatic:
 313              	.LFB10:
 314              		.loc 1 181 0
 315              		.cfi_startproc
 316              		@ args = 4, pretend = 0, frame = 0
 317              		@ frame_needed = 0, uses_anonymous_args = 0
 318              	.LVL10:
 319 0000 2DE9F04F 		push	{r4, r5, r6, r7, r8, r9, r10, fp, lr}
 320              		.cfi_def_cfa_offset 36
 321              		.cfi_offset 4, -36
 322              		.cfi_offset 5, -32
 323              		.cfi_offset 6, -28
 324              		.cfi_offset 7, -24
 325              		.cfi_offset 8, -20
 326              		.cfi_offset 9, -16
 327              		.cfi_offset 10, -12
 328              		.cfi_offset 11, -8
 329              		.cfi_offset 14, -4
 330 0004 83B0     		sub	sp, sp, #12
 331              		.cfi_def_cfa_offset 48
 332              		.loc 1 181 0
 333 0006 8046     		mov	r8, r0
 334 0008 0C9F     		ldr	r7, [sp, #48]
 335 000a 8946     		mov	r9, r1
 336 000c 9346     		mov	fp, r2
 337 000e 9A46     		mov	r10, r3
 338              		.loc 1 185 0
 339 0010 00F14C05 		add	r5, r0, #76
 340              	.LVL11:
ARM GAS  /tmp/ccsk3OHt.s 			page 7


 341 0014 0446     		mov	r4, r0
 342              	.LBB30:
 343              	.LBB31:
 344              		.loc 1 122 0
 345 0016 FF26     		movs	r6, #255
 346              	.LVL12:
 347              	.L21:
 348 0018 04F8016B 		strb	r6, [r4], #1
 349              	.LVL13:
 350              		.loc 1 121 0
 351 001c A542     		cmp	r5, r4
 352 001e FBD1     		bne	.L21
 353              	.LBE31:
 354              	.LBE30:
 355              		.loc 1 188 0
 356 0020 08EB0904 		add	r4, r8, r9
 357              	.LVL14:
 358              	.LBB32:
 359              	.LBB33:
 360              		.loc 1 121 0
 361 0024 A542     		cmp	r5, r4
 362 0026 04D2     		bcs	.L23
 363              		.loc 1 122 0
 364 0028 5526     		movs	r6, #85
 365              	.LVL15:
 366              	.L24:
 367 002a 05F8016B 		strb	r6, [r5], #1
 368              	.LVL16:
 369              		.loc 1 121 0
 370 002e A542     		cmp	r5, r4
 371 0030 FBD1     		bne	.L24
 372              	.L23:
 373              	.LBE33:
 374              	.LBE32:
 375              	.LBB34:
 376              		.loc 1 192 0
 377 0032 2023     		movs	r3, #32
 378              	.LVL17:
 379              	@ 192 "../../../../os/kernel/src/chthreads.c" 1
 380 0034 83F31188 		msr     BASEPRI, r3
 381              	@ 0 "" 2
 382              		.thumb
 383              	.LBE34:
 384 0038 FFF7FEFF 		bl	dbg_check_lock
 385              	.LVL18:
 386              		.loc 1 193 0
 387 003c 5346     		mov	r3, r10
 388 003e 5A46     		mov	r2, fp
 389 0040 4946     		mov	r1, r9
 390 0042 0097     		str	r7, [sp]
 391 0044 4046     		mov	r0, r8
 392 0046 FFF7FEFF 		bl	chThdCreateI
 393              	.LVL19:
 394 004a 0021     		movs	r1, #0
 395 004c 0446     		mov	r4, r0
 396              	.LVL20:
 397 004e FFF7FEFF 		bl	chSchWakeupS
ARM GAS  /tmp/ccsk3OHt.s 			page 8


 398              	.LVL21:
 399              		.loc 1 194 0
 400 0052 FFF7FEFF 		bl	dbg_check_unlock
 401              	.LVL22:
 402              	.LBB35:
 403 0056 0023     		movs	r3, #0
 404              	@ 194 "../../../../os/kernel/src/chthreads.c" 1
 405 0058 83F31188 		msr     BASEPRI, r3
 406              	@ 0 "" 2
 407              		.thumb
 408              	.LBE35:
 409              		.loc 1 196 0
 410 005c 2046     		mov	r0, r4
 411 005e 03B0     		add	sp, sp, #12
 412              		@ sp needed
 413 0060 BDE8F08F 		pop	{r4, r5, r6, r7, r8, r9, r10, fp, pc}
 414              		.cfi_endproc
 415              	.LFE10:
 416              		.size	chThdCreateStatic, .-chThdCreateStatic
 417 0064 AFF30080 		.section	.text.chThdSetPriority,"ax",%progbits
 417      AFF30080 
 417      AFF30080 
 418              		.align	2
 419              		.p2align 4,,15
 420              		.global	chThdSetPriority
 421              		.thumb
 422              		.thumb_func
 423              		.type	chThdSetPriority, %function
 424              	chThdSetPriority:
 425              	.LFB11:
 426              		.loc 1 210 0
 427              		.cfi_startproc
 428              		@ args = 0, pretend = 0, frame = 0
 429              		@ frame_needed = 0, uses_anonymous_args = 0
 430              	.LVL23:
 431              		.loc 1 213 0
 432 0000 7F28     		cmp	r0, #127
 433              		.loc 1 210 0
 434 0002 38B5     		push	{r3, r4, r5, lr}
 435              		.cfi_def_cfa_offset 16
 436              		.cfi_offset 3, -16
 437              		.cfi_offset 4, -12
 438              		.cfi_offset 5, -8
 439              		.cfi_offset 14, -4
 440              		.loc 1 210 0
 441 0004 0446     		mov	r4, r0
 442              		.loc 1 213 0
 443 0006 17D8     		bhi	.L32
 444              	.LVL24:
 445              	.L29:
 446              	.LBB36:
 447              		.loc 1 215 0
 448 0008 2023     		movs	r3, #32
 449              	@ 215 "../../../../os/kernel/src/chthreads.c" 1
 450 000a 83F31188 		msr     BASEPRI, r3
 451              	@ 0 "" 2
 452              		.thumb
ARM GAS  /tmp/ccsk3OHt.s 			page 9


 453              	.LBE36:
 454 000e FFF7FEFF 		bl	dbg_check_lock
 455              	.LVL25:
 456              		.loc 1 217 0
 457 0012 0B4B     		ldr	r3, .L33
 458 0014 9B69     		ldr	r3, [r3, #24]
 459 0016 5D6C     		ldr	r5, [r3, #68]
 460              	.LVL26:
 461              		.loc 1 218 0
 462 0018 9A68     		ldr	r2, [r3, #8]
 463 001a 9542     		cmp	r5, r2
 464 001c 01D0     		beq	.L30
 465              		.loc 1 218 0 is_stmt 0 discriminator 1
 466 001e 9442     		cmp	r4, r2
 467 0020 00D9     		bls	.L31
 468              	.L30:
 469              		.loc 1 219 0 is_stmt 1
 470 0022 9C60     		str	r4, [r3, #8]
 471              	.L31:
 472              		.loc 1 220 0
 473 0024 5C64     		str	r4, [r3, #68]
 474              		.loc 1 225 0
 475 0026 FFF7FEFF 		bl	chSchRescheduleS
 476              	.LVL27:
 477              		.loc 1 226 0
 478 002a FFF7FEFF 		bl	dbg_check_unlock
 479              	.LVL28:
 480              	.LBB37:
 481 002e 0023     		movs	r3, #0
 482              	@ 226 "../../../../os/kernel/src/chthreads.c" 1
 483 0030 83F31188 		msr     BASEPRI, r3
 484              	@ 0 "" 2
 485              		.thumb
 486              	.LBE37:
 487              		.loc 1 228 0
 488 0034 2846     		mov	r0, r5
 489 0036 38BD     		pop	{r3, r4, r5, pc}
 490              	.LVL29:
 491              	.L32:
 492              		.loc 1 213 0 discriminator 1
 493 0038 0248     		ldr	r0, .L33+4
 494              	.LVL30:
 495 003a FFF7FEFF 		bl	chDbgPanic
 496              	.LVL31:
 497 003e E3E7     		b	.L29
 498              	.L34:
 499              		.align	2
 500              	.L33:
 501 0040 00000000 		.word	rlist
 502 0044 14000000 		.word	.LC1
 503              		.cfi_endproc
 504              	.LFE11:
 505              		.size	chThdSetPriority, .-chThdSetPriority
 506 0048 AFF30080 		.section	.text.chThdResume,"ax",%progbits
 506      AFF30080 
 507              		.align	2
 508              		.p2align 4,,15
ARM GAS  /tmp/ccsk3OHt.s 			page 10


 509              		.global	chThdResume
 510              		.thumb
 511              		.thumb_func
 512              		.type	chThdResume, %function
 513              	chThdResume:
 514              	.LFB12:
 515              		.loc 1 243 0
 516              		.cfi_startproc
 517              		@ args = 0, pretend = 0, frame = 0
 518              		@ frame_needed = 0, uses_anonymous_args = 0
 519              	.LVL32:
 520 0000 10B5     		push	{r4, lr}
 521              		.cfi_def_cfa_offset 8
 522              		.cfi_offset 4, -8
 523              		.cfi_offset 14, -4
 524              	.LBB38:
 525              		.loc 1 245 0
 526 0002 2023     		movs	r3, #32
 527              	.LBE38:
 528              		.loc 1 243 0
 529 0004 0446     		mov	r4, r0
 530              	.LBB39:
 531              		.loc 1 245 0
 532              	@ 245 "../../../../os/kernel/src/chthreads.c" 1
 533 0006 83F31188 		msr     BASEPRI, r3
 534              	@ 0 "" 2
 535              		.thumb
 536              	.LBE39:
 537 000a FFF7FEFF 		bl	dbg_check_lock
 538              	.LVL33:
 539              		.loc 1 246 0
 540 000e 94F82030 		ldrb	r3, [r4, #32]	@ zero_extendqisi2
 541 0012 022B     		cmp	r3, #2
 542 0014 02D0     		beq	.L36
 543              		.loc 1 246 0 is_stmt 0 discriminator 1
 544 0016 0748     		ldr	r0, .L40
 545 0018 FFF7FEFF 		bl	chDbgPanic
 546              	.LVL34:
 547              	.L36:
 548              		.loc 1 249 0 is_stmt 1
 549 001c 2046     		mov	r0, r4
 550 001e 0021     		movs	r1, #0
 551 0020 FFF7FEFF 		bl	chSchWakeupS
 552              	.LVL35:
 553              		.loc 1 250 0
 554 0024 FFF7FEFF 		bl	dbg_check_unlock
 555              	.LVL36:
 556              	.LBB40:
 557 0028 0023     		movs	r3, #0
 558              	@ 250 "../../../../os/kernel/src/chthreads.c" 1
 559 002a 83F31188 		msr     BASEPRI, r3
 560              	@ 0 "" 2
 561              		.thumb
 562              	.LBE40:
 563              		.loc 1 252 0
 564 002e 2046     		mov	r0, r4
 565 0030 10BD     		pop	{r4, pc}
ARM GAS  /tmp/ccsk3OHt.s 			page 11


 566              	.LVL37:
 567              	.L41:
 568 0032 00BF     		.align	2
 569              	.L40:
 570 0034 2C000000 		.word	.LC2
 571              		.cfi_endproc
 572              	.LFE12:
 573              		.size	chThdResume, .-chThdResume
 574 0038 AFF30080 		.section	.text.chThdTerminate,"ax",%progbits
 574      AFF30080 
 575              		.align	2
 576              		.p2align 4,,15
 577              		.global	chThdTerminate
 578              		.thumb
 579              		.thumb_func
 580              		.type	chThdTerminate, %function
 581              	chThdTerminate:
 582              	.LFB13:
 583              		.loc 1 266 0
 584              		.cfi_startproc
 585              		@ args = 0, pretend = 0, frame = 0
 586              		@ frame_needed = 0, uses_anonymous_args = 0
 587              	.LVL38:
 588 0000 10B5     		push	{r4, lr}
 589              		.cfi_def_cfa_offset 8
 590              		.cfi_offset 4, -8
 591              		.cfi_offset 14, -4
 592              	.LBB41:
 593              		.loc 1 268 0
 594 0002 2023     		movs	r3, #32
 595              	.LBE41:
 596              		.loc 1 266 0
 597 0004 0446     		mov	r4, r0
 598              	.LBB42:
 599              		.loc 1 268 0
 600              	@ 268 "../../../../os/kernel/src/chthreads.c" 1
 601 0006 83F31188 		msr     BASEPRI, r3
 602              	@ 0 "" 2
 603              		.thumb
 604              	.LBE42:
 605 000a FFF7FEFF 		bl	dbg_check_lock
 606              	.LVL39:
 607              		.loc 1 269 0
 608 000e 94F82130 		ldrb	r3, [r4, #33]	@ zero_extendqisi2
 609 0012 43F00403 		orr	r3, r3, #4
 610 0016 84F82130 		strb	r3, [r4, #33]
 611              		.loc 1 270 0
 612 001a FFF7FEFF 		bl	dbg_check_unlock
 613              	.LVL40:
 614              	.LBB43:
 615 001e 0023     		movs	r3, #0
 616              	@ 270 "../../../../os/kernel/src/chthreads.c" 1
 617 0020 83F31188 		msr     BASEPRI, r3
 618              	@ 0 "" 2
 619              		.thumb
 620 0024 10BD     		pop	{r4, pc}
 621              	.LBE43:
ARM GAS  /tmp/ccsk3OHt.s 			page 12


 622              		.cfi_endproc
 623              	.LFE13:
 624              		.size	chThdTerminate, .-chThdTerminate
 625 0026 00BFAFF3 		.section	.text.chThdSleep,"ax",%progbits
 625      0080AFF3 
 625      0080
 626              		.align	2
 627              		.p2align 4,,15
 628              		.global	chThdSleep
 629              		.thumb
 630              		.thumb_func
 631              		.type	chThdSleep, %function
 632              	chThdSleep:
 633              	.LFB14:
 634              		.loc 1 285 0
 635              		.cfi_startproc
 636              		@ args = 0, pretend = 0, frame = 0
 637              		@ frame_needed = 0, uses_anonymous_args = 0
 638              	.LVL41:
 639 0000 10B5     		push	{r4, lr}
 640              		.cfi_def_cfa_offset 8
 641              		.cfi_offset 4, -8
 642              		.cfi_offset 14, -4
 643              		.loc 1 287 0
 644 0002 0446     		mov	r4, r0
 645 0004 10B9     		cbnz	r0, .L44
 646              		.loc 1 287 0 is_stmt 0 discriminator 1
 647 0006 0948     		ldr	r0, .L45
 648              	.LVL42:
 649 0008 FFF7FEFF 		bl	chDbgPanic
 650              	.LVL43:
 651              	.L44:
 652              	.LBB44:
 653              		.loc 1 289 0 is_stmt 1
 654 000c 2023     		movs	r3, #32
 655              	@ 289 "../../../../os/kernel/src/chthreads.c" 1
 656 000e 83F31188 		msr     BASEPRI, r3
 657              	@ 0 "" 2
 658              		.thumb
 659              	.LBE44:
 660 0012 FFF7FEFF 		bl	dbg_check_lock
 661              	.LVL44:
 662              		.loc 1 290 0
 663 0016 2146     		mov	r1, r4
 664 0018 0620     		movs	r0, #6
 665 001a FFF7FEFF 		bl	chSchGoSleepTimeoutS
 666              	.LVL45:
 667              		.loc 1 291 0
 668 001e FFF7FEFF 		bl	dbg_check_unlock
 669              	.LVL46:
 670              	.LBB45:
 671 0022 0023     		movs	r3, #0
 672              	@ 291 "../../../../os/kernel/src/chthreads.c" 1
 673 0024 83F31188 		msr     BASEPRI, r3
 674              	@ 0 "" 2
 675              		.thumb
 676 0028 10BD     		pop	{r4, pc}
ARM GAS  /tmp/ccsk3OHt.s 			page 13


 677              	.LVL47:
 678              	.L46:
 679 002a 00BF     		.align	2
 680              	.L45:
 681 002c 40000000 		.word	.LC3
 682              	.LBE45:
 683              		.cfi_endproc
 684              	.LFE14:
 685              		.size	chThdSleep, .-chThdSleep
 686              		.section	.text.chThdSleepUntil,"ax",%progbits
 687              		.align	2
 688              		.p2align 4,,15
 689              		.global	chThdSleepUntil
 690              		.thumb
 691              		.thumb_func
 692              		.type	chThdSleepUntil, %function
 693              	chThdSleepUntil:
 694              	.LFB15:
 695              		.loc 1 302 0
 696              		.cfi_startproc
 697              		@ args = 0, pretend = 0, frame = 0
 698              		@ frame_needed = 0, uses_anonymous_args = 0
 699              	.LVL48:
 700 0000 10B5     		push	{r4, lr}
 701              		.cfi_def_cfa_offset 8
 702              		.cfi_offset 4, -8
 703              		.cfi_offset 14, -4
 704              	.LBB46:
 705              		.loc 1 304 0
 706 0002 2023     		movs	r3, #32
 707              	.LBE46:
 708              		.loc 1 302 0
 709 0004 0446     		mov	r4, r0
 710              	.LBB47:
 711              		.loc 1 304 0
 712              	@ 304 "../../../../os/kernel/src/chthreads.c" 1
 713 0006 83F31188 		msr     BASEPRI, r3
 714              	@ 0 "" 2
 715              		.thumb
 716              	.LBE47:
 717 000a FFF7FEFF 		bl	dbg_check_lock
 718              	.LVL49:
 719              		.loc 1 305 0
 720 000e 064B     		ldr	r3, .L52
 721 0010 D968     		ldr	r1, [r3, #12]
 722              	.LVL50:
 723 0012 611A     		subs	r1, r4, r1
 724              	.LVL51:
 725 0014 02D0     		beq	.L48
 726              		.loc 1 306 0
 727 0016 0620     		movs	r0, #6
 728 0018 FFF7FEFF 		bl	chSchGoSleepTimeoutS
 729              	.LVL52:
 730              	.L48:
 731              		.loc 1 307 0
 732 001c FFF7FEFF 		bl	dbg_check_unlock
 733              	.LVL53:
ARM GAS  /tmp/ccsk3OHt.s 			page 14


 734              	.LBB48:
 735 0020 0023     		movs	r3, #0
 736              	@ 307 "../../../../os/kernel/src/chthreads.c" 1
 737 0022 83F31188 		msr     BASEPRI, r3
 738              	@ 0 "" 2
 739              		.thumb
 740 0026 10BD     		pop	{r4, pc}
 741              	.L53:
 742              		.align	2
 743              	.L52:
 744 0028 00000000 		.word	vtlist
 745              	.LBE48:
 746              		.cfi_endproc
 747              	.LFE15:
 748              		.size	chThdSleepUntil, .-chThdSleepUntil
 749 002c AFF30080 		.section	.text.chThdYield,"ax",%progbits
 750              		.align	2
 751              		.p2align 4,,15
 752              		.global	chThdYield
 753              		.thumb
 754              		.thumb_func
 755              		.type	chThdYield, %function
 756              	chThdYield:
 757              	.LFB16:
 758              		.loc 1 317 0
 759              		.cfi_startproc
 760              		@ args = 0, pretend = 0, frame = 0
 761              		@ frame_needed = 0, uses_anonymous_args = 0
 762 0000 08B5     		push	{r3, lr}
 763              		.cfi_def_cfa_offset 8
 764              		.cfi_offset 3, -8
 765              		.cfi_offset 14, -4
 766              	.LBB49:
 767              		.loc 1 319 0
 768 0002 2023     		movs	r3, #32
 769              	@ 319 "../../../../os/kernel/src/chthreads.c" 1
 770 0004 83F31188 		msr     BASEPRI, r3
 771              	@ 0 "" 2
 772              		.thumb
 773              	.LBE49:
 774 0008 FFF7FEFF 		bl	dbg_check_lock
 775              	.LVL54:
 776              		.loc 1 320 0
 777 000c 074B     		ldr	r3, .L56
 778 000e 1A68     		ldr	r2, [r3]
 779 0010 9B69     		ldr	r3, [r3, #24]
 780 0012 9268     		ldr	r2, [r2, #8]
 781 0014 9B68     		ldr	r3, [r3, #8]
 782 0016 9A42     		cmp	r2, r3
 783 0018 01D3     		bcc	.L55
 784              		.loc 1 320 0 is_stmt 0 discriminator 1
 785 001a FFF7FEFF 		bl	chSchDoRescheduleBehind
 786              	.LVL55:
 787              	.L55:
 788              		.loc 1 321 0 is_stmt 1
 789 001e FFF7FEFF 		bl	dbg_check_unlock
 790              	.LVL56:
ARM GAS  /tmp/ccsk3OHt.s 			page 15


 791              	.LBB50:
 792 0022 0023     		movs	r3, #0
 793              	@ 321 "../../../../os/kernel/src/chthreads.c" 1
 794 0024 83F31188 		msr     BASEPRI, r3
 795              	@ 0 "" 2
 796              		.thumb
 797 0028 08BD     		pop	{r3, pc}
 798              	.L57:
 799 002a 00BF     		.align	2
 800              	.L56:
 801 002c 00000000 		.word	rlist
 802              	.LBE50:
 803              		.cfi_endproc
 804              	.LFE16:
 805              		.size	chThdYield, .-chThdYield
 806              		.section	.text.chThdExitS,"ax",%progbits
 807              		.align	2
 808              		.p2align 4,,15
 809              		.global	chThdExitS
 810              		.thumb
 811              		.thumb_func
 812              		.type	chThdExitS, %function
 813              	chThdExitS:
 814              	.LFB18:
 815              		.loc 1 359 0
 816              		.cfi_startproc
 817              		@ args = 0, pretend = 0, frame = 0
 818              		@ frame_needed = 0, uses_anonymous_args = 0
 819              	.LVL57:
 820 0000 38B5     		push	{r3, r4, r5, lr}
 821              		.cfi_def_cfa_offset 16
 822              		.cfi_offset 3, -16
 823              		.cfi_offset 4, -12
 824              		.cfi_offset 5, -8
 825              		.cfi_offset 14, -4
 826              		.loc 1 360 0
 827 0002 104B     		ldr	r3, .L64
 828 0004 9C69     		ldr	r4, [r3, #24]
 829              	.LVL58:
 830              		.loc 1 367 0
 831 0006 2546     		mov	r5, r4
 832              		.loc 1 362 0
 833 0008 A062     		str	r0, [r4, #40]
 834              		.loc 1 367 0
 835 000a 55F82C0F 		ldr	r0, [r5, #44]!
 836              	.LVL59:
 837 000e A842     		cmp	r0, r5
 838 0010 06D0     		beq	.L62
 839              	.LVL60:
 840              	.L63:
 841              	.LBB51:
 842              	.LBB52:
 843              		.file 2 "../../../../os/kernel/include/chinline.h"
 844              		.loc 2 82 0
 845 0012 0368     		ldr	r3, [r0]
 846 0014 E362     		str	r3, [r4, #44]
 847              	.LBE52:
ARM GAS  /tmp/ccsk3OHt.s 			page 16


 848              	.LBE51:
 849              		.loc 1 368 0
 850 0016 FFF7FEFF 		bl	chSchReadyI
 851              	.LVL61:
 852              		.loc 1 367 0
 853 001a E06A     		ldr	r0, [r4, #44]
 854 001c A842     		cmp	r0, r5
 855 001e F8D1     		bne	.L63
 856              	.LVL62:
 857              	.L62:
 858              		.loc 1 373 0
 859 0020 94F82130 		ldrb	r3, [r4, #33]	@ zero_extendqisi2
 860 0024 9B07     		lsls	r3, r3, #30
 861 0026 04D1     		bne	.L61
 862              		.loc 1 374 0
 863 0028 6369     		ldr	r3, [r4, #20]
 864 002a 2269     		ldr	r2, [r4, #16]
 865 002c 1A61     		str	r2, [r3, #16]
 866 002e 2269     		ldr	r2, [r4, #16]
 867 0030 5361     		str	r3, [r2, #20]
 868              	.L61:
 869              		.loc 1 376 0
 870 0032 0E20     		movs	r0, #14
 871 0034 FFF7FEFF 		bl	chSchGoSleepS
 872              	.LVL63:
 873              		.loc 1 378 0
 874 0038 0348     		ldr	r0, .L64+4
 875              		.loc 1 379 0
 876 003a BDE83840 		pop	{r3, r4, r5, lr}
 877              	.LVL64:
 878              		.loc 1 378 0
 879 003e FFF7FEBF 		b	chDbgPanic
 880              	.LVL65:
 881              	.L65:
 882 0042 00BF     		.align	2
 883              	.L64:
 884 0044 00000000 		.word	rlist
 885 0048 50000000 		.word	.LC4
 886              		.cfi_endproc
 887              	.LFE18:
 888              		.size	chThdExitS, .-chThdExitS
 889 004c AFF30080 		.section	.text.chThdExit,"ax",%progbits
 890              		.align	2
 891              		.p2align 4,,15
 892              		.global	chThdExit
 893              		.thumb
 894              		.thumb_func
 895              		.type	chThdExit, %function
 896              	chThdExit:
 897              	.LFB17:
 898              		.loc 1 338 0
 899              		.cfi_startproc
 900              		@ args = 0, pretend = 0, frame = 0
 901              		@ frame_needed = 0, uses_anonymous_args = 0
 902              	.LVL66:
 903 0000 10B5     		push	{r4, lr}
 904              		.cfi_def_cfa_offset 8
ARM GAS  /tmp/ccsk3OHt.s 			page 17


 905              		.cfi_offset 4, -8
 906              		.cfi_offset 14, -4
 907              	.LBB53:
 908              		.loc 1 340 0
 909 0002 2023     		movs	r3, #32
 910              	.LBE53:
 911              		.loc 1 338 0
 912 0004 0446     		mov	r4, r0
 913              	.LBB54:
 914              		.loc 1 340 0
 915              	@ 340 "../../../../os/kernel/src/chthreads.c" 1
 916 0006 83F31188 		msr     BASEPRI, r3
 917              	@ 0 "" 2
 918              		.thumb
 919              	.LBE54:
 920 000a FFF7FEFF 		bl	dbg_check_lock
 921              	.LVL67:
 922              		.loc 1 341 0
 923 000e 2046     		mov	r0, r4
 924              		.loc 1 343 0
 925 0010 BDE81040 		pop	{r4, lr}
 926              	.LVL68:
 927              		.loc 1 341 0
 928 0014 FFF7FEBF 		b	chThdExitS
 929              	.LVL69:
 930              		.cfi_endproc
 931              	.LFE17:
 932              		.size	chThdExit, .-chThdExit
 933 0018 AFF30080 		.section	.text.chThdWait,"ax",%progbits
 933      AFF30080 
 934              		.align	2
 935              		.p2align 4,,15
 936              		.global	chThdWait
 937              		.thumb
 938              		.thumb_func
 939              		.type	chThdWait, %function
 940              	chThdWait:
 941              	.LFB19:
 942              		.loc 1 413 0
 943              		.cfi_startproc
 944              		@ args = 0, pretend = 0, frame = 0
 945              		@ frame_needed = 0, uses_anonymous_args = 0
 946              	.LVL70:
 947 0000 38B5     		push	{r3, r4, r5, lr}
 948              		.cfi_def_cfa_offset 16
 949              		.cfi_offset 3, -16
 950              		.cfi_offset 4, -12
 951              		.cfi_offset 5, -8
 952              		.cfi_offset 14, -4
 953              		.loc 1 416 0
 954 0002 0446     		mov	r4, r0
 955 0004 48B3     		cbz	r0, .L75
 956              	.LVL71:
 957              	.L68:
 958              	.LBB55:
 959              		.loc 1 418 0
 960 0006 2023     		movs	r3, #32
ARM GAS  /tmp/ccsk3OHt.s 			page 18


 961              	@ 418 "../../../../os/kernel/src/chthreads.c" 1
 962 0008 83F31188 		msr     BASEPRI, r3
 963              	@ 0 "" 2
 964              		.thumb
 965              	.LBE55:
 966              		.loc 1 419 0
 967 000c 154D     		ldr	r5, .L78
 968              		.loc 1 418 0
 969 000e FFF7FEFF 		bl	dbg_check_lock
 970              	.LVL72:
 971              		.loc 1 419 0
 972 0012 AB69     		ldr	r3, [r5, #24]
 973 0014 A342     		cmp	r3, r4
 974 0016 1CD0     		beq	.L76
 975              	.L69:
 976              		.loc 1 421 0
 977 0018 94F82230 		ldrb	r3, [r4, #34]	@ zero_extendqisi2
 978 001c ABB1     		cbz	r3, .L77
 979              	.L70:
 980              		.loc 1 423 0
 981 001e 94F82030 		ldrb	r3, [r4, #32]	@ zero_extendqisi2
 982 0022 0E2B     		cmp	r3, #14
 983 0024 06D0     		beq	.L71
 984              		.loc 1 424 0
 985 0026 AB69     		ldr	r3, [r5, #24]
 986              	.LVL73:
 987              	.LBB56:
 988              	.LBB57:
 989              		.loc 2 75 0
 990 0028 E26A     		ldr	r2, [r4, #44]
 991 002a 1A60     		str	r2, [r3]
 992              	.LBE57:
 993              	.LBE56:
 994              		.loc 1 425 0
 995 002c 0720     		movs	r0, #7
 996              	.LBB59:
 997              	.LBB58:
 998              		.loc 2 76 0
 999 002e E362     		str	r3, [r4, #44]
 1000              	.LBE58:
 1001              	.LBE59:
 1002              		.loc 1 425 0
 1003 0030 FFF7FEFF 		bl	chSchGoSleepS
 1004              	.LVL74:
 1005              	.L71:
 1006              		.loc 1 427 0
 1007 0034 A56A     		ldr	r5, [r4, #40]
 1008              	.LVL75:
 1009              		.loc 1 428 0
 1010 0036 FFF7FEFF 		bl	dbg_check_unlock
 1011              	.LVL76:
 1012              	.LBB60:
 1013 003a 0023     		movs	r3, #0
 1014              	@ 428 "../../../../os/kernel/src/chthreads.c" 1
 1015 003c 83F31188 		msr     BASEPRI, r3
 1016              	@ 0 "" 2
 1017              		.thumb
ARM GAS  /tmp/ccsk3OHt.s 			page 19


 1018              	.LBE60:
 1019              		.loc 1 430 0
 1020 0040 2046     		mov	r0, r4
 1021 0042 FFF7FEFF 		bl	chThdRelease
 1022              	.LVL77:
 1023              		.loc 1 433 0
 1024 0046 2846     		mov	r0, r5
 1025 0048 38BD     		pop	{r3, r4, r5, pc}
 1026              	.LVL78:
 1027              	.L77:
 1028              		.loc 1 421 0 discriminator 1
 1029 004a 0748     		ldr	r0, .L78+4
 1030 004c FFF7FEFF 		bl	chDbgPanic
 1031              	.LVL79:
 1032 0050 E5E7     		b	.L70
 1033              	.L76:
 1034              		.loc 1 419 0 discriminator 1
 1035 0052 0648     		ldr	r0, .L78+8
 1036 0054 FFF7FEFF 		bl	chDbgPanic
 1037              	.LVL80:
 1038 0058 DEE7     		b	.L69
 1039              	.LVL81:
 1040              	.L75:
 1041              		.loc 1 416 0 discriminator 1
 1042 005a 0548     		ldr	r0, .L78+12
 1043              	.LVL82:
 1044 005c FFF7FEFF 		bl	chDbgPanic
 1045              	.LVL83:
 1046 0060 D1E7     		b	.L68
 1047              	.L79:
 1048 0062 00BF     		.align	2
 1049              	.L78:
 1050 0064 00000000 		.word	rlist
 1051 0068 84000000 		.word	.LC7
 1052 006c 74000000 		.word	.LC6
 1053 0070 64000000 		.word	.LC5
 1054              		.cfi_endproc
 1055              	.LFE19:
 1056              		.size	chThdWait, .-chThdWait
 1057 0074 AFF30080 		.section	.rodata.str1.4,"aMS",%progbits,1
 1057      AFF30080 
 1057      AFF30080 
 1058              		.align	2
 1059              	.LC0:
 1060 0000 22636854 		.ascii	"\"chThdCreateI\"()\000"
 1060      68644372 
 1060      65617465 
 1060      49222829 
 1060      00
 1061 0011 000000   		.space	3
 1062              	.LC1:
 1063 0014 22636854 		.ascii	"\"chThdSetPriority\"()\000"
 1063      68645365 
 1063      74507269 
 1063      6F726974 
 1063      79222829 
 1064 0029 000000   		.space	3
ARM GAS  /tmp/ccsk3OHt.s 			page 20


 1065              	.LC2:
 1066 002c 63685468 		.ascii	"chThdResume(), #1\000"
 1066      64526573 
 1066      756D6528 
 1066      292C2023 
 1066      3100
 1067 003e 0000     		.space	2
 1068              	.LC3:
 1069 0040 22636854 		.ascii	"\"chThdSleep\"()\000"
 1069      6864536C 
 1069      65657022 
 1069      282900
 1070 004f 00       		.space	1
 1071              	.LC4:
 1072 0050 63685468 		.ascii	"chThdExitS(), #1\000"
 1072      64457869 
 1072      74532829 
 1072      2C202331 
 1072      00
 1073 0061 000000   		.space	3
 1074              	.LC5:
 1075 0064 22636854 		.ascii	"\"chThdWait\"()\000"
 1075      68645761 
 1075      69742228 
 1075      2900
 1076 0072 0000     		.space	2
 1077              	.LC6:
 1078 0074 63685468 		.ascii	"chThdWait(), #1\000"
 1078      64576169 
 1078      7428292C 
 1078      20233100 
 1079              	.LC7:
 1080 0084 63685468 		.ascii	"chThdWait(), #2\000"
 1080      64576169 
 1080      7428292C 
 1080      20233200 
 1081              		.text
 1082              	.Letext0:
 1083              		.file 3 "/usr/lib/gcc/arm-none-eabi/4.8/include/stddef.h"
 1084              		.file 4 "/usr/include/newlib/machine/_default_types.h"
 1085              		.file 5 "/usr/include/newlib/stdint.h"
 1086              		.file 6 "../../../../os/ports/GCC/ARMCMx/chtypes.h"
 1087              		.file 7 "../../../../os/kernel/include/chlists.h"
 1088              		.file 8 "../../../../os/kernel/include/chthreads.h"
 1089              		.file 9 "../../../../os/ports/GCC/ARMCMx/chcore_v7m.h"
 1090              		.file 10 "../../../../os/kernel/include/chvt.h"
 1091              		.file 11 "../../../../os/kernel/include/chschd.h"
 1092              		.file 12 "../../../../os/kernel/include/chmtx.h"
 1093              		.file 13 "../../../../os/kernel/include/chdebug.h"
 1094              		.file 14 "../../../../os/kernel/include/chdynamic.h"