ARM GAS  /tmp/ccpI5CAn.s 			page 1


   1              		.syntax unified
   2              		.cpu cortex-m4
   3              		.eabi_attribute 27, 3
   4              		.fpu fpv4-sp-d16
   5              		.eabi_attribute 20, 1
   6              		.eabi_attribute 21, 1
   7              		.eabi_attribute 23, 3
   8              		.eabi_attribute 24, 1
   9              		.eabi_attribute 25, 1
  10              		.eabi_attribute 26, 1
  11              		.eabi_attribute 30, 2
  12              		.eabi_attribute 34, 1
  13              		.eabi_attribute 18, 4
  14              		.thumb
  15              		.file	"chvt.c"
  16              		.text
  17              	.Ltext0:
  18              		.cfi_sections	.debug_frame
  19              		.section	.text._vt_init,"ax",%progbits
  20              		.align	2
  21              		.p2align 4,,15
  22              		.global	_vt_init
  23              		.thumb
  24              		.thumb_func
  25              		.type	_vt_init, %function
  26              	_vt_init:
  27              	.LFB7:
  28              		.file 1 "../../../../os/kernel/src/chvt.c"
  29              		.loc 1 43 0
  30              		.cfi_startproc
  31              		@ args = 0, pretend = 0, frame = 0
  32              		@ frame_needed = 0, uses_anonymous_args = 0
  33              		@ link register save eliminated.
  34              		.loc 1 45 0
  35 0000 044B     		ldr	r3, .L2
  36              		.loc 1 46 0
  37 0002 4FF0FF31 		mov	r1, #-1
  38              		.loc 1 47 0
  39 0006 0022     		movs	r2, #0
  40              		.loc 1 45 0
  41 0008 5B60     		str	r3, [r3, #4]
  42 000a 1B60     		str	r3, [r3]
  43              		.loc 1 46 0
  44 000c 9960     		str	r1, [r3, #8]
  45              		.loc 1 47 0
  46 000e DA60     		str	r2, [r3, #12]
  47 0010 7047     		bx	lr
  48              	.L3:
  49 0012 00BF     		.align	2
  50              	.L2:
  51 0014 00000000 		.word	.LANCHOR0
  52              		.cfi_endproc
  53              	.LFE7:
  54              		.size	_vt_init, .-_vt_init
  55 0018 AFF30080 		.section	.text.chVTSetI,"ax",%progbits
  55      AFF30080 
  56              		.align	2
ARM GAS  /tmp/ccpI5CAn.s 			page 2


  57              		.p2align 4,,15
  58              		.global	chVTSetI
  59              		.thumb
  60              		.thumb_func
  61              		.type	chVTSetI, %function
  62              	chVTSetI:
  63              	.LFB8:
  64              		.loc 1 69 0
  65              		.cfi_startproc
  66              		@ args = 0, pretend = 0, frame = 0
  67              		@ frame_needed = 0, uses_anonymous_args = 0
  68              	.LVL0:
  69 0000 F8B5     		push	{r3, r4, r5, r6, r7, lr}
  70              		.cfi_def_cfa_offset 24
  71              		.cfi_offset 3, -24
  72              		.cfi_offset 4, -20
  73              		.cfi_offset 5, -16
  74              		.cfi_offset 6, -12
  75              		.cfi_offset 7, -8
  76              		.cfi_offset 14, -4
  77              		.loc 1 69 0
  78 0002 0546     		mov	r5, r0
  79 0004 0C46     		mov	r4, r1
  80 0006 1646     		mov	r6, r2
  81 0008 1F46     		mov	r7, r3
  82              		.loc 1 72 0
  83 000a FFF7FEFF 		bl	chDbgCheckClassI
  84              	.LVL1:
  85              		.loc 1 73 0
  86 000e CDB1     		cbz	r5, .L5
  87              		.loc 1 73 0 is_stmt 0 discriminator 2
  88 0010 C6B1     		cbz	r6, .L5
  89              		.loc 1 73 0 discriminator 1
  90 0012 BCB1     		cbz	r4, .L5
  91              	.L6:
  92              		.loc 1 78 0 is_stmt 1
  93 0014 0D49     		ldr	r1, .L17
  94              		.loc 1 76 0
  95 0016 2F61     		str	r7, [r5, #16]
  96              		.loc 1 78 0
  97 0018 0B68     		ldr	r3, [r1]
  98              	.LVL2:
  99              		.loc 1 77 0
 100 001a EE60     		str	r6, [r5, #12]
 101              		.loc 1 79 0
 102 001c 9A68     		ldr	r2, [r3, #8]
 103 001e 9442     		cmp	r4, r2
 104 0020 04D9     		bls	.L7
 105              	.L8:
 106              		.loc 1 81 0
 107 0022 1B68     		ldr	r3, [r3]
 108              	.LVL3:
 109              		.loc 1 80 0
 110 0024 A41A     		subs	r4, r4, r2
 111              	.LVL4:
 112              		.loc 1 79 0
 113 0026 9A68     		ldr	r2, [r3, #8]
ARM GAS  /tmp/ccpI5CAn.s 			page 3


 114 0028 A242     		cmp	r2, r4
 115 002a FAD3     		bcc	.L8
 116              	.L7:
 117              		.loc 1 84 0
 118 002c 5A68     		ldr	r2, [r3, #4]
 119 002e 6A60     		str	r2, [r5, #4]
 120              		.loc 1 87 0
 121 0030 8B42     		cmp	r3, r1
 122              		.loc 1 84 0
 123 0032 2B60     		str	r3, [r5]
 124              		.loc 1 85 0
 125 0034 5D60     		str	r5, [r3, #4]
 126 0036 1560     		str	r5, [r2]
 127              		.loc 1 86 0
 128 0038 AC60     		str	r4, [r5, #8]
 129              		.loc 1 87 0
 130 003a 02D0     		beq	.L4
 131              		.loc 1 88 0
 132 003c 9A68     		ldr	r2, [r3, #8]
 133 003e 141B     		subs	r4, r2, r4
 134              	.LVL5:
 135 0040 9C60     		str	r4, [r3, #8]
 136              	.LVL6:
 137              	.L4:
 138 0042 F8BD     		pop	{r3, r4, r5, r6, r7, pc}
 139              	.LVL7:
 140              	.L5:
 141              		.loc 1 73 0 discriminator 1
 142 0044 0248     		ldr	r0, .L17+4
 143 0046 FFF7FEFF 		bl	chDbgPanic
 144              	.LVL8:
 145 004a E3E7     		b	.L6
 146              	.L18:
 147              		.align	2
 148              	.L17:
 149 004c 00000000 		.word	.LANCHOR0
 150 0050 00000000 		.word	.LC0
 151              		.cfi_endproc
 152              	.LFE8:
 153              		.size	chVTSetI, .-chVTSetI
 154 0054 AFF30080 		.section	.text.chVTResetI,"ax",%progbits
 154      AFF30080 
 154      AFF30080 
 155              		.align	2
 156              		.p2align 4,,15
 157              		.global	chVTResetI
 158              		.thumb
 159              		.thumb_func
 160              		.type	chVTResetI, %function
 161              	chVTResetI:
 162              	.LFB9:
 163              		.loc 1 99 0
 164              		.cfi_startproc
 165              		@ args = 0, pretend = 0, frame = 0
 166              		@ frame_needed = 0, uses_anonymous_args = 0
 167              	.LVL9:
 168 0000 10B5     		push	{r4, lr}
ARM GAS  /tmp/ccpI5CAn.s 			page 4


 169              		.cfi_def_cfa_offset 8
 170              		.cfi_offset 4, -8
 171              		.cfi_offset 14, -4
 172              		.loc 1 99 0
 173 0002 0446     		mov	r4, r0
 174              		.loc 1 101 0
 175 0004 FFF7FEFF 		bl	chDbgCheckClassI
 176              	.LVL10:
 177              		.loc 1 102 0
 178 0008 84B1     		cbz	r4, .L23
 179              	.L20:
 180              		.loc 1 103 0
 181 000a E368     		ldr	r3, [r4, #12]
 182 000c 93B1     		cbz	r3, .L24
 183              	.L21:
 184              		.loc 1 107 0
 185 000e 2368     		ldr	r3, [r4]
 186 0010 0A4A     		ldr	r2, .L25
 187 0012 9342     		cmp	r3, r2
 188 0014 03D0     		beq	.L22
 189              		.loc 1 108 0
 190 0016 9968     		ldr	r1, [r3, #8]
 191 0018 A268     		ldr	r2, [r4, #8]
 192 001a 0A44     		add	r2, r2, r1
 193 001c 9A60     		str	r2, [r3, #8]
 194              	.L22:
 195              		.loc 1 109 0
 196 001e 6268     		ldr	r2, [r4, #4]
 197 0020 1360     		str	r3, [r2]
 198              		.loc 1 110 0
 199 0022 2368     		ldr	r3, [r4]
 200              		.loc 1 111 0
 201 0024 0021     		movs	r1, #0
 202              		.loc 1 110 0
 203 0026 5A60     		str	r2, [r3, #4]
 204              		.loc 1 111 0
 205 0028 E160     		str	r1, [r4, #12]
 206 002a 10BD     		pop	{r4, pc}
 207              	.LVL11:
 208              	.L23:
 209              		.loc 1 102 0 discriminator 1
 210 002c 0448     		ldr	r0, .L25+4
 211 002e FFF7FEFF 		bl	chDbgPanic
 212              	.LVL12:
 213 0032 EAE7     		b	.L20
 214              	.L24:
 215              		.loc 1 103 0 discriminator 1
 216 0034 0348     		ldr	r0, .L25+8
 217 0036 FFF7FEFF 		bl	chDbgPanic
 218              	.LVL13:
 219 003a E8E7     		b	.L21
 220              	.L26:
 221              		.align	2
 222              	.L25:
 223 003c 00000000 		.word	.LANCHOR0
 224 0040 10000000 		.word	.LC1
 225 0044 20000000 		.word	.LC2
ARM GAS  /tmp/ccpI5CAn.s 			page 5


 226              		.cfi_endproc
 227              	.LFE9:
 228              		.size	chVTResetI, .-chVTResetI
 229 0048 AFF30080 		.section	.text.chTimeIsWithin,"ax",%progbits
 229      AFF30080 
 230              		.align	2
 231              		.p2align 4,,15
 232              		.global	chTimeIsWithin
 233              		.thumb
 234              		.thumb_func
 235              		.type	chTimeIsWithin, %function
 236              	chTimeIsWithin:
 237              	.LFB10:
 238              		.loc 1 127 0
 239              		.cfi_startproc
 240              		@ args = 0, pretend = 0, frame = 0
 241              		@ frame_needed = 0, uses_anonymous_args = 0
 242              		@ link register save eliminated.
 243              	.LVL14:
 244              		.loc 1 129 0
 245 0000 084B     		ldr	r3, .L35
 246              		.loc 1 130 0
 247 0002 8142     		cmp	r1, r0
 248              		.loc 1 129 0
 249 0004 DB68     		ldr	r3, [r3, #12]
 250              	.LVL15:
 251              		.loc 1 130 0
 252 0006 06D9     		bls	.L28
 253              		.loc 1 130 0 is_stmt 0 discriminator 1
 254 0008 8342     		cmp	r3, r0
 255 000a 08D3     		bcc	.L32
 256              	.L34:
 257 000c 8B42     		cmp	r3, r1
 258 000e 2CBF     		ite	cs
 259 0010 0020     		movcs	r0, #0
 260              	.LVL16:
 261 0012 0120     		movcc	r0, #1
 262 0014 7047     		bx	lr
 263              	.LVL17:
 264              	.L28:
 265              		.loc 1 131 0 is_stmt 1
 266 0016 8342     		cmp	r3, r0
 267 0018 F8D3     		bcc	.L34
 268 001a 0120     		movs	r0, #1
 269              	.LVL18:
 270              		.loc 1 132 0
 271 001c 7047     		bx	lr
 272              	.LVL19:
 273              	.L32:
 274 001e 0020     		movs	r0, #0
 275              	.LVL20:
 276 0020 7047     		bx	lr
 277              	.L36:
 278 0022 00BF     		.align	2
 279              	.L35:
 280 0024 00000000 		.word	.LANCHOR0
 281              		.cfi_endproc
ARM GAS  /tmp/ccpI5CAn.s 			page 6


 282              	.LFE10:
 283              		.size	chTimeIsWithin, .-chTimeIsWithin
 284              		.global	vtlist
 285 0028 AFF30080 		.section	.bss.vtlist,"aw",%nobits
 285      AFF30080 
 286              		.align	2
 287              		.set	.LANCHOR0,. + 0
 288              		.type	vtlist, %object
 289              		.size	vtlist, 16
 290              	vtlist:
 291 0000 00000000 		.space	16
 291      00000000 
 291      00000000 
 291      00000000 
 292              		.section	.rodata.str1.4,"aMS",%progbits,1
 293              		.align	2
 294              	.LC0:
 295 0000 22636856 		.ascii	"\"chVTSetI\"()\000"
 295      54536574 
 295      49222829 
 295      00
 296 000d 000000   		.space	3
 297              	.LC1:
 298 0010 22636856 		.ascii	"\"chVTResetI\"()\000"
 298      54526573 
 298      65744922 
 298      282900
 299 001f 00       		.space	1
 300              	.LC2:
 301 0020 63685654 		.ascii	"chVTResetI(), #1\000"
 301      52657365 
 301      74492829 
 301      2C202331 
 301      00
 302 0031 000000   		.text
 303              	.Letext0:
 304              		.file 2 "/usr/include/newlib/machine/_default_types.h"
 305              		.file 3 "/usr/include/newlib/stdint.h"
 306              		.file 4 "../../../../os/ports/GCC/ARMCMx/chtypes.h"
 307              		.file 5 "../../../../os/kernel/include/chvt.h"
 308              		.file 6 "../../../../os/kernel/include/chdebug.h"