ARM GAS  /tmp/cc7eDuk7.s 			page 1


   1              		.syntax unified
   2              		.cpu cortex-m4
   3              		.eabi_attribute 27, 3
   4              		.fpu fpv4-sp-d16
   5              		.eabi_attribute 20, 1
   6              		.eabi_attribute 21, 1
   7              		.eabi_attribute 23, 3
   8              		.eabi_attribute 24, 1
   9              		.eabi_attribute 25, 1
  10              		.eabi_attribute 26, 1
  11              		.eabi_attribute 30, 2
  12              		.eabi_attribute 34, 1
  13              		.eabi_attribute 18, 4
  14              		.thumb
  15              		.file	"hal_lld.c"
  16              		.text
  17              	.Ltext0:
  18              		.cfi_sections	.debug_frame
  19              		.section	.text.hal_lld_init,"ax",%progbits
  20              		.align	2
  21              		.p2align 4,,15
  22              		.global	hal_lld_init
  23              		.thumb
  24              		.thumb_func
  25              		.type	hal_lld_init, %function
  26              	hal_lld_init:
  27              	.LFB119:
  28              		.file 1 "../../../../os/hal/platforms/STM32F30x/hal_lld.c"
  29              		.loc 1 100 0
  30              		.cfi_startproc
  31              		@ args = 0, pretend = 0, frame = 0
  32              		@ frame_needed = 0, uses_anonymous_args = 0
  33 0000 F8B5     		push	{r3, r4, r5, r6, r7, lr}
  34              		.cfi_def_cfa_offset 24
  35              		.cfi_offset 3, -24
  36              		.cfi_offset 4, -20
  37              		.cfi_offset 5, -16
  38              		.cfi_offset 6, -12
  39              		.cfi_offset 7, -8
  40              		.cfi_offset 14, -4
  41              		.loc 1 103 0
  42 0002 244B     		ldr	r3, .L8
  43              		.loc 1 107 0
  44 0004 2449     		ldr	r1, .L8+4
  45              		.loc 1 103 0
  46 0006 1A69     		ldr	r2, [r3, #16]
  47              		.loc 1 114 0
  48 0008 244D     		ldr	r5, .L8+8
  49              		.loc 1 107 0
  50 000a DFF8A0E0 		ldr	lr, .L8+24
  51              		.loc 1 115 0
  52 000e 244C     		ldr	r4, .L8+12
  53              	.LBB4:
  54              	.LBB5:
  55              		.loc 1 52 0
  56 0010 2448     		ldr	r0, .L8+16
  57              	.LBE5:
ARM GAS  /tmp/cc7eDuk7.s 			page 2


  58              	.LBE4:
  59              		.loc 1 103 0
  60 0012 0022     		movs	r2, #0
  61 0014 4FF0FF36 		mov	r6, #-1
  62 0018 1E61     		str	r6, [r3, #16]
  63              		.loc 1 109 0
  64 001a 0727     		movs	r7, #7
  65              		.loc 1 103 0
  66 001c 1A61     		str	r2, [r3, #16]
  67              		.loc 1 104 0
  68 001e D3F80CC0 		ldr	ip, [r3, #12]
  69 0022 DE60     		str	r6, [r3, #12]
  70 0024 DA60     		str	r2, [r3, #12]
  71              		.loc 1 107 0
  72 0026 C1F804E0 		str	lr, [r1, #4]
  73              		.loc 1 108 0
  74 002a 8A60     		str	r2, [r1, #8]
  75              		.loc 1 109 0
  76 002c 0F60     		str	r7, [r1]
  77              		.loc 1 114 0
  78 002e E968     		ldr	r1, [r5, #12]
  79 0030 41F08071 		orr	r1, r1, #16777216
  80 0034 E960     		str	r1, [r5, #12]
  81              		.loc 1 115 0
  82 0036 2168     		ldr	r1, [r4]
  83 0038 41F00101 		orr	r1, r1, #1
  84 003c 2160     		str	r1, [r4]
  85              		.loc 1 118 0
  86 003e D969     		ldr	r1, [r3, #28]
  87 0040 41F08051 		orr	r1, r1, #268435456
  88 0044 D961     		str	r1, [r3, #28]
  89              	.LBB7:
  90              	.LBB6:
  91              		.loc 1 52 0
  92 0046 0168     		ldr	r1, [r0]
  93 0048 41F48071 		orr	r1, r1, #256
  94 004c 0160     		str	r1, [r0]
  95              		.loc 1 55 0
  96 004e 196A     		ldr	r1, [r3, #32]
  97 0050 01F44071 		and	r1, r1, #768
  98 0054 B1F5007F 		cmp	r1, #512
  99 0058 03D0     		beq	.L2
 100              		.loc 1 57 0
 101 005a 4FF48031 		mov	r1, #65536
 102 005e 1962     		str	r1, [r3, #32]
 103              		.loc 1 58 0
 104 0060 1A62     		str	r2, [r3, #32]
 105              	.L2:
 106              		.loc 1 77 0
 107 0062 0C4B     		ldr	r3, .L8
 108 0064 1A6A     		ldr	r2, [r3, #32]
 109 0066 1204     		lsls	r2, r2, #16
 110 0068 07D4     		bmi	.L3
 111              		.loc 1 79 0
 112 006a 1A6A     		ldr	r2, [r3, #32]
 113 006c 42F40072 		orr	r2, r2, #512
 114 0070 1A62     		str	r2, [r3, #32]
ARM GAS  /tmp/cc7eDuk7.s 			page 3


 115              		.loc 1 82 0
 116 0072 1A6A     		ldr	r2, [r3, #32]
 117 0074 42F40042 		orr	r2, r2, #32768
 118 0078 1A62     		str	r2, [r3, #32]
 119              	.L3:
 120              	.LBE6:
 121              	.LBE7:
 122              		.loc 1 124 0
 123 007a FFF7FEFF 		bl	dmaInit
 124              	.LVL0:
 125              		.loc 1 134 0
 126 007e 054A     		ldr	r2, .L8
 127              		.loc 1 137 0
 128 0080 094B     		ldr	r3, .L8+20
 129              		.loc 1 134 0
 130 0082 9169     		ldr	r1, [r2, #24]
 131 0084 41F00101 		orr	r1, r1, #1
 132 0088 9161     		str	r1, [r2, #24]
 133              		.loc 1 137 0
 134 008a 1A68     		ldr	r2, [r3]
 135 008c 42F02002 		orr	r2, r2, #32
 136 0090 1A60     		str	r2, [r3]
 137 0092 F8BD     		pop	{r3, r4, r5, r6, r7, pc}
 138              	.L9:
 139              		.align	2
 140              	.L8:
 141 0094 00100240 		.word	1073876992
 142 0098 10E000E0 		.word	-536813552
 143 009c F0ED00E0 		.word	-536810000
 144 00a0 001000E0 		.word	-536866816
 145 00a4 00700040 		.word	1073770496
 146 00a8 00000140 		.word	1073807360
 147 00ac 3F190100 		.word	71999
 148              		.cfi_endproc
 149              	.LFE119:
 150              		.size	hal_lld_init, .-hal_lld_init
 151              		.section	.text.stm32_clock_init,"ax",%progbits
 152              		.align	2
 153              		.p2align 4,,15
 154              		.global	stm32_clock_init
 155              		.thumb
 156              		.thumb_func
 157              		.type	stm32_clock_init, %function
 158              	stm32_clock_init:
 159              	.LFB120:
 160              		.loc 1 147 0
 161              		.cfi_startproc
 162              		@ args = 0, pretend = 0, frame = 0
 163              		@ frame_needed = 0, uses_anonymous_args = 0
 164              		@ link register save eliminated.
 165              		.loc 1 152 0
 166 0000 2149     		ldr	r1, .L23
 167 0002 0B68     		ldr	r3, [r1]
 168 0004 43F00103 		orr	r3, r3, #1
 169 0008 0B60     		str	r3, [r1]
 170              	.L12:
 171              		.loc 1 153 0 discriminator 1
ARM GAS  /tmp/cc7eDuk7.s 			page 4


 172 000a 0B68     		ldr	r3, [r1]
 173 000c 1E4A     		ldr	r2, .L23
 174 000e 9807     		lsls	r0, r3, #30
 175 0010 FBD5     		bpl	.L12
 176              		.loc 1 155 0
 177 0012 1168     		ldr	r1, [r2]
 178              		.loc 1 156 0
 179 0014 0023     		movs	r3, #0
 180              		.loc 1 155 0
 181 0016 01F0F901 		and	r1, r1, #249
 182 001a 1160     		str	r1, [r2]
 183              		.loc 1 157 0
 184 001c 1146     		mov	r1, r2
 185              		.loc 1 156 0
 186 001e 5360     		str	r3, [r2, #4]
 187              	.L14:
 188              		.loc 1 157 0 discriminator 1
 189 0020 4B68     		ldr	r3, [r1, #4]
 190 0022 194A     		ldr	r2, .L23
 191 0024 13F00C0F 		tst	r3, #12
 192 0028 FAD1     		bne	.L14
 193              		.loc 1 164 0
 194 002a 1368     		ldr	r3, [r2]
 195 002c 43F4A023 		orr	r3, r3, #327680
 196 0030 1360     		str	r3, [r2]
 197              		.loc 1 169 0
 198 0032 1146     		mov	r1, r2
 199              	.L16:
 200              		.loc 1 169 0 is_stmt 0 discriminator 1
 201 0034 0B68     		ldr	r3, [r1]
 202 0036 144A     		ldr	r2, .L23
 203 0038 9B03     		lsls	r3, r3, #14
 204 003a FBD5     		bpl	.L16
 205              		.loc 1 175 0 is_stmt 1
 206 003c 536A     		ldr	r3, [r2, #36]
 207 003e 43F00103 		orr	r3, r3, #1
 208 0042 5362     		str	r3, [r2, #36]
 209              		.loc 1 176 0
 210 0044 1146     		mov	r1, r2
 211              	.L18:
 212              		.loc 1 176 0 is_stmt 0 discriminator 1
 213 0046 4B6A     		ldr	r3, [r1, #36]
 214 0048 0F4A     		ldr	r2, .L23
 215 004a 9807     		lsls	r0, r3, #30
 216 004c FBD5     		bpl	.L18
 217              		.loc 1 181 0 is_stmt 1
 218 004e 0F4B     		ldr	r3, .L23+4
 219 0050 5360     		str	r3, [r2, #4]
 220              		.loc 1 184 0
 221 0052 4FF48071 		mov	r1, #256
 222              		.loc 1 185 0
 223 0056 3023     		movs	r3, #48
 224              		.loc 1 184 0
 225 0058 D162     		str	r1, [r2, #44]
 226              		.loc 1 185 0
 227 005a 1363     		str	r3, [r2, #48]
 228              		.loc 1 191 0
ARM GAS  /tmp/cc7eDuk7.s 			page 5


 229 005c 1368     		ldr	r3, [r2]
 230 005e 43F08073 		orr	r3, r3, #16777216
 231 0062 1360     		str	r3, [r2]
 232              	.L20:
 233              		.loc 1 192 0 discriminator 1
 234 0064 1368     		ldr	r3, [r2]
 235 0066 0849     		ldr	r1, .L23
 236 0068 9B01     		lsls	r3, r3, #6
 237 006a FBD5     		bpl	.L20
 238              		.loc 1 197 0
 239 006c 084B     		ldr	r3, .L23+8
 240 006e 1222     		movs	r2, #18
 241 0070 1A60     		str	r2, [r3]
 242              		.loc 1 202 0
 243 0072 4B68     		ldr	r3, [r1, #4]
 244 0074 43F00203 		orr	r3, r3, #2
 245 0078 4B60     		str	r3, [r1, #4]
 246              	.L22:
 247              		.loc 1 203 0 discriminator 1
 248 007a 4B68     		ldr	r3, [r1, #4]
 249 007c 03F00C03 		and	r3, r3, #12
 250 0080 082B     		cmp	r3, #8
 251 0082 FAD1     		bne	.L22
 252              		.loc 1 207 0
 253 0084 7047     		bx	lr
 254              	.L24:
 255 0086 00BF     		.align	2
 256              	.L23:
 257 0088 00100240 		.word	1073876992
 258 008c 00241D00 		.word	1909760
 259 0090 00200240 		.word	1073881088
 260              		.cfi_endproc
 261              	.LFE120:
 262              		.size	stm32_clock_init, .-stm32_clock_init
 263 0094 AFF30080 		.text
 263      AFF30080 
 263      AFF30080 
 264              	.Letext0:
 265              		.file 2 "/usr/include/newlib/machine/_default_types.h"
 266              		.file 3 "/usr/include/newlib/stdint.h"
 267              		.file 4 "../../../../os/ports/common/ARMCMx/nvic.h"
 268              		.file 5 "../../../../os/ports/common/ARMCMx/CMSIS/include/core_cm4.h"
 269              		.file 6 "../../../../os/hal/platforms/STM32F30x/stm32f30x.h"
 270              		.file 7 "../../../../os/hal/platforms/STM32F30x/stm32_dma.h"