ARM GAS  /tmp/ccOMRzvQ.s 			page 1


   1              		.syntax unified
   2              		.cpu cortex-m4
   3              		.eabi_attribute 27, 3
   4              		.fpu fpv4-sp-d16
   5              		.eabi_attribute 20, 1
   6              		.eabi_attribute 21, 1
   7              		.eabi_attribute 23, 3
   8              		.eabi_attribute 24, 1
   9              		.eabi_attribute 25, 1
  10              		.eabi_attribute 26, 1
  11              		.eabi_attribute 30, 2
  12              		.eabi_attribute 34, 1
  13              		.eabi_attribute 18, 4
  14              		.thumb
  15              		.file	"icu.c"
  16              		.text
  17              	.Ltext0:
  18              		.cfi_sections	.debug_frame
  19              		.section	.text.icuInit,"ax",%progbits
  20              		.align	2
  21              		.p2align 4,,15
  22              		.global	icuInit
  23              		.thumb
  24              		.thumb_func
  25              		.type	icuInit, %function
  26              	icuInit:
  27              	.LFB118:
  28              		.file 1 "../../../../os/hal/src/icu.c"
  29              		.loc 1 61 0
  30              		.cfi_startproc
  31              		@ args = 0, pretend = 0, frame = 0
  32              		@ frame_needed = 0, uses_anonymous_args = 0
  33              		@ link register save eliminated.
  34              		.loc 1 63 0
  35 0000 FFF7FEBF 		b	icu_lld_init
  36              	.LVL0:
  37              		.cfi_endproc
  38              	.LFE118:
  39              		.size	icuInit, .-icuInit
  40 0004 AFF30080 		.section	.text.icuObjectInit,"ax",%progbits
  40      AFF30080 
  40      AFF30080 
  41              		.align	2
  42              		.p2align 4,,15
  43              		.global	icuObjectInit
  44              		.thumb
  45              		.thumb_func
  46              		.type	icuObjectInit, %function
  47              	icuObjectInit:
  48              	.LFB119:
  49              		.loc 1 73 0
  50              		.cfi_startproc
  51              		@ args = 0, pretend = 0, frame = 0
  52              		@ frame_needed = 0, uses_anonymous_args = 0
  53              		@ link register save eliminated.
  54              	.LVL1:
  55              		.loc 1 75 0
ARM GAS  /tmp/ccOMRzvQ.s 			page 2


  56 0000 0122     		movs	r2, #1
  57              		.loc 1 76 0
  58 0002 0023     		movs	r3, #0
  59              		.loc 1 75 0
  60 0004 0270     		strb	r2, [r0]
  61              		.loc 1 76 0
  62 0006 4360     		str	r3, [r0, #4]
  63 0008 7047     		bx	lr
  64              		.cfi_endproc
  65              	.LFE119:
  66              		.size	icuObjectInit, .-icuObjectInit
  67 000a 00BFAFF3 		.section	.text.icuStart,"ax",%progbits
  67      0080
  68              		.align	2
  69              		.p2align 4,,15
  70              		.global	icuStart
  71              		.thumb
  72              		.thumb_func
  73              		.type	icuStart, %function
  74              	icuStart:
  75              	.LFB120:
  76              		.loc 1 87 0
  77              		.cfi_startproc
  78              		@ args = 0, pretend = 0, frame = 0
  79              		@ frame_needed = 0, uses_anonymous_args = 0
  80              	.LVL2:
  81 0000 38B5     		push	{r3, r4, r5, lr}
  82              		.cfi_def_cfa_offset 16
  83              		.cfi_offset 3, -16
  84              		.cfi_offset 4, -12
  85              		.cfi_offset 5, -8
  86              		.cfi_offset 14, -4
  87              		.loc 1 89 0
  88 0002 0446     		mov	r4, r0
  89              		.loc 1 87 0
  90 0004 0D46     		mov	r5, r1
  91              		.loc 1 89 0
  92 0006 C0B1     		cbz	r0, .L4
  93              		.loc 1 89 0 is_stmt 0 discriminator 2
  94 0008 B9B1     		cbz	r1, .L4
  95              	.LVL3:
  96              	.L5:
  97              	.LBB2:
  98              		.loc 1 91 0 is_stmt 1
  99 000a 2023     		movs	r3, #32
 100              	@ 91 "../../../../os/hal/src/icu.c" 1
 101 000c 83F31188 		msr     BASEPRI, r3
 102              	@ 0 "" 2
 103              		.thumb
 104              	.LBE2:
 105 0010 FFF7FEFF 		bl	dbg_check_lock
 106              	.LVL4:
 107              		.loc 1 92 0
 108 0014 2378     		ldrb	r3, [r4]	@ zero_extendqisi2
 109 0016 013B     		subs	r3, r3, #1
 110 0018 012B     		cmp	r3, #1
 111 001a 02D9     		bls	.L6
ARM GAS  /tmp/ccOMRzvQ.s 			page 3


 112              		.loc 1 92 0 is_stmt 0 discriminator 1
 113 001c 0948     		ldr	r0, .L11
 114 001e FFF7FEFF 		bl	chDbgPanic
 115              	.LVL5:
 116              	.L6:
 117              		.loc 1 95 0 is_stmt 1
 118 0022 2046     		mov	r0, r4
 119              		.loc 1 94 0
 120 0024 6560     		str	r5, [r4, #4]
 121              		.loc 1 95 0
 122 0026 FFF7FEFF 		bl	icu_lld_start
 123              	.LVL6:
 124              		.loc 1 96 0
 125 002a 0223     		movs	r3, #2
 126 002c 2370     		strb	r3, [r4]
 127              		.loc 1 97 0
 128 002e FFF7FEFF 		bl	dbg_check_unlock
 129              	.LVL7:
 130              	.LBB3:
 131 0032 0023     		movs	r3, #0
 132              	@ 97 "../../../../os/hal/src/icu.c" 1
 133 0034 83F31188 		msr     BASEPRI, r3
 134              	@ 0 "" 2
 135              		.thumb
 136 0038 38BD     		pop	{r3, r4, r5, pc}
 137              	.LVL8:
 138              	.L4:
 139              	.LBE3:
 140              		.loc 1 89 0 discriminator 1
 141 003a 0348     		ldr	r0, .L11+4
 142              	.LVL9:
 143 003c FFF7FEFF 		bl	chDbgPanic
 144              	.LVL10:
 145 0040 E3E7     		b	.L5
 146              	.L12:
 147 0042 00BF     		.align	2
 148              	.L11:
 149 0044 10000000 		.word	.LC1
 150 0048 00000000 		.word	.LC0
 151              		.cfi_endproc
 152              	.LFE120:
 153              		.size	icuStart, .-icuStart
 154 004c AFF30080 		.section	.text.icuStop,"ax",%progbits
 155              		.align	2
 156              		.p2align 4,,15
 157              		.global	icuStop
 158              		.thumb
 159              		.thumb_func
 160              		.type	icuStop, %function
 161              	icuStop:
 162              	.LFB121:
 163              		.loc 1 107 0
 164              		.cfi_startproc
 165              		@ args = 0, pretend = 0, frame = 0
 166              		@ frame_needed = 0, uses_anonymous_args = 0
 167              	.LVL11:
 168 0000 10B5     		push	{r4, lr}
ARM GAS  /tmp/ccOMRzvQ.s 			page 4


 169              		.cfi_def_cfa_offset 8
 170              		.cfi_offset 4, -8
 171              		.cfi_offset 14, -4
 172              		.loc 1 109 0
 173 0002 0446     		mov	r4, r0
 174 0004 B0B1     		cbz	r0, .L16
 175              	.LVL12:
 176              	.L14:
 177              	.LBB4:
 178              		.loc 1 111 0
 179 0006 2023     		movs	r3, #32
 180              	@ 111 "../../../../os/hal/src/icu.c" 1
 181 0008 83F31188 		msr     BASEPRI, r3
 182              	@ 0 "" 2
 183              		.thumb
 184              	.LBE4:
 185 000c FFF7FEFF 		bl	dbg_check_lock
 186              	.LVL13:
 187              		.loc 1 112 0
 188 0010 2378     		ldrb	r3, [r4]	@ zero_extendqisi2
 189 0012 013B     		subs	r3, r3, #1
 190 0014 012B     		cmp	r3, #1
 191 0016 02D9     		bls	.L15
 192              		.loc 1 112 0 is_stmt 0 discriminator 1
 193 0018 0848     		ldr	r0, .L17
 194 001a FFF7FEFF 		bl	chDbgPanic
 195              	.LVL14:
 196              	.L15:
 197              		.loc 1 114 0 is_stmt 1
 198 001e 2046     		mov	r0, r4
 199 0020 FFF7FEFF 		bl	icu_lld_stop
 200              	.LVL15:
 201              		.loc 1 115 0
 202 0024 0123     		movs	r3, #1
 203 0026 2370     		strb	r3, [r4]
 204              		.loc 1 116 0
 205 0028 FFF7FEFF 		bl	dbg_check_unlock
 206              	.LVL16:
 207              	.LBB5:
 208 002c 0023     		movs	r3, #0
 209              	@ 116 "../../../../os/hal/src/icu.c" 1
 210 002e 83F31188 		msr     BASEPRI, r3
 211              	@ 0 "" 2
 212              		.thumb
 213 0032 10BD     		pop	{r4, pc}
 214              	.LVL17:
 215              	.L16:
 216              	.LBE5:
 217              		.loc 1 109 0 discriminator 1
 218 0034 0248     		ldr	r0, .L17+4
 219              	.LVL18:
 220 0036 FFF7FEFF 		bl	chDbgPanic
 221              	.LVL19:
 222 003a E4E7     		b	.L14
 223              	.L18:
 224              		.align	2
 225              	.L17:
ARM GAS  /tmp/ccOMRzvQ.s 			page 5


 226 003c 2C000000 		.word	.LC3
 227 0040 20000000 		.word	.LC2
 228              		.cfi_endproc
 229              	.LFE121:
 230              		.size	icuStop, .-icuStop
 231 0044 AFF30080 		.section	.text.icuEnable,"ax",%progbits
 231      AFF30080 
 231      AFF30080 
 232              		.align	2
 233              		.p2align 4,,15
 234              		.global	icuEnable
 235              		.thumb
 236              		.thumb_func
 237              		.type	icuEnable, %function
 238              	icuEnable:
 239              	.LFB122:
 240              		.loc 1 126 0
 241              		.cfi_startproc
 242              		@ args = 0, pretend = 0, frame = 0
 243              		@ frame_needed = 0, uses_anonymous_args = 0
 244              	.LVL20:
 245 0000 10B5     		push	{r4, lr}
 246              		.cfi_def_cfa_offset 8
 247              		.cfi_offset 4, -8
 248              		.cfi_offset 14, -4
 249              		.loc 1 128 0
 250 0002 0446     		mov	r4, r0
 251 0004 A8B1     		cbz	r0, .L25
 252              	.LVL21:
 253              	.L20:
 254              	.LBB6:
 255              		.loc 1 130 0
 256 0006 2023     		movs	r3, #32
 257              	@ 130 "../../../../os/hal/src/icu.c" 1
 258 0008 83F31188 		msr     BASEPRI, r3
 259              	@ 0 "" 2
 260              		.thumb
 261              	.LBE6:
 262 000c FFF7FEFF 		bl	dbg_check_lock
 263              	.LVL22:
 264              		.loc 1 131 0
 265 0010 2378     		ldrb	r3, [r4]	@ zero_extendqisi2
 266 0012 022B     		cmp	r3, #2
 267 0014 02D0     		beq	.L21
 268              		.loc 1 131 0 is_stmt 0 discriminator 1
 269 0016 0948     		ldr	r0, .L26
 270 0018 FFF7FEFF 		bl	chDbgPanic
 271              	.LVL23:
 272              	.L21:
 273              		.loc 1 132 0 is_stmt 1
 274 001c 2046     		mov	r0, r4
 275 001e FFF7FEFF 		bl	icu_lld_enable
 276              	.LVL24:
 277              		.loc 1 133 0
 278 0022 0323     		movs	r3, #3
 279 0024 2370     		strb	r3, [r4]
 280              		.loc 1 134 0
ARM GAS  /tmp/ccOMRzvQ.s 			page 6


 281 0026 FFF7FEFF 		bl	dbg_check_unlock
 282              	.LVL25:
 283              	.LBB7:
 284 002a 0023     		movs	r3, #0
 285              	@ 134 "../../../../os/hal/src/icu.c" 1
 286 002c 83F31188 		msr     BASEPRI, r3
 287              	@ 0 "" 2
 288              		.thumb
 289 0030 10BD     		pop	{r4, pc}
 290              	.LVL26:
 291              	.L25:
 292              	.LBE7:
 293              		.loc 1 128 0 discriminator 1
 294 0032 0348     		ldr	r0, .L26+4
 295              	.LVL27:
 296 0034 FFF7FEFF 		bl	chDbgPanic
 297              	.LVL28:
 298 0038 E5E7     		b	.L20
 299              	.L27:
 300 003a 00BF     		.align	2
 301              	.L26:
 302 003c 4C000000 		.word	.LC5
 303 0040 3C000000 		.word	.LC4
 304              		.cfi_endproc
 305              	.LFE122:
 306              		.size	icuEnable, .-icuEnable
 307 0044 AFF30080 		.section	.text.icuDisable,"ax",%progbits
 307      AFF30080 
 307      AFF30080 
 308              		.align	2
 309              		.p2align 4,,15
 310              		.global	icuDisable
 311              		.thumb
 312              		.thumb_func
 313              		.type	icuDisable, %function
 314              	icuDisable:
 315              	.LFB123:
 316              		.loc 1 144 0
 317              		.cfi_startproc
 318              		@ args = 0, pretend = 0, frame = 0
 319              		@ frame_needed = 0, uses_anonymous_args = 0
 320              	.LVL29:
 321 0000 10B5     		push	{r4, lr}
 322              		.cfi_def_cfa_offset 8
 323              		.cfi_offset 4, -8
 324              		.cfi_offset 14, -4
 325              		.loc 1 146 0
 326 0002 0446     		mov	r4, r0
 327 0004 B0B1     		cbz	r0, .L31
 328              	.LVL30:
 329              	.L29:
 330              	.LBB8:
 331              		.loc 1 148 0
 332 0006 2023     		movs	r3, #32
 333              	@ 148 "../../../../os/hal/src/icu.c" 1
 334 0008 83F31188 		msr     BASEPRI, r3
 335              	@ 0 "" 2
ARM GAS  /tmp/ccOMRzvQ.s 			page 7


 336              		.thumb
 337              	.LBE8:
 338 000c FFF7FEFF 		bl	dbg_check_lock
 339              	.LVL31:
 340              		.loc 1 149 0
 341 0010 2378     		ldrb	r3, [r4]	@ zero_extendqisi2
 342 0012 023B     		subs	r3, r3, #2
 343 0014 032B     		cmp	r3, #3
 344 0016 02D9     		bls	.L30
 345              		.loc 1 149 0 is_stmt 0 discriminator 1
 346 0018 0848     		ldr	r0, .L32
 347 001a FFF7FEFF 		bl	chDbgPanic
 348              	.LVL32:
 349              	.L30:
 350              		.loc 1 152 0 is_stmt 1
 351 001e 2046     		mov	r0, r4
 352 0020 FFF7FEFF 		bl	icu_lld_disable
 353              	.LVL33:
 354              		.loc 1 153 0
 355 0024 0223     		movs	r3, #2
 356 0026 2370     		strb	r3, [r4]
 357              		.loc 1 154 0
 358 0028 FFF7FEFF 		bl	dbg_check_unlock
 359              	.LVL34:
 360              	.LBB9:
 361 002c 0023     		movs	r3, #0
 362              	@ 154 "../../../../os/hal/src/icu.c" 1
 363 002e 83F31188 		msr     BASEPRI, r3
 364              	@ 0 "" 2
 365              		.thumb
 366 0032 10BD     		pop	{r4, pc}
 367              	.LVL35:
 368              	.L31:
 369              	.LBE9:
 370              		.loc 1 146 0 discriminator 1
 371 0034 0248     		ldr	r0, .L32+4
 372              	.LVL36:
 373 0036 FFF7FEFF 		bl	chDbgPanic
 374              	.LVL37:
 375 003a E4E7     		b	.L29
 376              	.L33:
 377              		.align	2
 378              	.L32:
 379 003c 6C000000 		.word	.LC7
 380 0040 5C000000 		.word	.LC6
 381              		.cfi_endproc
 382              	.LFE123:
 383              		.size	icuDisable, .-icuDisable
 384 0044 AFF30080 		.section	.rodata.str1.4,"aMS",%progbits,1
 384      AFF30080 
 384      AFF30080 
 385              		.align	2
 386              	.LC0:
 387 0000 22696375 		.ascii	"\"icuStart\"()\000"
 387      53746172 
 387      74222829 
 387      00
ARM GAS  /tmp/ccOMRzvQ.s 			page 8


 388 000d 000000   		.space	3
 389              	.LC1:
 390 0010 69637553 		.ascii	"icuStart(), #1\000"
 390      74617274 
 390      28292C20 
 390      233100
 391 001f 00       		.space	1
 392              	.LC2:
 393 0020 22696375 		.ascii	"\"icuStop\"()\000"
 393      53746F70 
 393      22282900 
 394              	.LC3:
 395 002c 69637553 		.ascii	"icuStop(), #1\000"
 395      746F7028 
 395      292C2023 
 395      3100
 396 003a 0000     		.space	2
 397              	.LC4:
 398 003c 22696375 		.ascii	"\"icuEnable\"()\000"
 398      456E6162 
 398      6C652228 
 398      2900
 399 004a 0000     		.space	2
 400              	.LC5:
 401 004c 69637545 		.ascii	"icuEnable(), #1\000"
 401      6E61626C 
 401      6528292C 
 401      20233100 
 402              	.LC6:
 403 005c 22696375 		.ascii	"\"icuDisable\"()\000"
 403      44697361 
 403      626C6522 
 403      282900
 404 006b 00       		.space	1
 405              	.LC7:
 406 006c 69637544 		.ascii	"icuDisable(), #1\000"
 406      69736162 
 406      6C652829 
 406      2C202331 
 406      00
 407 007d 000000   		.text
 408              	.Letext0:
 409              		.file 2 "/usr/include/newlib/machine/_default_types.h"
 410              		.file 3 "/usr/include/newlib/stdint.h"
 411              		.file 4 "../../../../os/hal/platforms/STM32/stm32.h"
 412              		.file 5 "../../../../os/hal/include/icu.h"
 413              		.file 6 "../../../../os/hal/platforms/STM32/icu_lld.h"
 414              		.file 7 "../../../../os/kernel/include/chdebug.h"
 415              		.file 8 "../../../../os/ports/common/ARMCMx/CMSIS/include/core_cm4.h"