ARM GAS  /tmp/ccOMRzvQ.s 			page 1


   1              		.syntax unified
   2              		.cpu cortex-m4
   3              		.eabi_attribute 27, 3
   4              		.fpu fpv4-sp-d16
   5              		.eabi_attribute 20, 1
   6              		.eabi_attribute 21, 1
   7              		.eabi_attribute 23, 3
   8              		.eabi_attribute 24, 1
   9              		.eabi_attribute 25, 1
  10              		.eabi_attribute 26, 1
  11              		.eabi_attribute 30, 2
  12              		.eabi_attribute 34, 1
  13              		.eabi_attribute 18, 4
  14              		.thumb
  15              		.file	"icu.c"
  16              		.text
  17              	.Ltext0:
  18              		.cfi_sections	.debug_frame
  19              		.section	.text.icuInit,"ax",%progbits
  20              		.align	2
  21              		.p2align 4,,15
  22              		.global	icuInit
  23              		.thumb
  24              		.thumb_func
  25              		.type	icuInit, %function
  26              	icuInit:
  27              	.LFB118:
  28              		.file 1 "../../../../os/hal/src/icu.c"
  29              		.loc 1 61 0
  30              		.cfi_startproc
  31              		@ args = 0, pretend = 0, frame = 0
  32              		@ frame_needed = 0, uses_anonymous_args = 0
  33              		@ link register save eliminated.
  34              		.loc 1 63 0
  35 0000 FFF7FEBF 		b	icu_lld_init
  36              	.LVL0:
  37              		.cfi_endproc
  38              	.LFE118:
  39              		.size	icuInit, .-icuInit
  40 0004 AFF30080 		.section	.text.icuObjectInit,"ax",%progbits
  40      AFF30080 
  40      AFF30080 
  41              		.align	2
  42              		.p2align 4,,15
  43              		.global	icuObjectInit
  44              		.thumb
  45              		.thumb_func
  46              		.type	icuObjectInit, %function
  47              	icuObjectInit:
  48              	.LFB119:
  49              		.loc 1 73 0
  50              		.cfi_startproc
  51              		@ args = 0, pretend = 0, frame = 0
  52              		@ frame_needed = 0, uses_anonymous_args = 0
  53              		@ link register save eliminated.
  54              	.LVL1:
  55              		.loc 1 75 0
ARM GAS  /tmp/ccOMRzvQ.s 			page 2


  56 0000 0122     		movs	r2, #1
  57              		.loc 1 76 0
  58 0002 0023     		movs	r3, #0
  59              		.loc 1 75 0
  60 0004 0270     		strb	r2, [r0]
  61              		.loc 1 76 0
  62 0006 4360     		str	r3, [r0, #4]
  63 0008 7047     		bx	lr
  64              		.cfi_endproc
  65              	.LFE119:
  66              		.size	icuObjectInit, .-icuObjectInit
  67 000a 00BFAFF3 		.section	.text.icuStart,"ax",%progbits
  67      0080
  68              		.align	2
  69              		.p2align 4,,15
  70              		.global	icuStart
  71              		.thumb
  72              		.thumb_func
  73              		.type	icuStart, %function
  74              	icuStart:
  75              	.LFB120:
  76              		.loc 1 87 0
  77              		.cfi_startproc
  78              		@ args = 0, pretend = 0, frame = 0
  79              		@ frame_needed = 0, uses_anonymous_args = 0
  80              	.LVL2:
  81 0000 38B5     		push	{r3, r4, r5, lr}
  82              		.cfi_def_cfa_offset 16
  83              		.cfi_offset 3, -16
  84              		.cfi_offset 4, -12
  85              		.cfi_offset 5, -8
  86              		.cfi_offset 14, -4
  87              		.loc 1 89 0
  88 0002 0446     		mov	r4, r0
  89              		.loc 1 87 0
  90 0004 0D46     		mov	r5, r1
  91              		.loc 1 89 0
  92 0006 C0B1     		cbz	r0, .L4
  93              		.loc 1 89 0 is_stmt 0 discriminator 2
  94 0008 B9B1     		cbz	r1, .L4
  95              	.LVL3:
  96              	.L5:
  97              	.LBB2:
  98              		.loc 1 91 0 is_stmt 1
  99 000a 2023     		movs	r3, #32
 100              	@ 91 "../../../../os/hal/src/icu.c" 1
 101 000c 83F31188 		msr     BASEPRI, r3
 102              	@ 0 "" 2
 103              		.thumb
 104              	.LBE2:
 105 0010 FFF7FEFF 		bl	dbg_check_lock
 106              	.LVL4:
 107              		.loc 1 92 0
 108 0014 2378     		ldrb	r3, [r4]	@ zero_extendqisi2
 109 0016 013B     		subs	r3, r3, #1
 110 0018 012B     		cmp	r3, #1
 111 001a 02D9     		bls	.L6
ARM GAS  /tmp/ccOMRzvQ.s 			page 3


 112              		.loc 1 92 0 is_stmt 0 discriminator 1
 113 001c 0948     		ldr	r0, .L11
 114 001e FFF7FEFF 		bl	chDbgPanic
 115              	.LVL5:
 116              	.L6:
 117              		.loc 1 95 0 is_stmt 1
 118 0022 2046     		mov	r0, r4
 119              		.loc 1 94 0
 120 0024 6560     		str	r5, [r4, #4]
 121              		.loc 1 95 0
 122 0026 FFF7FEFF 		bl	icu_lld_start
 123              	.LVL6:
 124              		.loc 1 96 0
 125 002a 0223     		movs	r3, #2
 126 002c 2370     		strb	r3, [r4]
 127              		.loc 1 97 0
 128 002e FFF7FEFF 		bl	dbg_check_unlock
 129              	.LVL7:
 130              	.LBB3:
 131 0032 0023     		movs	r3, #0
 132              	@ 97 "../../../../os/hal/src/icu.c" 1
 133 0034 83F31188 		msr     BASEPRI, r3
 134              	@ 0 "" 2
 135              		.thumb
 136 0038 38BD     		pop	{r3, r4, r5, pc}
 137              	.LVL8:
 138              	.L4:
 139              	.LBE3:
 140              		.loc 1 89 0 discriminator 1
 141 003a 0348     		ldr	r0, .L11+4
 142              	.LVL9:
 143 003c FFF7FEFF 		bl	chDbgPanic
 144              	.LVL10:
 145 0040 E3E7     		b	.L5
 146              	.L12:
 147 0042 00BF     		.align	2
 148              	.L11:
 149 0044 10000000 		.word	.LC1
 150 0048 00000000 		.word	.LC0
 151              		.cfi_endproc
 152              	.LFE120:
 153              		.size	icuStart, .-icuStart
 154 004c AFF30080 		.section	.text.icuStop,"ax",%progbits
 155              		.align	2
 156              		.p2align 4,,15
 157              		.global	icuStop
 158              		.thumb
 159              		.thumb_func
 160              		.type	icuStop, %function
 161              	icuStop:
 162              	.LFB121:
 163              		.loc 1 107 0
 164              		.cfi_startproc
 165              		@ args = 0, pretend = 0, frame = 0
 166              		@ frame_needed = 0, uses_anonymous_args = 0
 167              	.LVL11:
 168 0000 10B5     		push	{r4, lr}
ARM GAS  /tmp/ccOMRzvQ.s 			page 4


 169              		.cfi_def_cfa_offset 8
 170              		.cfi_offset 4, -8
 171              		.cfi_offset 14, -4
 172              		.loc 1 109 0
 173 0002 0446     		mov	r4, r0
 174 0004 B0B1     		cbz	r0, .L16
 175              	.LVL12:
 176              	.L14:
 177              	.LBB4:
 178              		.loc 1 111 0
 179 0006 2023     		movs	r3, #32
 180              	@ 111 "../../../../os/hal/src/icu.c" 1
 181 0008 83F31188 		msr     BASEPRI, r3
 182              	@ 0 "" 2
 183              		.thumb
 184              	.LBE4:
 185 000c FFF7FEFF 		bl	dbg_check_lock
 186              	.LVL13:
 187              		.loc 1 112 0
 188 0010 2378     		ldrb	r3, [r4]	@ zero_extendqisi2
 189 0012 013B     		subs	r3, r3, #1
 190 0014 012B     		cmp	r3, #1
 191 0016 02D9     		bls	.L15
 192              		.loc 1 112 0 is_stmt 0 discriminator 1
 193 0018 0848     		ldr	r0, .L17
 194 001a FFF7FEFF 		bl	chDbgPanic
 195              	.LVL14:
 196              	.L15:
 197              		.loc 1 114 0 is_stmt 1
 198 001e 2046     		mov	r0, r4
 199 0020 FFF7FEFF 		bl	icu_lld_stop
 200              	.LVL15:
 201              		.loc 1 115 0
 202 0024 0123     		movs	r3, #1
 203 0026 2370     		strb	r3, [r4]
 204              		.loc 1 116 0
 205 0028 FFF7FEFF 		bl	dbg_check_unlock
 206              	.LVL16:
 207              	.LBB5:
 208 002c 0023     		movs	r3, #0
 209              	@ 116 "../../../../os/hal/src/icu.c" 1
 210 002e 83F31188 		msr     BASEPRI, r3
 211              	@ 0 "" 2
 212              		.thumb
 213 0032 10BD     		pop	{r4, pc}
 214              	.LVL17:
 215              	.L16:
 216              	.LBE5:
 217              		.loc 1 109 0 discriminator 1
 218 0034 0248     		ldr	r0, .L17+4
 219              	.LVL18:
 220 0036 FFF7FEFF 		bl	chDbgPanic
 221              	.LVL19:
 222 003a E4E7     		b	.L14
 223              	.L18:
 224              		.align	2
 225              	.L17:
ARM GAS  /tmp/ccOMRzvQ.s 			page 5


 226 003c 2C000000 		.word	.LC3
 227 0040 20000000 		.word	.LC2
 228              		.cfi_endproc
 229              	.LFE121:
 230              		.size	icuStop, .-icuStop
 231 0044 AFF30080 		.section	.text.icuEnable,"ax",%progbits
 231      AFF30080 
 231      AFF30080 
 232              		.align	2
 233              		.p2align 4,,15
 234              		.global	icuEnable
 235              		.thumb
 236              		.thumb_func
 237              		.type	icuEnable, %function
 238              	icuEnable:
 239              	.LFB122:
 240              		.loc 1 126 0
 241              		.cfi_startproc
 242              		@ args = 0, pretend = 0, frame = 0
 243              		@ frame_needed = 0, uses_anonymous_args = 0
 244              	.LVL20:
 245 0000 10B5     		push	{r4, lr}
 246              		.cfi_def_cfa_offset 8
 247              		.cfi_offset 4, -8
 248              		.cfi_offset 14, -4
 249              		.loc 1 128 0
 250 0002 0446     		mov	r4, r0
 251 0004 A8B1     		cbz	r0, .L25
 252              	.LVL21:
 253              	.L20:
 254              	.LBB6:
 255              		.loc 1 130 0
 256 0006 2023     		movs	r3, #32
 257              	@ 130 "../../../../os/hal/src/icu.c" 1
 258 0008 83F31188 		msr     BASEPRI, r3
 259              	@ 0 "" 2
 260              		.thumb
 261              	.LBE6:
 262 000c FFF7FEFF 		bl	dbg_check_lock
 263              	.LVL22:
 264              		.loc 1 131 0
 265 0010 2378     		ldrb	r3, [r4]	@ zero_extendqisi2
 266 0012 022B     		cmp	r3, #2
 267 0014 02D0     		beq	.L21
 268              		.loc 1 131 0 is_stmt 0 discriminator 1
 269 0016 0948     		ldr	r0, .L26
 270 0018 FFF7FEFF 		bl	chDbgPanic
 271              	.LVL23:
 272              	.L21:
 273              		.loc 1 132 0 is_stmt 1
 274 001c 2046     		mov	r0, r4
 275 001e FFF7FEFF 		bl	icu_lld_enable
 276              	.LVL24:
 277              		.loc 1 133 0
 278 0022 0323     		movs	r3, #3
 279 0024 2370     		strb	r3, [r4]
 280              		.loc 1 134 0
ARM GAS  /tmp/ccOMRzvQ.s 			page 6


 281 0026 FFF7FEFF 		bl	dbg_check_unlock
 282              	.LVL25:
 283              	.LBB7:
 284 002a 0023     		movs	r3, #0
 285              	@ 134 "../../../../os/hal/src/icu.c" 1
 286 002c 83F31188 		msr     BASEPRI, r3
 287              	@ 0 "" 2
 288              		.thumb
 289 0030 10BD     		pop	{r4, pc}
 290              	.LVL26:
 291              	.L25:
 292              	.LBE7:
 293              		.loc 1 128 0 discriminator 1
 294 0032 0348     		ldr	r0, .L26+4
 295              	.LVL27:
 296 0034 FFF7FEFF 		bl	chDbgPanic
 297              	.LVL28:
 298 0038 E5E7     		b	.L20
 299              	.L27:
 300 003a 00BF     		.align	2
 301              	.L26:
 302 003c 4C000000 		.word	.LC5
 303 0040 3C000000 		.word	.LC4
 304              		.cfi_endproc
 305              	.LFE122:
 306              		.size	icuEnable, .-icuEnable
 307 0044 AFF30080 		.section	.text.icuDisable,"ax",%progbits
 307      AFF30080 
 307      AFF30080 
 308              		.align	2
 309              		.p2align 4,,15
 310              		.global	icuDisable
 311              		.thumb
 312              		.thumb_func
 313              		.type	icuDisable, %function
 314              	icuDisable:
 315              	.LFB123:
 316              		.loc 1 144 0
 317              		.cfi_startproc
 318              		@ args = 0, pretend = 0, frame = 0
 319              		@ frame_needed = 0, uses_anonymous_args = 0
 320              	.LVL29:
 321 0000 10B5     		push	{r4, lr}
 322              		.cfi_def_cfa_offset 8
 323              		.cfi_offset 4, -8
 324              		.cfi_offset 14, -4
 325              		.loc 1 146 0
 326 0002 0446     		mov	r4, r0
 327 0004 B0B1     		cbz	r0, .L31
 328              	.LVL30:
 329              	.L29:
 330              	.LBB8:
 331              		.loc 1 148 0
 332 0006 2023     		movs	r3, #32
 333              	@ 148 "../../../../os/hal/src/icu.c" 1
 334 0008 83F31188 		msr     BASEPRI, r3
 335              	@ 0 "" 2
ARM GAS  /tmp/ccOMRzvQ.s 			page 7


 336              		.thumb
 337              	.LBE8:
 338 000c FFF7FEFF 		bl	dbg_check_lock
 339              	.LVL31:
 340              		.loc 1 149 0
 341 0010 2378     		ldrb	r3, [r4]	@ zero_extendqisi2
 342 0012 023B     		subs	r3, r3, #2
 343 0014 032B     		cmp	r3, #3
 344 0016 02D9     		bls	.L30
 345              		.loc 1 149 0 is_stmt 0 discriminator 1
 346 0018 0848     		ldr	r0, .L32
 347 001a FFF7FEFF 		bl	chDbgPanic
 348              	.LVL32:
 349              	.L30:
 350              		.loc 1 152 0 is_stmt 1
 351 001e 2046     		mov	r0, r4
 352 0020 FFF7FEFF 		bl	icu_lld_disable
 353              	.LVL33:
 354              		.loc 1 153 0
 355 0024 0223     		movs	r3, #2
 356 0026 2370     		strb	r3, [r4]
 357              		.loc 1 154 0
 358 0028 FFF7FEFF 		bl	dbg_check_unlock
 359              	.LVL34:
 360              	.LBB9:
 361 002c 0023     		movs	r3, #0
 362              	@ 154 "../../../../os/hal/src/icu.c" 1
 363 002e 83F31188 		msr     BASEPRI, r3
 364              	@ 0 "" 2
 365              		.thumb
 366 0032 10BD     		pop	{r4, pc}
 367              	.LVL35:
 368              	.L31:
 369              	.LBE9:
 370              		.loc 1 146 0 discriminator 1
 371 0034 0248     		ldr	r0, .L32+4
 372              	.LVL36:
 373 0036 FFF7FEFF 		bl	chDbgPanic
 374              	.LVL37:
 375 003a E4E7     		b	.L29
 376              	.L33:
 377              		.align	2
 378              	.L32:
 379 003c 6C000000 		.word	.LC7
 380 0040 5C000000 		.word	.LC6
 381              		.cfi_endproc
 382              	.LFE123:
 383              		.size	icuDisable, .-icuDisable
 384 0044 AFF30080 		.section	.rodata.str1.4,"aMS",%progbits,1
 384      AFF30080 
 384      AFF30080 
 385              		.align	2
 386              	.LC0:
 387 0000 22696375 		.ascii	"\"icuStart\"()\000"
 387      53746172 
 387      74222829 
 387      00
ARM GAS  /tmp/ccOMRzvQ.s 			page 8


 388 000d 000000   		.space	3
 389              	.LC1:
 390 0010 69637553 		.ascii	"icuStart(), #1\000"
 390      74617274 
 390      28292C20 
 390      233100
 391 001f 00       		.space	1
 392              	.LC2:
 393 0020 22696375 		.ascii	"\"icuStop\"()\000"
 393      53746F70 
 393      22282900 
 394              	.LC3:
 395 002c 69637553 		.ascii	"icuStop(), #1\000"
 395      746F7028 
 395      292C2023 
 395      3100
 396 003a 0000     		.space	2
 397              	.LC4:
 398 003c 22696375 		.ascii	"\"icuEnable\"()\000"
 398      456E6162 
 398      6C652228 
 398      2900
 399 004a 0000     		.space	2
 400              	.LC5:
 401 004c 69637545 		.ascii	"icuEnable(), #1\000"
 401      6E61626C 
 401      6528292C 
 401      20233100 
 402              	.LC6:
 403 005c 22696375 		.ascii	"\"icuDisable\"()\000"
 403      44697361 
 403      626C6522 
 403      282900
 404 006b 00       		.space	1
 405              	.LC7:
 406 006c 69637544 		.ascii	"icuDisable(), #1\000"
 406      69736162 
 406      6C652829 
 406      2C202331 
 406      00
 407 007d 000000   		.text
 408              	.Letext0:
 409              		.file 2 "/usr/include/newlib/machine/_default_types.h"
 410              		.file 3 "/usr/include/newlib/stdint.h"
 411              		.file 4 "../../../../os/hal/platforms/STM32/stm32.h"
 412              		.file 5 "../../../../os/hal/include/icu.h"
 413              		.file 6 "../../../../os/hal/platforms/STM32/icu_lld.h"
 414              		.file 7 "../../../../os/kernel/include/chdebug.h"
 415              		.file 8 "../../../../os/ports/common/ARMCMx/CMSIS/include/core_cm4.h"
 416              		.section	.debug_info,"",%progbits
 417              	.Ldebug_info0:
 418 0000 87070000 		.4byte	0x787
 419 0004 0400     		.2byte	0x4
 420 0006 00000000 		.4byte	.Ldebug_abbrev0
 421 000a 04       		.byte	0x4
 422 000b 01       		.uleb128 0x1
 423 000c C4010000 		.4byte	.LASF83
ARM GAS  /tmp/ccOMRzvQ.s 			page 9


 424 0010 01       		.byte	0x1
 425 0011 A8000000 		.4byte	.LASF84
 426 0015 B1030000 		.4byte	.LASF85
 427 0019 00000000 		.4byte	.Ldebug_ranges0+0
 428 001d 00000000 		.4byte	0
 429 0021 00000000 		.4byte	.Ldebug_line0
 430 0025 02       		.uleb128 0x2
 431 0026 04       		.byte	0x4
 432 0027 05       		.byte	0x5
 433 0028 696E7400 		.ascii	"int\000"
 434 002c 03       		.uleb128 0x3
 435 002d 04       		.byte	0x4
 436 002e 07       		.byte	0x7
 437 002f F7020000 		.4byte	.LASF0
 438 0033 03       		.uleb128 0x3
 439 0034 01       		.byte	0x1
 440 0035 06       		.byte	0x6
 441 0036 C6020000 		.4byte	.LASF1
 442 003a 03       		.uleb128 0x3
 443 003b 01       		.byte	0x1
 444 003c 08       		.byte	0x8
 445 003d AC010000 		.4byte	.LASF2
 446 0041 03       		.uleb128 0x3
 447 0042 02       		.byte	0x2
 448 0043 05       		.byte	0x5
 449 0044 4F000000 		.4byte	.LASF3
 450 0048 04       		.uleb128 0x4
 451 0049 86000000 		.4byte	.LASF5
 452 004d 02       		.byte	0x2
 453 004e 2B       		.byte	0x2b
 454 004f 53000000 		.4byte	0x53
 455 0053 03       		.uleb128 0x3
 456 0054 02       		.byte	0x2
 457 0055 07       		.byte	0x7
 458 0056 40030000 		.4byte	.LASF4
 459 005a 04       		.uleb128 0x4
 460 005b 5D040000 		.4byte	.LASF6
 461 005f 02       		.byte	0x2
 462 0060 3F       		.byte	0x3f
 463 0061 65000000 		.4byte	0x65
 464 0065 03       		.uleb128 0x3
 465 0066 04       		.byte	0x4
 466 0067 05       		.byte	0x5
 467 0068 7E010000 		.4byte	.LASF7
 468 006c 04       		.uleb128 0x4
 469 006d 76000000 		.4byte	.LASF8
 470 0071 02       		.byte	0x2
 471 0072 41       		.byte	0x41
 472 0073 77000000 		.4byte	0x77
 473 0077 03       		.uleb128 0x3
 474 0078 04       		.byte	0x4
 475 0079 07       		.byte	0x7
 476 007a 27040000 		.4byte	.LASF9
 477 007e 03       		.uleb128 0x3
 478 007f 08       		.byte	0x8
 479 0080 05       		.byte	0x5
 480 0081 49010000 		.4byte	.LASF10
ARM GAS  /tmp/ccOMRzvQ.s 			page 10


 481 0085 03       		.uleb128 0x3
 482 0086 08       		.byte	0x8
 483 0087 07       		.byte	0x7
 484 0088 57010000 		.4byte	.LASF11
 485 008c 04       		.uleb128 0x4
 486 008d 04030000 		.4byte	.LASF12
 487 0091 03       		.byte	0x3
 488 0092 36       		.byte	0x36
 489 0093 48000000 		.4byte	0x48
 490 0097 04       		.uleb128 0x4
 491 0098 81030000 		.4byte	.LASF13
 492 009c 03       		.byte	0x3
 493 009d 41       		.byte	0x41
 494 009e 5A000000 		.4byte	0x5a
 495 00a2 04       		.uleb128 0x4
 496 00a3 EE020000 		.4byte	.LASF14
 497 00a7 03       		.byte	0x3
 498 00a8 42       		.byte	0x42
 499 00a9 6C000000 		.4byte	0x6c
 500 00ad 03       		.uleb128 0x3
 501 00ae 01       		.byte	0x1
 502 00af 02       		.byte	0x2
 503 00b0 28030000 		.4byte	.LASF15
 504 00b4 05       		.uleb128 0x5
 505 00b5 A2000000 		.4byte	0xa2
 506 00b9 03       		.uleb128 0x3
 507 00ba 04       		.byte	0x4
 508 00bb 07       		.byte	0x7
 509 00bc 5E000000 		.4byte	.LASF16
 510 00c0 06       		.uleb128 0x6
 511 00c1 04       		.byte	0x4
 512 00c2 C6000000 		.4byte	0xc6
 513 00c6 07       		.uleb128 0x7
 514 00c7 CB000000 		.4byte	0xcb
 515 00cb 03       		.uleb128 0x3
 516 00cc 01       		.byte	0x1
 517 00cd 08       		.byte	0x8
 518 00ce 53030000 		.4byte	.LASF17
 519 00d2 08       		.uleb128 0x8
 520 00d3 A2000000 		.4byte	0xa2
 521 00d7 E2000000 		.4byte	0xe2
 522 00db 09       		.uleb128 0x9
 523 00dc B9000000 		.4byte	0xb9
 524 00e0 03       		.byte	0x3
 525 00e1 00       		.byte	0
 526 00e2 05       		.uleb128 0x5
 527 00e3 8C000000 		.4byte	0x8c
 528 00e7 05       		.uleb128 0x5
 529 00e8 97000000 		.4byte	0x97
 530 00ec 0A       		.uleb128 0xa
 531 00ed 54       		.byte	0x54
 532 00ee 04       		.byte	0x4
 533 00ef 60       		.byte	0x60
 534 00f0 7F020000 		.4byte	0x27f
 535 00f4 0B       		.uleb128 0xb
 536 00f5 43523100 		.ascii	"CR1\000"
 537 00f9 04       		.byte	0x4
ARM GAS  /tmp/ccOMRzvQ.s 			page 11


 538 00fa 61       		.byte	0x61
 539 00fb E2000000 		.4byte	0xe2
 540 00ff 00       		.byte	0
 541 0100 0C       		.uleb128 0xc
 542 0101 C5000000 		.4byte	.LASF18
 543 0105 04       		.byte	0x4
 544 0106 62       		.byte	0x62
 545 0107 8C000000 		.4byte	0x8c
 546 010b 02       		.byte	0x2
 547 010c 0B       		.uleb128 0xb
 548 010d 43523200 		.ascii	"CR2\000"
 549 0111 04       		.byte	0x4
 550 0112 63       		.byte	0x63
 551 0113 E2000000 		.4byte	0xe2
 552 0117 04       		.byte	0x4
 553 0118 0C       		.uleb128 0xc
 554 0119 CD000000 		.4byte	.LASF19
 555 011d 04       		.byte	0x4
 556 011e 64       		.byte	0x64
 557 011f 8C000000 		.4byte	0x8c
 558 0123 06       		.byte	0x6
 559 0124 0C       		.uleb128 0xc
 560 0125 A7010000 		.4byte	.LASF20
 561 0129 04       		.byte	0x4
 562 012a 65       		.byte	0x65
 563 012b E2000000 		.4byte	0xe2
 564 012f 08       		.byte	0x8
 565 0130 0C       		.uleb128 0xc
 566 0131 A0040000 		.4byte	.LASF21
 567 0135 04       		.byte	0x4
 568 0136 66       		.byte	0x66
 569 0137 8C000000 		.4byte	0x8c
 570 013b 0A       		.byte	0xa
 571 013c 0C       		.uleb128 0xc
 572 013d 19030000 		.4byte	.LASF22
 573 0141 04       		.byte	0x4
 574 0142 67       		.byte	0x67
 575 0143 E2000000 		.4byte	0xe2
 576 0147 0C       		.byte	0xc
 577 0148 0C       		.uleb128 0xc
 578 0149 DE000000 		.4byte	.LASF23
 579 014d 04       		.byte	0x4
 580 014e 68       		.byte	0x68
 581 014f 8C000000 		.4byte	0x8c
 582 0153 0E       		.byte	0xe
 583 0154 0B       		.uleb128 0xb
 584 0155 535200   		.ascii	"SR\000"
 585 0158 04       		.byte	0x4
 586 0159 69       		.byte	0x69
 587 015a E2000000 		.4byte	0xe2
 588 015e 10       		.byte	0x10
 589 015f 0C       		.uleb128 0xc
 590 0160 E6000000 		.4byte	.LASF24
 591 0164 04       		.byte	0x4
 592 0165 6A       		.byte	0x6a
 593 0166 8C000000 		.4byte	0x8c
 594 016a 12       		.byte	0x12
ARM GAS  /tmp/ccOMRzvQ.s 			page 12


 595 016b 0B       		.uleb128 0xb
 596 016c 45475200 		.ascii	"EGR\000"
 597 0170 04       		.byte	0x4
 598 0171 6B       		.byte	0x6b
 599 0172 E2000000 		.4byte	0xe2
 600 0176 14       		.byte	0x14
 601 0177 0C       		.uleb128 0xc
 602 0178 EE000000 		.4byte	.LASF25
 603 017c 04       		.byte	0x4
 604 017d 6C       		.byte	0x6c
 605 017e 8C000000 		.4byte	0x8c
 606 0182 16       		.byte	0x16
 607 0183 0C       		.uleb128 0xc
 608 0184 8D010000 		.4byte	.LASF26
 609 0188 04       		.byte	0x4
 610 0189 6D       		.byte	0x6d
 611 018a E2000000 		.4byte	0xe2
 612 018e 18       		.byte	0x18
 613 018f 0C       		.uleb128 0xc
 614 0190 F6000000 		.4byte	.LASF27
 615 0194 04       		.byte	0x4
 616 0195 6E       		.byte	0x6e
 617 0196 8C000000 		.4byte	0x8c
 618 019a 1A       		.byte	0x1a
 619 019b 0C       		.uleb128 0xc
 620 019c 49000000 		.4byte	.LASF28
 621 01a0 04       		.byte	0x4
 622 01a1 6F       		.byte	0x6f
 623 01a2 E2000000 		.4byte	0xe2
 624 01a6 1C       		.byte	0x1c
 625 01a7 0C       		.uleb128 0xc
 626 01a8 FE000000 		.4byte	.LASF29
 627 01ac 04       		.byte	0x4
 628 01ad 70       		.byte	0x70
 629 01ae 8C000000 		.4byte	0x8c
 630 01b2 1E       		.byte	0x1e
 631 01b3 0C       		.uleb128 0xc
 632 01b4 15000000 		.4byte	.LASF30
 633 01b8 04       		.byte	0x4
 634 01b9 71       		.byte	0x71
 635 01ba E2000000 		.4byte	0xe2
 636 01be 20       		.byte	0x20
 637 01bf 0C       		.uleb128 0xc
 638 01c0 1F040000 		.4byte	.LASF31
 639 01c4 04       		.byte	0x4
 640 01c5 72       		.byte	0x72
 641 01c6 8C000000 		.4byte	0x8c
 642 01ca 22       		.byte	0x22
 643 01cb 0B       		.uleb128 0xb
 644 01cc 434E5400 		.ascii	"CNT\000"
 645 01d0 04       		.byte	0x4
 646 01d1 73       		.byte	0x73
 647 01d2 B4000000 		.4byte	0xb4
 648 01d6 24       		.byte	0x24
 649 01d7 0B       		.uleb128 0xb
 650 01d8 50534300 		.ascii	"PSC\000"
 651 01dc 04       		.byte	0x4
ARM GAS  /tmp/ccOMRzvQ.s 			page 13


 652 01dd 74       		.byte	0x74
 653 01de E2000000 		.4byte	0xe2
 654 01e2 28       		.byte	0x28
 655 01e3 0C       		.uleb128 0xc
 656 01e4 B3040000 		.4byte	.LASF32
 657 01e8 04       		.byte	0x4
 658 01e9 75       		.byte	0x75
 659 01ea 8C000000 		.4byte	0x8c
 660 01ee 2A       		.byte	0x2a
 661 01ef 0B       		.uleb128 0xb
 662 01f0 41525200 		.ascii	"ARR\000"
 663 01f4 04       		.byte	0x4
 664 01f5 76       		.byte	0x76
 665 01f6 B4000000 		.4byte	0xb4
 666 01fa 2C       		.byte	0x2c
 667 01fb 0B       		.uleb128 0xb
 668 01fc 52435200 		.ascii	"RCR\000"
 669 0200 04       		.byte	0x4
 670 0201 77       		.byte	0x77
 671 0202 E2000000 		.4byte	0xe2
 672 0206 30       		.byte	0x30
 673 0207 0C       		.uleb128 0xc
 674 0208 3F040000 		.4byte	.LASF33
 675 020c 04       		.byte	0x4
 676 020d 78       		.byte	0x78
 677 020e 8C000000 		.4byte	0x8c
 678 0212 32       		.byte	0x32
 679 0213 0B       		.uleb128 0xb
 680 0214 43435200 		.ascii	"CCR\000"
 681 0218 04       		.byte	0x4
 682 0219 79       		.byte	0x79
 683 021a 7F020000 		.4byte	0x27f
 684 021e 34       		.byte	0x34
 685 021f 0C       		.uleb128 0xc
 686 0220 7C030000 		.4byte	.LASF34
 687 0224 04       		.byte	0x4
 688 0225 7A       		.byte	0x7a
 689 0226 E2000000 		.4byte	0xe2
 690 022a 44       		.byte	0x44
 691 022b 0C       		.uleb128 0xc
 692 022c D5000000 		.4byte	.LASF35
 693 0230 04       		.byte	0x4
 694 0231 7B       		.byte	0x7b
 695 0232 8C000000 		.4byte	0x8c
 696 0236 46       		.byte	0x46
 697 0237 0B       		.uleb128 0xb
 698 0238 44435200 		.ascii	"DCR\000"
 699 023c 04       		.byte	0x4
 700 023d 7C       		.byte	0x7c
 701 023e E2000000 		.4byte	0xe2
 702 0242 48       		.byte	0x48
 703 0243 0C       		.uleb128 0xc
 704 0244 54040000 		.4byte	.LASF36
 705 0248 04       		.byte	0x4
 706 0249 7D       		.byte	0x7d
 707 024a 8C000000 		.4byte	0x8c
 708 024e 4A       		.byte	0x4a
ARM GAS  /tmp/ccOMRzvQ.s 			page 14


 709 024f 0C       		.uleb128 0xc
 710 0250 3E000000 		.4byte	.LASF37
 711 0254 04       		.byte	0x4
 712 0255 7E       		.byte	0x7e
 713 0256 E2000000 		.4byte	0xe2
 714 025a 4C       		.byte	0x4c
 715 025b 0C       		.uleb128 0xc
 716 025c 2E030000 		.4byte	.LASF38
 717 0260 04       		.byte	0x4
 718 0261 7F       		.byte	0x7f
 719 0262 8C000000 		.4byte	0x8c
 720 0266 4E       		.byte	0x4e
 721 0267 0B       		.uleb128 0xb
 722 0268 4F5200   		.ascii	"OR\000"
 723 026b 04       		.byte	0x4
 724 026c 80       		.byte	0x80
 725 026d E2000000 		.4byte	0xe2
 726 0271 50       		.byte	0x50
 727 0272 0C       		.uleb128 0xc
 728 0273 37030000 		.4byte	.LASF39
 729 0277 04       		.byte	0x4
 730 0278 81       		.byte	0x81
 731 0279 8C000000 		.4byte	0x8c
 732 027d 52       		.byte	0x52
 733 027e 00       		.byte	0
 734 027f 05       		.uleb128 0x5
 735 0280 D2000000 		.4byte	0xd2
 736 0284 04       		.uleb128 0x4
 737 0285 66030000 		.4byte	.LASF40
 738 0289 04       		.byte	0x4
 739 028a 82       		.byte	0x82
 740 028b EC000000 		.4byte	0xec
 741 028f 06       		.uleb128 0x6
 742 0290 04       		.byte	0x4
 743 0291 B4000000 		.4byte	0xb4
 744 0295 0D       		.uleb128 0xd
 745 0296 01       		.byte	0x1
 746 0297 05       		.byte	0x5
 747 0298 35       		.byte	0x35
 748 0299 C2020000 		.4byte	0x2c2
 749 029d 0E       		.uleb128 0xe
 750 029e 22010000 		.4byte	.LASF41
 751 02a2 00       		.sleb128 0
 752 02a3 0E       		.uleb128 0xe
 753 02a4 1A000000 		.4byte	.LASF42
 754 02a8 01       		.sleb128 1
 755 02a9 0E       		.uleb128 0xe
 756 02aa 7B040000 		.4byte	.LASF43
 757 02ae 02       		.sleb128 2
 758 02af 0E       		.uleb128 0xe
 759 02b0 0D030000 		.4byte	.LASF44
 760 02b4 03       		.sleb128 3
 761 02b5 0E       		.uleb128 0xe
 762 02b6 3E010000 		.4byte	.LASF45
 763 02ba 04       		.sleb128 4
 764 02bb 0E       		.uleb128 0xe
 765 02bc 9E010000 		.4byte	.LASF46
ARM GAS  /tmp/ccOMRzvQ.s 			page 15


 766 02c0 05       		.sleb128 5
 767 02c1 00       		.byte	0
 768 02c2 04       		.uleb128 0x4
 769 02c3 A8040000 		.4byte	.LASF47
 770 02c7 05       		.byte	0x5
 771 02c8 3C       		.byte	0x3c
 772 02c9 95020000 		.4byte	0x295
 773 02cd 04       		.uleb128 0x4
 774 02ce 67040000 		.4byte	.LASF48
 775 02d2 05       		.byte	0x5
 776 02d3 41       		.byte	0x41
 777 02d4 D8020000 		.4byte	0x2d8
 778 02d8 0F       		.uleb128 0xf
 779 02d9 67040000 		.4byte	.LASF48
 780 02dd 18       		.byte	0x18
 781 02de 06       		.byte	0x6
 782 02df 2901     		.2byte	0x129
 783 02e1 34030000 		.4byte	0x334
 784 02e5 10       		.uleb128 0x10
 785 02e6 43000000 		.4byte	.LASF49
 786 02ea 06       		.byte	0x6
 787 02eb 2D01     		.2byte	0x12d
 788 02ed C2020000 		.4byte	0x2c2
 789 02f1 00       		.byte	0
 790 02f2 10       		.uleb128 0x10
 791 02f3 A1000000 		.4byte	.LASF50
 792 02f7 06       		.byte	0x6
 793 02f8 3101     		.2byte	0x131
 794 02fa 05040000 		.4byte	0x405
 795 02fe 04       		.byte	0x4
 796 02ff 10       		.uleb128 0x10
 797 0300 39040000 		.4byte	.LASF51
 798 0304 06       		.byte	0x6
 799 0305 3901     		.2byte	0x139
 800 0307 A2000000 		.4byte	0xa2
 801 030b 08       		.byte	0x8
 802 030c 11       		.uleb128 0x11
 803 030d 74696D00 		.ascii	"tim\000"
 804 0311 06       		.byte	0x6
 805 0312 3D01     		.2byte	0x13d
 806 0314 10040000 		.4byte	0x410
 807 0318 0C       		.byte	0xc
 808 0319 10       		.uleb128 0x10
 809 031a 78010000 		.4byte	.LASF52
 810 031e 06       		.byte	0x6
 811 031f 4101     		.2byte	0x141
 812 0321 8F020000 		.4byte	0x28f
 813 0325 10       		.byte	0x10
 814 0326 10       		.uleb128 0x10
 815 0327 87010000 		.4byte	.LASF53
 816 032b 06       		.byte	0x6
 817 032c 4501     		.2byte	0x145
 818 032e 8F020000 		.4byte	0x28f
 819 0332 14       		.byte	0x14
 820 0333 00       		.byte	0
 821 0334 04       		.uleb128 0x4
 822 0335 58030000 		.4byte	.LASF54
ARM GAS  /tmp/ccOMRzvQ.s 			page 16


 823 0339 05       		.byte	0x5
 824 033a 48       		.byte	0x48
 825 033b 3F030000 		.4byte	0x33f
 826 033f 06       		.uleb128 0x6
 827 0340 04       		.byte	0x4
 828 0341 45030000 		.4byte	0x345
 829 0345 12       		.uleb128 0x12
 830 0346 50030000 		.4byte	0x350
 831 034a 13       		.uleb128 0x13
 832 034b 50030000 		.4byte	0x350
 833 034f 00       		.byte	0
 834 0350 06       		.uleb128 0x6
 835 0351 04       		.byte	0x4
 836 0352 CD020000 		.4byte	0x2cd
 837 0356 0D       		.uleb128 0xd
 838 0357 01       		.byte	0x1
 839 0358 06       		.byte	0x6
 840 0359 EC       		.byte	0xec
 841 035a 6B030000 		.4byte	0x36b
 842 035e 0E       		.uleb128 0xe
 843 035f 09040000 		.4byte	.LASF55
 844 0363 00       		.sleb128 0
 845 0364 0E       		.uleb128 0xe
 846 0365 89030000 		.4byte	.LASF56
 847 0369 01       		.sleb128 1
 848 036a 00       		.byte	0
 849 036b 04       		.uleb128 0x4
 850 036c 6E010000 		.4byte	.LASF57
 851 0370 06       		.byte	0x6
 852 0371 EF       		.byte	0xef
 853 0372 56030000 		.4byte	0x356
 854 0376 04       		.uleb128 0x4
 855 0377 1E030000 		.4byte	.LASF58
 856 037b 06       		.byte	0x6
 857 037c F4       		.byte	0xf4
 858 037d A2000000 		.4byte	0xa2
 859 0381 0D       		.uleb128 0xd
 860 0382 01       		.byte	0x1
 861 0383 06       		.byte	0x6
 862 0384 F9       		.byte	0xf9
 863 0385 96030000 		.4byte	0x396
 864 0389 0E       		.uleb128 0xe
 865 038a 06010000 		.4byte	.LASF59
 866 038e 00       		.sleb128 0
 867 038f 0E       		.uleb128 0xe
 868 0390 14010000 		.4byte	.LASF60
 869 0394 01       		.sleb128 1
 870 0395 00       		.byte	0
 871 0396 04       		.uleb128 0x4
 872 0397 23000000 		.4byte	.LASF61
 873 039b 06       		.byte	0x6
 874 039c FC       		.byte	0xfc
 875 039d 81030000 		.4byte	0x381
 876 03a1 14       		.uleb128 0x14
 877 03a2 18       		.byte	0x18
 878 03a3 06       		.byte	0x6
 879 03a4 0701     		.2byte	0x107
ARM GAS  /tmp/ccOMRzvQ.s 			page 17


 880 03a6 F9030000 		.4byte	0x3f9
 881 03aa 10       		.uleb128 0x10
 882 03ab 81000000 		.4byte	.LASF62
 883 03af 06       		.byte	0x6
 884 03b0 0B01     		.2byte	0x10b
 885 03b2 6B030000 		.4byte	0x36b
 886 03b6 00       		.byte	0
 887 03b7 10       		.uleb128 0x10
 888 03b8 71040000 		.4byte	.LASF63
 889 03bc 06       		.byte	0x6
 890 03bd 1101     		.2byte	0x111
 891 03bf 76030000 		.4byte	0x376
 892 03c3 04       		.byte	0x4
 893 03c4 10       		.uleb128 0x10
 894 03c5 35010000 		.4byte	.LASF64
 895 03c9 06       		.byte	0x6
 896 03ca 1501     		.2byte	0x115
 897 03cc 34030000 		.4byte	0x334
 898 03d0 08       		.byte	0x8
 899 03d1 10       		.uleb128 0x10
 900 03d2 72030000 		.4byte	.LASF65
 901 03d6 06       		.byte	0x6
 902 03d7 1901     		.2byte	0x119
 903 03d9 34030000 		.4byte	0x334
 904 03dd 0C       		.byte	0xc
 905 03de 10       		.uleb128 0x10
 906 03df 48040000 		.4byte	.LASF66
 907 03e3 06       		.byte	0x6
 908 03e4 1D01     		.2byte	0x11d
 909 03e6 34030000 		.4byte	0x334
 910 03ea 10       		.byte	0x10
 911 03eb 10       		.uleb128 0x10
 912 03ec 9E030000 		.4byte	.LASF67
 913 03f0 06       		.byte	0x6
 914 03f1 2301     		.2byte	0x123
 915 03f3 96030000 		.4byte	0x396
 916 03f7 14       		.byte	0x14
 917 03f8 00       		.byte	0
 918 03f9 15       		.uleb128 0x15
 919 03fa BA010000 		.4byte	.LASF68
 920 03fe 06       		.byte	0x6
 921 03ff 2401     		.2byte	0x124
 922 0401 A1030000 		.4byte	0x3a1
 923 0405 06       		.uleb128 0x6
 924 0406 04       		.byte	0x4
 925 0407 0B040000 		.4byte	0x40b
 926 040b 07       		.uleb128 0x7
 927 040c F9030000 		.4byte	0x3f9
 928 0410 06       		.uleb128 0x6
 929 0411 04       		.byte	0x4
 930 0412 84020000 		.4byte	0x284
 931 0416 16       		.uleb128 0x16
 932 0417 2D010000 		.4byte	.LASF69
 933 041b 01       		.byte	0x1
 934 041c 3D       		.byte	0x3d
 935 041d 00000000 		.4byte	.LFB118
 936 0421 04000000 		.4byte	.LFE118-.LFB118
ARM GAS  /tmp/ccOMRzvQ.s 			page 18


 937 0425 01       		.uleb128 0x1
 938 0426 9C       		.byte	0x9c
 939 0427 35040000 		.4byte	0x435
 940 042b 17       		.uleb128 0x17
 941 042c 04000000 		.4byte	.LVL0
 942 0430 1F070000 		.4byte	0x71f
 943 0434 00       		.byte	0
 944 0435 16       		.uleb128 0x16
 945 0436 85040000 		.4byte	.LASF70
 946 043a 01       		.byte	0x1
 947 043b 49       		.byte	0x49
 948 043c 00000000 		.4byte	.LFB119
 949 0440 0A000000 		.4byte	.LFE119-.LFB119
 950 0444 01       		.uleb128 0x1
 951 0445 9C       		.byte	0x9c
 952 0446 58040000 		.4byte	0x458
 953 044a 18       		.uleb128 0x18
 954 044b 59000000 		.4byte	.LASF72
 955 044f 01       		.byte	0x1
 956 0450 49       		.byte	0x49
 957 0451 50030000 		.4byte	0x350
 958 0455 01       		.uleb128 0x1
 959 0456 50       		.byte	0x50
 960 0457 00       		.byte	0
 961 0458 16       		.uleb128 0x16
 962 0459 B3020000 		.4byte	.LASF71
 963 045d 01       		.byte	0x1
 964 045e 57       		.byte	0x57
 965 045f 00000000 		.4byte	.LFB120
 966 0463 4C000000 		.4byte	.LFE120-.LFB120
 967 0467 01       		.uleb128 0x1
 968 0468 9C       		.byte	0x9c
 969 0469 12050000 		.4byte	0x512
 970 046d 19       		.uleb128 0x19
 971 046e 59000000 		.4byte	.LASF72
 972 0472 01       		.byte	0x1
 973 0473 57       		.byte	0x57
 974 0474 50030000 		.4byte	0x350
 975 0478 00000000 		.4byte	.LLST0
 976 047c 19       		.uleb128 0x19
 977 047d A1000000 		.4byte	.LASF50
 978 0481 01       		.byte	0x1
 979 0482 57       		.byte	0x57
 980 0483 05040000 		.4byte	0x405
 981 0487 34000000 		.4byte	.LLST1
 982 048b 1A       		.uleb128 0x1a
 983 048c 0A000000 		.4byte	.LBB2
 984 0490 06000000 		.4byte	.LBE2-.LBB2
 985 0494 A6040000 		.4byte	0x4a6
 986 0498 1B       		.uleb128 0x1b
 987 0499 746D7000 		.ascii	"tmp\000"
 988 049d 01       		.byte	0x1
 989 049e 5B       		.byte	0x5b
 990 049f A2000000 		.4byte	0xa2
 991 04a3 01       		.uleb128 0x1
 992 04a4 53       		.byte	0x53
 993 04a5 00       		.byte	0
ARM GAS  /tmp/ccOMRzvQ.s 			page 19


 994 04a6 1A       		.uleb128 0x1a
 995 04a7 32000000 		.4byte	.LBB3
 996 04ab 08000000 		.4byte	.LBE3-.LBB3
 997 04af C1040000 		.4byte	0x4c1
 998 04b3 1B       		.uleb128 0x1b
 999 04b4 746D7000 		.ascii	"tmp\000"
 1000 04b8 01       		.byte	0x1
 1001 04b9 61       		.byte	0x61
 1002 04ba A2000000 		.4byte	0xa2
 1003 04be 01       		.uleb128 0x1
 1004 04bf 53       		.byte	0x53
 1005 04c0 00       		.byte	0
 1006 04c1 1C       		.uleb128 0x1c
 1007 04c2 14000000 		.4byte	.LVL4
 1008 04c6 27070000 		.4byte	0x727
 1009 04ca 1D       		.uleb128 0x1d
 1010 04cb 22000000 		.4byte	.LVL5
 1011 04cf 2E070000 		.4byte	0x72e
 1012 04d3 E1040000 		.4byte	0x4e1
 1013 04d7 1E       		.uleb128 0x1e
 1014 04d8 01       		.uleb128 0x1
 1015 04d9 50       		.byte	0x50
 1016 04da 05       		.uleb128 0x5
 1017 04db 03       		.byte	0x3
 1018 04dc 10000000 		.4byte	.LC1
 1019 04e0 00       		.byte	0
 1020 04e1 1D       		.uleb128 0x1d
 1021 04e2 2A000000 		.4byte	.LVL6
 1022 04e6 3F070000 		.4byte	0x73f
 1023 04ea F5040000 		.4byte	0x4f5
 1024 04ee 1E       		.uleb128 0x1e
 1025 04ef 01       		.uleb128 0x1
 1026 04f0 50       		.byte	0x50
 1027 04f1 02       		.uleb128 0x2
 1028 04f2 74       		.byte	0x74
 1029 04f3 00       		.sleb128 0
 1030 04f4 00       		.byte	0
 1031 04f5 1C       		.uleb128 0x1c
 1032 04f6 32000000 		.4byte	.LVL7
 1033 04fa 51070000 		.4byte	0x751
 1034 04fe 1F       		.uleb128 0x1f
 1035 04ff 40000000 		.4byte	.LVL10
 1036 0503 2E070000 		.4byte	0x72e
 1037 0507 1E       		.uleb128 0x1e
 1038 0508 01       		.uleb128 0x1
 1039 0509 50       		.byte	0x50
 1040 050a 05       		.uleb128 0x5
 1041 050b 03       		.byte	0x3
 1042 050c 00000000 		.4byte	.LC0
 1043 0510 00       		.byte	0
 1044 0511 00       		.byte	0
 1045 0512 16       		.uleb128 0x16
 1046 0513 00000000 		.4byte	.LASF73
 1047 0517 01       		.byte	0x1
 1048 0518 6B       		.byte	0x6b
 1049 0519 00000000 		.4byte	.LFB121
 1050 051d 44000000 		.4byte	.LFE121-.LFB121
ARM GAS  /tmp/ccOMRzvQ.s 			page 20


 1051 0521 01       		.uleb128 0x1
 1052 0522 9C       		.byte	0x9c
 1053 0523 BD050000 		.4byte	0x5bd
 1054 0527 19       		.uleb128 0x19
 1055 0528 59000000 		.4byte	.LASF72
 1056 052c 01       		.byte	0x1
 1057 052d 6B       		.byte	0x6b
 1058 052e 50030000 		.4byte	0x350
 1059 0532 68000000 		.4byte	.LLST2
 1060 0536 1A       		.uleb128 0x1a
 1061 0537 06000000 		.4byte	.LBB4
 1062 053b 06000000 		.4byte	.LBE4-.LBB4
 1063 053f 51050000 		.4byte	0x551
 1064 0543 1B       		.uleb128 0x1b
 1065 0544 746D7000 		.ascii	"tmp\000"
 1066 0548 01       		.byte	0x1
 1067 0549 6F       		.byte	0x6f
 1068 054a A2000000 		.4byte	0xa2
 1069 054e 01       		.uleb128 0x1
 1070 054f 53       		.byte	0x53
 1071 0550 00       		.byte	0
 1072 0551 1A       		.uleb128 0x1a
 1073 0552 2C000000 		.4byte	.LBB5
 1074 0556 08000000 		.4byte	.LBE5-.LBB5
 1075 055a 6C050000 		.4byte	0x56c
 1076 055e 1B       		.uleb128 0x1b
 1077 055f 746D7000 		.ascii	"tmp\000"
 1078 0563 01       		.byte	0x1
 1079 0564 74       		.byte	0x74
 1080 0565 A2000000 		.4byte	0xa2
 1081 0569 01       		.uleb128 0x1
 1082 056a 53       		.byte	0x53
 1083 056b 00       		.byte	0
 1084 056c 1C       		.uleb128 0x1c
 1085 056d 10000000 		.4byte	.LVL13
 1086 0571 27070000 		.4byte	0x727
 1087 0575 1D       		.uleb128 0x1d
 1088 0576 1E000000 		.4byte	.LVL14
 1089 057a 2E070000 		.4byte	0x72e
 1090 057e 8C050000 		.4byte	0x58c
 1091 0582 1E       		.uleb128 0x1e
 1092 0583 01       		.uleb128 0x1
 1093 0584 50       		.byte	0x50
 1094 0585 05       		.uleb128 0x5
 1095 0586 03       		.byte	0x3
 1096 0587 2C000000 		.4byte	.LC3
 1097 058b 00       		.byte	0
 1098 058c 1D       		.uleb128 0x1d
 1099 058d 24000000 		.4byte	.LVL15
 1100 0591 58070000 		.4byte	0x758
 1101 0595 A0050000 		.4byte	0x5a0
 1102 0599 1E       		.uleb128 0x1e
 1103 059a 01       		.uleb128 0x1
 1104 059b 50       		.byte	0x50
 1105 059c 02       		.uleb128 0x2
 1106 059d 74       		.byte	0x74
 1107 059e 00       		.sleb128 0
ARM GAS  /tmp/ccOMRzvQ.s 			page 21


 1108 059f 00       		.byte	0
 1109 05a0 1C       		.uleb128 0x1c
 1110 05a1 2C000000 		.4byte	.LVL16
 1111 05a5 51070000 		.4byte	0x751
 1112 05a9 1F       		.uleb128 0x1f
 1113 05aa 3A000000 		.4byte	.LVL19
 1114 05ae 2E070000 		.4byte	0x72e
 1115 05b2 1E       		.uleb128 0x1e
 1116 05b3 01       		.uleb128 0x1
 1117 05b4 50       		.byte	0x50
 1118 05b5 05       		.uleb128 0x5
 1119 05b6 03       		.byte	0x3
 1120 05b7 20000000 		.4byte	.LC2
 1121 05bb 00       		.byte	0
 1122 05bc 00       		.byte	0
 1123 05bd 16       		.uleb128 0x16
 1124 05be BC020000 		.4byte	.LASF74
 1125 05c2 01       		.byte	0x1
 1126 05c3 7E       		.byte	0x7e
 1127 05c4 00000000 		.4byte	.LFB122
 1128 05c8 44000000 		.4byte	.LFE122-.LFB122
 1129 05cc 01       		.uleb128 0x1
 1130 05cd 9C       		.byte	0x9c
 1131 05ce 68060000 		.4byte	0x668
 1132 05d2 19       		.uleb128 0x19
 1133 05d3 59000000 		.4byte	.LASF72
 1134 05d7 01       		.byte	0x1
 1135 05d8 7E       		.byte	0x7e
 1136 05d9 50030000 		.4byte	0x350
 1137 05dd 9C000000 		.4byte	.LLST3
 1138 05e1 1A       		.uleb128 0x1a
 1139 05e2 06000000 		.4byte	.LBB6
 1140 05e6 06000000 		.4byte	.LBE6-.LBB6
 1141 05ea FC050000 		.4byte	0x5fc
 1142 05ee 1B       		.uleb128 0x1b
 1143 05ef 746D7000 		.ascii	"tmp\000"
 1144 05f3 01       		.byte	0x1
 1145 05f4 82       		.byte	0x82
 1146 05f5 A2000000 		.4byte	0xa2
 1147 05f9 01       		.uleb128 0x1
 1148 05fa 53       		.byte	0x53
 1149 05fb 00       		.byte	0
 1150 05fc 1A       		.uleb128 0x1a
 1151 05fd 2A000000 		.4byte	.LBB7
 1152 0601 08000000 		.4byte	.LBE7-.LBB7
 1153 0605 17060000 		.4byte	0x617
 1154 0609 1B       		.uleb128 0x1b
 1155 060a 746D7000 		.ascii	"tmp\000"
 1156 060e 01       		.byte	0x1
 1157 060f 86       		.byte	0x86
 1158 0610 A2000000 		.4byte	0xa2
 1159 0614 01       		.uleb128 0x1
 1160 0615 53       		.byte	0x53
 1161 0616 00       		.byte	0
 1162 0617 1C       		.uleb128 0x1c
 1163 0618 10000000 		.4byte	.LVL22
 1164 061c 27070000 		.4byte	0x727
ARM GAS  /tmp/ccOMRzvQ.s 			page 22


 1165 0620 1D       		.uleb128 0x1d
 1166 0621 1C000000 		.4byte	.LVL23
 1167 0625 2E070000 		.4byte	0x72e
 1168 0629 37060000 		.4byte	0x637
 1169 062d 1E       		.uleb128 0x1e
 1170 062e 01       		.uleb128 0x1
 1171 062f 50       		.byte	0x50
 1172 0630 05       		.uleb128 0x5
 1173 0631 03       		.byte	0x3
 1174 0632 4C000000 		.4byte	.LC5
 1175 0636 00       		.byte	0
 1176 0637 1D       		.uleb128 0x1d
 1177 0638 22000000 		.4byte	.LVL24
 1178 063c 6A070000 		.4byte	0x76a
 1179 0640 4B060000 		.4byte	0x64b
 1180 0644 1E       		.uleb128 0x1e
 1181 0645 01       		.uleb128 0x1
 1182 0646 50       		.byte	0x50
 1183 0647 02       		.uleb128 0x2
 1184 0648 74       		.byte	0x74
 1185 0649 00       		.sleb128 0
 1186 064a 00       		.byte	0
 1187 064b 1C       		.uleb128 0x1c
 1188 064c 2A000000 		.4byte	.LVL25
 1189 0650 51070000 		.4byte	0x751
 1190 0654 1F       		.uleb128 0x1f
 1191 0655 38000000 		.4byte	.LVL28
 1192 0659 2E070000 		.4byte	0x72e
 1193 065d 1E       		.uleb128 0x1e
 1194 065e 01       		.uleb128 0x1
 1195 065f 50       		.byte	0x50
 1196 0660 05       		.uleb128 0x5
 1197 0661 03       		.byte	0x3
 1198 0662 3C000000 		.4byte	.LC4
 1199 0666 00       		.byte	0
 1200 0667 00       		.byte	0
 1201 0668 16       		.uleb128 0x16
 1202 0669 A6030000 		.4byte	.LASF75
 1203 066d 01       		.byte	0x1
 1204 066e 90       		.byte	0x90
 1205 066f 00000000 		.4byte	.LFB123
 1206 0673 44000000 		.4byte	.LFE123-.LFB123
 1207 0677 01       		.uleb128 0x1
 1208 0678 9C       		.byte	0x9c
 1209 0679 13070000 		.4byte	0x713
 1210 067d 19       		.uleb128 0x19
 1211 067e 59000000 		.4byte	.LASF72
 1212 0682 01       		.byte	0x1
 1213 0683 90       		.byte	0x90
 1214 0684 50030000 		.4byte	0x350
 1215 0688 D0000000 		.4byte	.LLST4
 1216 068c 1A       		.uleb128 0x1a
 1217 068d 06000000 		.4byte	.LBB8
 1218 0691 06000000 		.4byte	.LBE8-.LBB8
 1219 0695 A7060000 		.4byte	0x6a7
 1220 0699 1B       		.uleb128 0x1b
 1221 069a 746D7000 		.ascii	"tmp\000"
ARM GAS  /tmp/ccOMRzvQ.s 			page 23


 1222 069e 01       		.byte	0x1
 1223 069f 94       		.byte	0x94
 1224 06a0 A2000000 		.4byte	0xa2
 1225 06a4 01       		.uleb128 0x1
 1226 06a5 53       		.byte	0x53
 1227 06a6 00       		.byte	0
 1228 06a7 1A       		.uleb128 0x1a
 1229 06a8 2C000000 		.4byte	.LBB9
 1230 06ac 08000000 		.4byte	.LBE9-.LBB9
 1231 06b0 C2060000 		.4byte	0x6c2
 1232 06b4 1B       		.uleb128 0x1b
 1233 06b5 746D7000 		.ascii	"tmp\000"
 1234 06b9 01       		.byte	0x1
 1235 06ba 9A       		.byte	0x9a
 1236 06bb A2000000 		.4byte	0xa2
 1237 06bf 01       		.uleb128 0x1
 1238 06c0 53       		.byte	0x53
 1239 06c1 00       		.byte	0
 1240 06c2 1C       		.uleb128 0x1c
 1241 06c3 10000000 		.4byte	.LVL31
 1242 06c7 27070000 		.4byte	0x727
 1243 06cb 1D       		.uleb128 0x1d
 1244 06cc 1E000000 		.4byte	.LVL32
 1245 06d0 2E070000 		.4byte	0x72e
 1246 06d4 E2060000 		.4byte	0x6e2
 1247 06d8 1E       		.uleb128 0x1e
 1248 06d9 01       		.uleb128 0x1
 1249 06da 50       		.byte	0x50
 1250 06db 05       		.uleb128 0x5
 1251 06dc 03       		.byte	0x3
 1252 06dd 6C000000 		.4byte	.LC7
 1253 06e1 00       		.byte	0
 1254 06e2 1D       		.uleb128 0x1d
 1255 06e3 24000000 		.4byte	.LVL33
 1256 06e7 7C070000 		.4byte	0x77c
 1257 06eb F6060000 		.4byte	0x6f6
 1258 06ef 1E       		.uleb128 0x1e
 1259 06f0 01       		.uleb128 0x1
 1260 06f1 50       		.byte	0x50
 1261 06f2 02       		.uleb128 0x2
 1262 06f3 74       		.byte	0x74
 1263 06f4 00       		.sleb128 0
 1264 06f5 00       		.byte	0
 1265 06f6 1C       		.uleb128 0x1c
 1266 06f7 2C000000 		.4byte	.LVL34
 1267 06fb 51070000 		.4byte	0x751
 1268 06ff 1F       		.uleb128 0x1f
 1269 0700 3A000000 		.4byte	.LVL37
 1270 0704 2E070000 		.4byte	0x72e
 1271 0708 1E       		.uleb128 0x1e
 1272 0709 01       		.uleb128 0x1
 1273 070a 50       		.byte	0x50
 1274 070b 05       		.uleb128 0x5
 1275 070c 03       		.byte	0x3
 1276 070d 5C000000 		.4byte	.LC6
 1277 0711 00       		.byte	0
 1278 0712 00       		.byte	0
ARM GAS  /tmp/ccOMRzvQ.s 			page 24


 1279 0713 20       		.uleb128 0x20
 1280 0714 93040000 		.4byte	.LASF86
 1281 0718 08       		.byte	0x8
 1282 0719 9806     		.2byte	0x698
 1283 071b E7000000 		.4byte	0xe7
 1284 071f 21       		.uleb128 0x21
 1285 0720 E1020000 		.4byte	.LASF76
 1286 0724 06       		.byte	0x6
 1287 0725 8701     		.2byte	0x187
 1288 0727 22       		.uleb128 0x22
 1289 0728 D2020000 		.4byte	.LASF77
 1290 072c 07       		.byte	0x7
 1291 072d E0       		.byte	0xe0
 1292 072e 23       		.uleb128 0x23
 1293 072f 93010000 		.4byte	.LASF78
 1294 0733 07       		.byte	0x7
 1295 0734 EF       		.byte	0xef
 1296 0735 3F070000 		.4byte	0x73f
 1297 0739 13       		.uleb128 0x13
 1298 073a C0000000 		.4byte	0xc0
 1299 073e 00       		.byte	0
 1300 073f 24       		.uleb128 0x24
 1301 0740 30000000 		.4byte	.LASF79
 1302 0744 06       		.byte	0x6
 1303 0745 8801     		.2byte	0x188
 1304 0747 51070000 		.4byte	0x751
 1305 074b 13       		.uleb128 0x13
 1306 074c 50030000 		.4byte	0x350
 1307 0750 00       		.byte	0
 1308 0751 22       		.uleb128 0x22
 1309 0752 A2020000 		.4byte	.LASF80
 1310 0756 07       		.byte	0x7
 1311 0757 E1       		.byte	0xe1
 1312 0758 24       		.uleb128 0x24
 1313 0759 08000000 		.4byte	.LASF81
 1314 075d 06       		.byte	0x6
 1315 075e 8901     		.2byte	0x189
 1316 0760 6A070000 		.4byte	0x76a
 1317 0764 13       		.uleb128 0x13
 1318 0765 50030000 		.4byte	0x350
 1319 0769 00       		.byte	0
 1320 076a 24       		.uleb128 0x24
 1321 076b 67000000 		.4byte	.LASF82
 1322 076f 06       		.byte	0x6
 1323 0770 8A01     		.2byte	0x18a
 1324 0772 7C070000 		.4byte	0x77c
 1325 0776 13       		.uleb128 0x13
 1326 0777 50030000 		.4byte	0x350
 1327 077b 00       		.byte	0
 1328 077c 25       		.uleb128 0x25
 1329 077d 91000000 		.4byte	.LASF87
 1330 0781 06       		.byte	0x6
 1331 0782 8B01     		.2byte	0x18b
 1332 0784 13       		.uleb128 0x13
 1333 0785 50030000 		.4byte	0x350
 1334 0789 00       		.byte	0
 1335 078a 00       		.byte	0
ARM GAS  /tmp/ccOMRzvQ.s 			page 25


 1336              		.section	.debug_abbrev,"",%progbits
 1337              	.Ldebug_abbrev0:
 1338 0000 01       		.uleb128 0x1
 1339 0001 11       		.uleb128 0x11
 1340 0002 01       		.byte	0x1
 1341 0003 25       		.uleb128 0x25
 1342 0004 0E       		.uleb128 0xe
 1343 0005 13       		.uleb128 0x13
 1344 0006 0B       		.uleb128 0xb
 1345 0007 03       		.uleb128 0x3
 1346 0008 0E       		.uleb128 0xe
 1347 0009 1B       		.uleb128 0x1b
 1348 000a 0E       		.uleb128 0xe
 1349 000b 55       		.uleb128 0x55
 1350 000c 17       		.uleb128 0x17
 1351 000d 11       		.uleb128 0x11
 1352 000e 01       		.uleb128 0x1
 1353 000f 10       		.uleb128 0x10
 1354 0010 17       		.uleb128 0x17
 1355 0011 00       		.byte	0
 1356 0012 00       		.byte	0
 1357 0013 02       		.uleb128 0x2
 1358 0014 24       		.uleb128 0x24
 1359 0015 00       		.byte	0
 1360 0016 0B       		.uleb128 0xb
 1361 0017 0B       		.uleb128 0xb
 1362 0018 3E       		.uleb128 0x3e
 1363 0019 0B       		.uleb128 0xb
 1364 001a 03       		.uleb128 0x3
 1365 001b 08       		.uleb128 0x8
 1366 001c 00       		.byte	0
 1367 001d 00       		.byte	0
 1368 001e 03       		.uleb128 0x3
 1369 001f 24       		.uleb128 0x24
 1370 0020 00       		.byte	0
 1371 0021 0B       		.uleb128 0xb
 1372 0022 0B       		.uleb128 0xb
 1373 0023 3E       		.uleb128 0x3e
 1374 0024 0B       		.uleb128 0xb
 1375 0025 03       		.uleb128 0x3
 1376 0026 0E       		.uleb128 0xe
 1377 0027 00       		.byte	0
 1378 0028 00       		.byte	0
 1379 0029 04       		.uleb128 0x4
 1380 002a 16       		.uleb128 0x16
 1381 002b 00       		.byte	0
 1382 002c 03       		.uleb128 0x3
 1383 002d 0E       		.uleb128 0xe
 1384 002e 3A       		.uleb128 0x3a
 1385 002f 0B       		.uleb128 0xb
 1386 0030 3B       		.uleb128 0x3b
 1387 0031 0B       		.uleb128 0xb
 1388 0032 49       		.uleb128 0x49
 1389 0033 13       		.uleb128 0x13
 1390 0034 00       		.byte	0
 1391 0035 00       		.byte	0
 1392 0036 05       		.uleb128 0x5
ARM GAS  /tmp/ccOMRzvQ.s 			page 26


 1393 0037 35       		.uleb128 0x35
 1394 0038 00       		.byte	0
 1395 0039 49       		.uleb128 0x49
 1396 003a 13       		.uleb128 0x13
 1397 003b 00       		.byte	0
 1398 003c 00       		.byte	0
 1399 003d 06       		.uleb128 0x6
 1400 003e 0F       		.uleb128 0xf
 1401 003f 00       		.byte	0
 1402 0040 0B       		.uleb128 0xb
 1403 0041 0B       		.uleb128 0xb
 1404 0042 49       		.uleb128 0x49
 1405 0043 13       		.uleb128 0x13
 1406 0044 00       		.byte	0
 1407 0045 00       		.byte	0
 1408 0046 07       		.uleb128 0x7
 1409 0047 26       		.uleb128 0x26
 1410 0048 00       		.byte	0
 1411 0049 49       		.uleb128 0x49
 1412 004a 13       		.uleb128 0x13
 1413 004b 00       		.byte	0
 1414 004c 00       		.byte	0
 1415 004d 08       		.uleb128 0x8
 1416 004e 01       		.uleb128 0x1
 1417 004f 01       		.byte	0x1
 1418 0050 49       		.uleb128 0x49
 1419 0051 13       		.uleb128 0x13
 1420 0052 01       		.uleb128 0x1
 1421 0053 13       		.uleb128 0x13
 1422 0054 00       		.byte	0
 1423 0055 00       		.byte	0
 1424 0056 09       		.uleb128 0x9
 1425 0057 21       		.uleb128 0x21
 1426 0058 00       		.byte	0
 1427 0059 49       		.uleb128 0x49
 1428 005a 13       		.uleb128 0x13
 1429 005b 2F       		.uleb128 0x2f
 1430 005c 0B       		.uleb128 0xb
 1431 005d 00       		.byte	0
 1432 005e 00       		.byte	0
 1433 005f 0A       		.uleb128 0xa
 1434 0060 13       		.uleb128 0x13
 1435 0061 01       		.byte	0x1
 1436 0062 0B       		.uleb128 0xb
 1437 0063 0B       		.uleb128 0xb
 1438 0064 3A       		.uleb128 0x3a
 1439 0065 0B       		.uleb128 0xb
 1440 0066 3B       		.uleb128 0x3b
 1441 0067 0B       		.uleb128 0xb
 1442 0068 01       		.uleb128 0x1
 1443 0069 13       		.uleb128 0x13
 1444 006a 00       		.byte	0
 1445 006b 00       		.byte	0
 1446 006c 0B       		.uleb128 0xb
 1447 006d 0D       		.uleb128 0xd
 1448 006e 00       		.byte	0
 1449 006f 03       		.uleb128 0x3
ARM GAS  /tmp/ccOMRzvQ.s 			page 27


 1450 0070 08       		.uleb128 0x8
 1451 0071 3A       		.uleb128 0x3a
 1452 0072 0B       		.uleb128 0xb
 1453 0073 3B       		.uleb128 0x3b
 1454 0074 0B       		.uleb128 0xb
 1455 0075 49       		.uleb128 0x49
 1456 0076 13       		.uleb128 0x13
 1457 0077 38       		.uleb128 0x38
 1458 0078 0B       		.uleb128 0xb
 1459 0079 00       		.byte	0
 1460 007a 00       		.byte	0
 1461 007b 0C       		.uleb128 0xc
 1462 007c 0D       		.uleb128 0xd
 1463 007d 00       		.byte	0
 1464 007e 03       		.uleb128 0x3
 1465 007f 0E       		.uleb128 0xe
 1466 0080 3A       		.uleb128 0x3a
 1467 0081 0B       		.uleb128 0xb
 1468 0082 3B       		.uleb128 0x3b
 1469 0083 0B       		.uleb128 0xb
 1470 0084 49       		.uleb128 0x49
 1471 0085 13       		.uleb128 0x13
 1472 0086 38       		.uleb128 0x38
 1473 0087 0B       		.uleb128 0xb
 1474 0088 00       		.byte	0
 1475 0089 00       		.byte	0
 1476 008a 0D       		.uleb128 0xd
 1477 008b 04       		.uleb128 0x4
 1478 008c 01       		.byte	0x1
 1479 008d 0B       		.uleb128 0xb
 1480 008e 0B       		.uleb128 0xb
 1481 008f 3A       		.uleb128 0x3a
 1482 0090 0B       		.uleb128 0xb
 1483 0091 3B       		.uleb128 0x3b
 1484 0092 0B       		.uleb128 0xb
 1485 0093 01       		.uleb128 0x1
 1486 0094 13       		.uleb128 0x13
 1487 0095 00       		.byte	0
 1488 0096 00       		.byte	0
 1489 0097 0E       		.uleb128 0xe
 1490 0098 28       		.uleb128 0x28
 1491 0099 00       		.byte	0
 1492 009a 03       		.uleb128 0x3
 1493 009b 0E       		.uleb128 0xe
 1494 009c 1C       		.uleb128 0x1c
 1495 009d 0D       		.uleb128 0xd
 1496 009e 00       		.byte	0
 1497 009f 00       		.byte	0
 1498 00a0 0F       		.uleb128 0xf
 1499 00a1 13       		.uleb128 0x13
 1500 00a2 01       		.byte	0x1
 1501 00a3 03       		.uleb128 0x3
 1502 00a4 0E       		.uleb128 0xe
 1503 00a5 0B       		.uleb128 0xb
 1504 00a6 0B       		.uleb128 0xb
 1505 00a7 3A       		.uleb128 0x3a
 1506 00a8 0B       		.uleb128 0xb
ARM GAS  /tmp/ccOMRzvQ.s 			page 28


 1507 00a9 3B       		.uleb128 0x3b
 1508 00aa 05       		.uleb128 0x5
 1509 00ab 01       		.uleb128 0x1
 1510 00ac 13       		.uleb128 0x13
 1511 00ad 00       		.byte	0
 1512 00ae 00       		.byte	0
 1513 00af 10       		.uleb128 0x10
 1514 00b0 0D       		.uleb128 0xd
 1515 00b1 00       		.byte	0
 1516 00b2 03       		.uleb128 0x3
 1517 00b3 0E       		.uleb128 0xe
 1518 00b4 3A       		.uleb128 0x3a
 1519 00b5 0B       		.uleb128 0xb
 1520 00b6 3B       		.uleb128 0x3b
 1521 00b7 05       		.uleb128 0x5
 1522 00b8 49       		.uleb128 0x49
 1523 00b9 13       		.uleb128 0x13
 1524 00ba 38       		.uleb128 0x38
 1525 00bb 0B       		.uleb128 0xb
 1526 00bc 00       		.byte	0
 1527 00bd 00       		.byte	0
 1528 00be 11       		.uleb128 0x11
 1529 00bf 0D       		.uleb128 0xd
 1530 00c0 00       		.byte	0
 1531 00c1 03       		.uleb128 0x3
 1532 00c2 08       		.uleb128 0x8
 1533 00c3 3A       		.uleb128 0x3a
 1534 00c4 0B       		.uleb128 0xb
 1535 00c5 3B       		.uleb128 0x3b
 1536 00c6 05       		.uleb128 0x5
 1537 00c7 49       		.uleb128 0x49
 1538 00c8 13       		.uleb128 0x13
 1539 00c9 38       		.uleb128 0x38
 1540 00ca 0B       		.uleb128 0xb
 1541 00cb 00       		.byte	0
 1542 00cc 00       		.byte	0
 1543 00cd 12       		.uleb128 0x12
 1544 00ce 15       		.uleb128 0x15
 1545 00cf 01       		.byte	0x1
 1546 00d0 27       		.uleb128 0x27
 1547 00d1 19       		.uleb128 0x19
 1548 00d2 01       		.uleb128 0x1
 1549 00d3 13       		.uleb128 0x13
 1550 00d4 00       		.byte	0
 1551 00d5 00       		.byte	0
 1552 00d6 13       		.uleb128 0x13
 1553 00d7 05       		.uleb128 0x5
 1554 00d8 00       		.byte	0
 1555 00d9 49       		.uleb128 0x49
 1556 00da 13       		.uleb128 0x13
 1557 00db 00       		.byte	0
 1558 00dc 00       		.byte	0
 1559 00dd 14       		.uleb128 0x14
 1560 00de 13       		.uleb128 0x13
 1561 00df 01       		.byte	0x1
 1562 00e0 0B       		.uleb128 0xb
 1563 00e1 0B       		.uleb128 0xb
ARM GAS  /tmp/ccOMRzvQ.s 			page 29


 1564 00e2 3A       		.uleb128 0x3a
 1565 00e3 0B       		.uleb128 0xb
 1566 00e4 3B       		.uleb128 0x3b
 1567 00e5 05       		.uleb128 0x5
 1568 00e6 01       		.uleb128 0x1
 1569 00e7 13       		.uleb128 0x13
 1570 00e8 00       		.byte	0
 1571 00e9 00       		.byte	0
 1572 00ea 15       		.uleb128 0x15
 1573 00eb 16       		.uleb128 0x16
 1574 00ec 00       		.byte	0
 1575 00ed 03       		.uleb128 0x3
 1576 00ee 0E       		.uleb128 0xe
 1577 00ef 3A       		.uleb128 0x3a
 1578 00f0 0B       		.uleb128 0xb
 1579 00f1 3B       		.uleb128 0x3b
 1580 00f2 05       		.uleb128 0x5
 1581 00f3 49       		.uleb128 0x49
 1582 00f4 13       		.uleb128 0x13
 1583 00f5 00       		.byte	0
 1584 00f6 00       		.byte	0
 1585 00f7 16       		.uleb128 0x16
 1586 00f8 2E       		.uleb128 0x2e
 1587 00f9 01       		.byte	0x1
 1588 00fa 3F       		.uleb128 0x3f
 1589 00fb 19       		.uleb128 0x19
 1590 00fc 03       		.uleb128 0x3
 1591 00fd 0E       		.uleb128 0xe
 1592 00fe 3A       		.uleb128 0x3a
 1593 00ff 0B       		.uleb128 0xb
 1594 0100 3B       		.uleb128 0x3b
 1595 0101 0B       		.uleb128 0xb
 1596 0102 27       		.uleb128 0x27
 1597 0103 19       		.uleb128 0x19
 1598 0104 11       		.uleb128 0x11
 1599 0105 01       		.uleb128 0x1
 1600 0106 12       		.uleb128 0x12
 1601 0107 06       		.uleb128 0x6
 1602 0108 40       		.uleb128 0x40
 1603 0109 18       		.uleb128 0x18
 1604 010a 9742     		.uleb128 0x2117
 1605 010c 19       		.uleb128 0x19
 1606 010d 01       		.uleb128 0x1
 1607 010e 13       		.uleb128 0x13
 1608 010f 00       		.byte	0
 1609 0110 00       		.byte	0
 1610 0111 17       		.uleb128 0x17
 1611 0112 898201   		.uleb128 0x4109
 1612 0115 00       		.byte	0
 1613 0116 11       		.uleb128 0x11
 1614 0117 01       		.uleb128 0x1
 1615 0118 9542     		.uleb128 0x2115
 1616 011a 19       		.uleb128 0x19
 1617 011b 31       		.uleb128 0x31
 1618 011c 13       		.uleb128 0x13
 1619 011d 00       		.byte	0
 1620 011e 00       		.byte	0
ARM GAS  /tmp/ccOMRzvQ.s 			page 30


 1621 011f 18       		.uleb128 0x18
 1622 0120 05       		.uleb128 0x5
 1623 0121 00       		.byte	0
 1624 0122 03       		.uleb128 0x3
 1625 0123 0E       		.uleb128 0xe
 1626 0124 3A       		.uleb128 0x3a
 1627 0125 0B       		.uleb128 0xb
 1628 0126 3B       		.uleb128 0x3b
 1629 0127 0B       		.uleb128 0xb
 1630 0128 49       		.uleb128 0x49
 1631 0129 13       		.uleb128 0x13
 1632 012a 02       		.uleb128 0x2
 1633 012b 18       		.uleb128 0x18
 1634 012c 00       		.byte	0
 1635 012d 00       		.byte	0
 1636 012e 19       		.uleb128 0x19
 1637 012f 05       		.uleb128 0x5
 1638 0130 00       		.byte	0
 1639 0131 03       		.uleb128 0x3
 1640 0132 0E       		.uleb128 0xe
 1641 0133 3A       		.uleb128 0x3a
 1642 0134 0B       		.uleb128 0xb
 1643 0135 3B       		.uleb128 0x3b
 1644 0136 0B       		.uleb128 0xb
 1645 0137 49       		.uleb128 0x49
 1646 0138 13       		.uleb128 0x13
 1647 0139 02       		.uleb128 0x2
 1648 013a 17       		.uleb128 0x17
 1649 013b 00       		.byte	0
 1650 013c 00       		.byte	0
 1651 013d 1A       		.uleb128 0x1a
 1652 013e 0B       		.uleb128 0xb
 1653 013f 01       		.byte	0x1
 1654 0140 11       		.uleb128 0x11
 1655 0141 01       		.uleb128 0x1
 1656 0142 12       		.uleb128 0x12
 1657 0143 06       		.uleb128 0x6
 1658 0144 01       		.uleb128 0x1
 1659 0145 13       		.uleb128 0x13
 1660 0146 00       		.byte	0
 1661 0147 00       		.byte	0
 1662 0148 1B       		.uleb128 0x1b
 1663 0149 34       		.uleb128 0x34
 1664 014a 00       		.byte	0
 1665 014b 03       		.uleb128 0x3
 1666 014c 08       		.uleb128 0x8
 1667 014d 3A       		.uleb128 0x3a
 1668 014e 0B       		.uleb128 0xb
 1669 014f 3B       		.uleb128 0x3b
 1670 0150 0B       		.uleb128 0xb
 1671 0151 49       		.uleb128 0x49
 1672 0152 13       		.uleb128 0x13
 1673 0153 02       		.uleb128 0x2
 1674 0154 18       		.uleb128 0x18
 1675 0155 00       		.byte	0
 1676 0156 00       		.byte	0
 1677 0157 1C       		.uleb128 0x1c
ARM GAS  /tmp/ccOMRzvQ.s 			page 31


 1678 0158 898201   		.uleb128 0x4109
 1679 015b 00       		.byte	0
 1680 015c 11       		.uleb128 0x11
 1681 015d 01       		.uleb128 0x1
 1682 015e 31       		.uleb128 0x31
 1683 015f 13       		.uleb128 0x13
 1684 0160 00       		.byte	0
 1685 0161 00       		.byte	0
 1686 0162 1D       		.uleb128 0x1d
 1687 0163 898201   		.uleb128 0x4109
 1688 0166 01       		.byte	0x1
 1689 0167 11       		.uleb128 0x11
 1690 0168 01       		.uleb128 0x1
 1691 0169 31       		.uleb128 0x31
 1692 016a 13       		.uleb128 0x13
 1693 016b 01       		.uleb128 0x1
 1694 016c 13       		.uleb128 0x13
 1695 016d 00       		.byte	0
 1696 016e 00       		.byte	0
 1697 016f 1E       		.uleb128 0x1e
 1698 0170 8A8201   		.uleb128 0x410a
 1699 0173 00       		.byte	0
 1700 0174 02       		.uleb128 0x2
 1701 0175 18       		.uleb128 0x18
 1702 0176 9142     		.uleb128 0x2111
 1703 0178 18       		.uleb128 0x18
 1704 0179 00       		.byte	0
 1705 017a 00       		.byte	0
 1706 017b 1F       		.uleb128 0x1f
 1707 017c 898201   		.uleb128 0x4109
 1708 017f 01       		.byte	0x1
 1709 0180 11       		.uleb128 0x11
 1710 0181 01       		.uleb128 0x1
 1711 0182 31       		.uleb128 0x31
 1712 0183 13       		.uleb128 0x13
 1713 0184 00       		.byte	0
 1714 0185 00       		.byte	0
 1715 0186 20       		.uleb128 0x20
 1716 0187 34       		.uleb128 0x34
 1717 0188 00       		.byte	0
 1718 0189 03       		.uleb128 0x3
 1719 018a 0E       		.uleb128 0xe
 1720 018b 3A       		.uleb128 0x3a
 1721 018c 0B       		.uleb128 0xb
 1722 018d 3B       		.uleb128 0x3b
 1723 018e 05       		.uleb128 0x5
 1724 018f 49       		.uleb128 0x49
 1725 0190 13       		.uleb128 0x13
 1726 0191 3F       		.uleb128 0x3f
 1727 0192 19       		.uleb128 0x19
 1728 0193 3C       		.uleb128 0x3c
 1729 0194 19       		.uleb128 0x19
 1730 0195 00       		.byte	0
 1731 0196 00       		.byte	0
 1732 0197 21       		.uleb128 0x21
 1733 0198 2E       		.uleb128 0x2e
 1734 0199 00       		.byte	0
ARM GAS  /tmp/ccOMRzvQ.s 			page 32


 1735 019a 3F       		.uleb128 0x3f
 1736 019b 19       		.uleb128 0x19
 1737 019c 03       		.uleb128 0x3
 1738 019d 0E       		.uleb128 0xe
 1739 019e 3A       		.uleb128 0x3a
 1740 019f 0B       		.uleb128 0xb
 1741 01a0 3B       		.uleb128 0x3b
 1742 01a1 05       		.uleb128 0x5
 1743 01a2 27       		.uleb128 0x27
 1744 01a3 19       		.uleb128 0x19
 1745 01a4 3C       		.uleb128 0x3c
 1746 01a5 19       		.uleb128 0x19
 1747 01a6 00       		.byte	0
 1748 01a7 00       		.byte	0
 1749 01a8 22       		.uleb128 0x22
 1750 01a9 2E       		.uleb128 0x2e
 1751 01aa 00       		.byte	0
 1752 01ab 3F       		.uleb128 0x3f
 1753 01ac 19       		.uleb128 0x19
 1754 01ad 03       		.uleb128 0x3
 1755 01ae 0E       		.uleb128 0xe
 1756 01af 3A       		.uleb128 0x3a
 1757 01b0 0B       		.uleb128 0xb
 1758 01b1 3B       		.uleb128 0x3b
 1759 01b2 0B       		.uleb128 0xb
 1760 01b3 27       		.uleb128 0x27
 1761 01b4 19       		.uleb128 0x19
 1762 01b5 3C       		.uleb128 0x3c
 1763 01b6 19       		.uleb128 0x19
 1764 01b7 00       		.byte	0
 1765 01b8 00       		.byte	0
 1766 01b9 23       		.uleb128 0x23
 1767 01ba 2E       		.uleb128 0x2e
 1768 01bb 01       		.byte	0x1
 1769 01bc 3F       		.uleb128 0x3f
 1770 01bd 19       		.uleb128 0x19
 1771 01be 03       		.uleb128 0x3
 1772 01bf 0E       		.uleb128 0xe
 1773 01c0 3A       		.uleb128 0x3a
 1774 01c1 0B       		.uleb128 0xb
 1775 01c2 3B       		.uleb128 0x3b
 1776 01c3 0B       		.uleb128 0xb
 1777 01c4 27       		.uleb128 0x27
 1778 01c5 19       		.uleb128 0x19
 1779 01c6 3C       		.uleb128 0x3c
 1780 01c7 19       		.uleb128 0x19
 1781 01c8 01       		.uleb128 0x1
 1782 01c9 13       		.uleb128 0x13
 1783 01ca 00       		.byte	0
 1784 01cb 00       		.byte	0
 1785 01cc 24       		.uleb128 0x24
 1786 01cd 2E       		.uleb128 0x2e
 1787 01ce 01       		.byte	0x1
 1788 01cf 3F       		.uleb128 0x3f
 1789 01d0 19       		.uleb128 0x19
 1790 01d1 03       		.uleb128 0x3
 1791 01d2 0E       		.uleb128 0xe
ARM GAS  /tmp/ccOMRzvQ.s 			page 33


 1792 01d3 3A       		.uleb128 0x3a
 1793 01d4 0B       		.uleb128 0xb
 1794 01d5 3B       		.uleb128 0x3b
 1795 01d6 05       		.uleb128 0x5
 1796 01d7 27       		.uleb128 0x27
 1797 01d8 19       		.uleb128 0x19
 1798 01d9 3C       		.uleb128 0x3c
 1799 01da 19       		.uleb128 0x19
 1800 01db 01       		.uleb128 0x1
 1801 01dc 13       		.uleb128 0x13
 1802 01dd 00       		.byte	0
 1803 01de 00       		.byte	0
 1804 01df 25       		.uleb128 0x25
 1805 01e0 2E       		.uleb128 0x2e
 1806 01e1 01       		.byte	0x1
 1807 01e2 3F       		.uleb128 0x3f
 1808 01e3 19       		.uleb128 0x19
 1809 01e4 03       		.uleb128 0x3
 1810 01e5 0E       		.uleb128 0xe
 1811 01e6 3A       		.uleb128 0x3a
 1812 01e7 0B       		.uleb128 0xb
 1813 01e8 3B       		.uleb128 0x3b
 1814 01e9 05       		.uleb128 0x5
 1815 01ea 27       		.uleb128 0x27
 1816 01eb 19       		.uleb128 0x19
 1817 01ec 3C       		.uleb128 0x3c
 1818 01ed 19       		.uleb128 0x19
 1819 01ee 00       		.byte	0
 1820 01ef 00       		.byte	0
 1821 01f0 00       		.byte	0
 1822              		.section	.debug_loc,"",%progbits
 1823              	.Ldebug_loc0:
 1824              	.LLST0:
 1825 0000 00000000 		.4byte	.LVL2
 1826 0004 0A000000 		.4byte	.LVL3
 1827 0008 0100     		.2byte	0x1
 1828 000a 50       		.byte	0x50
 1829 000b 0A000000 		.4byte	.LVL3
 1830 000f 3A000000 		.4byte	.LVL8
 1831 0013 0100     		.2byte	0x1
 1832 0015 54       		.byte	0x54
 1833 0016 3A000000 		.4byte	.LVL8
 1834 001a 3C000000 		.4byte	.LVL9
 1835 001e 0100     		.2byte	0x1
 1836 0020 50       		.byte	0x50
 1837 0021 3C000000 		.4byte	.LVL9
 1838 0025 4C000000 		.4byte	.LFE120
 1839 0029 0100     		.2byte	0x1
 1840 002b 54       		.byte	0x54
 1841 002c 00000000 		.4byte	0
 1842 0030 00000000 		.4byte	0
 1843              	.LLST1:
 1844 0034 00000000 		.4byte	.LVL2
 1845 0038 0A000000 		.4byte	.LVL3
 1846 003c 0100     		.2byte	0x1
 1847 003e 51       		.byte	0x51
 1848 003f 0A000000 		.4byte	.LVL3
ARM GAS  /tmp/ccOMRzvQ.s 			page 34


 1849 0043 3A000000 		.4byte	.LVL8
 1850 0047 0100     		.2byte	0x1
 1851 0049 55       		.byte	0x55
 1852 004a 3A000000 		.4byte	.LVL8
 1853 004e 3F000000 		.4byte	.LVL10-1
 1854 0052 0100     		.2byte	0x1
 1855 0054 51       		.byte	0x51
 1856 0055 3F000000 		.4byte	.LVL10-1
 1857 0059 4C000000 		.4byte	.LFE120
 1858 005d 0100     		.2byte	0x1
 1859 005f 55       		.byte	0x55
 1860 0060 00000000 		.4byte	0
 1861 0064 00000000 		.4byte	0
 1862              	.LLST2:
 1863 0068 00000000 		.4byte	.LVL11
 1864 006c 06000000 		.4byte	.LVL12
 1865 0070 0100     		.2byte	0x1
 1866 0072 50       		.byte	0x50
 1867 0073 06000000 		.4byte	.LVL12
 1868 0077 34000000 		.4byte	.LVL17
 1869 007b 0100     		.2byte	0x1
 1870 007d 54       		.byte	0x54
 1871 007e 34000000 		.4byte	.LVL17
 1872 0082 36000000 		.4byte	.LVL18
 1873 0086 0100     		.2byte	0x1
 1874 0088 50       		.byte	0x50
 1875 0089 36000000 		.4byte	.LVL18
 1876 008d 44000000 		.4byte	.LFE121
 1877 0091 0100     		.2byte	0x1
 1878 0093 54       		.byte	0x54
 1879 0094 00000000 		.4byte	0
 1880 0098 00000000 		.4byte	0
 1881              	.LLST3:
 1882 009c 00000000 		.4byte	.LVL20
 1883 00a0 06000000 		.4byte	.LVL21
 1884 00a4 0100     		.2byte	0x1
 1885 00a6 50       		.byte	0x50
 1886 00a7 06000000 		.4byte	.LVL21
 1887 00ab 32000000 		.4byte	.LVL26
 1888 00af 0100     		.2byte	0x1
 1889 00b1 54       		.byte	0x54
 1890 00b2 32000000 		.4byte	.LVL26
 1891 00b6 34000000 		.4byte	.LVL27
 1892 00ba 0100     		.2byte	0x1
 1893 00bc 50       		.byte	0x50
 1894 00bd 34000000 		.4byte	.LVL27
 1895 00c1 44000000 		.4byte	.LFE122
 1896 00c5 0100     		.2byte	0x1
 1897 00c7 54       		.byte	0x54
 1898 00c8 00000000 		.4byte	0
 1899 00cc 00000000 		.4byte	0
 1900              	.LLST4:
 1901 00d0 00000000 		.4byte	.LVL29
 1902 00d4 06000000 		.4byte	.LVL30
 1903 00d8 0100     		.2byte	0x1
 1904 00da 50       		.byte	0x50
 1905 00db 06000000 		.4byte	.LVL30
ARM GAS  /tmp/ccOMRzvQ.s 			page 35


 1906 00df 34000000 		.4byte	.LVL35
 1907 00e3 0100     		.2byte	0x1
 1908 00e5 54       		.byte	0x54
 1909 00e6 34000000 		.4byte	.LVL35
 1910 00ea 36000000 		.4byte	.LVL36
 1911 00ee 0100     		.2byte	0x1
 1912 00f0 50       		.byte	0x50
 1913 00f1 36000000 		.4byte	.LVL36
 1914 00f5 44000000 		.4byte	.LFE123
 1915 00f9 0100     		.2byte	0x1
 1916 00fb 54       		.byte	0x54
 1917 00fc 00000000 		.4byte	0
 1918 0100 00000000 		.4byte	0
 1919              		.section	.debug_aranges,"",%progbits
 1920 0000 44000000 		.4byte	0x44
 1921 0004 0200     		.2byte	0x2
 1922 0006 00000000 		.4byte	.Ldebug_info0
 1923 000a 04       		.byte	0x4
 1924 000b 00       		.byte	0
 1925 000c 0000     		.2byte	0
 1926 000e 0000     		.2byte	0
 1927 0010 00000000 		.4byte	.LFB118
 1928 0014 04000000 		.4byte	.LFE118-.LFB118
 1929 0018 00000000 		.4byte	.LFB119
 1930 001c 0A000000 		.4byte	.LFE119-.LFB119
 1931 0020 00000000 		.4byte	.LFB120
 1932 0024 4C000000 		.4byte	.LFE120-.LFB120
 1933 0028 00000000 		.4byte	.LFB121
 1934 002c 44000000 		.4byte	.LFE121-.LFB121
 1935 0030 00000000 		.4byte	.LFB122
 1936 0034 44000000 		.4byte	.LFE122-.LFB122
 1937 0038 00000000 		.4byte	.LFB123
 1938 003c 44000000 		.4byte	.LFE123-.LFB123
 1939 0040 00000000 		.4byte	0
 1940 0044 00000000 		.4byte	0
 1941              		.section	.debug_ranges,"",%progbits
 1942              	.Ldebug_ranges0:
 1943 0000 00000000 		.4byte	.LFB118
 1944 0004 04000000 		.4byte	.LFE118
 1945 0008 00000000 		.4byte	.LFB119
 1946 000c 0A000000 		.4byte	.LFE119
 1947 0010 00000000 		.4byte	.LFB120
 1948 0014 4C000000 		.4byte	.LFE120
 1949 0018 00000000 		.4byte	.LFB121
 1950 001c 44000000 		.4byte	.LFE121
 1951 0020 00000000 		.4byte	.LFB122
 1952 0024 44000000 		.4byte	.LFE122
 1953 0028 00000000 		.4byte	.LFB123
 1954 002c 44000000 		.4byte	.LFE123
 1955 0030 00000000 		.4byte	0
 1956 0034 00000000 		.4byte	0
 1957              		.section	.debug_line,"",%progbits
 1958              	.Ldebug_line0:
 1959 0000 11020000 		.section	.debug_str,"MS",%progbits,1
 1959      02004C01 
 1959      00000201 
 1959      FB0E0D00 
ARM GAS  /tmp/ccOMRzvQ.s 			page 36


 1959      01010101 
 1960              	.LASF73:
 1961 0000 69637553 		.ascii	"icuStop\000"
 1961      746F7000 
 1962              	.LASF81:
 1963 0008 6963755F 		.ascii	"icu_lld_stop\000"
 1963      6C6C645F 
 1963      73746F70 
 1963      00
 1964              	.LASF30:
 1965 0015 43434552 		.ascii	"CCER\000"
 1965      00
 1966              	.LASF42:
 1967 001a 4943555F 		.ascii	"ICU_STOP\000"
 1967      53544F50 
 1967      00
 1968              	.LASF61:
 1969 0023 69637563 		.ascii	"icuchannel_t\000"
 1969      68616E6E 
 1969      656C5F74 
 1969      00
 1970              	.LASF79:
 1971 0030 6963755F 		.ascii	"icu_lld_start\000"
 1971      6C6C645F 
 1971      73746172 
 1971      7400
 1972              	.LASF37:
 1973 003e 444D4152 		.ascii	"DMAR\000"
 1973      00
 1974              	.LASF49:
 1975 0043 73746174 		.ascii	"state\000"
 1975      6500
 1976              	.LASF28:
 1977 0049 43434D52 		.ascii	"CCMR2\000"
 1977      3200
 1978              	.LASF3:
 1979 004f 73686F72 		.ascii	"short int\000"
 1979      7420696E 
 1979      7400
 1980              	.LASF72:
 1981 0059 69637570 		.ascii	"icup\000"
 1981      00
 1982              	.LASF16:
 1983 005e 73697A65 		.ascii	"sizetype\000"
 1983      74797065 
 1983      00
 1984              	.LASF82:
 1985 0067 6963755F 		.ascii	"icu_lld_enable\000"
 1985      6C6C645F 
 1985      656E6162 
 1985      6C6500
 1986              	.LASF8:
 1987 0076 5F5F7569 		.ascii	"__uint32_t\000"
 1987      6E743332 
 1987      5F7400
 1988              	.LASF62:
 1989 0081 6D6F6465 		.ascii	"mode\000"
ARM GAS  /tmp/ccOMRzvQ.s 			page 37


 1989      00
 1990              	.LASF5:
 1991 0086 5F5F7569 		.ascii	"__uint16_t\000"
 1991      6E743136 
 1991      5F7400
 1992              	.LASF87:
 1993 0091 6963755F 		.ascii	"icu_lld_disable\000"
 1993      6C6C645F 
 1993      64697361 
 1993      626C6500 
 1994              	.LASF50:
 1995 00a1 636F6E66 		.ascii	"config\000"
 1995      696700
 1996              	.LASF84:
 1997 00a8 2E2E2F2E 		.ascii	"../../../../os/hal/src/icu.c\000"
 1997      2E2F2E2E 
 1997      2F2E2E2F 
 1997      6F732F68 
 1997      616C2F73 
 1998              	.LASF18:
 1999 00c5 5F726573 		.ascii	"_resvd0\000"
 1999      76643000 
 2000              	.LASF19:
 2001 00cd 5F726573 		.ascii	"_resvd1\000"
 2001      76643100 
 2002              	.LASF35:
 2003 00d5 5F726573 		.ascii	"_resvd11\000"
 2003      76643131 
 2003      00
 2004              	.LASF23:
 2005 00de 5F726573 		.ascii	"_resvd3\000"
 2005      76643300 
 2006              	.LASF24:
 2007 00e6 5F726573 		.ascii	"_resvd4\000"
 2007      76643400 
 2008              	.LASF25:
 2009 00ee 5F726573 		.ascii	"_resvd5\000"
 2009      76643500 
 2010              	.LASF27:
 2011 00f6 5F726573 		.ascii	"_resvd6\000"
 2011      76643600 
 2012              	.LASF29:
 2013 00fe 5F726573 		.ascii	"_resvd7\000"
 2013      76643700 
 2014              	.LASF59:
 2015 0106 4943555F 		.ascii	"ICU_CHANNEL_1\000"
 2015      4348414E 
 2015      4E454C5F 
 2015      3100
 2016              	.LASF60:
 2017 0114 4943555F 		.ascii	"ICU_CHANNEL_2\000"
 2017      4348414E 
 2017      4E454C5F 
 2017      3200
 2018              	.LASF41:
 2019 0122 4943555F 		.ascii	"ICU_UNINIT\000"
 2019      554E494E 
ARM GAS  /tmp/ccOMRzvQ.s 			page 38


 2019      495400
 2020              	.LASF69:
 2021 012d 69637549 		.ascii	"icuInit\000"
 2021      6E697400 
 2022              	.LASF64:
 2023 0135 77696474 		.ascii	"width_cb\000"
 2023      685F6362 
 2023      00
 2024              	.LASF45:
 2025 013e 4943555F 		.ascii	"ICU_ACTIVE\000"
 2025      41435449 
 2025      564500
 2026              	.LASF10:
 2027 0149 6C6F6E67 		.ascii	"long long int\000"
 2027      206C6F6E 
 2027      6720696E 
 2027      7400
 2028              	.LASF11:
 2029 0157 6C6F6E67 		.ascii	"long long unsigned int\000"
 2029      206C6F6E 
 2029      6720756E 
 2029      7369676E 
 2029      65642069 
 2030              	.LASF57:
 2031 016e 6963756D 		.ascii	"icumode_t\000"
 2031      6F64655F 
 2031      7400
 2032              	.LASF52:
 2033 0178 77636372 		.ascii	"wccrp\000"
 2033      7000
 2034              	.LASF7:
 2035 017e 6C6F6E67 		.ascii	"long int\000"
 2035      20696E74 
 2035      00
 2036              	.LASF53:
 2037 0187 70636372 		.ascii	"pccrp\000"
 2037      7000
 2038              	.LASF26:
 2039 018d 43434D52 		.ascii	"CCMR1\000"
 2039      3100
 2040              	.LASF78:
 2041 0193 63684462 		.ascii	"chDbgPanic\000"
 2041      6750616E 
 2041      696300
 2042              	.LASF46:
 2043 019e 4943555F 		.ascii	"ICU_IDLE\000"
 2043      49444C45 
 2043      00
 2044              	.LASF20:
 2045 01a7 534D4352 		.ascii	"SMCR\000"
 2045      00
 2046              	.LASF2:
 2047 01ac 756E7369 		.ascii	"unsigned char\000"
 2047      676E6564 
 2047      20636861 
 2047      7200
 2048              	.LASF68:
ARM GAS  /tmp/ccOMRzvQ.s 			page 39


 2049 01ba 49435543 		.ascii	"ICUConfig\000"
 2049      6F6E6669 
 2049      6700
 2050              	.LASF83:
 2051 01c4 474E5520 		.ascii	"GNU C 4.8.3 -mcpu=cortex-m4 -mfloat-abi=softfp -mfp"
 2051      4320342E 
 2051      382E3320 
 2051      2D6D6370 
 2051      753D636F 
 2052 01f7 753D6670 		.ascii	"u=fpv4-sp-d16 -mno-thumb-interwork -mthumb -ggdb -O"
 2052      76342D73 
 2052      702D6431 
 2052      36202D6D 
 2052      6E6F2D74 
 2053 022a 32202D66 		.ascii	"2 -fomit-frame-pointer -falign-functions=16 -fsingl"
 2053      6F6D6974 
 2053      2D667261 
 2053      6D652D70 
 2053      6F696E74 
 2054 025d 652D7072 		.ascii	"e-precision-constant -ffunction-sections -fdata-sec"
 2054      65636973 
 2054      696F6E2D 
 2054      636F6E73 
 2054      74616E74 
 2055 0290 74696F6E 		.ascii	"tions -fno-common\000"
 2055      73202D66 
 2055      6E6F2D63 
 2055      6F6D6D6F 
 2055      6E00
 2056              	.LASF80:
 2057 02a2 6462675F 		.ascii	"dbg_check_unlock\000"
 2057      63686563 
 2057      6B5F756E 
 2057      6C6F636B 
 2057      00
 2058              	.LASF71:
 2059 02b3 69637553 		.ascii	"icuStart\000"
 2059      74617274 
 2059      00
 2060              	.LASF74:
 2061 02bc 69637545 		.ascii	"icuEnable\000"
 2061      6E61626C 
 2061      6500
 2062              	.LASF1:
 2063 02c6 7369676E 		.ascii	"signed char\000"
 2063      65642063 
 2063      68617200 
 2064              	.LASF77:
 2065 02d2 6462675F 		.ascii	"dbg_check_lock\000"
 2065      63686563 
 2065      6B5F6C6F 
 2065      636B00
 2066              	.LASF76:
 2067 02e1 6963755F 		.ascii	"icu_lld_init\000"
 2067      6C6C645F 
 2067      696E6974 
 2067      00
ARM GAS  /tmp/ccOMRzvQ.s 			page 40


 2068              	.LASF14:
 2069 02ee 75696E74 		.ascii	"uint32_t\000"
 2069      33325F74 
 2069      00
 2070              	.LASF0:
 2071 02f7 756E7369 		.ascii	"unsigned int\000"
 2071      676E6564 
 2071      20696E74 
 2071      00
 2072              	.LASF12:
 2073 0304 75696E74 		.ascii	"uint16_t\000"
 2073      31365F74 
 2073      00
 2074              	.LASF44:
 2075 030d 4943555F 		.ascii	"ICU_WAITING\000"
 2075      57414954 
 2075      494E4700 
 2076              	.LASF22:
 2077 0319 44494552 		.ascii	"DIER\000"
 2077      00
 2078              	.LASF58:
 2079 031e 69637566 		.ascii	"icufreq_t\000"
 2079      7265715F 
 2079      7400
 2080              	.LASF15:
 2081 0328 5F426F6F 		.ascii	"_Bool\000"
 2081      6C00
 2082              	.LASF38:
 2083 032e 5F726573 		.ascii	"_resvd13\000"
 2083      76643133 
 2083      00
 2084              	.LASF39:
 2085 0337 5F726573 		.ascii	"_resvd14\000"
 2085      76643134 
 2085      00
 2086              	.LASF4:
 2087 0340 73686F72 		.ascii	"short unsigned int\000"
 2087      7420756E 
 2087      7369676E 
 2087      65642069 
 2087      6E7400
 2088              	.LASF17:
 2089 0353 63686172 		.ascii	"char\000"
 2089      00
 2090              	.LASF54:
 2091 0358 69637563 		.ascii	"icucallback_t\000"
 2091      616C6C62 
 2091      61636B5F 
 2091      7400
 2092              	.LASF40:
 2093 0366 73746D33 		.ascii	"stm32_tim_t\000"
 2093      325F7469 
 2093      6D5F7400 
 2094              	.LASF65:
 2095 0372 70657269 		.ascii	"period_cb\000"
 2095      6F645F63 
 2095      6200
ARM GAS  /tmp/ccOMRzvQ.s 			page 41


 2096              	.LASF34:
 2097 037c 42445452 		.ascii	"BDTR\000"
 2097      00
 2098              	.LASF13:
 2099 0381 696E7433 		.ascii	"int32_t\000"
 2099      325F7400 
 2100              	.LASF56:
 2101 0389 4943555F 		.ascii	"ICU_INPUT_ACTIVE_LOW\000"
 2101      494E5055 
 2101      545F4143 
 2101      54495645 
 2101      5F4C4F57 
 2102              	.LASF67:
 2103 039e 6368616E 		.ascii	"channel\000"
 2103      6E656C00 
 2104              	.LASF75:
 2105 03a6 69637544 		.ascii	"icuDisable\000"
 2105      69736162 
 2105      6C6500
 2106              	.LASF85:
 2107 03b1 2F686F6D 		.ascii	"/home/jordyaw/Documents/referensi/coba/ChibiOS_2.5."
 2107      652F6A6F 
 2107      72647961 
 2107      772F446F 
 2107      63756D65 
 2108 03e4 32782F74 		.ascii	"2x/testhal/STM32F30x/WSC/board joule\000"
 2108      65737468 
 2108      616C2F53 
 2108      544D3332 
 2108      46333078 
 2109              	.LASF55:
 2110 0409 4943555F 		.ascii	"ICU_INPUT_ACTIVE_HIGH\000"
 2110      494E5055 
 2110      545F4143 
 2110      54495645 
 2110      5F484947 
 2111              	.LASF31:
 2112 041f 5F726573 		.ascii	"_resvd8\000"
 2112      76643800 
 2113              	.LASF9:
 2114 0427 6C6F6E67 		.ascii	"long unsigned int\000"
 2114      20756E73 
 2114      69676E65 
 2114      6420696E 
 2114      7400
 2115              	.LASF51:
 2116 0439 636C6F63 		.ascii	"clock\000"
 2116      6B00
 2117              	.LASF33:
 2118 043f 5F726573 		.ascii	"_resvd10\000"
 2118      76643130 
 2118      00
 2119              	.LASF66:
 2120 0448 6F766572 		.ascii	"overflow_cb\000"
 2120      666C6F77 
 2120      5F636200 
 2121              	.LASF36:
ARM GAS  /tmp/ccOMRzvQ.s 			page 42


 2122 0454 5F726573 		.ascii	"_resvd12\000"
 2122      76643132 
 2122      00
 2123              	.LASF6:
 2124 045d 5F5F696E 		.ascii	"__int32_t\000"
 2124      7433325F 
 2124      7400
 2125              	.LASF48:
 2126 0467 49435544 		.ascii	"ICUDriver\000"
 2126      72697665 
 2126      7200
 2127              	.LASF63:
 2128 0471 66726571 		.ascii	"frequency\000"
 2128      75656E63 
 2128      7900
 2129              	.LASF43:
 2130 047b 4943555F 		.ascii	"ICU_READY\000"
 2130      52454144 
 2130      5900
 2131              	.LASF70:
 2132 0485 6963754F 		.ascii	"icuObjectInit\000"
 2132      626A6563 
 2132      74496E69 
 2132      7400
 2133              	.LASF86:
 2134 0493 49544D5F 		.ascii	"ITM_RxBuffer\000"
 2134      52784275 
 2134      66666572 
 2134      00
 2135              	.LASF21:
 2136 04a0 5F726573 		.ascii	"_resvd2\000"
 2136      76643200 
 2137              	.LASF47:
 2138 04a8 69637573 		.ascii	"icustate_t\000"
 2138      74617465 
 2138      5F7400
 2139              	.LASF32:
 2140 04b3 5F726573 		.ascii	"_resvd9\000"
 2140      76643900 
 2141              		.ident	"GCC: (4.8.3-18ubuntu2+12) 4.8.3"
ARM GAS  /tmp/ccOMRzvQ.s 			page 43


DEFINED SYMBOLS
                            *ABS*:0000000000000000 icu.c
     /tmp/ccOMRzvQ.s:20     .text.icuInit:0000000000000000 $t
     /tmp/ccOMRzvQ.s:26     .text.icuInit:0000000000000000 icuInit
     /tmp/ccOMRzvQ.s:41     .text.icuObjectInit:0000000000000000 $t
     /tmp/ccOMRzvQ.s:47     .text.icuObjectInit:0000000000000000 icuObjectInit
     /tmp/ccOMRzvQ.s:68     .text.icuStart:0000000000000000 $t
     /tmp/ccOMRzvQ.s:74     .text.icuStart:0000000000000000 icuStart
     /tmp/ccOMRzvQ.s:149    .text.icuStart:0000000000000044 $d
     /tmp/ccOMRzvQ.s:155    .text.icuStop:0000000000000000 $t
     /tmp/ccOMRzvQ.s:161    .text.icuStop:0000000000000000 icuStop
     /tmp/ccOMRzvQ.s:226    .text.icuStop:000000000000003c $d
     /tmp/ccOMRzvQ.s:232    .text.icuEnable:0000000000000000 $t
     /tmp/ccOMRzvQ.s:238    .text.icuEnable:0000000000000000 icuEnable
     /tmp/ccOMRzvQ.s:302    .text.icuEnable:000000000000003c $d
     /tmp/ccOMRzvQ.s:308    .text.icuDisable:0000000000000000 $t
     /tmp/ccOMRzvQ.s:314    .text.icuDisable:0000000000000000 icuDisable
     /tmp/ccOMRzvQ.s:379    .text.icuDisable:000000000000003c $d
     /tmp/ccOMRzvQ.s:385    .rodata.str1.4:0000000000000000 $d
                     .debug_frame:0000000000000010 $d
     /tmp/ccOMRzvQ.s:154    .text.icuStart:000000000000004c $t
     /tmp/ccOMRzvQ.s:231    .text.icuStop:0000000000000044 $t
     /tmp/ccOMRzvQ.s:307    .text.icuEnable:0000000000000044 $t
     /tmp/ccOMRzvQ.s:384    .text.icuDisable:0000000000000044 $t

UNDEFINED SYMBOLS
icu_lld_init
dbg_check_lock
chDbgPanic
icu_lld_start
dbg_check_unlock
icu_lld_stop
icu_lld_enable
icu_lld_disable
