ARM GAS  /tmp/cc63uIkj.s 			page 1


   1              		.syntax unified
   2              		.cpu cortex-m4
   3              		.eabi_attribute 27, 3
   4              		.fpu fpv4-sp-d16
   5              		.eabi_attribute 20, 1
   6              		.eabi_attribute 21, 1
   7              		.eabi_attribute 23, 3
   8              		.eabi_attribute 24, 1
   9              		.eabi_attribute 25, 1
  10              		.eabi_attribute 26, 1
  11              		.eabi_attribute 30, 2
  12              		.eabi_attribute 34, 1
  13              		.eabi_attribute 18, 4
  14              		.thumb
  15              		.file	"my_kirim.c"
  16              		.text
  17              	.Ltext0:
  18              		.cfi_sections	.debug_frame
  19              		.section	.text.kirim_setup,"ax",%progbits
  20              		.align	2
  21              		.p2align 4,,15
  22              		.global	kirim_setup
  23              		.thumb
  24              		.thumb_func
  25              		.type	kirim_setup, %function
  26              	kirim_setup:
  27              	.LFB119:
  28              		.file 1 "my_kirim.c"
  29              		.loc 1 42 0
  30              		.cfi_startproc
  31              		@ args = 0, pretend = 0, frame = 0
  32              		@ frame_needed = 0, uses_anonymous_args = 0
  33 0000 10B5     		push	{r4, lr}
  34              		.cfi_def_cfa_offset 8
  35              		.cfi_offset 4, -8
  36              		.cfi_offset 14, -4
  37              		.loc 1 45 0
  38 0002 1C4C     		ldr	r4, .L2
  39              		.loc 1 44 0
  40 0004 1C48     		ldr	r0, .L2+4
  41 0006 0021     		movs	r1, #0
  42 0008 FFF7FEFF 		bl	sdStart
  43              	.LVL0:
  44              		.loc 1 45 0
  45 000c 2046     		mov	r0, r4
  46 000e 0821     		movs	r1, #8
  47 0010 40F28232 		movw	r2, #898
  48 0014 FFF7FEFF 		bl	_pal_lld_setgroupmode
  49              	.LVL1:
  50              		.loc 1 46 0
  51 0018 2046     		mov	r0, r4
  52 001a 40F28232 		movw	r2, #898
  53 001e 1021     		movs	r1, #16
  54 0020 FFF7FEFF 		bl	_pal_lld_setgroupmode
  55              	.LVL2:
  56              		.loc 1 48 0
  57 0024 1548     		ldr	r0, .L2+8
ARM GAS  /tmp/cc63uIkj.s 			page 2


  58 0026 0021     		movs	r1, #0
  59 0028 FFF7FEFF 		bl	sdStart
  60              	.LVL3:
  61              		.loc 1 49 0
  62 002c 4FF09040 		mov	r0, #1207959552
  63 0030 4FF40071 		mov	r1, #512
  64 0034 40F28232 		movw	r2, #898
  65 0038 FFF7FEFF 		bl	_pal_lld_setgroupmode
  66              	.LVL4:
  67              		.loc 1 50 0
  68 003c 40F28232 		movw	r2, #898
  69 0040 4FF09040 		mov	r0, #1207959552
  70 0044 4FF48061 		mov	r1, #1024
  71 0048 FFF7FEFF 		bl	_pal_lld_setgroupmode
  72              	.LVL5:
  73              		.loc 1 52 0
  74 004c 0C48     		ldr	r0, .L2+12
  75 004e 0021     		movs	r1, #0
  76 0050 FFF7FEFF 		bl	sdStart
  77              	.LVL6:
  78              		.loc 1 53 0
  79 0054 2046     		mov	r0, r4
  80 0056 4FF48061 		mov	r1, #1024
  81 005a 40F28232 		movw	r2, #898
  82 005e FFF7FEFF 		bl	_pal_lld_setgroupmode
  83              	.LVL7:
  84              		.loc 1 54 0
  85 0062 0848     		ldr	r0, .L2+16
  86 0064 4FF40041 		mov	r1, #32768
  87 0068 40F28232 		movw	r2, #898
  88              		.loc 1 55 0
  89 006c BDE81040 		pop	{r4, lr}
  90              		.loc 1 54 0
  91 0070 FFF7FEBF 		b	_pal_lld_setgroupmode
  92              	.LVL8:
  93              	.L3:
  94              		.align	2
  95              	.L2:
  96 0074 00040048 		.word	1207960576
  97 0078 00000000 		.word	SD2
  98 007c 00000000 		.word	SD1
  99 0080 00000000 		.word	SD3
 100 0084 00100048 		.word	1207963648
 101              		.cfi_endproc
 102              	.LFE119:
 103              		.size	kirim_setup, .-kirim_setup
 104 0088 AFF30080 		.section	.text.kirim_data_usart1,"ax",%progbits
 104      AFF30080 
 105              		.align	2
 106              		.p2align 4,,15
 107              		.global	kirim_data_usart1
 108              		.thumb
 109              		.thumb_func
 110              		.type	kirim_data_usart1, %function
 111              	kirim_data_usart1:
 112              	.LFB120:
 113              		.loc 1 59 0
ARM GAS  /tmp/cc63uIkj.s 			page 3


 114              		.cfi_startproc
 115              		@ args = 0, pretend = 0, frame = 0
 116              		@ frame_needed = 0, uses_anonymous_args = 0
 117 0000 08B5     		push	{r3, lr}
 118              		.cfi_def_cfa_offset 8
 119              		.cfi_offset 3, -8
 120              		.cfi_offset 14, -4
 121              		.loc 1 60 0
 122 0002 FFF7FEFF 		bl	voltage_sensor
 123              	.LVL9:
 124              		.loc 1 64 0
 125 0006 BDE80840 		pop	{r3, lr}
 126              		.loc 1 61 0
 127 000a FFF7FEBF 		b	current_sensor
 128              	.LVL10:
 129              		.cfi_endproc
 130              	.LFE120:
 131              		.size	kirim_data_usart1, .-kirim_data_usart1
 132 000e 00BF     		.text
 133              	.Letext0:
 134              		.file 2 "/usr/lib/gcc/arm-none-eabi/4.8/include/stddef.h"
 135              		.file 3 "/usr/include/newlib/machine/_default_types.h"
 136              		.file 4 "/usr/include/newlib/stdint.h"
 137              		.file 5 "../../../../os/ports/GCC/ARMCMx/chtypes.h"
 138              		.file 6 "../../../../os/kernel/include/chlists.h"
 139              		.file 7 "../../../../os/kernel/include/chthreads.h"
 140              		.file 8 "../../../../os/ports/GCC/ARMCMx/chcore_v7m.h"
 141              		.file 9 "../../../../os/kernel/include/chmtx.h"
 142              		.file 10 "../../../../os/kernel/include/chevents.h"
 143              		.file 11 "../../../../os/kernel/include/chqueues.h"
 144              		.file 12 "../../../../os/hal/platforms/STM32F30x/stm32f30x.h"
 145              		.file 13 "../../../../os/hal/platforms/STM32/pal_lld.h"
 146              		.file 14 "../../../../os/hal/include/serial.h"
 147              		.file 15 "../../../../os/hal/platforms/STM32/USARTv2/serial_lld.h"
 148              		.file 16 "my_process.h"
 149              		.file 17 "../../../../os/ports/common/ARMCMx/CMSIS/include/core_cm4.h"