ARM GAS  /tmp/cc4ggePn.s 			page 1


   1              		.syntax unified
   2              		.cpu cortex-m4
   3              		.eabi_attribute 27, 3
   4              		.fpu fpv4-sp-d16
   5              		.eabi_attribute 20, 1
   6              		.eabi_attribute 21, 1
   7              		.eabi_attribute 23, 3
   8              		.eabi_attribute 24, 1
   9              		.eabi_attribute 25, 1
  10              		.eabi_attribute 26, 1
  11              		.eabi_attribute 30, 2
  12              		.eabi_attribute 34, 1
  13              		.eabi_attribute 18, 4
  14              		.thumb
  15              		.file	"my_pin.c"
  16              		.text
  17              	.Ltext0:
  18              		.cfi_sections	.debug_frame
  19              		.section	.text.pininThread,"ax",%progbits
  20              		.align	2
  21              		.p2align 4,,15
  22              		.thumb
  23              		.thumb_func
  24              		.type	pininThread, %function
  25              	pininThread:
  26              	.LFB119:
  27              		.file 1 "my_pin.c"
  28              		.loc 1 7 0
  29              		.cfi_startproc
  30              		@ Volatile: function does not return.
  31              		@ args = 0, pretend = 0, frame = 0
  32              		@ frame_needed = 0, uses_anonymous_args = 0
  33              		@ link register save eliminated.
  34              	.LVL0:
  35              	.L2:
  36 0000 FEE7     		b	.L2
  37              		.cfi_endproc
  38              	.LFE119:
  39              		.size	pininThread, .-pininThread
  40 0002 00BFAFF3 		.section	.text.Pin_Setup,"ax",%progbits
  40      0080AFF3 
  40      0080AFF3 
  40      0080
  41              		.align	2
  42              		.p2align 4,,15
  43              		.global	Pin_Setup
  44              		.thumb
  45              		.thumb_func
  46              		.type	Pin_Setup, %function
  47              	Pin_Setup:
  48              	.LFB121:
  49              		.loc 1 29 0
  50              		.cfi_startproc
  51              		@ args = 0, pretend = 0, frame = 0
  52              		@ frame_needed = 0, uses_anonymous_args = 0
  53              		.loc 1 29 0
  54 0000 38B5     		push	{r3, r4, r5, lr}
ARM GAS  /tmp/cc4ggePn.s 			page 2


  55              		.cfi_def_cfa_offset 16
  56              		.cfi_offset 3, -16
  57              		.cfi_offset 4, -12
  58              		.cfi_offset 5, -8
  59              		.cfi_offset 14, -4
  60              		.loc 1 30 0
  61 0002 184C     		ldr	r4, .L4
  62              		.loc 1 32 0
  63 0004 184D     		ldr	r5, .L4+4
  64              		.loc 1 30 0
  65 0006 2046     		mov	r0, r4
  66 0008 0221     		movs	r1, #2
  67 000a 4022     		movs	r2, #64
  68 000c FFF7FEFF 		bl	_pal_lld_setgroupmode
  69              	.LVL1:
  70              		.loc 1 31 0
  71 0010 4021     		movs	r1, #64
  72 0012 2046     		mov	r0, r4
  73 0014 0A46     		mov	r2, r1
  74 0016 FFF7FEFF 		bl	_pal_lld_setgroupmode
  75              	.LVL2:
  76              		.loc 1 32 0
  77 001a 2846     		mov	r0, r5
  78 001c 4FF48071 		mov	r1, #256
  79 0020 4022     		movs	r2, #64
  80 0022 FFF7FEFF 		bl	_pal_lld_setgroupmode
  81              	.LVL3:
  82              		.loc 1 34 0
  83 0026 1148     		ldr	r0, .L4+8
  84 0028 4FF40061 		mov	r1, #2048
  85 002c 4022     		movs	r2, #64
  86 002e FFF7FEFF 		bl	_pal_lld_setgroupmode
  87              	.LVL4:
  88              		.loc 1 36 0
  89 0032 2846     		mov	r0, r5
  90 0034 0421     		movs	r1, #4
  91 0036 0122     		movs	r2, #1
  92 0038 FFF7FEFF 		bl	_pal_lld_setgroupmode
  93              	.LVL5:
  94              		.loc 1 37 0
  95 003c 2046     		mov	r0, r4
  96 003e 4FF48051 		mov	r1, #4096
  97 0042 0122     		movs	r2, #1
  98 0044 FFF7FEFF 		bl	_pal_lld_setgroupmode
  99              	.LVL6:
 100              		.loc 1 38 0
 101 0048 2046     		mov	r0, r4
 102 004a 4FF48041 		mov	r1, #16384
 103 004e 0122     		movs	r2, #1
 104 0050 FFF7FEFF 		bl	_pal_lld_setgroupmode
 105              	.LVL7:
 106              		.loc 1 39 0
 107 0054 0121     		movs	r1, #1
 108 0056 2846     		mov	r0, r5
 109 0058 0A46     		mov	r2, r1
 110              		.loc 1 41 0
 111 005a BDE83840 		pop	{r3, r4, r5, lr}
ARM GAS  /tmp/cc4ggePn.s 			page 3


 112              		.loc 1 39 0
 113 005e FFF7FEBF 		b	_pal_lld_setgroupmode
 114              	.LVL8:
 115              	.L5:
 116 0062 00BF     		.align	2
 117              	.L4:
 118 0064 00100048 		.word	1207963648
 119 0068 00040048 		.word	1207960576
 120 006c 00080048 		.word	1207961600
 121              		.cfi_endproc
 122              	.LFE121:
 123              		.size	Pin_Setup, .-Pin_Setup
 124              		.section	.text.input_output_test,"ax",%progbits
 125              		.align	2
 126              		.p2align 4,,15
 127              		.global	input_output_test
 128              		.thumb
 129              		.thumb_func
 130              		.type	input_output_test, %function
 131              	input_output_test:
 132              	.LFB122:
 133              		.loc 1 43 0
 134              		.cfi_startproc
 135              		@ args = 0, pretend = 0, frame = 0
 136              		@ frame_needed = 0, uses_anonymous_args = 0
 137 0000 2DE9F843 		push	{r3, r4, r5, r6, r7, r8, r9, lr}
 138              		.cfi_def_cfa_offset 32
 139              		.cfi_offset 3, -32
 140              		.cfi_offset 4, -28
 141              		.cfi_offset 5, -24
 142              		.cfi_offset 6, -20
 143              		.cfi_offset 7, -16
 144              		.cfi_offset 8, -12
 145              		.cfi_offset 9, -8
 146              		.cfi_offset 14, -4
 147              		.loc 1 45 0
 148 0004 0F4C     		ldr	r4, .L7
 149              		.loc 1 46 0
 150 0006 104D     		ldr	r5, .L7+4
 151              		.loc 1 45 0
 152 0008 4FF00408 		mov	r8, #4
 153              		.loc 1 46 0
 154 000c 4FF48059 		mov	r9, #4096
 155              		.loc 1 47 0
 156 0010 4FF48047 		mov	r7, #16384
 157              		.loc 1 48 0
 158 0014 0126     		movs	r6, #1
 159              		.loc 1 45 0
 160 0016 A4F81880 		strh	r8, [r4, #24]	@ movhi
 161              		.loc 1 50 0
 162 001a 4FF4FA70 		mov	r0, #500
 163              		.loc 1 46 0
 164 001e A5F81890 		strh	r9, [r5, #24]	@ movhi
 165              		.loc 1 47 0
 166 0022 2F83     		strh	r7, [r5, #24]	@ movhi
 167              		.loc 1 48 0
 168 0024 2683     		strh	r6, [r4, #24]	@ movhi
ARM GAS  /tmp/cc4ggePn.s 			page 4


 169              		.loc 1 50 0
 170 0026 FFF7FEFF 		bl	chThdSleep
 171              	.LVL9:
 172              		.loc 1 52 0
 173 002a A5F81A90 		strh	r9, [r5, #26]	@ movhi
 174              		.loc 1 53 0
 175 002e A4F81A80 		strh	r8, [r4, #26]	@ movhi
 176              		.loc 1 54 0
 177 0032 6F83     		strh	r7, [r5, #26]	@ movhi
 178              		.loc 1 55 0
 179 0034 6683     		strh	r6, [r4, #26]	@ movhi
 180              		.loc 1 57 0
 181 0036 4FF4FA70 		mov	r0, #500
 182              		.loc 1 58 0
 183 003a BDE8F843 		pop	{r3, r4, r5, r6, r7, r8, r9, lr}
 184              		.loc 1 57 0
 185 003e FFF7FEBF 		b	chThdSleep
 186              	.LVL10:
 187              	.L8:
 188 0042 00BF     		.align	2
 189              	.L7:
 190 0044 00040048 		.word	1207960576
 191 0048 00100048 		.word	1207963648
 192              		.cfi_endproc
 193              	.LFE122:
 194              		.size	input_output_test, .-input_output_test
 195 004c AFF30080 		.section	.text.riting_kiri,"ax",%progbits
 196              		.align	2
 197              		.p2align 4,,15
 198              		.global	riting_kiri
 199              		.thumb
 200              		.thumb_func
 201              		.type	riting_kiri, %function
 202              	riting_kiri:
 203              	.LFB123:
 204              		.loc 1 60 0
 205              		.cfi_startproc
 206              		@ args = 0, pretend = 0, frame = 0
 207              		@ frame_needed = 0, uses_anonymous_args = 0
 208 0000 2DE9F843 		push	{r3, r4, r5, r6, r7, r8, r9, lr}
 209              		.cfi_def_cfa_offset 32
 210              		.cfi_offset 3, -32
 211              		.cfi_offset 4, -28
 212              		.cfi_offset 5, -24
 213              		.cfi_offset 6, -20
 214              		.cfi_offset 7, -16
 215              		.cfi_offset 8, -12
 216              		.cfi_offset 9, -8
 217              		.cfi_offset 14, -4
 218              		.loc 1 61 0
 219 0004 274C     		ldr	r4, .L17
 220 0006 2369     		ldr	r3, [r4, #16]
 221 0008 D905     		lsls	r1, r3, #23
 222 000a 39D5     		bpl	.L14
 223              	.L10:
 224              		.loc 1 71 0
 225 000c 264B     		ldr	r3, .L17+4
ARM GAS  /tmp/cc4ggePn.s 			page 5


 226 000e 1B69     		ldr	r3, [r3, #16]
 227 0010 9A05     		lsls	r2, r3, #22
 228 0012 23D5     		bpl	.L15
 229              	.L11:
 230              		.loc 1 82 0
 231 0014 254B     		ldr	r3, .L17+8
 232 0016 1B69     		ldr	r3, [r3, #16]
 233 0018 9B04     		lsls	r3, r3, #18
 234 001a 01D5     		bpl	.L16
 235 001c BDE8F883 		pop	{r3, r4, r5, r6, r7, r8, r9, pc}
 236              	.L16:
 237              		.loc 1 83 0
 238 0020 234D     		ldr	r5, .L17+12
 239              		.loc 1 85 0
 240 0022 204C     		ldr	r4, .L17
 241              		.loc 1 83 0
 242 0024 4FF48049 		mov	r9, #16384
 243              		.loc 1 84 0
 244 0028 4FF48058 		mov	r8, #4096
 245              		.loc 1 85 0
 246 002c 0426     		movs	r6, #4
 247              		.loc 1 86 0
 248 002e 0127     		movs	r7, #1
 249              		.loc 1 83 0
 250 0030 A5F81890 		strh	r9, [r5, #24]	@ movhi
 251              		.loc 1 87 0
 252 0034 4FF4FA70 		mov	r0, #500
 253              		.loc 1 84 0
 254 0038 A5F81880 		strh	r8, [r5, #24]	@ movhi
 255              		.loc 1 85 0
 256 003c 2683     		strh	r6, [r4, #24]	@ movhi
 257              		.loc 1 86 0
 258 003e 2783     		strh	r7, [r4, #24]	@ movhi
 259              		.loc 1 87 0
 260 0040 FFF7FEFF 		bl	chThdSleep
 261              	.LVL11:
 262              		.loc 1 88 0
 263 0044 A5F81A90 		strh	r9, [r5, #26]	@ movhi
 264              		.loc 1 89 0
 265 0048 A5F81A80 		strh	r8, [r5, #26]	@ movhi
 266              		.loc 1 90 0
 267 004c 6783     		strh	r7, [r4, #26]	@ movhi
 268              		.loc 1 91 0
 269 004e 6683     		strh	r6, [r4, #26]	@ movhi
 270              		.loc 1 92 0
 271 0050 4FF4FA70 		mov	r0, #500
 272              		.loc 1 95 0
 273 0054 BDE8F843 		pop	{r3, r4, r5, r6, r7, r8, r9, lr}
 274              		.loc 1 92 0
 275 0058 FFF7FEBF 		b	chThdSleep
 276              	.LVL12:
 277              	.L15:
 278              		.loc 1 73 0
 279 005c 144E     		ldr	r6, .L17+12
 280              		.loc 1 74 0
 281 005e 114C     		ldr	r4, .L17
 282              		.loc 1 73 0
ARM GAS  /tmp/cc4ggePn.s 			page 6


 283 0060 4FF48047 		mov	r7, #16384
 284              		.loc 1 74 0
 285 0064 0125     		movs	r5, #1
 286              		.loc 1 73 0
 287 0066 3783     		strh	r7, [r6, #24]	@ movhi
 288              		.loc 1 75 0
 289 0068 4FF4FA70 		mov	r0, #500
 290              		.loc 1 74 0
 291 006c 2583     		strh	r5, [r4, #24]	@ movhi
 292              		.loc 1 75 0
 293 006e FFF7FEFF 		bl	chThdSleep
 294              	.LVL13:
 295              		.loc 1 76 0
 296 0072 7783     		strh	r7, [r6, #26]	@ movhi
 297              		.loc 1 78 0
 298 0074 4FF4FA70 		mov	r0, #500
 299              		.loc 1 77 0
 300 0078 6583     		strh	r5, [r4, #26]	@ movhi
 301              		.loc 1 78 0
 302 007a FFF7FEFF 		bl	chThdSleep
 303              	.LVL14:
 304 007e C9E7     		b	.L11
 305              	.L14:
 306              		.loc 1 63 0
 307 0080 0B4E     		ldr	r6, .L17+12
 308 0082 4FF48057 		mov	r7, #4096
 309              		.loc 1 64 0
 310 0086 0425     		movs	r5, #4
 311              		.loc 1 63 0
 312 0088 3783     		strh	r7, [r6, #24]	@ movhi
 313              		.loc 1 65 0
 314 008a 4FF4FA70 		mov	r0, #500
 315              		.loc 1 64 0
 316 008e 2583     		strh	r5, [r4, #24]	@ movhi
 317              		.loc 1 65 0
 318 0090 FFF7FEFF 		bl	chThdSleep
 319              	.LVL15:
 320              		.loc 1 66 0
 321 0094 7783     		strh	r7, [r6, #26]	@ movhi
 322              		.loc 1 68 0
 323 0096 4FF4FA70 		mov	r0, #500
 324              		.loc 1 67 0
 325 009a 6583     		strh	r5, [r4, #26]	@ movhi
 326              		.loc 1 68 0
 327 009c FFF7FEFF 		bl	chThdSleep
 328              	.LVL16:
 329 00a0 B4E7     		b	.L10
 330              	.L18:
 331 00a2 00BF     		.align	2
 332              	.L17:
 333 00a4 00040048 		.word	1207960576
 334 00a8 00140048 		.word	1207964672
 335 00ac 00080048 		.word	1207961600
 336 00b0 00100048 		.word	1207963648
 337              		.cfi_endproc
 338              	.LFE123:
 339              		.size	riting_kiri, .-riting_kiri
ARM GAS  /tmp/cc4ggePn.s 			page 7


 340 00b4 AFF30080 		.section	.text.pinoutThread,"ax",%progbits
 340      AFF30080 
 340      AFF30080 
 341              		.align	2
 342              		.p2align 4,,15
 343              		.thumb
 344              		.thumb_func
 345              		.type	pinoutThread, %function
 346              	pinoutThread:
 347              	.LFB120:
 348              		.loc 1 18 0
 349              		.cfi_startproc
 350              		@ Volatile: function does not return.
 351              		@ args = 0, pretend = 0, frame = 0
 352              		@ frame_needed = 0, uses_anonymous_args = 0
 353              	.LVL17:
 354 0000 08B5     		push	{r3, lr}
 355              		.cfi_def_cfa_offset 8
 356              		.cfi_offset 3, -8
 357              		.cfi_offset 14, -4
 358              	.LVL18:
 359              	.L20:
 360              		.loc 1 22 0 discriminator 1
 361 0002 FFF7FEFF 		bl	riting_kiri
 362              	.LVL19:
 363 0006 FCE7     		b	.L20
 364              		.cfi_endproc
 365              	.LFE120:
 366              		.size	pinoutThread, .-pinoutThread
 367 0008 AFF30080 		.section	.text.riting_kanan,"ax",%progbits
 367      AFF30080 
 368              		.align	2
 369              		.p2align 4,,15
 370              		.global	riting_kanan
 371              		.thumb
 372              		.thumb_func
 373              		.type	riting_kanan, %function
 374              	riting_kanan:
 375              	.LFB124:
 376              		.loc 1 97 0
 377              		.cfi_startproc
 378              		@ args = 0, pretend = 0, frame = 0
 379              		@ frame_needed = 0, uses_anonymous_args = 0
 380              		@ link register save eliminated.
 381 0000 7047     		bx	lr
 382              		.cfi_endproc
 383              	.LFE124:
 384              		.size	riting_kanan, .-riting_kanan
 385 0002 00BFAFF3 		.section	.text.hazard,"ax",%progbits
 385      0080AFF3 
 385      0080AFF3 
 385      0080
 386              		.align	2
 387              		.p2align 4,,15
 388              		.global	hazard
 389              		.thumb
 390              		.thumb_func
ARM GAS  /tmp/cc4ggePn.s 			page 8


 391              		.type	hazard, %function
 392              	hazard:
 393              	.LFB125:
 394              		.loc 1 102 0
 395              		.cfi_startproc
 396              		@ args = 0, pretend = 0, frame = 0
 397              		@ frame_needed = 0, uses_anonymous_args = 0
 398              		@ link register save eliminated.
 399 0000 7047     		bx	lr
 400              		.cfi_endproc
 401              	.LFE125:
 402              		.size	hazard, .-hazard
 403 0002 00BFAFF3 		.section	.text.input_output_running,"ax",%progbits
 403      0080AFF3 
 403      0080AFF3 
 403      0080
 404              		.align	2
 405              		.p2align 4,,15
 406              		.global	input_output_running
 407              		.thumb
 408              		.thumb_func
 409              		.type	input_output_running, %function
 410              	input_output_running:
 411              	.LFB126:
 412              		.loc 1 107 0
 413              		.cfi_startproc
 414              		@ args = 0, pretend = 0, frame = 0
 415              		@ frame_needed = 0, uses_anonymous_args = 0
 416              		.loc 1 107 0
 417 0000 10B5     		push	{r4, lr}
 418              		.cfi_def_cfa_offset 8
 419              		.cfi_offset 4, -8
 420              		.cfi_offset 14, -4
 421 0002 82B0     		sub	sp, sp, #8
 422              		.cfi_def_cfa_offset 16
 423              		.loc 1 109 0
 424 0004 0024     		movs	r4, #0
 425              		.loc 1 108 0
 426 0006 FFF7FEFF 		bl	Pin_Setup
 427              	.LVL20:
 428              		.loc 1 109 0
 429 000a 0094     		str	r4, [sp]
 430 000c 084B     		ldr	r3, .L24
 431 000e 0948     		ldr	r0, .L24+4
 432 0010 4FF4DC71 		mov	r1, #440
 433 0014 4022     		movs	r2, #64
 434 0016 FFF7FEFF 		bl	chThdCreateStatic
 435              	.LVL21:
 436              		.loc 1 110 0
 437 001a 0094     		str	r4, [sp]
 438 001c 064B     		ldr	r3, .L24+8
 439 001e 0748     		ldr	r0, .L24+12
 440 0020 4FF4DC71 		mov	r1, #440
 441 0024 4022     		movs	r2, #64
 442 0026 FFF7FEFF 		bl	chThdCreateStatic
 443              	.LVL22:
 444              		.loc 1 111 0
ARM GAS  /tmp/cc4ggePn.s 			page 9


 445 002a 02B0     		add	sp, sp, #8
 446              		@ sp needed
 447 002c 10BD     		pop	{r4, pc}
 448              	.L25:
 449 002e 00BF     		.align	2
 450              	.L24:
 451 0030 00000000 		.word	pininThread
 452 0034 00000000 		.word	.LANCHOR0
 453 0038 00000000 		.word	pinoutThread
 454 003c 00000000 		.word	.LANCHOR1
 455              		.cfi_endproc
 456              	.LFE126:
 457              		.size	input_output_running, .-input_output_running
 458              		.section	.bss.wa_pininThread,"aw",%nobits
 459              		.align	3
 460              		.set	.LANCHOR0,. + 0
 461              		.type	wa_pininThread, %object
 462              		.size	wa_pininThread, 440
 463              	wa_pininThread:
 464 0000 00000000 		.space	440
 464      00000000 
 464      00000000 
 464      00000000 
 464      00000000 
 465              		.section	.bss.wa_pinoutThread,"aw",%nobits
 466              		.align	3
 467              		.set	.LANCHOR1,. + 0
 468              		.type	wa_pinoutThread, %object
 469              		.size	wa_pinoutThread, 440
 470              	wa_pinoutThread:
 471 0000 00000000 		.space	440
 471      00000000 
 471      00000000 
 471      00000000 
 471      00000000 
 472              		.text
 473              	.Letext0:
 474              		.file 2 "/usr/lib/gcc/arm-none-eabi/4.8/include/stddef.h"
 475              		.file 3 "/usr/include/newlib/machine/_default_types.h"
 476              		.file 4 "/usr/include/newlib/stdint.h"
 477              		.file 5 "../../../../os/ports/GCC/ARMCMx/chtypes.h"
 478              		.file 6 "../../../../os/kernel/include/chlists.h"
 479              		.file 7 "../../../../os/kernel/include/chthreads.h"
 480              		.file 8 "../../../../os/ports/GCC/ARMCMx/chcore_v7m.h"
 481              		.file 9 "../../../../os/kernel/include/chmtx.h"
 482              		.file 10 "../../../../os/hal/platforms/STM32/pal_lld.h"
 483              		.file 11 "../../../../os/ports/common/ARMCMx/CMSIS/include/core_cm4.h"