ARM GAS  /tmp/cclHDyzq.s 			page 1


   1              		.syntax unified
   2              		.cpu cortex-m4
   3              		.eabi_attribute 27, 3
   4              		.fpu fpv4-sp-d16
   5              		.eabi_attribute 20, 1
   6              		.eabi_attribute 21, 1
   7              		.eabi_attribute 23, 3
   8              		.eabi_attribute 24, 1
   9              		.eabi_attribute 25, 1
  10              		.eabi_attribute 26, 1
  11              		.eabi_attribute 30, 2
  12              		.eabi_attribute 34, 1
  13              		.eabi_attribute 18, 4
  14              		.thumb
  15              		.file	"serial_usb.c"
  16              		.text
  17              	.Ltext0:
  18              		.cfi_sections	.debug_frame
  19              		.section	.text.onotify,"ax",%progbits
  20              		.align	2
  21              		.p2align 4,,15
  22              		.thumb
  23              		.thumb_func
  24              		.type	onotify, %function
  25              	onotify:
  26              	.LFB127:
  27              		.file 1 "../../../../os/hal/src/serial_usb.c"
  28              		.loc 1 143 0
  29              		.cfi_startproc
  30              		@ args = 0, pretend = 0, frame = 0
  31              		@ frame_needed = 0, uses_anonymous_args = 0
  32              	.LVL0:
  33 0000 70B5     		push	{r4, r5, r6, lr}
  34              		.cfi_def_cfa_offset 16
  35              		.cfi_offset 4, -16
  36              		.cfi_offset 5, -12
  37              		.cfi_offset 6, -8
  38              		.cfi_offset 14, -4
  39              		.loc 1 145 0
  40 0002 046A     		ldr	r4, [r0, #32]
  41              	.LVL1:
  42              		.loc 1 149 0
  43 0004 D4F85432 		ldr	r3, [r4, #596]
  44 0008 1A68     		ldr	r2, [r3]
  45 000a 1178     		ldrb	r1, [r2]	@ zero_extendqisi2
  46 000c 0429     		cmp	r1, #4
  47 000e 00D0     		beq	.L7
  48              	.L1:
  49 0010 70BD     		pop	{r4, r5, r6, pc}
  50              	.LVL2:
  51              	.L7:
  52              		.loc 1 149 0 is_stmt 0 discriminator 1
  53 0012 217A     		ldrb	r1, [r4, #8]	@ zero_extendqisi2
  54 0014 0229     		cmp	r1, #2
  55 0016 FBD1     		bne	.L1
  56              		.loc 1 155 0 is_stmt 1
  57 0018 1289     		ldrh	r2, [r2, #8]
ARM GAS  /tmp/cclHDyzq.s 			page 2


  58 001a 1B79     		ldrb	r3, [r3, #4]	@ zero_extendqisi2
  59 001c 42FA03F3 		asr	r3, r2, r3
  60 0020 13F00105 		ands	r5, r3, #1
  61 0024 F4D1     		bne	.L1
  62              		.loc 1 156 0 discriminator 1
  63 0026 216C     		ldr	r1, [r4, #64]
  64 0028 E36B     		ldr	r3, [r4, #60]
  65 002a A26B     		ldr	r2, [r4, #56]
  66 002c C91A     		subs	r1, r1, r3
  67              	.LVL3:
  68              		.loc 1 155 0 discriminator 1
  69 002e 8E1A     		subs	r6, r1, r2
  70              	.LVL4:
  71 0030 EED0     		beq	.L1
  72              		.loc 1 157 0
  73 0032 FFF7FEFF 		bl	dbg_check_unlock
  74              	.LVL5:
  75              	.LBB2:
  76 0036 2B46     		mov	r3, r5
  77              	@ 157 "../../../../os/hal/src/serial_usb.c" 1
  78 0038 83F31188 		msr     BASEPRI, r3
  79              	@ 0 "" 2
  80              		.thumb
  81              	.LBE2:
  82              		.loc 1 159 0
  83 003c D4F85422 		ldr	r2, [r4, #596]
  84 0040 3346     		mov	r3, r6
  85 0042 1068     		ldr	r0, [r2]
  86 0044 1179     		ldrb	r1, [r2, #4]	@ zero_extendqisi2
  87 0046 04F13002 		add	r2, r4, #48
  88 004a FFF7FEFF 		bl	usbPrepareQueuedTransmit
  89              	.LVL6:
  90              	.LBB3:
  91              		.loc 1 163 0
  92 004e 2023     		movs	r3, #32
  93              	@ 163 "../../../../os/hal/src/serial_usb.c" 1
  94 0050 83F31188 		msr     BASEPRI, r3
  95              	@ 0 "" 2
  96              		.thumb
  97              	.LBE3:
  98 0054 FFF7FEFF 		bl	dbg_check_lock
  99              	.LVL7:
 100              		.loc 1 164 0
 101 0058 D4F85432 		ldr	r3, [r4, #596]
 102              		.loc 1 166 0
 103 005c BDE87040 		pop	{r4, r5, r6, lr}
 104              	.LVL8:
 105              		.loc 1 164 0
 106 0060 1868     		ldr	r0, [r3]
 107 0062 1979     		ldrb	r1, [r3, #4]	@ zero_extendqisi2
 108 0064 FFF7FEBF 		b	usbStartTransmitI
 109              	.LVL9:
 110              		.cfi_endproc
 111              	.LFE127:
 112              		.size	onotify, .-onotify
 113 0068 AFF30080 		.section	.text.inotify,"ax",%progbits
 113      AFF30080 
ARM GAS  /tmp/cclHDyzq.s 			page 3


 114              		.align	2
 115              		.p2align 4,,15
 116              		.thumb
 117              		.thumb_func
 118              		.type	inotify, %function
 119              	inotify:
 120              	.LFB126:
 121              		.loc 1 112 0
 122              		.cfi_startproc
 123              		@ args = 0, pretend = 0, frame = 0
 124              		@ frame_needed = 0, uses_anonymous_args = 0
 125              	.LVL10:
 126 0000 F8B5     		push	{r3, r4, r5, r6, r7, lr}
 127              		.cfi_def_cfa_offset 24
 128              		.cfi_offset 3, -24
 129              		.cfi_offset 4, -20
 130              		.cfi_offset 5, -16
 131              		.cfi_offset 6, -12
 132              		.cfi_offset 7, -8
 133              		.cfi_offset 14, -4
 134              		.loc 1 114 0
 135 0002 046A     		ldr	r4, [r0, #32]
 136              	.LVL11:
 137              		.loc 1 118 0
 138 0004 D4F85422 		ldr	r2, [r4, #596]
 139 0008 1368     		ldr	r3, [r2]
 140 000a 1978     		ldrb	r1, [r3]	@ zero_extendqisi2
 141 000c 0429     		cmp	r1, #4
 142 000e 00D0     		beq	.L10
 143              	.L8:
 144 0010 F8BD     		pop	{r3, r4, r5, r6, r7, pc}
 145              	.LVL12:
 146              	.L10:
 147              		.loc 1 118 0 is_stmt 0 discriminator 1
 148 0012 217A     		ldrb	r1, [r4, #8]	@ zero_extendqisi2
 149 0014 0229     		cmp	r1, #2
 150 0016 FBD1     		bne	.L8
 151              		.loc 1 125 0 is_stmt 1
 152 0018 5279     		ldrb	r2, [r2, #5]	@ zero_extendqisi2
 153              		.loc 1 126 0
 154 001a 5989     		ldrh	r1, [r3, #10]
 155              		.loc 1 125 0
 156 001c 03EB8203 		add	r3, r3, r2, lsl #2
 157              		.loc 1 126 0
 158 0020 41FA02F2 		asr	r2, r1, r2
 159              		.loc 1 125 0
 160 0024 DB68     		ldr	r3, [r3, #12]
 161              		.loc 1 126 0
 162 0026 12F00107 		ands	r7, r2, #1
 163              		.loc 1 125 0
 164 002a 5D8A     		ldrh	r5, [r3, #18]
 165              	.LVL13:
 166              		.loc 1 126 0
 167 002c F0D1     		bne	.L8
 168              		.loc 1 127 0 discriminator 1
 169 002e E669     		ldr	r6, [r4, #28]
 170 0030 A269     		ldr	r2, [r4, #24]
ARM GAS  /tmp/cclHDyzq.s 			page 4


 171 0032 6369     		ldr	r3, [r4, #20]
 172 0034 B61A     		subs	r6, r6, r2
 173 0036 F61A     		subs	r6, r6, r3
 174              	.LVL14:
 175              		.loc 1 126 0 discriminator 1
 176 0038 B542     		cmp	r5, r6
 177 003a E9D8     		bhi	.L8
 178              		.loc 1 128 0
 179 003c FFF7FEFF 		bl	dbg_check_unlock
 180              	.LVL15:
 181              	.LBB4:
 182 0040 3B46     		mov	r3, r7
 183              	@ 128 "../../../../os/hal/src/serial_usb.c" 1
 184 0042 83F31188 		msr     BASEPRI, r3
 185              	@ 0 "" 2
 186              		.thumb
 187              	.LBE4:
 188              		.loc 1 131 0
 189 0046 D4F85422 		ldr	r2, [r4, #596]
 190              		.loc 1 130 0
 191 004a B6FBF5F3 		udiv	r3, r6, r5
 192              	.LVL16:
 193              		.loc 1 131 0
 194 004e 05FB03F3 		mul	r3, r5, r3
 195              	.LVL17:
 196 0052 1068     		ldr	r0, [r2]
 197 0054 5179     		ldrb	r1, [r2, #5]	@ zero_extendqisi2
 198 0056 04F10C02 		add	r2, r4, #12
 199 005a FFF7FEFF 		bl	usbPrepareQueuedReceive
 200              	.LVL18:
 201              	.LBB5:
 202              		.loc 1 135 0
 203 005e 2023     		movs	r3, #32
 204              	@ 135 "../../../../os/hal/src/serial_usb.c" 1
 205 0060 83F31188 		msr     BASEPRI, r3
 206              	@ 0 "" 2
 207              		.thumb
 208              	.LBE5:
 209 0064 FFF7FEFF 		bl	dbg_check_lock
 210              	.LVL19:
 211              		.loc 1 136 0
 212 0068 D4F85432 		ldr	r3, [r4, #596]
 213 006c 1868     		ldr	r0, [r3]
 214 006e 5979     		ldrb	r1, [r3, #5]	@ zero_extendqisi2
 215              		.loc 1 138 0
 216 0070 BDE8F840 		pop	{r3, r4, r5, r6, r7, lr}
 217              	.LVL20:
 218              		.loc 1 136 0
 219 0074 FFF7FEBF 		b	usbStartReceiveI
 220              	.LVL21:
 221              		.cfi_endproc
 222              	.LFE126:
 223              		.size	inotify, .-inotify
 224 0078 AFF30080 		.section	.text.readt,"ax",%progbits
 224      AFF30080 
 225              		.align	2
 226              		.p2align 4,,15
ARM GAS  /tmp/cclHDyzq.s 			page 5


 227              		.thumb
 228              		.thumb_func
 229              		.type	readt, %function
 230              	readt:
 231              	.LFB125:
 232              		.loc 1 99 0
 233              		.cfi_startproc
 234              		@ args = 0, pretend = 0, frame = 0
 235              		@ frame_needed = 0, uses_anonymous_args = 0
 236              		@ link register save eliminated.
 237              	.LVL22:
 238              		.loc 1 101 0
 239 0000 0C30     		adds	r0, r0, #12
 240              	.LVL23:
 241 0002 FFF7FEBF 		b	chIQReadTimeout
 242              	.LVL24:
 243              		.cfi_endproc
 244              	.LFE125:
 245              		.size	readt, .-readt
 246 0006 00BFAFF3 		.section	.text.read,"ax",%progbits
 246      0080AFF3 
 246      0080
 247              		.align	2
 248              		.p2align 4,,15
 249              		.thumb
 250              		.thumb_func
 251              		.type	read, %function
 252              	read:
 253              	.LFB119:
 254              		.loc 1 68 0
 255              		.cfi_startproc
 256              		@ args = 0, pretend = 0, frame = 0
 257              		@ frame_needed = 0, uses_anonymous_args = 0
 258              		@ link register save eliminated.
 259              	.LVL25:
 260              		.loc 1 70 0
 261 0000 0C30     		adds	r0, r0, #12
 262              	.LVL26:
 263 0002 4FF0FF33 		mov	r3, #-1
 264 0006 FFF7FEBF 		b	chIQReadTimeout
 265              	.LVL27:
 266              		.cfi_endproc
 267              	.LFE119:
 268              		.size	read, .-read
 269 000a 00BFAFF3 		.section	.text.writet,"ax",%progbits
 269      0080
 270              		.align	2
 271              		.p2align 4,,15
 272              		.thumb
 273              		.thumb_func
 274              		.type	writet, %function
 275              	writet:
 276              	.LFB124:
 277              		.loc 1 94 0
 278              		.cfi_startproc
 279              		@ args = 0, pretend = 0, frame = 0
 280              		@ frame_needed = 0, uses_anonymous_args = 0
ARM GAS  /tmp/cclHDyzq.s 			page 6


 281              		@ link register save eliminated.
 282              	.LVL28:
 283              		.loc 1 96 0
 284 0000 3030     		adds	r0, r0, #48
 285              	.LVL29:
 286 0002 FFF7FEBF 		b	chOQWriteTimeout
 287              	.LVL30:
 288              		.cfi_endproc
 289              	.LFE124:
 290              		.size	writet, .-writet
 291 0006 00BFAFF3 		.section	.text.write,"ax",%progbits
 291      0080AFF3 
 291      0080
 292              		.align	2
 293              		.p2align 4,,15
 294              		.thumb
 295              		.thumb_func
 296              		.type	write, %function
 297              	write:
 298              	.LFB118:
 299              		.loc 1 62 0
 300              		.cfi_startproc
 301              		@ args = 0, pretend = 0, frame = 0
 302              		@ frame_needed = 0, uses_anonymous_args = 0
 303              		@ link register save eliminated.
 304              	.LVL31:
 305              		.loc 1 64 0
 306 0000 3030     		adds	r0, r0, #48
 307              	.LVL32:
 308 0002 4FF0FF33 		mov	r3, #-1
 309 0006 FFF7FEBF 		b	chOQWriteTimeout
 310              	.LVL33:
 311              		.cfi_endproc
 312              	.LFE118:
 313              		.size	write, .-write
 314 000a 00BFAFF3 		.section	.text.gett,"ax",%progbits
 314      0080
 315              		.align	2
 316              		.p2align 4,,15
 317              		.thumb
 318              		.thumb_func
 319              		.type	gett, %function
 320              	gett:
 321              	.LFB123:
 322              		.loc 1 89 0
 323              		.cfi_startproc
 324              		@ args = 0, pretend = 0, frame = 0
 325              		@ frame_needed = 0, uses_anonymous_args = 0
 326              		@ link register save eliminated.
 327              	.LVL34:
 328              		.loc 1 91 0
 329 0000 0C30     		adds	r0, r0, #12
 330              	.LVL35:
 331 0002 FFF7FEBF 		b	chIQGetTimeout
 332              	.LVL36:
 333              		.cfi_endproc
 334              	.LFE123:
ARM GAS  /tmp/cclHDyzq.s 			page 7


 335              		.size	gett, .-gett
 336 0006 00BFAFF3 		.section	.text.get,"ax",%progbits
 336      0080AFF3 
 336      0080
 337              		.align	2
 338              		.p2align 4,,15
 339              		.thumb
 340              		.thumb_func
 341              		.type	get, %function
 342              	get:
 343              	.LFB121:
 344              		.loc 1 79 0
 345              		.cfi_startproc
 346              		@ args = 0, pretend = 0, frame = 0
 347              		@ frame_needed = 0, uses_anonymous_args = 0
 348              		@ link register save eliminated.
 349              	.LVL37:
 350              		.loc 1 81 0
 351 0000 0C30     		adds	r0, r0, #12
 352              	.LVL38:
 353 0002 4FF0FF31 		mov	r1, #-1
 354 0006 FFF7FEBF 		b	chIQGetTimeout
 355              	.LVL39:
 356              		.cfi_endproc
 357              	.LFE121:
 358              		.size	get, .-get
 359 000a 00BFAFF3 		.section	.text.putt,"ax",%progbits
 359      0080
 360              		.align	2
 361              		.p2align 4,,15
 362              		.thumb
 363              		.thumb_func
 364              		.type	putt, %function
 365              	putt:
 366              	.LFB122:
 367              		.loc 1 84 0
 368              		.cfi_startproc
 369              		@ args = 0, pretend = 0, frame = 0
 370              		@ frame_needed = 0, uses_anonymous_args = 0
 371              		@ link register save eliminated.
 372              	.LVL40:
 373              		.loc 1 86 0
 374 0000 3030     		adds	r0, r0, #48
 375              	.LVL41:
 376 0002 FFF7FEBF 		b	chOQPutTimeout
 377              	.LVL42:
 378              		.cfi_endproc
 379              	.LFE122:
 380              		.size	putt, .-putt
 381 0006 00BFAFF3 		.section	.text.put,"ax",%progbits
 381      0080AFF3 
 381      0080
 382              		.align	2
 383              		.p2align 4,,15
 384              		.thumb
 385              		.thumb_func
 386              		.type	put, %function
ARM GAS  /tmp/cclHDyzq.s 			page 8


 387              	put:
 388              	.LFB120:
 389              		.loc 1 74 0
 390              		.cfi_startproc
 391              		@ args = 0, pretend = 0, frame = 0
 392              		@ frame_needed = 0, uses_anonymous_args = 0
 393              		@ link register save eliminated.
 394              	.LVL43:
 395              		.loc 1 76 0
 396 0000 3030     		adds	r0, r0, #48
 397              	.LVL44:
 398 0002 4FF0FF32 		mov	r2, #-1
 399 0006 FFF7FEBF 		b	chOQPutTimeout
 400              	.LVL45:
 401              		.cfi_endproc
 402              	.LFE120:
 403              		.size	put, .-put
 404 000a 00BFAFF3 		.section	.text.sduInit,"ax",%progbits
 404      0080
 405              		.align	2
 406              		.p2align 4,,15
 407              		.global	sduInit
 408              		.thumb
 409              		.thumb_func
 410              		.type	sduInit, %function
 411              	sduInit:
 412              	.LFB128:
 413              		.loc 1 179 0
 414              		.cfi_startproc
 415              		@ args = 0, pretend = 0, frame = 0
 416              		@ frame_needed = 0, uses_anonymous_args = 0
 417              		@ link register save eliminated.
 418 0000 7047     		bx	lr
 419              		.cfi_endproc
 420              	.LFE128:
 421              		.size	sduInit, .-sduInit
 422 0002 00BFAFF3 		.section	.text.sduObjectInit,"ax",%progbits
 422      0080AFF3 
 422      0080AFF3 
 422      0080
 423              		.align	2
 424              		.p2align 4,,15
 425              		.global	sduObjectInit
 426              		.thumb
 427              		.thumb_func
 428              		.type	sduObjectInit, %function
 429              	sduObjectInit:
 430              	.LFB129:
 431              		.loc 1 191 0
 432              		.cfi_startproc
 433              		@ args = 0, pretend = 0, frame = 0
 434              		@ frame_needed = 0, uses_anonymous_args = 0
 435              	.LVL46:
 436              		.loc 1 191 0
 437 0000 10B5     		push	{r4, lr}
 438              		.cfi_def_cfa_offset 8
 439              		.cfi_offset 4, -8
ARM GAS  /tmp/cclHDyzq.s 			page 9


 440              		.cfi_offset 14, -4
 441              		.loc 1 193 0
 442 0002 0346     		mov	r3, r0
 443 0004 0E4A     		ldr	r2, .L21
 444 0006 43F8042B 		str	r2, [r3], #4
 445              		.loc 1 191 0
 446 000a 82B0     		sub	sp, sp, #8
 447              		.cfi_def_cfa_offset 16
 448              		.loc 1 191 0
 449 000c 0446     		mov	r4, r0
 450              		.loc 1 195 0
 451 000e 0122     		movs	r2, #1
 452              		.loc 1 196 0
 453 0010 0090     		str	r0, [sp]
 454 0012 04F15401 		add	r1, r4, #84
 455              		.loc 1 194 0
 456 0016 4360     		str	r3, [r0, #4]
 457              		.loc 1 195 0
 458 0018 0272     		strb	r2, [r0, #8]
 459              		.loc 1 196 0
 460 001a 0A4B     		ldr	r3, .L21+4
 461 001c 0C30     		adds	r0, r0, #12
 462              	.LVL47:
 463 001e 4FF48072 		mov	r2, #256
 464 0022 FFF7FEFF 		bl	chIQInit
 465              	.LVL48:
 466              		.loc 1 197 0
 467 0026 0094     		str	r4, [sp]
 468 0028 04F13000 		add	r0, r4, #48
 469 002c 04F5AA71 		add	r1, r4, #340
 470 0030 4FF48072 		mov	r2, #256
 471 0034 044B     		ldr	r3, .L21+8
 472 0036 FFF7FEFF 		bl	chOQInit
 473              	.LVL49:
 474              		.loc 1 198 0
 475 003a 02B0     		add	sp, sp, #8
 476              		@ sp needed
 477 003c 10BD     		pop	{r4, pc}
 478              	.LVL50:
 479              	.L22:
 480 003e 00BF     		.align	2
 481              	.L21:
 482 0040 00000000 		.word	.LANCHOR0
 483 0044 00000000 		.word	inotify
 484 0048 00000000 		.word	onotify
 485              		.cfi_endproc
 486              	.LFE129:
 487              		.size	sduObjectInit, .-sduObjectInit
 488 004c AFF30080 		.section	.text.sduStart,"ax",%progbits
 489              		.align	2
 490              		.p2align 4,,15
 491              		.global	sduStart
 492              		.thumb
 493              		.thumb_func
 494              		.type	sduStart, %function
 495              	sduStart:
 496              	.LFB130:
ARM GAS  /tmp/cclHDyzq.s 			page 10


 497              		.loc 1 208 0
 498              		.cfi_startproc
 499              		@ args = 0, pretend = 0, frame = 0
 500              		@ frame_needed = 0, uses_anonymous_args = 0
 501              	.LVL51:
 502 0000 70B5     		push	{r4, r5, r6, lr}
 503              		.cfi_def_cfa_offset 16
 504              		.cfi_offset 4, -16
 505              		.cfi_offset 5, -12
 506              		.cfi_offset 6, -8
 507              		.cfi_offset 14, -4
 508              		.loc 1 208 0
 509 0002 0D46     		mov	r5, r1
 510              		.loc 1 211 0
 511 0004 0446     		mov	r4, r0
 512              		.loc 1 209 0
 513 0006 0E68     		ldr	r6, [r1]
 514              	.LVL52:
 515              		.loc 1 211 0
 516 0008 08B3     		cbz	r0, .L26
 517              	.LVL53:
 518              	.L24:
 519              	.LBB6:
 520              		.loc 1 213 0
 521 000a 2023     		movs	r3, #32
 522              	@ 213 "../../../../os/hal/src/serial_usb.c" 1
 523 000c 83F31188 		msr     BASEPRI, r3
 524              	@ 0 "" 2
 525              		.thumb
 526              	.LBE6:
 527 0010 FFF7FEFF 		bl	dbg_check_lock
 528              	.LVL54:
 529              		.loc 1 214 0
 530 0014 237A     		ldrb	r3, [r4, #8]	@ zero_extendqisi2
 531 0016 013B     		subs	r3, r3, #1
 532 0018 012B     		cmp	r3, #1
 533 001a 02D9     		bls	.L25
 534              		.loc 1 214 0 is_stmt 0 discriminator 1
 535 001c 0E48     		ldr	r0, .L27
 536 001e FFF7FEFF 		bl	chDbgPanic
 537              	.LVL55:
 538              	.L25:
 539              		.loc 1 217 0 is_stmt 1
 540 0022 2A79     		ldrb	r2, [r5, #4]	@ zero_extendqisi2
 541 0024 06EB8202 		add	r2, r6, r2, lsl #2
 542              		.loc 1 221 0
 543 0028 0223     		movs	r3, #2
 544              		.loc 1 217 0
 545 002a 9462     		str	r4, [r2, #40]
 546              		.loc 1 218 0
 547 002c 6A79     		ldrb	r2, [r5, #5]	@ zero_extendqisi2
 548 002e 1132     		adds	r2, r2, #17
 549 0030 46F82240 		str	r4, [r6, r2, lsl #2]
 550              		.loc 1 219 0
 551 0034 AA79     		ldrb	r2, [r5, #6]	@ zero_extendqisi2
 552 0036 06EB8206 		add	r6, r6, r2, lsl #2
 553              	.LVL56:
ARM GAS  /tmp/cclHDyzq.s 			page 11


 554 003a B462     		str	r4, [r6, #40]
 555              		.loc 1 221 0
 556 003c 2372     		strb	r3, [r4, #8]
 557              		.loc 1 220 0
 558 003e C4F85452 		str	r5, [r4, #596]
 559              		.loc 1 222 0
 560 0042 FFF7FEFF 		bl	dbg_check_unlock
 561              	.LVL57:
 562              	.LBB7:
 563 0046 0023     		movs	r3, #0
 564              	@ 222 "../../../../os/hal/src/serial_usb.c" 1
 565 0048 83F31188 		msr     BASEPRI, r3
 566              	@ 0 "" 2
 567              		.thumb
 568 004c 70BD     		pop	{r4, r5, r6, pc}
 569              	.LVL58:
 570              	.L26:
 571              	.LBE7:
 572              		.loc 1 211 0 discriminator 1
 573 004e 0348     		ldr	r0, .L27+4
 574              	.LVL59:
 575 0050 FFF7FEFF 		bl	chDbgPanic
 576              	.LVL60:
 577 0054 D9E7     		b	.L24
 578              	.L28:
 579 0056 00BF     		.align	2
 580              	.L27:
 581 0058 10000000 		.word	.LC1
 582 005c 00000000 		.word	.LC0
 583              		.cfi_endproc
 584              	.LFE130:
 585              		.size	sduStart, .-sduStart
 586              		.section	.text.sduStop,"ax",%progbits
 587              		.align	2
 588              		.p2align 4,,15
 589              		.global	sduStop
 590              		.thumb
 591              		.thumb_func
 592              		.type	sduStop, %function
 593              	sduStop:
 594              	.LFB131:
 595              		.loc 1 234 0
 596              		.cfi_startproc
 597              		@ args = 0, pretend = 0, frame = 0
 598              		@ frame_needed = 0, uses_anonymous_args = 0
 599              	.LVL61:
 600              		.loc 1 235 0
 601 0000 D0F85422 		ldr	r2, [r0, #596]
 602              		.loc 1 234 0
 603 0004 70B5     		push	{r4, r5, r6, lr}
 604              		.cfi_def_cfa_offset 16
 605              		.cfi_offset 4, -16
 606              		.cfi_offset 5, -12
 607              		.cfi_offset 6, -8
 608              		.cfi_offset 14, -4
 609              	.LBB8:
 610              		.loc 1 239 0
ARM GAS  /tmp/cclHDyzq.s 			page 12


 611 0006 2023     		movs	r3, #32
 612              	.LBE8:
 613              		.loc 1 234 0
 614 0008 0446     		mov	r4, r0
 615              		.loc 1 235 0
 616 000a 1668     		ldr	r6, [r2]
 617              	.LVL62:
 618              	.LBB9:
 619              		.loc 1 239 0
 620              	@ 239 "../../../../os/hal/src/serial_usb.c" 1
 621 000c 83F31188 		msr     BASEPRI, r3
 622              	@ 0 "" 2
 623              		.thumb
 624              	.LBE9:
 625 0010 FFF7FEFF 		bl	dbg_check_lock
 626              	.LVL63:
 627              		.loc 1 241 0
 628 0014 237A     		ldrb	r3, [r4, #8]	@ zero_extendqisi2
 629 0016 013B     		subs	r3, r3, #1
 630 0018 012B     		cmp	r3, #1
 631 001a 02D9     		bls	.L30
 632              		.loc 1 241 0 is_stmt 0 discriminator 1
 633 001c 1448     		ldr	r0, .L31
 634 001e FFF7FEFF 		bl	chDbgPanic
 635              	.LVL64:
 636              	.L30:
 637              		.loc 1 246 0 is_stmt 1
 638 0022 D4F85432 		ldr	r3, [r4, #596]
 639 0026 1A79     		ldrb	r2, [r3, #4]	@ zero_extendqisi2
 640 0028 0932     		adds	r2, r2, #9
 641 002a 06EB8202 		add	r2, r6, r2, lsl #2
 642 002e 0025     		movs	r5, #0
 643 0030 5560     		str	r5, [r2, #4]
 644              		.loc 1 247 0
 645 0032 5979     		ldrb	r1, [r3, #5]	@ zero_extendqisi2
 646 0034 1131     		adds	r1, r1, #17
 647              		.loc 1 249 0
 648 0036 0122     		movs	r2, #1
 649              		.loc 1 247 0
 650 0038 46F82150 		str	r5, [r6, r1, lsl #2]
 651              		.loc 1 248 0
 652 003c 9B79     		ldrb	r3, [r3, #6]	@ zero_extendqisi2
 653 003e 0933     		adds	r3, r3, #9
 654 0040 06EB8306 		add	r6, r6, r3, lsl #2
 655              	.LVL65:
 656              		.loc 1 252 0
 657 0044 0221     		movs	r1, #2
 658 0046 201D     		adds	r0, r4, #4
 659              		.loc 1 248 0
 660 0048 7560     		str	r5, [r6, #4]
 661              		.loc 1 249 0
 662 004a 2272     		strb	r2, [r4, #8]
 663              		.loc 1 252 0
 664 004c FFF7FEFF 		bl	chEvtBroadcastFlagsI
 665              	.LVL66:
 666              		.loc 1 253 0
 667 0050 04F10C00 		add	r0, r4, #12
ARM GAS  /tmp/cclHDyzq.s 			page 13


 668 0054 FFF7FEFF 		bl	chIQResetI
 669              	.LVL67:
 670              		.loc 1 254 0
 671 0058 04F13000 		add	r0, r4, #48
 672 005c FFF7FEFF 		bl	chOQResetI
 673              	.LVL68:
 674              		.loc 1 255 0
 675 0060 FFF7FEFF 		bl	chSchRescheduleS
 676              	.LVL69:
 677              		.loc 1 257 0
 678 0064 FFF7FEFF 		bl	dbg_check_unlock
 679              	.LVL70:
 680              	.LBB10:
 681 0068 2B46     		mov	r3, r5
 682              	@ 257 "../../../../os/hal/src/serial_usb.c" 1
 683 006a 83F31188 		msr     BASEPRI, r3
 684              	@ 0 "" 2
 685              		.thumb
 686 006e 70BD     		pop	{r4, r5, r6, pc}
 687              	.LVL71:
 688              	.L32:
 689              		.align	2
 690              	.L31:
 691 0070 20000000 		.word	.LC2
 692              	.LBE10:
 693              		.cfi_endproc
 694              	.LFE131:
 695              		.size	sduStop, .-sduStop
 696 0074 AFF30080 		.section	.text.sduConfigureHookI,"ax",%progbits
 696      AFF30080 
 696      AFF30080 
 697              		.align	2
 698              		.p2align 4,,15
 699              		.global	sduConfigureHookI
 700              		.thumb
 701              		.thumb_func
 702              		.type	sduConfigureHookI, %function
 703              	sduConfigureHookI:
 704              	.LFB132:
 705              		.loc 1 267 0
 706              		.cfi_startproc
 707              		@ args = 0, pretend = 0, frame = 0
 708              		@ frame_needed = 0, uses_anonymous_args = 0
 709              	.LVL72:
 710 0000 70B5     		push	{r4, r5, r6, lr}
 711              		.cfi_def_cfa_offset 16
 712              		.cfi_offset 4, -16
 713              		.cfi_offset 5, -12
 714              		.cfi_offset 6, -8
 715              		.cfi_offset 14, -4
 716              		.loc 1 268 0
 717 0002 D0F85432 		ldr	r3, [r0, #596]
 718              		.loc 1 270 0
 719 0006 00F10C06 		add	r6, r0, #12
 720              		.loc 1 267 0
 721 000a 0446     		mov	r4, r0
 722              		.loc 1 270 0
ARM GAS  /tmp/cclHDyzq.s 			page 14


 723 000c 3046     		mov	r0, r6
 724              	.LVL73:
 725              		.loc 1 268 0
 726 000e 1D68     		ldr	r5, [r3]
 727              	.LVL74:
 728              		.loc 1 270 0
 729 0010 FFF7FEFF 		bl	chIQResetI
 730              	.LVL75:
 731              		.loc 1 271 0
 732 0014 04F13000 		add	r0, r4, #48
 733 0018 FFF7FEFF 		bl	chOQResetI
 734              	.LVL76:
 735              		.loc 1 272 0
 736 001c 201D     		adds	r0, r4, #4
 737 001e 0121     		movs	r1, #1
 738 0020 FFF7FEFF 		bl	chEvtBroadcastFlagsI
 739              	.LVL77:
 740              		.loc 1 276 0
 741 0024 D4F85432 		ldr	r3, [r4, #596]
 742 0028 5979     		ldrb	r1, [r3, #5]	@ zero_extendqisi2
 743 002a 05EB8103 		add	r3, r5, r1, lsl #2
 744              		.loc 1 275 0
 745 002e 2846     		mov	r0, r5
 746              		.loc 1 276 0
 747 0030 DB68     		ldr	r3, [r3, #12]
 748              		.loc 1 275 0
 749 0032 3246     		mov	r2, r6
 750 0034 5B8A     		ldrh	r3, [r3, #18]
 751 0036 FFF7FEFF 		bl	usbPrepareQueuedReceive
 752              	.LVL78:
 753              		.loc 1 277 0
 754 003a D4F85432 		ldr	r3, [r4, #596]
 755 003e 2846     		mov	r0, r5
 756 0040 5979     		ldrb	r1, [r3, #5]	@ zero_extendqisi2
 757              		.loc 1 278 0
 758 0042 BDE87040 		pop	{r4, r5, r6, lr}
 759              	.LVL79:
 760              		.loc 1 277 0
 761 0046 FFF7FEBF 		b	usbStartReceiveI
 762              	.LVL80:
 763              		.cfi_endproc
 764              	.LFE132:
 765              		.size	sduConfigureHookI, .-sduConfigureHookI
 766 004a 00BFAFF3 		.section	.text.sduRequestsHook,"ax",%progbits
 766      0080
 767              		.align	2
 768              		.p2align 4,,15
 769              		.global	sduRequestsHook
 770              		.thumb
 771              		.thumb_func
 772              		.type	sduRequestsHook, %function
 773              	sduRequestsHook:
 774              	.LFB133:
 775              		.loc 1 295 0
 776              		.cfi_startproc
 777              		@ args = 0, pretend = 0, frame = 0
 778              		@ frame_needed = 0, uses_anonymous_args = 0
ARM GAS  /tmp/cclHDyzq.s 			page 15


 779              		@ link register save eliminated.
 780              	.LVL81:
 781              		.loc 1 297 0
 782 0000 90F87430 		ldrb	r3, [r0, #116]	@ zero_extendqisi2
 783 0004 03F06003 		and	r3, r3, #96
 784 0008 202B     		cmp	r3, #32
 785 000a 01D0     		beq	.L42
 786              	.L41:
 787              		.loc 1 310 0
 788 000c 0020     		movs	r0, #0
 789              	.LVL82:
 790              		.loc 1 314 0
 791 000e 7047     		bx	lr
 792              	.LVL83:
 793              	.L42:
 794              		.loc 1 298 0
 795 0010 90F87530 		ldrb	r3, [r0, #117]	@ zero_extendqisi2
 796 0014 212B     		cmp	r3, #33
 797 0016 03D0     		beq	.L38
 798 0018 222B     		cmp	r3, #34
 799 001a 09D0     		beq	.L37
 800 001c 202B     		cmp	r3, #32
 801 001e F5D1     		bne	.L41
 802              	.L38:
 803              		.loc 1 303 0
 804 0020 064B     		ldr	r3, .L43
 805 0022 8366     		str	r3, [r0, #104]
 806 0024 0722     		movs	r2, #7
 807 0026 0023     		movs	r3, #0
 808 0028 C266     		str	r2, [r0, #108]
 809 002a 0367     		str	r3, [r0, #112]
 810              		.loc 1 304 0
 811 002c 0120     		movs	r0, #1
 812              	.LVL84:
 813 002e 7047     		bx	lr
 814              	.LVL85:
 815              	.L37:
 816              		.loc 1 307 0
 817 0030 0023     		movs	r3, #0
 818 0032 8366     		str	r3, [r0, #104]
 819 0034 C366     		str	r3, [r0, #108]
 820 0036 0367     		str	r3, [r0, #112]
 821              		.loc 1 308 0
 822 0038 0120     		movs	r0, #1
 823              	.LVL86:
 824 003a 7047     		bx	lr
 825              	.L44:
 826              		.align	2
 827              	.L43:
 828 003c 00000000 		.word	.LANCHOR1
 829              		.cfi_endproc
 830              	.LFE133:
 831              		.size	sduRequestsHook, .-sduRequestsHook
 832              		.section	.text.sduDataTransmitted,"ax",%progbits
 833              		.align	2
 834              		.p2align 4,,15
 835              		.global	sduDataTransmitted
ARM GAS  /tmp/cclHDyzq.s 			page 16


 836              		.thumb
 837              		.thumb_func
 838              		.type	sduDataTransmitted, %function
 839              	sduDataTransmitted:
 840              	.LFB134:
 841              		.loc 1 324 0
 842              		.cfi_startproc
 843              		@ args = 0, pretend = 0, frame = 0
 844              		@ frame_needed = 0, uses_anonymous_args = 0
 845              	.LVL87:
 846 0000 F8B5     		push	{r3, r4, r5, r6, r7, lr}
 847              		.cfi_def_cfa_offset 24
 848              		.cfi_offset 3, -24
 849              		.cfi_offset 4, -20
 850              		.cfi_offset 5, -16
 851              		.cfi_offset 6, -12
 852              		.cfi_offset 7, -8
 853              		.cfi_offset 14, -4
 854              		.loc 1 326 0
 855 0002 00EB8103 		add	r3, r0, r1, lsl #2
 856              		.loc 1 324 0
 857 0006 0646     		mov	r6, r0
 858              		.loc 1 326 0
 859 0008 9C6A     		ldr	r4, [r3, #40]
 860              	.LVL88:
 861              		.loc 1 324 0
 862 000a 0D46     		mov	r5, r1
 863              		.loc 1 328 0
 864 000c CCB1     		cbz	r4, .L45
 865              	.LBB11:
 866              		.loc 1 331 0
 867 000e 2023     		movs	r3, #32
 868              	@ 331 "../../../../os/hal/src/serial_usb.c" 1
 869 0010 83F31188 		msr     BASEPRI, r3
 870              	@ 0 "" 2
 871              		.thumb
 872              	.LBE11:
 873 0014 FFF7FEFF 		bl	dbg_check_lock_from_isr
 874              	.LVL89:
 875              		.loc 1 332 0
 876 0018 0821     		movs	r1, #8
 877 001a 201D     		adds	r0, r4, #4
 878 001c FFF7FEFF 		bl	chEvtBroadcastFlagsI
 879              	.LVL90:
 880              		.loc 1 334 0
 881 0020 216C     		ldr	r1, [r4, #64]
 882 0022 E26B     		ldr	r2, [r4, #60]
 883 0024 A36B     		ldr	r3, [r4, #56]
 884 0026 8A1A     		subs	r2, r1, r2
 885              	.LVL91:
 886 0028 D71A     		subs	r7, r2, r3
 887              	.LVL92:
 888 002a 18D1     		bne	.L56
 889              		.loc 1 344 0
 890 002c 06EB8503 		add	r3, r6, r5, lsl #2
 891 0030 DA68     		ldr	r2, [r3, #12]
 892 0032 5369     		ldr	r3, [r2, #20]
ARM GAS  /tmp/cclHDyzq.s 			page 17


 893 0034 5B68     		ldr	r3, [r3, #4]
 894 0036 2BB9     		cbnz	r3, .L57
 895              	.LVL93:
 896              	.L48:
 897              		.loc 1 359 0
 898 0038 FFF7FEFF 		bl	dbg_check_unlock_from_isr
 899              	.LVL94:
 900              	.LBB12:
 901 003c 0023     		movs	r3, #0
 902              	@ 359 "../../../../os/hal/src/serial_usb.c" 1
 903 003e 83F31188 		msr     BASEPRI, r3
 904              	@ 0 "" 2
 905              		.thumb
 906              	.L45:
 907 0042 F8BD     		pop	{r3, r4, r5, r6, r7, pc}
 908              	.LVL95:
 909              	.L57:
 910              	.LBE12:
 911              		.loc 1 346 0 discriminator 1
 912 0044 128A     		ldrh	r2, [r2, #16]
 913 0046 013A     		subs	r2, r2, #1
 914              		.loc 1 344 0 discriminator 1
 915 0048 12EA0307 		ands	r7, r2, r3
 916              	.LVL96:
 917 004c F4D1     		bne	.L48
 918              		.loc 1 351 0
 919 004e FFF7FEFF 		bl	dbg_check_unlock_from_isr
 920              	.LVL97:
 921              	.LBB13:
 922 0052 3B46     		mov	r3, r7
 923              	@ 351 "../../../../os/hal/src/serial_usb.c" 1
 924 0054 83F31188 		msr     BASEPRI, r3
 925              	@ 0 "" 2
 926              		.thumb
 927              	.LBE13:
 928              		.loc 1 353 0
 929 0058 04F13002 		add	r2, r4, #48
 930 005c 07E0     		b	.L55
 931              	.LVL98:
 932              	.L56:
 933              		.loc 1 337 0
 934 005e FFF7FEFF 		bl	dbg_check_unlock_from_isr
 935              	.LVL99:
 936              	.LBB14:
 937 0062 0023     		movs	r3, #0
 938              	@ 337 "../../../../os/hal/src/serial_usb.c" 1
 939 0064 83F31188 		msr     BASEPRI, r3
 940              	@ 0 "" 2
 941              		.thumb
 942              	.LBE14:
 943              		.loc 1 339 0
 944 0068 04F13002 		add	r2, r4, #48
 945 006c 3B46     		mov	r3, r7
 946              	.LVL100:
 947              	.L55:
 948              		.loc 1 353 0
 949 006e 3046     		mov	r0, r6
ARM GAS  /tmp/cclHDyzq.s 			page 18


 950 0070 2946     		mov	r1, r5
 951 0072 FFF7FEFF 		bl	usbPrepareQueuedTransmit
 952              	.LVL101:
 953              	.LBB15:
 954              		.loc 1 355 0
 955 0076 2023     		movs	r3, #32
 956              	@ 355 "../../../../os/hal/src/serial_usb.c" 1
 957 0078 83F31188 		msr     BASEPRI, r3
 958              	@ 0 "" 2
 959              		.thumb
 960              	.LBE15:
 961 007c FFF7FEFF 		bl	dbg_check_lock_from_isr
 962              	.LVL102:
 963              		.loc 1 356 0
 964 0080 3046     		mov	r0, r6
 965 0082 2946     		mov	r1, r5
 966 0084 FFF7FEFF 		bl	usbStartTransmitI
 967              	.LVL103:
 968 0088 D6E7     		b	.L48
 969              		.cfi_endproc
 970              	.LFE134:
 971              		.size	sduDataTransmitted, .-sduDataTransmitted
 972 008a 00BFAFF3 		.section	.text.sduDataReceived,"ax",%progbits
 972      0080
 973              		.align	2
 974              		.p2align 4,,15
 975              		.global	sduDataReceived
 976              		.thumb
 977              		.thumb_func
 978              		.type	sduDataReceived, %function
 979              	sduDataReceived:
 980              	.LFB135:
 981              		.loc 1 370 0
 982              		.cfi_startproc
 983              		@ args = 0, pretend = 0, frame = 0
 984              		@ frame_needed = 0, uses_anonymous_args = 0
 985              	.LVL104:
 986              		.loc 1 372 0
 987 0000 01F11103 		add	r3, r1, #17
 988              		.loc 1 370 0
 989 0004 2DE9F041 		push	{r4, r5, r6, r7, r8, lr}
 990              		.cfi_def_cfa_offset 24
 991              		.cfi_offset 4, -24
 992              		.cfi_offset 5, -20
 993              		.cfi_offset 6, -16
 994              		.cfi_offset 7, -12
 995              		.cfi_offset 8, -8
 996              		.cfi_offset 14, -4
 997              		.loc 1 372 0
 998 0008 50F82340 		ldr	r4, [r0, r3, lsl #2]
 999              	.LVL105:
 1000              		.loc 1 370 0
 1001 000c 0D46     		mov	r5, r1
 1002 000e 0646     		mov	r6, r0
 1003              		.loc 1 374 0
 1004 0010 CCB1     		cbz	r4, .L58
 1005              	.LBB16:
ARM GAS  /tmp/cclHDyzq.s 			page 19


 1006              		.loc 1 377 0
 1007 0012 2023     		movs	r3, #32
 1008              	@ 377 "../../../../os/hal/src/serial_usb.c" 1
 1009 0014 83F31188 		msr     BASEPRI, r3
 1010              	@ 0 "" 2
 1011              		.thumb
 1012              	.LBE16:
 1013 0018 FFF7FEFF 		bl	dbg_check_lock_from_isr
 1014              	.LVL106:
 1015              		.loc 1 378 0
 1016 001c 201D     		adds	r0, r4, #4
 1017 001e 0421     		movs	r1, #4
 1018 0020 FFF7FEFF 		bl	chEvtBroadcastFlagsI
 1019              	.LVL107:
 1020              		.loc 1 382 0
 1021 0024 06EB8503 		add	r3, r6, r5, lsl #2
 1022              		.loc 1 383 0
 1023 0028 E169     		ldr	r1, [r4, #28]
 1024              		.loc 1 382 0
 1025 002a D868     		ldr	r0, [r3, #12]
 1026              		.loc 1 383 0
 1027 002c A269     		ldr	r2, [r4, #24]
 1028 002e 6369     		ldr	r3, [r4, #20]
 1029              		.loc 1 382 0
 1030 0030 478A     		ldrh	r7, [r0, #18]
 1031              	.LVL108:
 1032              		.loc 1 383 0
 1033 0032 8A1A     		subs	r2, r1, r2
 1034 0034 C3EB0208 		rsb	r8, r3, r2
 1035              	.LVL109:
 1036 0038 4745     		cmp	r7, r8
 1037 003a 06D9     		bls	.L64
 1038              	.LVL110:
 1039              	.L60:
 1040              		.loc 1 395 0
 1041 003c FFF7FEFF 		bl	dbg_check_unlock_from_isr
 1042              	.LVL111:
 1043              	.LBB17:
 1044 0040 0023     		movs	r3, #0
 1045              	@ 395 "../../../../os/hal/src/serial_usb.c" 1
 1046 0042 83F31188 		msr     BASEPRI, r3
 1047              	@ 0 "" 2
 1048              	.LVL112:
 1049              		.thumb
 1050              	.L58:
 1051 0046 BDE8F081 		pop	{r4, r5, r6, r7, r8, pc}
 1052              	.LVL113:
 1053              	.L64:
 1054              	.LBE17:
 1055              		.loc 1 386 0
 1056 004a FFF7FEFF 		bl	dbg_check_unlock_from_isr
 1057              	.LVL114:
 1058              	.LBB18:
 1059 004e 0023     		movs	r3, #0
 1060              	@ 386 "../../../../os/hal/src/serial_usb.c" 1
 1061 0050 83F31188 		msr     BASEPRI, r3
 1062              	@ 0 "" 2
ARM GAS  /tmp/cclHDyzq.s 			page 20


 1063              		.thumb
 1064              	.LBE18:
 1065              		.loc 1 388 0
 1066 0054 B8FBF7F3 		udiv	r3, r8, r7
 1067              	.LVL115:
 1068              		.loc 1 389 0
 1069 0058 07FB03F3 		mul	r3, r7, r3
 1070              	.LVL116:
 1071 005c 04F10C02 		add	r2, r4, #12
 1072 0060 3046     		mov	r0, r6
 1073 0062 2946     		mov	r1, r5
 1074 0064 FFF7FEFF 		bl	usbPrepareQueuedReceive
 1075              	.LVL117:
 1076              	.LBB19:
 1077              		.loc 1 391 0
 1078 0068 2023     		movs	r3, #32
 1079              	@ 391 "../../../../os/hal/src/serial_usb.c" 1
 1080 006a 83F31188 		msr     BASEPRI, r3
 1081              	@ 0 "" 2
 1082              		.thumb
 1083              	.LBE19:
 1084 006e FFF7FEFF 		bl	dbg_check_lock_from_isr
 1085              	.LVL118:
 1086              		.loc 1 392 0
 1087 0072 3046     		mov	r0, r6
 1088 0074 2946     		mov	r1, r5
 1089 0076 FFF7FEFF 		bl	usbStartReceiveI
 1090              	.LVL119:
 1091 007a DFE7     		b	.L60
 1092              		.cfi_endproc
 1093              	.LFE135:
 1094              		.size	sduDataReceived, .-sduDataReceived
 1095 007c AFF30080 		.section	.text.sduInterruptTransmitted,"ax",%progbits
 1096              		.align	2
 1097              		.p2align 4,,15
 1098              		.global	sduInterruptTransmitted
 1099              		.thumb
 1100              		.thumb_func
 1101              		.type	sduInterruptTransmitted, %function
 1102              	sduInterruptTransmitted:
 1103              	.LFB136:
 1104              		.loc 1 406 0
 1105              		.cfi_startproc
 1106              		@ args = 0, pretend = 0, frame = 0
 1107              		@ frame_needed = 0, uses_anonymous_args = 0
 1108              		@ link register save eliminated.
 1109              	.LVL120:
 1110 0000 7047     		bx	lr
 1111              		.cfi_endproc
 1112              	.LFE136:
 1113              		.size	sduInterruptTransmitted, .-sduInterruptTransmitted
 1114 0002 00BFAFF3 		.section	.rodata.str1.4,"aMS",%progbits,1
 1114      0080AFF3 
 1114      0080AFF3 
 1114      0080
 1115              		.align	2
 1116              	.LC0:
ARM GAS  /tmp/cclHDyzq.s 			page 21


 1117 0000 22736475 		.ascii	"\"sduStart\"()\000"
 1117      53746172 
 1117      74222829 
 1117      00
 1118 000d 000000   		.space	3
 1119              	.LC1:
 1120 0010 73647553 		.ascii	"sduStart(), #1\000"
 1120      74617274 
 1120      28292C20 
 1120      233100
 1121 001f 00       		.space	1
 1122              	.LC2:
 1123 0020 73647553 		.ascii	"sduStop(), #1\000"
 1123      746F7028 
 1123      292C2023 
 1123      3100
 1124 002e 0000     		.section	.rodata.vmt,"a",%progbits
 1125              		.align	2
 1126              		.set	.LANCHOR0,. + 0
 1127              		.type	vmt, %object
 1128              		.size	vmt, 32
 1129              	vmt:
 1130 0000 00000000 		.word	write
 1131 0004 00000000 		.word	read
 1132 0008 00000000 		.word	put
 1133 000c 00000000 		.word	get
 1134 0010 00000000 		.word	putt
 1135 0014 00000000 		.word	gett
 1136 0018 00000000 		.word	writet
 1137 001c 00000000 		.word	readt
 1138              		.section	.data.linecoding,"aw",%progbits
 1139              		.align	2
 1140              		.set	.LANCHOR1,. + 0
 1141              		.type	linecoding, %object
 1142              		.size	linecoding, 7
 1143              	linecoding:
 1144 0000 00       		.byte	0
 1145 0001 96       		.byte	-106
 1146 0002 00       		.byte	0
 1147 0003 00       		.byte	0
 1148 0004 00       		.byte	0
 1149 0005 00       		.byte	0
 1150 0006 08       		.byte	8
 1151 0007 00       		.text
 1152              	.Letext0:
 1153              		.file 2 "/usr/lib/gcc/arm-none-eabi/4.8/include/stddef.h"
 1154              		.file 3 "/usr/include/newlib/machine/_default_types.h"
 1155              		.file 4 "/usr/include/newlib/stdint.h"
 1156              		.file 5 "../../../../os/ports/GCC/ARMCMx/chtypes.h"
 1157              		.file 6 "../../../../os/kernel/include/chlists.h"
 1158              		.file 7 "../../../../os/kernel/include/chthreads.h"
 1159              		.file 8 "../../../../os/ports/GCC/ARMCMx/chcore_v7m.h"
 1160              		.file 9 "../../../../os/kernel/include/chmtx.h"
 1161              		.file 10 "../../../../os/kernel/include/chevents.h"
 1162              		.file 11 "../../../../os/kernel/include/chqueues.h"
 1163              		.file 12 "../../../../os/hal/include/usb.h"
 1164              		.file 13 "../../../../os/hal/platforms/STM32/USBv1/usb_lld.h"
ARM GAS  /tmp/cclHDyzq.s 			page 22


 1165              		.file 14 "../../../../os/hal/include/serial_usb.h"
 1166              		.file 15 "../../../../os/kernel/include/chdebug.h"
 1167              		.file 16 "../../../../os/kernel/include/chschd.h"
 1168              		.file 17 "../../../../os/ports/common/ARMCMx/CMSIS/include/core_cm4.h"