ARM GAS  /tmp/ccDe7wQg.s 			page 1


   1              		.syntax unified
   2              		.cpu cortex-m4
   3              		.eabi_attribute 27, 3
   4              		.fpu fpv4-sp-d16
   5              		.eabi_attribute 20, 1
   6              		.eabi_attribute 21, 1
   7              		.eabi_attribute 23, 3
   8              		.eabi_attribute 24, 1
   9              		.eabi_attribute 25, 1
  10              		.eabi_attribute 26, 1
  11              		.eabi_attribute 30, 2
  12              		.eabi_attribute 34, 1
  13              		.eabi_attribute 18, 4
  14              		.thumb
  15              		.file	"stm32f30x_flash.c"
  16              		.text
  17              	.Ltext0:
  18              		.cfi_sections	.debug_frame
  19              		.section	.text.FLASH_SetLatency,"ax",%progbits
  20              		.align	2
  21              		.p2align 4,,15
  22              		.global	FLASH_SetLatency
  23              		.thumb
  24              		.thumb_func
  25              		.type	FLASH_SetLatency, %function
  26              	FLASH_SetLatency:
  27              	.LFB111:
  28              		.file 1 "../../../../ext/stm32lib/src/stm32f30x_flash.c"
  29              		.loc 1 132 0
  30              		.cfi_startproc
  31              		@ args = 0, pretend = 0, frame = 0
  32              		@ frame_needed = 0, uses_anonymous_args = 0
  33              		@ link register save eliminated.
  34              	.LVL0:
  35              		.loc 1 139 0
  36 0000 034B     		ldr	r3, .L2
  37 0002 1A68     		ldr	r2, [r3]
  38              	.LVL1:
  39              		.loc 1 142 0
  40 0004 22F00302 		bic	r2, r2, #3
  41              	.LVL2:
  42              		.loc 1 143 0
  43 0008 1043     		orrs	r0, r0, r2
  44              	.LVL3:
  45              		.loc 1 146 0
  46 000a 1860     		str	r0, [r3]
  47 000c 7047     		bx	lr
  48              	.L3:
  49 000e 00BF     		.align	2
  50              	.L2:
  51 0010 00200240 		.word	1073881088
  52              		.cfi_endproc
  53              	.LFE111:
  54              		.size	FLASH_SetLatency, .-FLASH_SetLatency
  55 0014 AFF30080 		.section	.text.FLASH_HalfCycleAccessCmd,"ax",%progbits
  55      AFF30080 
  55      AFF30080 
ARM GAS  /tmp/ccDe7wQg.s 			page 2


  56              		.align	2
  57              		.p2align 4,,15
  58              		.global	FLASH_HalfCycleAccessCmd
  59              		.thumb
  60              		.thumb_func
  61              		.type	FLASH_HalfCycleAccessCmd, %function
  62              	FLASH_HalfCycleAccessCmd:
  63              	.LFB112:
  64              		.loc 1 158 0
  65              		.cfi_startproc
  66              		@ args = 0, pretend = 0, frame = 0
  67              		@ frame_needed = 0, uses_anonymous_args = 0
  68              		@ link register save eliminated.
  69              	.LVL4:
  70              		.loc 1 164 0
  71 0000 054B     		ldr	r3, .L9
  72 0002 1A68     		ldr	r2, [r3]
  73              		.loc 1 162 0
  74 0004 18B9     		cbnz	r0, .L8
  75              		.loc 1 168 0
  76 0006 22F00802 		bic	r2, r2, #8
  77 000a 1A60     		str	r2, [r3]
  78 000c 7047     		bx	lr
  79              	.L8:
  80              		.loc 1 164 0
  81 000e 42F00802 		orr	r2, r2, #8
  82 0012 1A60     		str	r2, [r3]
  83 0014 7047     		bx	lr
  84              	.L10:
  85 0016 00BF     		.align	2
  86              	.L9:
  87 0018 00200240 		.word	1073881088
  88              		.cfi_endproc
  89              	.LFE112:
  90              		.size	FLASH_HalfCycleAccessCmd, .-FLASH_HalfCycleAccessCmd
  91 001c AFF30080 		.section	.text.FLASH_PrefetchBufferCmd,"ax",%progbits
  92              		.align	2
  93              		.p2align 4,,15
  94              		.global	FLASH_PrefetchBufferCmd
  95              		.thumb
  96              		.thumb_func
  97              		.type	FLASH_PrefetchBufferCmd, %function
  98              	FLASH_PrefetchBufferCmd:
  99              	.LFB113:
 100              		.loc 1 179 0
 101              		.cfi_startproc
 102              		@ args = 0, pretend = 0, frame = 0
 103              		@ frame_needed = 0, uses_anonymous_args = 0
 104              		@ link register save eliminated.
 105              	.LVL5:
 106              		.loc 1 185 0
 107 0000 054B     		ldr	r3, .L15
 108 0002 1A68     		ldr	r2, [r3]
 109              		.loc 1 183 0
 110 0004 18B9     		cbnz	r0, .L14
 111              		.loc 1 189 0
 112 0006 22F01002 		bic	r2, r2, #16
ARM GAS  /tmp/ccDe7wQg.s 			page 3


 113 000a 1A60     		str	r2, [r3]
 114 000c 7047     		bx	lr
 115              	.L14:
 116              		.loc 1 185 0
 117 000e 42F01002 		orr	r2, r2, #16
 118 0012 1A60     		str	r2, [r3]
 119 0014 7047     		bx	lr
 120              	.L16:
 121 0016 00BF     		.align	2
 122              	.L15:
 123 0018 00200240 		.word	1073881088
 124              		.cfi_endproc
 125              	.LFE113:
 126              		.size	FLASH_PrefetchBufferCmd, .-FLASH_PrefetchBufferCmd
 127 001c AFF30080 		.section	.text.FLASH_Unlock,"ax",%progbits
 128              		.align	2
 129              		.p2align 4,,15
 130              		.global	FLASH_Unlock
 131              		.thumb
 132              		.thumb_func
 133              		.type	FLASH_Unlock, %function
 134              	FLASH_Unlock:
 135              	.LFB114:
 136              		.loc 1 229 0
 137              		.cfi_startproc
 138              		@ args = 0, pretend = 0, frame = 0
 139              		@ frame_needed = 0, uses_anonymous_args = 0
 140              		@ link register save eliminated.
 141              		.loc 1 230 0
 142 0000 044B     		ldr	r3, .L22
 143 0002 1A69     		ldr	r2, [r3, #16]
 144 0004 1206     		lsls	r2, r2, #24
 145 0006 03D5     		bpl	.L17
 146              		.loc 1 233 0
 147 0008 0349     		ldr	r1, .L22+4
 148              		.loc 1 234 0
 149 000a 044A     		ldr	r2, .L22+8
 150              		.loc 1 233 0
 151 000c 5960     		str	r1, [r3, #4]
 152              		.loc 1 234 0
 153 000e 5A60     		str	r2, [r3, #4]
 154              	.L17:
 155 0010 7047     		bx	lr
 156              	.L23:
 157 0012 00BF     		.align	2
 158              	.L22:
 159 0014 00200240 		.word	1073881088
 160 0018 23016745 		.word	1164378403
 161 001c AB89EFCD 		.word	-839939669
 162              		.cfi_endproc
 163              	.LFE114:
 164              		.size	FLASH_Unlock, .-FLASH_Unlock
 165              		.section	.text.FLASH_Lock,"ax",%progbits
 166              		.align	2
 167              		.p2align 4,,15
 168              		.global	FLASH_Lock
 169              		.thumb
ARM GAS  /tmp/ccDe7wQg.s 			page 4


 170              		.thumb_func
 171              		.type	FLASH_Lock, %function
 172              	FLASH_Lock:
 173              	.LFB115:
 174              		.loc 1 244 0
 175              		.cfi_startproc
 176              		@ args = 0, pretend = 0, frame = 0
 177              		@ frame_needed = 0, uses_anonymous_args = 0
 178              		@ link register save eliminated.
 179              		.loc 1 246 0
 180 0000 024B     		ldr	r3, .L25
 181 0002 1A69     		ldr	r2, [r3, #16]
 182 0004 42F08002 		orr	r2, r2, #128
 183 0008 1A61     		str	r2, [r3, #16]
 184 000a 7047     		bx	lr
 185              	.L26:
 186              		.align	2
 187              	.L25:
 188 000c 00200240 		.word	1073881088
 189              		.cfi_endproc
 190              	.LFE115:
 191              		.size	FLASH_Lock, .-FLASH_Lock
 192              		.section	.text.FLASH_OB_Unlock,"ax",%progbits
 193              		.align	2
 194              		.p2align 4,,15
 195              		.global	FLASH_OB_Unlock
 196              		.thumb
 197              		.thumb_func
 198              		.type	FLASH_OB_Unlock, %function
 199              	FLASH_OB_Unlock:
 200              	.LFB120:
 201              		.loc 1 484 0
 202              		.cfi_startproc
 203              		@ args = 0, pretend = 0, frame = 0
 204              		@ frame_needed = 0, uses_anonymous_args = 0
 205              		@ link register save eliminated.
 206              		.loc 1 485 0
 207 0000 044B     		ldr	r3, .L29
 208 0002 1A69     		ldr	r2, [r3, #16]
 209 0004 9205     		lsls	r2, r2, #22
 210 0006 03D4     		bmi	.L27
 211              		.loc 1 488 0
 212 0008 0349     		ldr	r1, .L29+4
 213              		.loc 1 489 0
 214 000a 044A     		ldr	r2, .L29+8
 215              		.loc 1 488 0
 216 000c 9960     		str	r1, [r3, #8]
 217              		.loc 1 489 0
 218 000e 9A60     		str	r2, [r3, #8]
 219              	.L27:
 220 0010 7047     		bx	lr
 221              	.L30:
 222 0012 00BF     		.align	2
 223              	.L29:
 224 0014 00200240 		.word	1073881088
 225 0018 23016745 		.word	1164378403
 226 001c AB89EFCD 		.word	-839939669
ARM GAS  /tmp/ccDe7wQg.s 			page 5


 227              		.cfi_endproc
 228              	.LFE120:
 229              		.size	FLASH_OB_Unlock, .-FLASH_OB_Unlock
 230              		.section	.text.FLASH_OB_Lock,"ax",%progbits
 231              		.align	2
 232              		.p2align 4,,15
 233              		.global	FLASH_OB_Lock
 234              		.thumb
 235              		.thumb_func
 236              		.type	FLASH_OB_Lock, %function
 237              	FLASH_OB_Lock:
 238              	.LFB121:
 239              		.loc 1 499 0
 240              		.cfi_startproc
 241              		@ args = 0, pretend = 0, frame = 0
 242              		@ frame_needed = 0, uses_anonymous_args = 0
 243              		@ link register save eliminated.
 244              		.loc 1 501 0
 245 0000 024B     		ldr	r3, .L32
 246 0002 1A69     		ldr	r2, [r3, #16]
 247 0004 22F40072 		bic	r2, r2, #512
 248 0008 1A61     		str	r2, [r3, #16]
 249 000a 7047     		bx	lr
 250              	.L33:
 251              		.align	2
 252              	.L32:
 253 000c 00200240 		.word	1073881088
 254              		.cfi_endproc
 255              	.LFE121:
 256              		.size	FLASH_OB_Lock, .-FLASH_OB_Lock
 257              		.section	.text.FLASH_OB_Launch,"ax",%progbits
 258              		.align	2
 259              		.p2align 4,,15
 260              		.global	FLASH_OB_Launch
 261              		.thumb
 262              		.thumb_func
 263              		.type	FLASH_OB_Launch, %function
 264              	FLASH_OB_Launch:
 265              	.LFB122:
 266              		.loc 1 510 0
 267              		.cfi_startproc
 268              		@ args = 0, pretend = 0, frame = 0
 269              		@ frame_needed = 0, uses_anonymous_args = 0
 270              		@ link register save eliminated.
 271              		.loc 1 512 0
 272 0000 024B     		ldr	r3, .L35
 273 0002 1A69     		ldr	r2, [r3, #16]
 274 0004 42F40052 		orr	r2, r2, #8192
 275 0008 1A61     		str	r2, [r3, #16]
 276 000a 7047     		bx	lr
 277              	.L36:
 278              		.align	2
 279              	.L35:
 280 000c 00200240 		.word	1073881088
 281              		.cfi_endproc
 282              	.LFE122:
 283              		.size	FLASH_OB_Launch, .-FLASH_OB_Launch
ARM GAS  /tmp/ccDe7wQg.s 			page 6


 284              		.section	.text.FLASH_OB_GetUser,"ax",%progbits
 285              		.align	2
 286              		.p2align 4,,15
 287              		.global	FLASH_OB_GetUser
 288              		.thumb
 289              		.thumb_func
 290              		.type	FLASH_OB_GetUser, %function
 291              	FLASH_OB_GetUser:
 292              	.LFB132:
 293              		.loc 1 966 0
 294              		.cfi_startproc
 295              		@ args = 0, pretend = 0, frame = 0
 296              		@ frame_needed = 0, uses_anonymous_args = 0
 297              		@ link register save eliminated.
 298              		.loc 1 968 0
 299 0000 024B     		ldr	r3, .L38
 300 0002 D869     		ldr	r0, [r3, #28]
 301              		.loc 1 969 0
 302 0004 C0F30720 		ubfx	r0, r0, #8, #8
 303 0008 7047     		bx	lr
 304              	.L39:
 305 000a 00BF     		.align	2
 306              	.L38:
 307 000c 00200240 		.word	1073881088
 308              		.cfi_endproc
 309              	.LFE132:
 310              		.size	FLASH_OB_GetUser, .-FLASH_OB_GetUser
 311              		.section	.text.FLASH_OB_GetWRP,"ax",%progbits
 312              		.align	2
 313              		.p2align 4,,15
 314              		.global	FLASH_OB_GetWRP
 315              		.thumb
 316              		.thumb_func
 317              		.type	FLASH_OB_GetWRP, %function
 318              	FLASH_OB_GetWRP:
 319              	.LFB133:
 320              		.loc 1 977 0
 321              		.cfi_startproc
 322              		@ args = 0, pretend = 0, frame = 0
 323              		@ frame_needed = 0, uses_anonymous_args = 0
 324              		@ link register save eliminated.
 325              		.loc 1 979 0
 326 0000 014B     		ldr	r3, .L41
 327 0002 186A     		ldr	r0, [r3, #32]
 328              		.loc 1 980 0
 329 0004 7047     		bx	lr
 330              	.L42:
 331 0006 00BF     		.align	2
 332              	.L41:
 333 0008 00200240 		.word	1073881088
 334              		.cfi_endproc
 335              	.LFE133:
 336              		.size	FLASH_OB_GetWRP, .-FLASH_OB_GetWRP
 337 000c AFF30080 		.section	.text.FLASH_OB_GetRDP,"ax",%progbits
 338              		.align	2
 339              		.p2align 4,,15
 340              		.global	FLASH_OB_GetRDP
ARM GAS  /tmp/ccDe7wQg.s 			page 7


 341              		.thumb
 342              		.thumb_func
 343              		.type	FLASH_OB_GetRDP, %function
 344              	FLASH_OB_GetRDP:
 345              	.LFB134:
 346              		.loc 1 988 0
 347              		.cfi_startproc
 348              		@ args = 0, pretend = 0, frame = 0
 349              		@ frame_needed = 0, uses_anonymous_args = 0
 350              		@ link register save eliminated.
 351              	.LVL6:
 352              		.loc 1 991 0
 353 0000 034B     		ldr	r3, .L44
 354 0002 DB69     		ldr	r3, [r3, #28]
 355              	.LVL7:
 356 0004 13F0060F 		tst	r3, #6
 357              		.loc 1 1000 0
 358 0008 0CBF     		ite	eq
 359 000a 0020     		moveq	r0, #0
 360 000c 0120     		movne	r0, #1
 361 000e 7047     		bx	lr
 362              	.L45:
 363              		.align	2
 364              	.L44:
 365 0010 00200240 		.word	1073881088
 366              		.cfi_endproc
 367              	.LFE134:
 368              		.size	FLASH_OB_GetRDP, .-FLASH_OB_GetRDP
 369 0014 AFF30080 		.section	.text.FLASH_ITConfig,"ax",%progbits
 369      AFF30080 
 369      AFF30080 
 370              		.align	2
 371              		.p2align 4,,15
 372              		.global	FLASH_ITConfig
 373              		.thumb
 374              		.thumb_func
 375              		.type	FLASH_ITConfig, %function
 376              	FLASH_ITConfig:
 377              	.LFB135:
 378              		.loc 1 1028 0
 379              		.cfi_startproc
 380              		@ args = 0, pretend = 0, frame = 0
 381              		@ frame_needed = 0, uses_anonymous_args = 0
 382              		@ link register save eliminated.
 383              	.LVL8:
 384              		.loc 1 1036 0
 385 0000 044B     		ldr	r3, .L50
 386 0002 1A69     		ldr	r2, [r3, #16]
 387              		.loc 1 1033 0
 388 0004 19B9     		cbnz	r1, .L49
 389              		.loc 1 1041 0
 390 0006 22EA0000 		bic	r0, r2, r0
 391              	.LVL9:
 392 000a 1861     		str	r0, [r3, #16]
 393 000c 7047     		bx	lr
 394              	.LVL10:
 395              	.L49:
ARM GAS  /tmp/ccDe7wQg.s 			page 8


 396              		.loc 1 1036 0
 397 000e 1043     		orrs	r0, r0, r2
 398              	.LVL11:
 399 0010 1861     		str	r0, [r3, #16]
 400 0012 7047     		bx	lr
 401              	.L51:
 402              		.align	2
 403              	.L50:
 404 0014 00200240 		.word	1073881088
 405              		.cfi_endproc
 406              	.LFE135:
 407              		.size	FLASH_ITConfig, .-FLASH_ITConfig
 408 0018 AFF30080 		.section	.text.FLASH_GetFlagStatus,"ax",%progbits
 408      AFF30080 
 409              		.align	2
 410              		.p2align 4,,15
 411              		.global	FLASH_GetFlagStatus
 412              		.thumb
 413              		.thumb_func
 414              		.type	FLASH_GetFlagStatus, %function
 415              	FLASH_GetFlagStatus:
 416              	.LFB136:
 417              		.loc 1 1056 0
 418              		.cfi_startproc
 419              		@ args = 0, pretend = 0, frame = 0
 420              		@ frame_needed = 0, uses_anonymous_args = 0
 421              		@ link register save eliminated.
 422              	.LVL12:
 423              		.loc 1 1062 0
 424 0000 034B     		ldr	r3, .L53
 425 0002 DB68     		ldr	r3, [r3, #12]
 426              	.LVL13:
 427 0004 1842     		tst	r0, r3
 428              		.loc 1 1072 0
 429 0006 0CBF     		ite	eq
 430 0008 0020     		moveq	r0, #0
 431 000a 0120     		movne	r0, #1
 432              	.LVL14:
 433 000c 7047     		bx	lr
 434              	.L54:
 435 000e 00BF     		.align	2
 436              	.L53:
 437 0010 00200240 		.word	1073881088
 438              		.cfi_endproc
 439              	.LFE136:
 440              		.size	FLASH_GetFlagStatus, .-FLASH_GetFlagStatus
 441 0014 AFF30080 		.section	.text.FLASH_ClearFlag,"ax",%progbits
 441      AFF30080 
 441      AFF30080 
 442              		.align	2
 443              		.p2align 4,,15
 444              		.global	FLASH_ClearFlag
 445              		.thumb
 446              		.thumb_func
 447              		.type	FLASH_ClearFlag, %function
 448              	FLASH_ClearFlag:
 449              	.LFB137:
ARM GAS  /tmp/ccDe7wQg.s 			page 9


 450              		.loc 1 1084 0
 451              		.cfi_startproc
 452              		@ args = 0, pretend = 0, frame = 0
 453              		@ frame_needed = 0, uses_anonymous_args = 0
 454              		@ link register save eliminated.
 455              	.LVL15:
 456              		.loc 1 1089 0
 457 0000 014B     		ldr	r3, .L56
 458 0002 D860     		str	r0, [r3, #12]
 459 0004 7047     		bx	lr
 460              	.L57:
 461 0006 00BF     		.align	2
 462              	.L56:
 463 0008 00200240 		.word	1073881088
 464              		.cfi_endproc
 465              	.LFE137:
 466              		.size	FLASH_ClearFlag, .-FLASH_ClearFlag
 467 000c AFF30080 		.section	.text.FLASH_GetStatus,"ax",%progbits
 468              		.align	2
 469              		.p2align 4,,15
 470              		.global	FLASH_GetStatus
 471              		.thumb
 472              		.thumb_func
 473              		.type	FLASH_GetStatus, %function
 474              	FLASH_GetStatus:
 475              	.LFB138:
 476              		.loc 1 1099 0
 477              		.cfi_startproc
 478              		@ args = 0, pretend = 0, frame = 0
 479              		@ frame_needed = 0, uses_anonymous_args = 0
 480              		@ link register save eliminated.
 481              	.LVL16:
 482              		.loc 1 1102 0
 483 0000 084B     		ldr	r3, .L65
 484 0002 DA68     		ldr	r2, [r3, #12]
 485 0004 D107     		lsls	r1, r2, #31
 486 0006 0BD4     		bmi	.L61
 487              		.loc 1 1108 0
 488 0008 DA68     		ldr	r2, [r3, #12]
 489 000a D206     		lsls	r2, r2, #27
 490 000c 01D5     		bpl	.L64
 491              		.loc 1 1110 0
 492 000e 0220     		movs	r0, #2
 493              	.LVL17:
 494              		.loc 1 1126 0
 495 0010 7047     		bx	lr
 496              	.LVL18:
 497              	.L64:
 498              	.LBB6:
 499              	.LBB7:
 500              		.loc 1 1114 0
 501 0012 DB68     		ldr	r3, [r3, #12]
 502 0014 13F0040F 		tst	r3, #4
 503              		.loc 1 1116 0
 504 0018 0CBF     		ite	eq
 505 001a 0420     		moveq	r0, #4
 506 001c 0320     		movne	r0, #3
ARM GAS  /tmp/ccDe7wQg.s 			page 10


 507 001e 7047     		bx	lr
 508              	.L61:
 509              	.LBE7:
 510              	.LBE6:
 511              		.loc 1 1104 0
 512 0020 0120     		movs	r0, #1
 513 0022 7047     		bx	lr
 514              	.L66:
 515              		.align	2
 516              	.L65:
 517 0024 00200240 		.word	1073881088
 518              		.cfi_endproc
 519              	.LFE138:
 520              		.size	FLASH_GetStatus, .-FLASH_GetStatus
 521 0028 AFF30080 		.section	.text.FLASH_WaitForLastOperation,"ax",%progbits
 521      AFF30080 
 522              		.align	2
 523              		.p2align 4,,15
 524              		.global	FLASH_WaitForLastOperation
 525              		.thumb
 526              		.thumb_func
 527              		.type	FLASH_WaitForLastOperation, %function
 528              	FLASH_WaitForLastOperation:
 529              	.LFB139:
 530              		.loc 1 1135 0
 531              		.cfi_startproc
 532              		@ args = 0, pretend = 0, frame = 0
 533              		@ frame_needed = 0, uses_anonymous_args = 0
 534              	.LVL19:
 535 0000 10B5     		push	{r4, lr}
 536              		.cfi_def_cfa_offset 8
 537              		.cfi_offset 4, -8
 538              		.cfi_offset 14, -4
 539              		.loc 1 1135 0
 540 0002 0446     		mov	r4, r0
 541              		.loc 1 1139 0
 542 0004 FFF7FEFF 		bl	FLASH_GetStatus
 543              	.LVL20:
 544              		.loc 1 1142 0
 545 0008 0128     		cmp	r0, #1
 546 000a 06D1     		bne	.L68
 547              	.LVL21:
 548              	.L80:
 549 000c 3CB1     		cbz	r4, .L71
 550              	.LVL22:
 551              		.loc 1 1144 0
 552 000e FFF7FEFF 		bl	FLASH_GetStatus
 553              	.LVL23:
 554              		.loc 1 1142 0
 555 0012 0128     		cmp	r0, #1
 556              		.loc 1 1145 0
 557 0014 04F1FF34 		add	r4, r4, #-1
 558              	.LVL24:
 559              		.loc 1 1142 0
 560 0018 F8D0     		beq	.L80
 561              	.LVL25:
 562              	.L68:
ARM GAS  /tmp/ccDe7wQg.s 			page 11


 563              		.loc 1 1148 0
 564 001a 04B1     		cbz	r4, .L71
 565              	.LVL26:
 566              		.loc 1 1154 0
 567 001c 10BD     		pop	{r4, pc}
 568              	.LVL27:
 569              	.L71:
 570              		.loc 1 1150 0
 571 001e 0520     		movs	r0, #5
 572 0020 10BD     		pop	{r4, pc}
 573              		.cfi_endproc
 574              	.LFE139:
 575              		.size	FLASH_WaitForLastOperation, .-FLASH_WaitForLastOperation
 576 0022 00BFAFF3 		.section	.text.FLASH_ErasePage,"ax",%progbits
 576      0080AFF3 
 576      0080AFF3 
 576      0080
 577              		.align	2
 578              		.p2align 4,,15
 579              		.global	FLASH_ErasePage
 580              		.thumb
 581              		.thumb_func
 582              		.type	FLASH_ErasePage, %function
 583              	FLASH_ErasePage:
 584              	.LFB116:
 585              		.loc 1 262 0
 586              		.cfi_startproc
 587              		@ args = 0, pretend = 0, frame = 0
 588              		@ frame_needed = 0, uses_anonymous_args = 0
 589              	.LVL28:
 590 0000 38B5     		push	{r3, r4, r5, lr}
 591              		.cfi_def_cfa_offset 16
 592              		.cfi_offset 3, -16
 593              		.cfi_offset 4, -12
 594              		.cfi_offset 5, -8
 595              		.cfi_offset 14, -4
 596              		.loc 1 262 0
 597 0002 0546     		mov	r5, r0
 598              		.loc 1 269 0
 599 0004 4FF43020 		mov	r0, #720896
 600              	.LVL29:
 601 0008 FFF7FEFF 		bl	FLASH_WaitForLastOperation
 602              	.LVL30:
 603              		.loc 1 271 0
 604 000c 0428     		cmp	r0, #4
 605 000e 00D0     		beq	.L83
 606              		.loc 1 287 0
 607 0010 38BD     		pop	{r3, r4, r5, pc}
 608              	.LVL31:
 609              	.L83:
 610              		.loc 1 274 0
 611 0012 094C     		ldr	r4, .L84
 612 0014 2369     		ldr	r3, [r4, #16]
 613 0016 43F00203 		orr	r3, r3, #2
 614 001a 2361     		str	r3, [r4, #16]
 615              		.loc 1 275 0
 616 001c 6561     		str	r5, [r4, #20]
ARM GAS  /tmp/ccDe7wQg.s 			page 12


 617              		.loc 1 276 0
 618 001e 2369     		ldr	r3, [r4, #16]
 619 0020 43F04003 		orr	r3, r3, #64
 620 0024 2361     		str	r3, [r4, #16]
 621              		.loc 1 279 0
 622 0026 4FF43020 		mov	r0, #720896
 623              	.LVL32:
 624 002a FFF7FEFF 		bl	FLASH_WaitForLastOperation
 625              	.LVL33:
 626              		.loc 1 282 0
 627 002e 2369     		ldr	r3, [r4, #16]
 628 0030 23F00203 		bic	r3, r3, #2
 629 0034 2361     		str	r3, [r4, #16]
 630              		.loc 1 287 0
 631 0036 38BD     		pop	{r3, r4, r5, pc}
 632              	.LVL34:
 633              	.L85:
 634              		.align	2
 635              	.L84:
 636 0038 00200240 		.word	1073881088
 637              		.cfi_endproc
 638              	.LFE116:
 639              		.size	FLASH_ErasePage, .-FLASH_ErasePage
 640 003c AFF30080 		.section	.text.FLASH_EraseAllPages,"ax",%progbits
 641              		.align	2
 642              		.p2align 4,,15
 643              		.global	FLASH_EraseAllPages
 644              		.thumb
 645              		.thumb_func
 646              		.type	FLASH_EraseAllPages, %function
 647              	FLASH_EraseAllPages:
 648              	.LFB117:
 649              		.loc 1 300 0
 650              		.cfi_startproc
 651              		@ args = 0, pretend = 0, frame = 0
 652              		@ frame_needed = 0, uses_anonymous_args = 0
 653              	.LVL35:
 654 0000 10B5     		push	{r4, lr}
 655              		.cfi_def_cfa_offset 8
 656              		.cfi_offset 4, -8
 657              		.cfi_offset 14, -4
 658              		.loc 1 304 0
 659 0002 4FF43020 		mov	r0, #720896
 660 0006 FFF7FEFF 		bl	FLASH_WaitForLastOperation
 661              	.LVL36:
 662              		.loc 1 306 0
 663 000a 0428     		cmp	r0, #4
 664 000c 00D0     		beq	.L88
 665              		.loc 1 321 0
 666 000e 10BD     		pop	{r4, pc}
 667              	.L88:
 668              		.loc 1 309 0
 669 0010 084C     		ldr	r4, .L89
 670 0012 2369     		ldr	r3, [r4, #16]
 671 0014 43F00403 		orr	r3, r3, #4
 672 0018 2361     		str	r3, [r4, #16]
 673              		.loc 1 310 0
ARM GAS  /tmp/ccDe7wQg.s 			page 13


 674 001a 2369     		ldr	r3, [r4, #16]
 675 001c 43F04003 		orr	r3, r3, #64
 676 0020 2361     		str	r3, [r4, #16]
 677              		.loc 1 313 0
 678 0022 4FF43020 		mov	r0, #720896
 679              	.LVL37:
 680 0026 FFF7FEFF 		bl	FLASH_WaitForLastOperation
 681              	.LVL38:
 682              		.loc 1 316 0
 683 002a 2369     		ldr	r3, [r4, #16]
 684 002c 23F00403 		bic	r3, r3, #4
 685 0030 2361     		str	r3, [r4, #16]
 686              		.loc 1 321 0
 687 0032 10BD     		pop	{r4, pc}
 688              	.L90:
 689              		.align	2
 690              	.L89:
 691 0034 00200240 		.word	1073881088
 692              		.cfi_endproc
 693              	.LFE117:
 694              		.size	FLASH_EraseAllPages, .-FLASH_EraseAllPages
 695 0038 AFF30080 		.section	.text.FLASH_ProgramWord,"ax",%progbits
 695      AFF30080 
 696              		.align	2
 697              		.p2align 4,,15
 698              		.global	FLASH_ProgramWord
 699              		.thumb
 700              		.thumb_func
 701              		.type	FLASH_ProgramWord, %function
 702              	FLASH_ProgramWord:
 703              	.LFB118:
 704              		.loc 1 335 0
 705              		.cfi_startproc
 706              		@ args = 0, pretend = 0, frame = 8
 707              		@ frame_needed = 0, uses_anonymous_args = 0
 708              	.LVL39:
 709 0000 70B5     		push	{r4, r5, r6, lr}
 710              		.cfi_def_cfa_offset 16
 711              		.cfi_offset 4, -16
 712              		.cfi_offset 5, -12
 713              		.cfi_offset 6, -8
 714              		.cfi_offset 14, -4
 715 0002 82B0     		sub	sp, sp, #8
 716              		.cfi_def_cfa_offset 24
 717              		.loc 1 337 0
 718 0004 0023     		movs	r3, #0
 719              		.loc 1 335 0
 720 0006 0546     		mov	r5, r0
 721              		.loc 1 343 0
 722 0008 4FF43020 		mov	r0, #720896
 723              	.LVL40:
 724              		.loc 1 335 0
 725 000c 0C46     		mov	r4, r1
 726              		.loc 1 337 0
 727 000e 0193     		str	r3, [sp, #4]
 728              		.loc 1 343 0
 729 0010 FFF7FEFF 		bl	FLASH_WaitForLastOperation
ARM GAS  /tmp/ccDe7wQg.s 			page 14


 730              	.LVL41:
 731              		.loc 1 345 0
 732 0014 0428     		cmp	r0, #4
 733 0016 01D0     		beq	.L94
 734              	.LVL42:
 735              	.L92:
 736              		.loc 1 379 0
 737 0018 02B0     		add	sp, sp, #8
 738              		@ sp needed
 739 001a 70BD     		pop	{r4, r5, r6, pc}
 740              	.LVL43:
 741              	.L94:
 742              		.loc 1 349 0
 743 001c 104E     		ldr	r6, .L96
 744 001e 3269     		ldr	r2, [r6, #16]
 745              		.loc 1 351 0
 746 0020 A3B2     		uxth	r3, r4
 747              		.loc 1 349 0
 748 0022 42F00102 		orr	r2, r2, #1
 749 0026 3261     		str	r2, [r6, #16]
 750              		.loc 1 354 0
 751 0028 4FF43020 		mov	r0, #720896
 752              	.LVL44:
 753              		.loc 1 351 0
 754 002c 2B80     		strh	r3, [r5]	@ movhi
 755              		.loc 1 354 0
 756 002e FFF7FEFF 		bl	FLASH_WaitForLastOperation
 757              	.LVL45:
 758              		.loc 1 356 0
 759 0032 0428     		cmp	r0, #4
 760 0034 05D0     		beq	.L95
 761              		.loc 1 373 0
 762 0036 3369     		ldr	r3, [r6, #16]
 763 0038 23F00103 		bic	r3, r3, #1
 764 003c 3361     		str	r3, [r6, #16]
 765              		.loc 1 379 0
 766 003e 02B0     		add	sp, sp, #8
 767              		@ sp needed
 768 0040 70BD     		pop	{r4, r5, r6, pc}
 769              	.LVL46:
 770              	.L95:
 771              		.loc 1 360 0
 772 0042 0235     		adds	r5, r5, #2
 773              	.LVL47:
 774 0044 0195     		str	r5, [sp, #4]
 775              		.loc 1 362 0
 776 0046 019B     		ldr	r3, [sp, #4]
 777 0048 240C     		lsrs	r4, r4, #16
 778              	.LVL48:
 779 004a 1C80     		strh	r4, [r3]	@ movhi
 780              		.loc 1 365 0
 781 004c 4FF43020 		mov	r0, #720896
 782              	.LVL49:
 783 0050 FFF7FEFF 		bl	FLASH_WaitForLastOperation
 784              	.LVL50:
 785              		.loc 1 368 0
 786 0054 3369     		ldr	r3, [r6, #16]
ARM GAS  /tmp/ccDe7wQg.s 			page 15


 787 0056 23F00103 		bic	r3, r3, #1
 788 005a 3361     		str	r3, [r6, #16]
 789 005c DCE7     		b	.L92
 790              	.L97:
 791 005e 00BF     		.align	2
 792              	.L96:
 793 0060 00200240 		.word	1073881088
 794              		.cfi_endproc
 795              	.LFE118:
 796              		.size	FLASH_ProgramWord, .-FLASH_ProgramWord
 797 0064 AFF30080 		.section	.text.FLASH_ProgramHalfWord,"ax",%progbits
 797      AFF30080 
 797      AFF30080 
 798              		.align	2
 799              		.p2align 4,,15
 800              		.global	FLASH_ProgramHalfWord
 801              		.thumb
 802              		.thumb_func
 803              		.type	FLASH_ProgramHalfWord, %function
 804              	FLASH_ProgramHalfWord:
 805              	.LFB119:
 806              		.loc 1 393 0
 807              		.cfi_startproc
 808              		@ args = 0, pretend = 0, frame = 0
 809              		@ frame_needed = 0, uses_anonymous_args = 0
 810              	.LVL51:
 811 0000 70B5     		push	{r4, r5, r6, lr}
 812              		.cfi_def_cfa_offset 16
 813              		.cfi_offset 4, -16
 814              		.cfi_offset 5, -12
 815              		.cfi_offset 6, -8
 816              		.cfi_offset 14, -4
 817              		.loc 1 393 0
 818 0002 0446     		mov	r4, r0
 819              		.loc 1 400 0
 820 0004 4FF43020 		mov	r0, #720896
 821              	.LVL52:
 822              		.loc 1 393 0
 823 0008 0D46     		mov	r5, r1
 824              		.loc 1 400 0
 825 000a FFF7FEFF 		bl	FLASH_WaitForLastOperation
 826              	.LVL53:
 827              		.loc 1 402 0
 828 000e 0428     		cmp	r0, #4
 829 0010 00D0     		beq	.L100
 830              		.loc 1 418 0
 831 0012 70BD     		pop	{r4, r5, r6, pc}
 832              	.LVL54:
 833              	.L100:
 834              		.loc 1 405 0
 835 0014 074E     		ldr	r6, .L101
 836 0016 3369     		ldr	r3, [r6, #16]
 837 0018 43F00103 		orr	r3, r3, #1
 838 001c 3361     		str	r3, [r6, #16]
 839              		.loc 1 410 0
 840 001e 4FF43020 		mov	r0, #720896
 841              	.LVL55:
ARM GAS  /tmp/ccDe7wQg.s 			page 16


 842              		.loc 1 407 0
 843 0022 2580     		strh	r5, [r4]	@ movhi
 844              		.loc 1 410 0
 845 0024 FFF7FEFF 		bl	FLASH_WaitForLastOperation
 846              	.LVL56:
 847              		.loc 1 413 0
 848 0028 3369     		ldr	r3, [r6, #16]
 849 002a 23F00103 		bic	r3, r3, #1
 850 002e 3361     		str	r3, [r6, #16]
 851              		.loc 1 418 0
 852 0030 70BD     		pop	{r4, r5, r6, pc}
 853              	.LVL57:
 854              	.L102:
 855 0032 00BF     		.align	2
 856              	.L101:
 857 0034 00200240 		.word	1073881088
 858              		.cfi_endproc
 859              	.LFE119:
 860              		.size	FLASH_ProgramHalfWord, .-FLASH_ProgramHalfWord
 861 0038 AFF30080 		.section	.text.FLASH_OB_Erase,"ax",%progbits
 861      AFF30080 
 862              		.align	2
 863              		.p2align 4,,15
 864              		.global	FLASH_OB_Erase
 865              		.thumb
 866              		.thumb_func
 867              		.type	FLASH_OB_Erase, %function
 868              	FLASH_OB_Erase:
 869              	.LFB123:
 870              		.loc 1 523 0
 871              		.cfi_startproc
 872              		@ args = 0, pretend = 0, frame = 0
 873              		@ frame_needed = 0, uses_anonymous_args = 0
 874              	.LVL58:
 875 0000 38B5     		push	{r3, r4, r5, lr}
 876              		.cfi_def_cfa_offset 16
 877              		.cfi_offset 3, -16
 878              		.cfi_offset 4, -12
 879              		.cfi_offset 5, -8
 880              		.cfi_offset 14, -4
 881              	.LBB8:
 882              	.LBB9:
 883              		.loc 1 991 0
 884 0002 1A4C     		ldr	r4, .L117
 885 0004 E369     		ldr	r3, [r4, #28]
 886              	.LBE9:
 887              	.LBE8:
 888              		.loc 1 535 0
 889 0006 4FF43020 		mov	r0, #720896
 890              		.loc 1 531 0
 891 000a 13F0060F 		tst	r3, #6
 892 000e 0CBF     		ite	eq
 893 0010 AA25     		moveq	r5, #170
 894 0012 0025     		movne	r5, #0
 895              	.LVL59:
 896              		.loc 1 535 0
 897 0014 FFF7FEFF 		bl	FLASH_WaitForLastOperation
ARM GAS  /tmp/ccDe7wQg.s 			page 17


 898              	.LVL60:
 899              		.loc 1 537 0
 900 0018 0428     		cmp	r0, #4
 901 001a 00D0     		beq	.L115
 902              	.LVL61:
 903              	.L105:
 904              		.loc 1 577 0
 905 001c 38BD     		pop	{r3, r4, r5, pc}
 906              	.LVL62:
 907              	.L115:
 908              		.loc 1 540 0
 909 001e 2369     		ldr	r3, [r4, #16]
 910 0020 43F02003 		orr	r3, r3, #32
 911 0024 2361     		str	r3, [r4, #16]
 912              		.loc 1 541 0
 913 0026 2369     		ldr	r3, [r4, #16]
 914 0028 43F04003 		orr	r3, r3, #64
 915 002c 2361     		str	r3, [r4, #16]
 916              		.loc 1 544 0
 917 002e 4FF43020 		mov	r0, #720896
 918              	.LVL63:
 919 0032 FFF7FEFF 		bl	FLASH_WaitForLastOperation
 920              	.LVL64:
 921              		.loc 1 546 0
 922 0036 0428     		cmp	r0, #4
 923 0038 06D0     		beq	.L116
 924              		.loc 1 568 0
 925 003a 0528     		cmp	r0, #5
 926 003c EED0     		beq	.L105
 927              	.LVL65:
 928              	.L114:
 929              		.loc 1 571 0
 930 003e 2369     		ldr	r3, [r4, #16]
 931 0040 23F01003 		bic	r3, r3, #16
 932 0044 2361     		str	r3, [r4, #16]
 933              	.LVL66:
 934              		.loc 1 577 0
 935 0046 38BD     		pop	{r3, r4, r5, pc}
 936              	.LVL67:
 937              	.L116:
 938              		.loc 1 549 0
 939 0048 2269     		ldr	r2, [r4, #16]
 940              		.loc 1 555 0
 941 004a 094B     		ldr	r3, .L117+4
 942              		.loc 1 549 0
 943 004c 22F02002 		bic	r2, r2, #32
 944 0050 2261     		str	r2, [r4, #16]
 945              		.loc 1 552 0
 946 0052 2269     		ldr	r2, [r4, #16]
 947 0054 42F01002 		orr	r2, r2, #16
 948 0058 2261     		str	r2, [r4, #16]
 949              		.loc 1 558 0
 950 005a 4FF43020 		mov	r0, #720896
 951              	.LVL68:
 952              		.loc 1 555 0
 953 005e 1D80     		strh	r5, [r3]	@ movhi
 954              		.loc 1 558 0
ARM GAS  /tmp/ccDe7wQg.s 			page 18


 955 0060 FFF7FEFF 		bl	FLASH_WaitForLastOperation
 956              	.LVL69:
 957              		.loc 1 560 0
 958 0064 0528     		cmp	r0, #5
 959 0066 EAD1     		bne	.L114
 960 0068 D8E7     		b	.L105
 961              	.L118:
 962 006a 00BF     		.align	2
 963              	.L117:
 964 006c 00200240 		.word	1073881088
 965 0070 00F8FF1F 		.word	536868864
 966              		.cfi_endproc
 967              	.LFE123:
 968              		.size	FLASH_OB_Erase, .-FLASH_OB_Erase
 969 0074 AFF30080 		.section	.text.FLASH_OB_EnableWRP,"ax",%progbits
 969      AFF30080 
 969      AFF30080 
 970              		.align	2
 971              		.p2align 4,,15
 972              		.global	FLASH_OB_EnableWRP
 973              		.thumb
 974              		.thumb_func
 975              		.type	FLASH_OB_EnableWRP, %function
 976              	FLASH_OB_EnableWRP:
 977              	.LFB124:
 978              		.loc 1 593 0
 979              		.cfi_startproc
 980              		@ args = 0, pretend = 0, frame = 0
 981              		@ frame_needed = 0, uses_anonymous_args = 0
 982              	.LVL70:
 983 0000 10B5     		push	{r4, lr}
 984              		.cfi_def_cfa_offset 8
 985              		.cfi_offset 4, -8
 986              		.cfi_offset 14, -4
 987              		.loc 1 593 0
 988 0002 0446     		mov	r4, r0
 989              	.LVL71:
 990              		.loc 1 606 0
 991 0004 4FF43020 		mov	r0, #720896
 992              	.LVL72:
 993 0008 FFF7FEFF 		bl	FLASH_WaitForLastOperation
 994              	.LVL73:
 995              		.loc 1 608 0
 996 000c 0428     		cmp	r0, #4
 997 000e 00D0     		beq	.L130
 998              	.LVL74:
 999              	.L120:
 1000              		.loc 1 635 0
 1001 0010 10BD     		pop	{r4, pc}
 1002              	.LVL75:
 1003              	.L130:
 1004              		.loc 1 610 0
 1005 0012 134B     		ldr	r3, .L132
 1006              		.loc 1 601 0
 1007 0014 E443     		mvns	r4, r4
 1008              	.LVL76:
 1009              		.loc 1 610 0
ARM GAS  /tmp/ccDe7wQg.s 			page 19


 1010 0016 1969     		ldr	r1, [r3, #16]
 1011              		.loc 1 602 0
 1012 0018 E2B2     		uxtb	r2, r4
 1013              		.loc 1 610 0
 1014 001a 41F01001 		orr	r1, r1, #16
 1015              		.loc 1 612 0
 1016 001e FF2A     		cmp	r2, #255
 1017              		.loc 1 610 0
 1018 0020 1961     		str	r1, [r3, #16]
 1019              		.loc 1 612 0
 1020 0022 0FD0     		beq	.L124
 1021              		.loc 1 614 0
 1022 0024 0F4B     		ldr	r3, .L132+4
 1023              		.loc 1 617 0
 1024 0026 4FF43020 		mov	r0, #720896
 1025              	.LVL77:
 1026              		.loc 1 614 0
 1027 002a 1A81     		strh	r2, [r3, #8]	@ movhi
 1028              		.loc 1 617 0
 1029 002c FFF7FEFF 		bl	FLASH_WaitForLastOperation
 1030              	.LVL78:
 1031              		.loc 1 619 0
 1032 0030 0428     		cmp	r0, #4
 1033 0032 07D0     		beq	.L124
 1034              	.LVL79:
 1035              	.L125:
 1036              		.loc 1 627 0
 1037 0034 0528     		cmp	r0, #5
 1038 0036 EBD0     		beq	.L120
 1039              	.LVL80:
 1040              	.L123:
 1041              		.loc 1 630 0
 1042 0038 094B     		ldr	r3, .L132
 1043 003a 1A69     		ldr	r2, [r3, #16]
 1044 003c 22F01002 		bic	r2, r2, #16
 1045 0040 1A61     		str	r2, [r3, #16]
 1046              		.loc 1 635 0
 1047 0042 10BD     		pop	{r4, pc}
 1048              	.LVL81:
 1049              	.L124:
 1050              		.loc 1 603 0
 1051 0044 C4F30724 		ubfx	r4, r4, #8, #8
 1052              		.loc 1 619 0
 1053 0048 FF2C     		cmp	r4, #255
 1054 004a 06D0     		beq	.L131
 1055              		.loc 1 621 0
 1056 004c 054B     		ldr	r3, .L132+4
 1057              		.loc 1 624 0
 1058 004e 4FF43020 		mov	r0, #720896
 1059              		.loc 1 621 0
 1060 0052 5C81     		strh	r4, [r3, #10]	@ movhi
 1061              		.loc 1 624 0
 1062 0054 FFF7FEFF 		bl	FLASH_WaitForLastOperation
 1063              	.LVL82:
 1064 0058 ECE7     		b	.L125
 1065              	.LVL83:
 1066              	.L131:
ARM GAS  /tmp/ccDe7wQg.s 			page 20


 1067 005a 0420     		movs	r0, #4
 1068 005c ECE7     		b	.L123
 1069              	.L133:
 1070 005e 00BF     		.align	2
 1071              	.L132:
 1072 0060 00200240 		.word	1073881088
 1073 0064 00F8FF1F 		.word	536868864
 1074              		.cfi_endproc
 1075              	.LFE124:
 1076              		.size	FLASH_OB_EnableWRP, .-FLASH_OB_EnableWRP
 1077 0068 AFF30080 		.section	.text.FLASH_OB_RDPConfig,"ax",%progbits
 1077      AFF30080 
 1078              		.align	2
 1079              		.p2align 4,,15
 1080              		.global	FLASH_OB_RDPConfig
 1081              		.thumb
 1082              		.thumb_func
 1083              		.type	FLASH_OB_RDPConfig, %function
 1084              	FLASH_OB_RDPConfig:
 1085              	.LFB125:
 1086              		.loc 1 652 0
 1087              		.cfi_startproc
 1088              		@ args = 0, pretend = 0, frame = 0
 1089              		@ frame_needed = 0, uses_anonymous_args = 0
 1090              	.LVL84:
 1091 0000 38B5     		push	{r3, r4, r5, lr}
 1092              		.cfi_def_cfa_offset 16
 1093              		.cfi_offset 3, -16
 1094              		.cfi_offset 4, -12
 1095              		.cfi_offset 5, -8
 1096              		.cfi_offset 14, -4
 1097              		.loc 1 652 0
 1098 0002 0546     		mov	r5, r0
 1099              		.loc 1 657 0
 1100 0004 4FF43020 		mov	r0, #720896
 1101              	.LVL85:
 1102 0008 FFF7FEFF 		bl	FLASH_WaitForLastOperation
 1103              	.LVL86:
 1104              		.loc 1 659 0
 1105 000c 0428     		cmp	r0, #4
 1106 000e 00D0     		beq	.L143
 1107              	.LVL87:
 1108              	.L135:
 1109              		.loc 1 697 0
 1110 0010 38BD     		pop	{r3, r4, r5, pc}
 1111              	.L143:
 1112              		.loc 1 661 0
 1113 0012 154C     		ldr	r4, .L145
 1114 0014 2369     		ldr	r3, [r4, #16]
 1115 0016 43F02003 		orr	r3, r3, #32
 1116 001a 2361     		str	r3, [r4, #16]
 1117              		.loc 1 662 0
 1118 001c 2369     		ldr	r3, [r4, #16]
 1119 001e 43F04003 		orr	r3, r3, #64
 1120 0022 2361     		str	r3, [r4, #16]
 1121              		.loc 1 665 0
 1122 0024 4FF43020 		mov	r0, #720896
ARM GAS  /tmp/ccDe7wQg.s 			page 21


 1123              	.LVL88:
 1124 0028 FFF7FEFF 		bl	FLASH_WaitForLastOperation
 1125              	.LVL89:
 1126              		.loc 1 667 0
 1127 002c 0428     		cmp	r0, #4
 1128 002e 06D0     		beq	.L144
 1129              		.loc 1 688 0
 1130 0030 0528     		cmp	r0, #5
 1131 0032 EDD0     		beq	.L135
 1132              		.loc 1 691 0
 1133 0034 2369     		ldr	r3, [r4, #16]
 1134 0036 23F02003 		bic	r3, r3, #32
 1135 003a 2361     		str	r3, [r4, #16]
 1136              		.loc 1 697 0
 1137 003c 38BD     		pop	{r3, r4, r5, pc}
 1138              	.L144:
 1139              		.loc 1 670 0
 1140 003e 2269     		ldr	r2, [r4, #16]
 1141              		.loc 1 675 0
 1142 0040 0A4B     		ldr	r3, .L145+4
 1143              		.loc 1 670 0
 1144 0042 22F02002 		bic	r2, r2, #32
 1145 0046 2261     		str	r2, [r4, #16]
 1146              		.loc 1 673 0
 1147 0048 2269     		ldr	r2, [r4, #16]
 1148 004a 42F01002 		orr	r2, r2, #16
 1149 004e 2261     		str	r2, [r4, #16]
 1150              		.loc 1 678 0
 1151 0050 4FF43020 		mov	r0, #720896
 1152              	.LVL90:
 1153              		.loc 1 675 0
 1154 0054 1D80     		strh	r5, [r3]	@ movhi
 1155              		.loc 1 678 0
 1156 0056 FFF7FEFF 		bl	FLASH_WaitForLastOperation
 1157              	.LVL91:
 1158              		.loc 1 680 0
 1159 005a 0528     		cmp	r0, #5
 1160 005c D8D0     		beq	.L135
 1161              		.loc 1 683 0
 1162 005e 2369     		ldr	r3, [r4, #16]
 1163 0060 23F01003 		bic	r3, r3, #16
 1164 0064 2361     		str	r3, [r4, #16]
 1165 0066 38BD     		pop	{r3, r4, r5, pc}
 1166              	.L146:
 1167              		.align	2
 1168              	.L145:
 1169 0068 00200240 		.word	1073881088
 1170 006c 00F8FF1F 		.word	536868864
 1171              		.cfi_endproc
 1172              	.LFE125:
 1173              		.size	FLASH_OB_RDPConfig, .-FLASH_OB_RDPConfig
 1174              		.section	.text.FLASH_OB_UserConfig,"ax",%progbits
 1175              		.align	2
 1176              		.p2align 4,,15
 1177              		.global	FLASH_OB_UserConfig
 1178              		.thumb
 1179              		.thumb_func
ARM GAS  /tmp/ccDe7wQg.s 			page 22


 1180              		.type	FLASH_OB_UserConfig, %function
 1181              	FLASH_OB_UserConfig:
 1182              	.LFB126:
 1183              		.loc 1 717 0
 1184              		.cfi_startproc
 1185              		@ args = 0, pretend = 0, frame = 0
 1186              		@ frame_needed = 0, uses_anonymous_args = 0
 1187              	.LVL92:
 1188 0000 F8B5     		push	{r3, r4, r5, r6, r7, lr}
 1189              		.cfi_def_cfa_offset 24
 1190              		.cfi_offset 3, -24
 1191              		.cfi_offset 4, -20
 1192              		.cfi_offset 5, -16
 1193              		.cfi_offset 6, -12
 1194              		.cfi_offset 7, -8
 1195              		.cfi_offset 14, -4
 1196              		.loc 1 726 0
 1197 0002 124C     		ldr	r4, .L153
 1198 0004 124D     		ldr	r5, .L153+4
 1199              		.loc 1 727 0
 1200 0006 134B     		ldr	r3, .L153+8
 1201              		.loc 1 726 0
 1202 0008 A560     		str	r5, [r4, #8]
 1203              		.loc 1 717 0
 1204 000a 0546     		mov	r5, r0
 1205              		.loc 1 727 0
 1206 000c A360     		str	r3, [r4, #8]
 1207              		.loc 1 730 0
 1208 000e 4FF43020 		mov	r0, #720896
 1209              	.LVL93:
 1210              		.loc 1 717 0
 1211 0012 0E46     		mov	r6, r1
 1212 0014 1746     		mov	r7, r2
 1213              		.loc 1 730 0
 1214 0016 FFF7FEFF 		bl	FLASH_WaitForLastOperation
 1215              	.LVL94:
 1216              		.loc 1 732 0
 1217 001a 0428     		cmp	r0, #4
 1218 001c 00D0     		beq	.L152
 1219              	.LVL95:
 1220              	.L148:
 1221              		.loc 1 750 0
 1222 001e F8BD     		pop	{r3, r4, r5, r6, r7, pc}
 1223              	.L152:
 1224              		.loc 1 737 0
 1225 0020 67F00707 		orn	r7, r7, #7
 1226              		.loc 1 735 0
 1227 0024 2269     		ldr	r2, [r4, #16]
 1228              		.loc 1 737 0
 1229 0026 0C4B     		ldr	r3, .L153+12
 1230 0028 3E43     		orrs	r6, r6, r7
 1231 002a 3543     		orrs	r5, r5, r6
 1232              		.loc 1 735 0
 1233 002c 42F01002 		orr	r2, r2, #16
 1234              		.loc 1 737 0
 1235 0030 EDB2     		uxtb	r5, r5
 1236              		.loc 1 735 0
ARM GAS  /tmp/ccDe7wQg.s 			page 23


 1237 0032 2261     		str	r2, [r4, #16]
 1238              		.loc 1 740 0
 1239 0034 4FF43020 		mov	r0, #720896
 1240              	.LVL96:
 1241              		.loc 1 737 0
 1242 0038 5D80     		strh	r5, [r3, #2]	@ movhi
 1243              		.loc 1 740 0
 1244 003a FFF7FEFF 		bl	FLASH_WaitForLastOperation
 1245              	.LVL97:
 1246              		.loc 1 742 0
 1247 003e 0528     		cmp	r0, #5
 1248 0040 EDD0     		beq	.L148
 1249              		.loc 1 745 0
 1250 0042 2369     		ldr	r3, [r4, #16]
 1251 0044 23F01003 		bic	r3, r3, #16
 1252 0048 2361     		str	r3, [r4, #16]
 1253              		.loc 1 750 0
 1254 004a F8BD     		pop	{r3, r4, r5, r6, r7, pc}
 1255              	.L154:
 1256              		.align	2
 1257              	.L153:
 1258 004c 00200240 		.word	1073881088
 1259 0050 23016745 		.word	1164378403
 1260 0054 AB89EFCD 		.word	-839939669
 1261 0058 00F8FF1F 		.word	536868864
 1262              		.cfi_endproc
 1263              	.LFE126:
 1264              		.size	FLASH_OB_UserConfig, .-FLASH_OB_UserConfig
 1265 005c AFF30080 		.section	.text.FLASH_OB_BOOTConfig,"ax",%progbits
 1266              		.align	2
 1267              		.p2align 4,,15
 1268              		.global	FLASH_OB_BOOTConfig
 1269              		.thumb
 1270              		.thumb_func
 1271              		.type	FLASH_OB_BOOTConfig, %function
 1272              	FLASH_OB_BOOTConfig:
 1273              	.LFB127:
 1274              		.loc 1 761 0
 1275              		.cfi_startproc
 1276              		@ args = 0, pretend = 0, frame = 0
 1277              		@ frame_needed = 0, uses_anonymous_args = 0
 1278              	.LVL98:
 1279 0000 38B5     		push	{r3, r4, r5, lr}
 1280              		.cfi_def_cfa_offset 16
 1281              		.cfi_offset 3, -16
 1282              		.cfi_offset 4, -12
 1283              		.cfi_offset 5, -8
 1284              		.cfi_offset 14, -4
 1285              		.loc 1 768 0
 1286 0002 104C     		ldr	r4, .L161
 1287 0004 104A     		ldr	r2, .L161+4
 1288              		.loc 1 769 0
 1289 0006 114B     		ldr	r3, .L161+8
 1290              		.loc 1 768 0
 1291 0008 A260     		str	r2, [r4, #8]
 1292              		.loc 1 761 0
 1293 000a 0546     		mov	r5, r0
ARM GAS  /tmp/ccDe7wQg.s 			page 24


 1294              		.loc 1 769 0
 1295 000c A360     		str	r3, [r4, #8]
 1296              		.loc 1 772 0
 1297 000e 4FF43020 		mov	r0, #720896
 1298              	.LVL99:
 1299 0012 FFF7FEFF 		bl	FLASH_WaitForLastOperation
 1300              	.LVL100:
 1301              		.loc 1 774 0
 1302 0016 0428     		cmp	r0, #4
 1303 0018 00D0     		beq	.L160
 1304              	.LVL101:
 1305              	.L156:
 1306              		.loc 1 792 0
 1307 001a 38BD     		pop	{r3, r4, r5, pc}
 1308              	.L160:
 1309              		.loc 1 777 0
 1310 001c 2269     		ldr	r2, [r4, #16]
 1311              		.loc 1 779 0
 1312 001e 0C4B     		ldr	r3, .L161+12
 1313              		.loc 1 777 0
 1314 0020 42F01002 		orr	r2, r2, #16
 1315              		.loc 1 779 0
 1316 0024 45F0EF05 		orr	r5, r5, #239
 1317              		.loc 1 777 0
 1318 0028 2261     		str	r2, [r4, #16]
 1319              		.loc 1 782 0
 1320 002a 4FF43020 		mov	r0, #720896
 1321              	.LVL102:
 1322              		.loc 1 779 0
 1323 002e 5D80     		strh	r5, [r3, #2]	@ movhi
 1324              		.loc 1 782 0
 1325 0030 FFF7FEFF 		bl	FLASH_WaitForLastOperation
 1326              	.LVL103:
 1327              		.loc 1 784 0
 1328 0034 0528     		cmp	r0, #5
 1329 0036 F0D0     		beq	.L156
 1330              		.loc 1 787 0
 1331 0038 2369     		ldr	r3, [r4, #16]
 1332 003a 23F01003 		bic	r3, r3, #16
 1333 003e 2361     		str	r3, [r4, #16]
 1334              		.loc 1 792 0
 1335 0040 38BD     		pop	{r3, r4, r5, pc}
 1336              	.L162:
 1337 0042 00BF     		.align	2
 1338              	.L161:
 1339 0044 00200240 		.word	1073881088
 1340 0048 23016745 		.word	1164378403
 1341 004c AB89EFCD 		.word	-839939669
 1342 0050 00F8FF1F 		.word	536868864
 1343              		.cfi_endproc
 1344              	.LFE127:
 1345              		.size	FLASH_OB_BOOTConfig, .-FLASH_OB_BOOTConfig
 1346 0054 AFF30080 		.section	.text.FLASH_OB_VDDAConfig,"ax",%progbits
 1346      AFF30080 
 1346      AFF30080 
 1347              		.align	2
 1348              		.p2align 4,,15
ARM GAS  /tmp/ccDe7wQg.s 			page 25


 1349              		.global	FLASH_OB_VDDAConfig
 1350              		.thumb
 1351              		.thumb_func
 1352              		.type	FLASH_OB_VDDAConfig, %function
 1353              	FLASH_OB_VDDAConfig:
 1354              	.LFB128:
 1355              		.loc 1 803 0
 1356              		.cfi_startproc
 1357              		@ args = 0, pretend = 0, frame = 0
 1358              		@ frame_needed = 0, uses_anonymous_args = 0
 1359              	.LVL104:
 1360 0000 38B5     		push	{r3, r4, r5, lr}
 1361              		.cfi_def_cfa_offset 16
 1362              		.cfi_offset 3, -16
 1363              		.cfi_offset 4, -12
 1364              		.cfi_offset 5, -8
 1365              		.cfi_offset 14, -4
 1366              		.loc 1 810 0
 1367 0002 104C     		ldr	r4, .L169
 1368 0004 104A     		ldr	r2, .L169+4
 1369              		.loc 1 811 0
 1370 0006 114B     		ldr	r3, .L169+8
 1371              		.loc 1 810 0
 1372 0008 A260     		str	r2, [r4, #8]
 1373              		.loc 1 803 0
 1374 000a 0546     		mov	r5, r0
 1375              		.loc 1 811 0
 1376 000c A360     		str	r3, [r4, #8]
 1377              		.loc 1 814 0
 1378 000e 4FF43020 		mov	r0, #720896
 1379              	.LVL105:
 1380 0012 FFF7FEFF 		bl	FLASH_WaitForLastOperation
 1381              	.LVL106:
 1382              		.loc 1 816 0
 1383 0016 0428     		cmp	r0, #4
 1384 0018 00D0     		beq	.L168
 1385              	.LVL107:
 1386              	.L164:
 1387              		.loc 1 834 0
 1388 001a 38BD     		pop	{r3, r4, r5, pc}
 1389              	.L168:
 1390              		.loc 1 819 0
 1391 001c 2269     		ldr	r2, [r4, #16]
 1392              		.loc 1 821 0
 1393 001e 0C4B     		ldr	r3, .L169+12
 1394              		.loc 1 819 0
 1395 0020 42F01002 		orr	r2, r2, #16
 1396              		.loc 1 821 0
 1397 0024 45F0DF05 		orr	r5, r5, #223
 1398              		.loc 1 819 0
 1399 0028 2261     		str	r2, [r4, #16]
 1400              		.loc 1 824 0
 1401 002a 4FF43020 		mov	r0, #720896
 1402              	.LVL108:
 1403              		.loc 1 821 0
 1404 002e 5D80     		strh	r5, [r3, #2]	@ movhi
 1405              		.loc 1 824 0
ARM GAS  /tmp/ccDe7wQg.s 			page 26


 1406 0030 FFF7FEFF 		bl	FLASH_WaitForLastOperation
 1407              	.LVL109:
 1408              		.loc 1 826 0
 1409 0034 0528     		cmp	r0, #5
 1410 0036 F0D0     		beq	.L164
 1411              		.loc 1 829 0
 1412 0038 2369     		ldr	r3, [r4, #16]
 1413 003a 23F01003 		bic	r3, r3, #16
 1414 003e 2361     		str	r3, [r4, #16]
 1415              		.loc 1 834 0
 1416 0040 38BD     		pop	{r3, r4, r5, pc}
 1417              	.L170:
 1418 0042 00BF     		.align	2
 1419              	.L169:
 1420 0044 00200240 		.word	1073881088
 1421 0048 23016745 		.word	1164378403
 1422 004c AB89EFCD 		.word	-839939669
 1423 0050 00F8FF1F 		.word	536868864
 1424              		.cfi_endproc
 1425              	.LFE128:
 1426              		.size	FLASH_OB_VDDAConfig, .-FLASH_OB_VDDAConfig
 1427 0054 AFF30080 		.section	.text.FLASH_OB_SRAMParityConfig,"ax",%progbits
 1427      AFF30080 
 1427      AFF30080 
 1428              		.align	2
 1429              		.p2align 4,,15
 1430              		.global	FLASH_OB_SRAMParityConfig
 1431              		.thumb
 1432              		.thumb_func
 1433              		.type	FLASH_OB_SRAMParityConfig, %function
 1434              	FLASH_OB_SRAMParityConfig:
 1435              	.LFB129:
 1436              		.loc 1 845 0
 1437              		.cfi_startproc
 1438              		@ args = 0, pretend = 0, frame = 0
 1439              		@ frame_needed = 0, uses_anonymous_args = 0
 1440              	.LVL110:
 1441 0000 38B5     		push	{r3, r4, r5, lr}
 1442              		.cfi_def_cfa_offset 16
 1443              		.cfi_offset 3, -16
 1444              		.cfi_offset 4, -12
 1445              		.cfi_offset 5, -8
 1446              		.cfi_offset 14, -4
 1447              		.loc 1 845 0
 1448 0002 0446     		mov	r4, r0
 1449              		.loc 1 852 0
 1450 0004 4FF43020 		mov	r0, #720896
 1451              	.LVL111:
 1452 0008 FFF7FEFF 		bl	FLASH_WaitForLastOperation
 1453              	.LVL112:
 1454              		.loc 1 854 0
 1455 000c 0428     		cmp	r0, #4
 1456 000e 00D0     		beq	.L176
 1457              	.LVL113:
 1458              	.L172:
 1459              		.loc 1 872 0
 1460 0010 38BD     		pop	{r3, r4, r5, pc}
ARM GAS  /tmp/ccDe7wQg.s 			page 27


 1461              	.L176:
 1462              		.loc 1 857 0
 1463 0012 0A4D     		ldr	r5, .L177
 1464              		.loc 1 859 0
 1465 0014 0A4B     		ldr	r3, .L177+4
 1466              		.loc 1 857 0
 1467 0016 2A69     		ldr	r2, [r5, #16]
 1468              		.loc 1 859 0
 1469 0018 44F0BF04 		orr	r4, r4, #191
 1470              		.loc 1 857 0
 1471 001c 42F01002 		orr	r2, r2, #16
 1472 0020 2A61     		str	r2, [r5, #16]
 1473              		.loc 1 862 0
 1474 0022 4FF43020 		mov	r0, #720896
 1475              	.LVL114:
 1476              		.loc 1 859 0
 1477 0026 5C80     		strh	r4, [r3, #2]	@ movhi
 1478              		.loc 1 862 0
 1479 0028 FFF7FEFF 		bl	FLASH_WaitForLastOperation
 1480              	.LVL115:
 1481              		.loc 1 864 0
 1482 002c 0528     		cmp	r0, #5
 1483 002e EFD0     		beq	.L172
 1484              		.loc 1 867 0
 1485 0030 2B69     		ldr	r3, [r5, #16]
 1486 0032 23F01003 		bic	r3, r3, #16
 1487 0036 2B61     		str	r3, [r5, #16]
 1488              		.loc 1 872 0
 1489 0038 38BD     		pop	{r3, r4, r5, pc}
 1490              	.L178:
 1491 003a 00BF     		.align	2
 1492              	.L177:
 1493 003c 00200240 		.word	1073881088
 1494 0040 00F8FF1F 		.word	536868864
 1495              		.cfi_endproc
 1496              	.LFE129:
 1497              		.size	FLASH_OB_SRAMParityConfig, .-FLASH_OB_SRAMParityConfig
 1498 0044 AFF30080 		.section	.text.FLASH_OB_WriteUser,"ax",%progbits
 1498      AFF30080 
 1498      AFF30080 
 1499              		.align	2
 1500              		.p2align 4,,15
 1501              		.global	FLASH_OB_WriteUser
 1502              		.thumb
 1503              		.thumb_func
 1504              		.type	FLASH_OB_WriteUser, %function
 1505              	FLASH_OB_WriteUser:
 1506              	.LFB130:
 1507              		.loc 1 891 0
 1508              		.cfi_startproc
 1509              		@ args = 0, pretend = 0, frame = 0
 1510              		@ frame_needed = 0, uses_anonymous_args = 0
 1511              	.LVL116:
 1512 0000 38B5     		push	{r3, r4, r5, lr}
 1513              		.cfi_def_cfa_offset 16
 1514              		.cfi_offset 3, -16
 1515              		.cfi_offset 4, -12
ARM GAS  /tmp/ccDe7wQg.s 			page 28


 1516              		.cfi_offset 5, -8
 1517              		.cfi_offset 14, -4
 1518              		.loc 1 895 0
 1519 0002 104C     		ldr	r4, .L185
 1520 0004 104A     		ldr	r2, .L185+4
 1521              		.loc 1 896 0
 1522 0006 114B     		ldr	r3, .L185+8
 1523              		.loc 1 895 0
 1524 0008 A260     		str	r2, [r4, #8]
 1525              		.loc 1 891 0
 1526 000a 0546     		mov	r5, r0
 1527              		.loc 1 896 0
 1528 000c A360     		str	r3, [r4, #8]
 1529              		.loc 1 899 0
 1530 000e 4FF43020 		mov	r0, #720896
 1531              	.LVL117:
 1532 0012 FFF7FEFF 		bl	FLASH_WaitForLastOperation
 1533              	.LVL118:
 1534              		.loc 1 901 0
 1535 0016 0428     		cmp	r0, #4
 1536 0018 00D0     		beq	.L184
 1537              	.LVL119:
 1538              	.L180:
 1539              		.loc 1 920 0
 1540 001a 38BD     		pop	{r3, r4, r5, pc}
 1541              	.L184:
 1542              		.loc 1 904 0
 1543 001c 2269     		ldr	r2, [r4, #16]
 1544              		.loc 1 906 0
 1545 001e 0C4B     		ldr	r3, .L185+12
 1546              		.loc 1 904 0
 1547 0020 42F01002 		orr	r2, r2, #16
 1548              		.loc 1 906 0
 1549 0024 45F08805 		orr	r5, r5, #136
 1550              		.loc 1 904 0
 1551 0028 2261     		str	r2, [r4, #16]
 1552              		.loc 1 909 0
 1553 002a 4FF43020 		mov	r0, #720896
 1554              	.LVL120:
 1555              		.loc 1 906 0
 1556 002e 5D80     		strh	r5, [r3, #2]	@ movhi
 1557              		.loc 1 909 0
 1558 0030 FFF7FEFF 		bl	FLASH_WaitForLastOperation
 1559              	.LVL121:
 1560              		.loc 1 911 0
 1561 0034 0528     		cmp	r0, #5
 1562 0036 F0D0     		beq	.L180
 1563              		.loc 1 914 0
 1564 0038 2369     		ldr	r3, [r4, #16]
 1565 003a 23F01003 		bic	r3, r3, #16
 1566 003e 2361     		str	r3, [r4, #16]
 1567              		.loc 1 920 0
 1568 0040 38BD     		pop	{r3, r4, r5, pc}
 1569              	.L186:
 1570 0042 00BF     		.align	2
 1571              	.L185:
 1572 0044 00200240 		.word	1073881088
ARM GAS  /tmp/ccDe7wQg.s 			page 29


 1573 0048 23016745 		.word	1164378403
 1574 004c AB89EFCD 		.word	-839939669
 1575 0050 00F8FF1F 		.word	536868864
 1576              		.cfi_endproc
 1577              	.LFE130:
 1578              		.size	FLASH_OB_WriteUser, .-FLASH_OB_WriteUser
 1579 0054 AFF30080 		.section	.text.FLASH_ProgramOptionByteData,"ax",%progbits
 1579      AFF30080 
 1579      AFF30080 
 1580              		.align	2
 1581              		.p2align 4,,15
 1582              		.global	FLASH_ProgramOptionByteData
 1583              		.thumb
 1584              		.thumb_func
 1585              		.type	FLASH_ProgramOptionByteData, %function
 1586              	FLASH_ProgramOptionByteData:
 1587              	.LFB131:
 1588              		.loc 1 935 0
 1589              		.cfi_startproc
 1590              		@ args = 0, pretend = 0, frame = 0
 1591              		@ frame_needed = 0, uses_anonymous_args = 0
 1592              	.LVL122:
 1593 0000 70B5     		push	{r4, r5, r6, lr}
 1594              		.cfi_def_cfa_offset 16
 1595              		.cfi_offset 4, -16
 1596              		.cfi_offset 5, -12
 1597              		.cfi_offset 6, -8
 1598              		.cfi_offset 14, -4
 1599              		.loc 1 935 0
 1600 0002 0446     		mov	r4, r0
 1601              		.loc 1 939 0
 1602 0004 4FF43020 		mov	r0, #720896
 1603              	.LVL123:
 1604              		.loc 1 935 0
 1605 0008 0D46     		mov	r5, r1
 1606              		.loc 1 939 0
 1607 000a FFF7FEFF 		bl	FLASH_WaitForLastOperation
 1608              	.LVL124:
 1609              		.loc 1 941 0
 1610 000e 0428     		cmp	r0, #4
 1611 0010 00D0     		beq	.L192
 1612              	.LVL125:
 1613              	.L188:
 1614              		.loc 1 958 0
 1615 0012 70BD     		pop	{r4, r5, r6, pc}
 1616              	.LVL126:
 1617              	.L192:
 1618              		.loc 1 944 0
 1619 0014 084E     		ldr	r6, .L193
 1620 0016 3369     		ldr	r3, [r6, #16]
 1621 0018 43F01003 		orr	r3, r3, #16
 1622 001c 3361     		str	r3, [r6, #16]
 1623              		.loc 1 948 0
 1624 001e 4FF43020 		mov	r0, #720896
 1625              	.LVL127:
 1626              		.loc 1 945 0
 1627 0022 2580     		strh	r5, [r4]	@ movhi
ARM GAS  /tmp/ccDe7wQg.s 			page 30


 1628              		.loc 1 948 0
 1629 0024 FFF7FEFF 		bl	FLASH_WaitForLastOperation
 1630              	.LVL128:
 1631              		.loc 1 950 0
 1632 0028 0528     		cmp	r0, #5
 1633 002a F2D0     		beq	.L188
 1634              		.loc 1 953 0
 1635 002c 3369     		ldr	r3, [r6, #16]
 1636 002e 23F01003 		bic	r3, r3, #16
 1637 0032 3361     		str	r3, [r6, #16]
 1638              		.loc 1 958 0
 1639 0034 70BD     		pop	{r4, r5, r6, pc}
 1640              	.LVL129:
 1641              	.L194:
 1642 0036 00BF     		.align	2
 1643              	.L193:
 1644 0038 00200240 		.word	1073881088
 1645              		.cfi_endproc
 1646              	.LFE131:
 1647              		.size	FLASH_ProgramOptionByteData, .-FLASH_ProgramOptionByteData
 1648 003c AFF30080 		.text
 1649              	.Letext0:
 1650              		.file 2 "/usr/include/newlib/machine/_default_types.h"
 1651              		.file 3 "/usr/include/newlib/stdint.h"
 1652              		.file 4 "../../../../os/hal/platforms/STM32F30x/stm32f30x.h"
 1653              		.file 5 "../../../../ext/stm32lib/inc/stm32f30x_flash.h"
 1654              		.file 6 "../../../../os/ports/common/ARMCMx/CMSIS/include/core_cm4.h"