ARM GAS  /tmp/cc5WCmfx.s 			page 1


   1              		.syntax unified
   2              		.cpu cortex-m4
   3              		.eabi_attribute 27, 3
   4              		.fpu fpv4-sp-d16
   5              		.eabi_attribute 20, 1
   6              		.eabi_attribute 21, 1
   7              		.eabi_attribute 23, 3
   8              		.eabi_attribute 24, 1
   9              		.eabi_attribute 25, 1
  10              		.eabi_attribute 26, 1
  11              		.eabi_attribute 30, 2
  12              		.eabi_attribute 34, 1
  13              		.eabi_attribute 18, 4
  14              		.thumb
  15              		.file	"stm32f30x_opamp.c"
  16              		.text
  17              	.Ltext0:
  18              		.cfi_sections	.debug_frame
  19              		.section	.text.OPAMP_DeInit,"ax",%progbits
  20              		.align	2
  21              		.p2align 4,,15
  22              		.global	OPAMP_DeInit
  23              		.thumb
  24              		.thumb_func
  25              		.type	OPAMP_DeInit, %function
  26              	OPAMP_DeInit:
  27              	.LFB111:
  28              		.file 1 "../../../../ext/stm32lib/src/stm32f30x_opamp.c"
  29              		.loc 1 145 0
  30              		.cfi_startproc
  31              		@ args = 0, pretend = 0, frame = 0
  32              		@ frame_needed = 0, uses_anonymous_args = 0
  33              		@ link register save eliminated.
  34              	.LVL0:
  35              		.loc 1 147 0
  36 0000 014B     		ldr	r3, .L2
  37 0002 0022     		movs	r2, #0
  38 0004 C250     		str	r2, [r0, r3]
  39 0006 7047     		bx	lr
  40              	.L3:
  41              		.align	2
  42              	.L2:
  43 0008 38000140 		.word	1073807416
  44              		.cfi_endproc
  45              	.LFE111:
  46              		.size	OPAMP_DeInit, .-OPAMP_DeInit
  47 000c AFF30080 		.section	.text.OPAMP_Init,"ax",%progbits
  48              		.align	2
  49              		.p2align 4,,15
  50              		.global	OPAMP_Init
  51              		.thumb
  52              		.thumb_func
  53              		.type	OPAMP_Init, %function
  54              	OPAMP_Init:
  55              	.LFB112:
  56              		.loc 1 165 0
  57              		.cfi_startproc
ARM GAS  /tmp/cc5WCmfx.s 			page 2


  58              		@ args = 0, pretend = 0, frame = 0
  59              		@ frame_needed = 0, uses_anonymous_args = 0
  60              		@ link register save eliminated.
  61              	.LVL1:
  62              		.loc 1 174 0
  63 0000 054B     		ldr	r3, .L5
  64              		.loc 1 180 0
  65 0002 4A68     		ldr	r2, [r1, #4]
  66              		.loc 1 165 0
  67 0004 30B4     		push	{r4, r5}
  68              		.cfi_def_cfa_offset 8
  69              		.cfi_offset 4, -8
  70              		.cfi_offset 5, -4
  71              		.loc 1 180 0
  72 0006 0C68     		ldr	r4, [r1]
  73              		.loc 1 174 0
  74 0008 C558     		ldr	r5, [r0, r3]
  75              	.LVL2:
  76              		.loc 1 180 0
  77 000a 2243     		orrs	r2, r2, r4
  78              		.loc 1 177 0
  79 000c 25F06C01 		bic	r1, r5, #108
  80              	.LVL3:
  81              		.loc 1 180 0
  82 0010 0A43     		orrs	r2, r2, r1
  83              	.LVL4:
  84              		.loc 1 183 0
  85 0012 C250     		str	r2, [r0, r3]
  86              		.loc 1 184 0
  87 0014 30BC     		pop	{r4, r5}
  88 0016 7047     		bx	lr
  89              	.L6:
  90              		.align	2
  91              	.L5:
  92 0018 38000140 		.word	1073807416
  93              		.cfi_endproc
  94              	.LFE112:
  95              		.size	OPAMP_Init, .-OPAMP_Init
  96 001c AFF30080 		.section	.text.OPAMP_StructInit,"ax",%progbits
  97              		.align	2
  98              		.p2align 4,,15
  99              		.global	OPAMP_StructInit
 100              		.thumb
 101              		.thumb_func
 102              		.type	OPAMP_StructInit, %function
 103              	OPAMP_StructInit:
 104              	.LFB113:
 105              		.loc 1 193 0
 106              		.cfi_startproc
 107              		@ args = 0, pretend = 0, frame = 0
 108              		@ frame_needed = 0, uses_anonymous_args = 0
 109              		@ link register save eliminated.
 110              	.LVL5:
 111              		.loc 1 194 0
 112 0000 0023     		movs	r3, #0
 113 0002 4360     		str	r3, [r0, #4]
 114              		.loc 1 195 0
ARM GAS  /tmp/cc5WCmfx.s 			page 3


 115 0004 0360     		str	r3, [r0]
 116 0006 7047     		bx	lr
 117              		.cfi_endproc
 118              	.LFE113:
 119              		.size	OPAMP_StructInit, .-OPAMP_StructInit
 120 0008 AFF30080 		.section	.text.OPAMP_PGAConfig,"ax",%progbits
 120      AFF30080 
 121              		.align	2
 122              		.p2align 4,,15
 123              		.global	OPAMP_PGAConfig
 124              		.thumb
 125              		.thumb_func
 126              		.type	OPAMP_PGAConfig, %function
 127              	OPAMP_PGAConfig:
 128              	.LFB114:
 129              		.loc 1 210 0
 130              		.cfi_startproc
 131              		@ args = 0, pretend = 0, frame = 0
 132              		@ frame_needed = 0, uses_anonymous_args = 0
 133              		@ link register save eliminated.
 134              	.LVL6:
 135              		.loc 1 217 0
 136 0000 064B     		ldr	r3, .L9
 137              		.loc 1 210 0
 138 0002 10B4     		push	{r4}
 139              		.cfi_def_cfa_offset 4
 140              		.cfi_offset 4, -4
 141              		.loc 1 217 0
 142 0004 C458     		ldr	r4, [r0, r3]
 143 0006 24F47034 		bic	r4, r4, #245760
 144 000a C450     		str	r4, [r0, r3]
 145              		.loc 1 220 0
 146 000c C458     		ldr	r4, [r0, r3]
 147 000e 0A43     		orrs	r2, r2, r1
 148              	.LVL7:
 149 0010 1443     		orrs	r4, r4, r2
 150 0012 C450     		str	r4, [r0, r3]
 151              		.loc 1 221 0
 152 0014 5DF8044B 		ldr	r4, [sp], #4
 153 0018 7047     		bx	lr
 154              	.L10:
 155 001a 00BF     		.align	2
 156              	.L9:
 157 001c 38000140 		.word	1073807416
 158              		.cfi_endproc
 159              	.LFE114:
 160              		.size	OPAMP_PGAConfig, .-OPAMP_PGAConfig
 161              		.section	.text.OPAMP_VrefConfig,"ax",%progbits
 162              		.align	2
 163              		.p2align 4,,15
 164              		.global	OPAMP_VrefConfig
 165              		.thumb
 166              		.thumb_func
 167              		.type	OPAMP_VrefConfig, %function
 168              	OPAMP_VrefConfig:
 169              	.LFB115:
 170              		.loc 1 240 0
ARM GAS  /tmp/cc5WCmfx.s 			page 4


 171              		.cfi_startproc
 172              		@ args = 0, pretend = 0, frame = 0
 173              		@ frame_needed = 0, uses_anonymous_args = 0
 174              		@ link register save eliminated.
 175              	.LVL8:
 176              		.loc 1 248 0
 177 0000 034B     		ldr	r3, .L12
 178 0002 C258     		ldr	r2, [r0, r3]
 179              	.LVL9:
 180              		.loc 1 251 0
 181 0004 22F44052 		bic	r2, r2, #12288
 182              	.LVL10:
 183              		.loc 1 254 0
 184 0008 1143     		orrs	r1, r1, r2
 185              	.LVL11:
 186              		.loc 1 257 0
 187 000a C150     		str	r1, [r0, r3]
 188 000c 7047     		bx	lr
 189              	.L13:
 190 000e 00BF     		.align	2
 191              	.L12:
 192 0010 38000140 		.word	1073807416
 193              		.cfi_endproc
 194              	.LFE115:
 195              		.size	OPAMP_VrefConfig, .-OPAMP_VrefConfig
 196 0014 AFF30080 		.section	.text.OPAMP_VrefConnectNonInvertingInput,"ax",%progbits
 196      AFF30080 
 196      AFF30080 
 197              		.align	2
 198              		.p2align 4,,15
 199              		.global	OPAMP_VrefConnectNonInvertingInput
 200              		.thumb
 201              		.thumb_func
 202              		.type	OPAMP_VrefConnectNonInvertingInput, %function
 203              	OPAMP_VrefConnectNonInvertingInput:
 204              	.LFB116:
 205              		.loc 1 272 0
 206              		.cfi_startproc
 207              		@ args = 0, pretend = 0, frame = 0
 208              		@ frame_needed = 0, uses_anonymous_args = 0
 209              		@ link register save eliminated.
 210              	.LVL12:
 211              		.loc 1 280 0
 212 0000 054B     		ldr	r3, .L19
 213 0002 C258     		ldr	r2, [r0, r3]
 214              		.loc 1 277 0
 215 0004 19B9     		cbnz	r1, .L18
 216              		.loc 1 285 0
 217 0006 22F00202 		bic	r2, r2, #2
 218 000a C250     		str	r2, [r0, r3]
 219 000c 7047     		bx	lr
 220              	.L18:
 221              		.loc 1 280 0
 222 000e 42F00202 		orr	r2, r2, #2
 223 0012 C250     		str	r2, [r0, r3]
 224 0014 7047     		bx	lr
 225              	.L20:
ARM GAS  /tmp/cc5WCmfx.s 			page 5


 226 0016 00BF     		.align	2
 227              	.L19:
 228 0018 38000140 		.word	1073807416
 229              		.cfi_endproc
 230              	.LFE116:
 231              		.size	OPAMP_VrefConnectNonInvertingInput, .-OPAMP_VrefConnectNonInvertingInput
 232 001c AFF30080 		.section	.text.OPAMP_VrefConnectADCCmd,"ax",%progbits
 233              		.align	2
 234              		.p2align 4,,15
 235              		.global	OPAMP_VrefConnectADCCmd
 236              		.thumb
 237              		.thumb_func
 238              		.type	OPAMP_VrefConnectADCCmd, %function
 239              	OPAMP_VrefConnectADCCmd:
 240              	.LFB117:
 241              		.loc 1 298 0
 242              		.cfi_startproc
 243              		@ args = 0, pretend = 0, frame = 0
 244              		@ frame_needed = 0, uses_anonymous_args = 0
 245              		@ link register save eliminated.
 246              	.LVL13:
 247              		.loc 1 306 0
 248 0000 054B     		ldr	r3, .L25
 249 0002 C258     		ldr	r2, [r0, r3]
 250              		.loc 1 303 0
 251 0004 19B9     		cbnz	r1, .L24
 252              		.loc 1 311 0
 253 0006 22F00052 		bic	r2, r2, #536870912
 254 000a C250     		str	r2, [r0, r3]
 255 000c 7047     		bx	lr
 256              	.L24:
 257              		.loc 1 306 0
 258 000e 42F00052 		orr	r2, r2, #536870912
 259 0012 C250     		str	r2, [r0, r3]
 260 0014 7047     		bx	lr
 261              	.L26:
 262 0016 00BF     		.align	2
 263              	.L25:
 264 0018 38000140 		.word	1073807416
 265              		.cfi_endproc
 266              	.LFE117:
 267              		.size	OPAMP_VrefConnectADCCmd, .-OPAMP_VrefConnectADCCmd
 268 001c AFF30080 		.section	.text.OPAMP_TimerControlledMuxConfig,"ax",%progbits
 269              		.align	2
 270              		.p2align 4,,15
 271              		.global	OPAMP_TimerControlledMuxConfig
 272              		.thumb
 273              		.thumb_func
 274              		.type	OPAMP_TimerControlledMuxConfig, %function
 275              	OPAMP_TimerControlledMuxConfig:
 276              	.LFB118:
 277              		.loc 1 332 0
 278              		.cfi_startproc
 279              		@ args = 0, pretend = 0, frame = 0
 280              		@ frame_needed = 0, uses_anonymous_args = 0
 281              		@ link register save eliminated.
 282              	.LVL14:
ARM GAS  /tmp/cc5WCmfx.s 			page 6


 283 0000 10B4     		push	{r4}
 284              		.cfi_def_cfa_offset 4
 285              		.cfi_offset 4, -4
 286              		.loc 1 341 0
 287 0002 074B     		ldr	r3, .L28
 288              		.loc 1 347 0
 289 0004 91E81400 		ldmia	r1, {r2, r4}
 290              		.loc 1 341 0
 291 0008 C158     		ldr	r1, [r0, r3]
 292              	.LVL15:
 293              		.loc 1 347 0
 294 000a D200     		lsls	r2, r2, #3
 295 000c 42EAC412 		orr	r2, r2, r4, lsl #7
 296              		.loc 1 344 0
 297 0010 21F4E061 		bic	r1, r1, #1792
 298              	.LVL16:
 299              		.loc 1 347 0
 300 0014 0A43     		orrs	r2, r2, r1
 301              	.LVL17:
 302              		.loc 1 350 0
 303 0016 C250     		str	r2, [r0, r3]
 304              		.loc 1 351 0
 305 0018 5DF8044B 		ldr	r4, [sp], #4
 306 001c 7047     		bx	lr
 307              	.L29:
 308 001e 00BF     		.align	2
 309              	.L28:
 310 0020 38000140 		.word	1073807416
 311              		.cfi_endproc
 312              	.LFE118:
 313              		.size	OPAMP_TimerControlledMuxConfig, .-OPAMP_TimerControlledMuxConfig
 314 0024 AFF30080 		.section	.text.OPAMP_TimerControlledMuxCmd,"ax",%progbits
 314      AFF30080 
 314      AFF30080 
 315              		.align	2
 316              		.p2align 4,,15
 317              		.global	OPAMP_TimerControlledMuxCmd
 318              		.thumb
 319              		.thumb_func
 320              		.type	OPAMP_TimerControlledMuxCmd, %function
 321              	OPAMP_TimerControlledMuxCmd:
 322              	.LFB119:
 323              		.loc 1 365 0
 324              		.cfi_startproc
 325              		@ args = 0, pretend = 0, frame = 0
 326              		@ frame_needed = 0, uses_anonymous_args = 0
 327              		@ link register save eliminated.
 328              	.LVL18:
 329              		.loc 1 373 0
 330 0000 054B     		ldr	r3, .L34
 331 0002 C258     		ldr	r2, [r0, r3]
 332              		.loc 1 370 0
 333 0004 19B9     		cbnz	r1, .L33
 334              		.loc 1 378 0
 335 0006 22F08002 		bic	r2, r2, #128
 336 000a C250     		str	r2, [r0, r3]
 337 000c 7047     		bx	lr
ARM GAS  /tmp/cc5WCmfx.s 			page 7


 338              	.L33:
 339              		.loc 1 373 0
 340 000e 42F08002 		orr	r2, r2, #128
 341 0012 C250     		str	r2, [r0, r3]
 342 0014 7047     		bx	lr
 343              	.L35:
 344 0016 00BF     		.align	2
 345              	.L34:
 346 0018 38000140 		.word	1073807416
 347              		.cfi_endproc
 348              	.LFE119:
 349              		.size	OPAMP_TimerControlledMuxCmd, .-OPAMP_TimerControlledMuxCmd
 350 001c AFF30080 		.section	.text.OPAMP_Cmd,"ax",%progbits
 351              		.align	2
 352              		.p2align 4,,15
 353              		.global	OPAMP_Cmd
 354              		.thumb
 355              		.thumb_func
 356              		.type	OPAMP_Cmd, %function
 357              	OPAMP_Cmd:
 358              	.LFB120:
 359              		.loc 1 394 0
 360              		.cfi_startproc
 361              		@ args = 0, pretend = 0, frame = 0
 362              		@ frame_needed = 0, uses_anonymous_args = 0
 363              		@ link register save eliminated.
 364              	.LVL19:
 365              		.loc 1 402 0
 366 0000 054B     		ldr	r3, .L40
 367 0002 C258     		ldr	r2, [r0, r3]
 368              		.loc 1 399 0
 369 0004 19B9     		cbnz	r1, .L39
 370              		.loc 1 407 0
 371 0006 22F00102 		bic	r2, r2, #1
 372 000a C250     		str	r2, [r0, r3]
 373 000c 7047     		bx	lr
 374              	.L39:
 375              		.loc 1 402 0
 376 000e 42F00102 		orr	r2, r2, #1
 377 0012 C250     		str	r2, [r0, r3]
 378 0014 7047     		bx	lr
 379              	.L41:
 380 0016 00BF     		.align	2
 381              	.L40:
 382 0018 38000140 		.word	1073807416
 383              		.cfi_endproc
 384              	.LFE120:
 385              		.size	OPAMP_Cmd, .-OPAMP_Cmd
 386 001c AFF30080 		.section	.text.OPAMP_GetOutputLevel,"ax",%progbits
 387              		.align	2
 388              		.p2align 4,,15
 389              		.global	OPAMP_GetOutputLevel
 390              		.thumb
 391              		.thumb_func
 392              		.type	OPAMP_GetOutputLevel, %function
 393              	OPAMP_GetOutputLevel:
 394              	.LFB121:
ARM GAS  /tmp/cc5WCmfx.s 			page 8


 395              		.loc 1 425 0
 396              		.cfi_startproc
 397              		@ args = 0, pretend = 0, frame = 0
 398              		@ frame_needed = 0, uses_anonymous_args = 0
 399              		@ link register save eliminated.
 400              	.LVL20:
 401              		.loc 1 432 0
 402 0000 024B     		ldr	r3, .L45
 403 0002 C058     		ldr	r0, [r0, r3]
 404              	.LVL21:
 405              		.loc 1 443 0
 406 0004 00F08040 		and	r0, r0, #1073741824
 407              	.LVL22:
 408 0008 7047     		bx	lr
 409              	.L46:
 410 000a 00BF     		.align	2
 411              	.L45:
 412 000c 38000140 		.word	1073807416
 413              		.cfi_endproc
 414              	.LFE121:
 415              		.size	OPAMP_GetOutputLevel, .-OPAMP_GetOutputLevel
 416              		.section	.text.OPAMP_OffsetTrimModeSelect,"ax",%progbits
 417              		.align	2
 418              		.p2align 4,,15
 419              		.global	OPAMP_OffsetTrimModeSelect
 420              		.thumb
 421              		.thumb_func
 422              		.type	OPAMP_OffsetTrimModeSelect, %function
 423              	OPAMP_OffsetTrimModeSelect:
 424              	.LFB122:
 425              		.loc 1 459 0
 426              		.cfi_startproc
 427              		@ args = 0, pretend = 0, frame = 0
 428              		@ frame_needed = 0, uses_anonymous_args = 0
 429              		@ link register save eliminated.
 430              	.LVL23:
 431              		.loc 1 465 0
 432 0000 044B     		ldr	r3, .L48
 433 0002 C258     		ldr	r2, [r0, r3]
 434 0004 22F48022 		bic	r2, r2, #262144
 435 0008 C250     		str	r2, [r0, r3]
 436              		.loc 1 468 0
 437 000a C258     		ldr	r2, [r0, r3]
 438 000c 1143     		orrs	r1, r1, r2
 439              	.LVL24:
 440 000e C150     		str	r1, [r0, r3]
 441 0010 7047     		bx	lr
 442              	.L49:
 443 0012 00BF     		.align	2
 444              	.L48:
 445 0014 38000140 		.word	1073807416
 446              		.cfi_endproc
 447              	.LFE122:
 448              		.size	OPAMP_OffsetTrimModeSelect, .-OPAMP_OffsetTrimModeSelect
 449 0018 AFF30080 		.section	.text.OPAMP_OffsetTrimConfig,"ax",%progbits
 449      AFF30080 
 450              		.align	2
ARM GAS  /tmp/cc5WCmfx.s 			page 9


 451              		.p2align 4,,15
 452              		.global	OPAMP_OffsetTrimConfig
 453              		.thumb
 454              		.thumb_func
 455              		.type	OPAMP_OffsetTrimConfig, %function
 456              	OPAMP_OffsetTrimConfig:
 457              	.LFB123:
 458              		.loc 1 485 0
 459              		.cfi_startproc
 460              		@ args = 0, pretend = 0, frame = 0
 461              		@ frame_needed = 0, uses_anonymous_args = 0
 462              		@ link register save eliminated.
 463              	.LVL25:
 464              		.loc 1 494 0
 465 0000 064B     		ldr	r3, .L51
 466              		.loc 1 485 0
 467 0002 30B4     		push	{r4, r5}
 468              		.cfi_def_cfa_offset 8
 469              		.cfi_offset 4, -8
 470              		.cfi_offset 5, -4
 471              		.loc 1 494 0
 472 0004 C458     		ldr	r4, [r0, r3]
 473              	.LVL26:
 474              		.loc 1 497 0
 475 0006 1F25     		movs	r5, #31
 476 0008 8D40     		lsls	r5, r5, r1
 477 000a 24EA0504 		bic	r4, r4, r5
 478              	.LVL27:
 479              		.loc 1 500 0
 480 000e 8A40     		lsls	r2, r2, r1
 481              	.LVL28:
 482 0010 44EA0201 		orr	r1, r4, r2
 483              	.LVL29:
 484              		.loc 1 503 0
 485 0014 C150     		str	r1, [r0, r3]
 486              		.loc 1 504 0
 487 0016 30BC     		pop	{r4, r5}
 488 0018 7047     		bx	lr
 489              	.L52:
 490 001a 00BF     		.align	2
 491              	.L51:
 492 001c 38000140 		.word	1073807416
 493              		.cfi_endproc
 494              	.LFE123:
 495              		.size	OPAMP_OffsetTrimConfig, .-OPAMP_OffsetTrimConfig
 496              		.section	.text.OPAMP_StartCalibration,"ax",%progbits
 497              		.align	2
 498              		.p2align 4,,15
 499              		.global	OPAMP_StartCalibration
 500              		.thumb
 501              		.thumb_func
 502              		.type	OPAMP_StartCalibration, %function
 503              	OPAMP_StartCalibration:
 504              	.LFB124:
 505              		.loc 1 518 0
 506              		.cfi_startproc
 507              		@ args = 0, pretend = 0, frame = 0
ARM GAS  /tmp/cc5WCmfx.s 			page 10


 508              		@ frame_needed = 0, uses_anonymous_args = 0
 509              		@ link register save eliminated.
 510              	.LVL30:
 511              		.loc 1 526 0
 512 0000 054B     		ldr	r3, .L57
 513 0002 C258     		ldr	r2, [r0, r3]
 514              		.loc 1 523 0
 515 0004 19B9     		cbnz	r1, .L56
 516              		.loc 1 531 0
 517 0006 22F40062 		bic	r2, r2, #2048
 518 000a C250     		str	r2, [r0, r3]
 519 000c 7047     		bx	lr
 520              	.L56:
 521              		.loc 1 526 0
 522 000e 42F40062 		orr	r2, r2, #2048
 523 0012 C250     		str	r2, [r0, r3]
 524 0014 7047     		bx	lr
 525              	.L58:
 526 0016 00BF     		.align	2
 527              	.L57:
 528 0018 38000140 		.word	1073807416
 529              		.cfi_endproc
 530              	.LFE124:
 531              		.size	OPAMP_StartCalibration, .-OPAMP_StartCalibration
 532 001c AFF30080 		.section	.text.OPAMP_LockConfig,"ax",%progbits
 533              		.align	2
 534              		.p2align 4,,15
 535              		.global	OPAMP_LockConfig
 536              		.thumb
 537              		.thumb_func
 538              		.type	OPAMP_LockConfig, %function
 539              	OPAMP_LockConfig:
 540              	.LFB125:
 541              		.loc 1 563 0
 542              		.cfi_startproc
 543              		@ args = 0, pretend = 0, frame = 0
 544              		@ frame_needed = 0, uses_anonymous_args = 0
 545              		@ link register save eliminated.
 546              	.LVL31:
 547              		.loc 1 568 0
 548 0000 024B     		ldr	r3, .L60
 549 0002 C258     		ldr	r2, [r0, r3]
 550 0004 42F00042 		orr	r2, r2, #-2147483648
 551 0008 C250     		str	r2, [r0, r3]
 552 000a 7047     		bx	lr
 553              	.L61:
 554              		.align	2
 555              	.L60:
 556 000c 38000140 		.word	1073807416
 557              		.cfi_endproc
 558              	.LFE125:
 559              		.size	OPAMP_LockConfig, .-OPAMP_LockConfig
 560              		.text
 561              	.Letext0:
 562              		.file 2 "/usr/include/newlib/machine/_default_types.h"
 563              		.file 3 "/usr/include/newlib/stdint.h"
 564              		.file 4 "../../../../os/hal/platforms/STM32F30x/stm32f30x.h"
ARM GAS  /tmp/cc5WCmfx.s 			page 11


 565              		.file 5 "../../../../ext/stm32lib/inc/stm32f30x_opamp.h"
 566              		.file 6 "../../../../os/ports/common/ARMCMx/CMSIS/include/core_cm4.h"