ARM GAS  /tmp/cc7jM5z0.s 			page 1


   1              		.syntax unified
   2              		.cpu cortex-m4
   3              		.eabi_attribute 27, 3
   4              		.fpu fpv4-sp-d16
   5              		.eabi_attribute 20, 1
   6              		.eabi_attribute 21, 1
   7              		.eabi_attribute 23, 3
   8              		.eabi_attribute 24, 1
   9              		.eabi_attribute 25, 1
  10              		.eabi_attribute 26, 1
  11              		.eabi_attribute 30, 2
  12              		.eabi_attribute 34, 1
  13              		.eabi_attribute 18, 4
  14              		.thumb
  15              		.file	"stm32f30x_spi.c"
  16              		.text
  17              	.Ltext0:
  18              		.cfi_sections	.debug_frame
  19              		.section	.text.SPI_I2S_DeInit,"ax",%progbits
  20              		.align	2
  21              		.p2align 4,,15
  22              		.global	SPI_I2S_DeInit
  23              		.thumb
  24              		.thumb_func
  25              		.type	SPI_I2S_DeInit, %function
  26              	SPI_I2S_DeInit:
  27              	.LFB111:
  28              		.file 1 "../../../../ext/stm32lib/src/stm32f30x_spi.c"
  29              		.loc 1 191 0
  30              		.cfi_startproc
  31              		@ args = 0, pretend = 0, frame = 0
  32              		@ frame_needed = 0, uses_anonymous_args = 0
  33              	.LVL0:
  34 0000 08B5     		push	{r3, lr}
  35              		.cfi_def_cfa_offset 8
  36              		.cfi_offset 3, -8
  37              		.cfi_offset 14, -4
  38              		.loc 1 195 0
  39 0002 174B     		ldr	r3, .L9
  40 0004 9842     		cmp	r0, r3
  41 0006 12D0     		beq	.L6
  42              		.loc 1 202 0
  43 0008 164B     		ldr	r3, .L9+4
  44 000a 9842     		cmp	r0, r3
  45 000c 1BD0     		beq	.L7
  46              		.loc 1 211 0
  47 000e 164B     		ldr	r3, .L9+8
  48 0010 9842     		cmp	r0, r3
  49 0012 00D0     		beq	.L8
  50 0014 08BD     		pop	{r3, pc}
  51              	.L8:
  52              		.loc 1 214 0
  53 0016 4FF40040 		mov	r0, #32768
  54              	.LVL1:
  55 001a 0121     		movs	r1, #1
  56 001c FFF7FEFF 		bl	RCC_APB1PeriphResetCmd
  57              	.LVL2:
ARM GAS  /tmp/cc7jM5z0.s 			page 2


  58              		.loc 1 216 0
  59 0020 4FF40040 		mov	r0, #32768
  60 0024 0021     		movs	r1, #0
  61              		.loc 1 219 0
  62 0026 BDE80840 		pop	{r3, lr}
  63              		.loc 1 216 0
  64 002a FFF7FEBF 		b	RCC_APB1PeriphResetCmd
  65              	.LVL3:
  66              	.L6:
  67              		.loc 1 198 0
  68 002e 4FF48050 		mov	r0, #4096
  69              	.LVL4:
  70 0032 0121     		movs	r1, #1
  71 0034 FFF7FEFF 		bl	RCC_APB2PeriphResetCmd
  72              	.LVL5:
  73              		.loc 1 200 0
  74 0038 4FF48050 		mov	r0, #4096
  75 003c 0021     		movs	r1, #0
  76              		.loc 1 219 0
  77 003e BDE80840 		pop	{r3, lr}
  78              		.loc 1 200 0
  79 0042 FFF7FEBF 		b	RCC_APB2PeriphResetCmd
  80              	.LVL6:
  81              	.L7:
  82              		.loc 1 205 0
  83 0046 4FF48040 		mov	r0, #16384
  84              	.LVL7:
  85 004a 0121     		movs	r1, #1
  86 004c FFF7FEFF 		bl	RCC_APB1PeriphResetCmd
  87              	.LVL8:
  88              		.loc 1 207 0
  89 0050 4FF48040 		mov	r0, #16384
  90 0054 0021     		movs	r1, #0
  91              		.loc 1 219 0
  92 0056 BDE80840 		pop	{r3, lr}
  93              		.loc 1 207 0
  94 005a FFF7FEBF 		b	RCC_APB1PeriphResetCmd
  95              	.LVL9:
  96              	.L10:
  97 005e 00BF     		.align	2
  98              	.L9:
  99 0060 00300140 		.word	1073819648
 100 0064 00380040 		.word	1073756160
 101 0068 003C0040 		.word	1073757184
 102              		.cfi_endproc
 103              	.LFE111:
 104              		.size	SPI_I2S_DeInit, .-SPI_I2S_DeInit
 105 006c AFF30080 		.section	.text.SPI_StructInit,"ax",%progbits
 106              		.align	2
 107              		.p2align 4,,15
 108              		.global	SPI_StructInit
 109              		.thumb
 110              		.thumb_func
 111              		.type	SPI_StructInit, %function
 112              	SPI_StructInit:
 113              	.LFB112:
 114              		.loc 1 227 0
ARM GAS  /tmp/cc7jM5z0.s 			page 3


 115              		.cfi_startproc
 116              		@ args = 0, pretend = 0, frame = 0
 117              		@ frame_needed = 0, uses_anonymous_args = 0
 118              		@ link register save eliminated.
 119              	.LVL10:
 120              		.loc 1 230 0
 121 0000 0023     		movs	r3, #0
 122              		.loc 1 234 0
 123 0002 4FF4E061 		mov	r1, #1792
 124              		.loc 1 246 0
 125 0006 0722     		movs	r2, #7
 126              		.loc 1 234 0
 127 0008 8180     		strh	r1, [r0, #4]	@ movhi
 128              		.loc 1 246 0
 129 000a 0282     		strh	r2, [r0, #16]	@ movhi
 130              		.loc 1 230 0
 131 000c 0380     		strh	r3, [r0]	@ movhi
 132              		.loc 1 232 0
 133 000e 4380     		strh	r3, [r0, #2]	@ movhi
 134              		.loc 1 236 0
 135 0010 C380     		strh	r3, [r0, #6]	@ movhi
 136              		.loc 1 238 0
 137 0012 0381     		strh	r3, [r0, #8]	@ movhi
 138              		.loc 1 240 0
 139 0014 4381     		strh	r3, [r0, #10]	@ movhi
 140              		.loc 1 242 0
 141 0016 8381     		strh	r3, [r0, #12]	@ movhi
 142              		.loc 1 244 0
 143 0018 C381     		strh	r3, [r0, #14]	@ movhi
 144 001a 7047     		bx	lr
 145              		.cfi_endproc
 146              	.LFE112:
 147              		.size	SPI_StructInit, .-SPI_StructInit
 148 001c AFF30080 		.section	.text.SPI_Init,"ax",%progbits
 149              		.align	2
 150              		.p2align 4,,15
 151              		.global	SPI_Init
 152              		.thumb
 153              		.thumb_func
 154              		.type	SPI_Init, %function
 155              	SPI_Init:
 156              	.LFB113:
 157              		.loc 1 258 0
 158              		.cfi_startproc
 159              		@ args = 0, pretend = 0, frame = 0
 160              		@ frame_needed = 0, uses_anonymous_args = 0
 161              		@ link register save eliminated.
 162              	.LVL11:
 163              		.loc 1 276 0
 164 0000 4A88     		ldrh	r2, [r1, #2]
 165 0002 B2F5827F 		cmp	r2, #260
 166              		.loc 1 258 0
 167 0006 2DE9F003 		push	{r4, r5, r6, r7, r8, r9}
 168              		.cfi_def_cfa_offset 24
 169              		.cfi_offset 4, -24
 170              		.cfi_offset 5, -20
 171              		.cfi_offset 6, -16
ARM GAS  /tmp/cc7jM5z0.s 			page 4


 172              		.cfi_offset 7, -12
 173              		.cfi_offset 8, -8
 174              		.cfi_offset 9, -4
 175              		.loc 1 276 0
 176 000a 2BD0     		beq	.L15
 177              		.loc 1 312 0
 178 000c 8388     		ldrh	r3, [r0, #4]
 179              	.LVL12:
 180              		.loc 1 332 0
 181 000e B1F80090 		ldrh	r9, [r1]
 182              		.loc 1 316 0
 183 0012 B1F804C0 		ldrh	ip, [r1, #4]
 184              		.loc 1 334 0
 185 0016 B1F80680 		ldrh	r8, [r1, #6]
 186 001a 0F89     		ldrh	r7, [r1, #8]
 187              		.loc 1 333 0
 188 001c 4E89     		ldrh	r6, [r1, #10]
 189 001e 8D89     		ldrh	r5, [r1, #12]
 190              		.loc 1 332 0
 191 0020 CC89     		ldrh	r4, [r1, #14]
 192              		.loc 1 314 0
 193 0022 23F47063 		bic	r3, r3, #3840
 194              	.LVL13:
 195 0026 1B04     		lsls	r3, r3, #16
 196 0028 1B0C     		lsrs	r3, r3, #16
 197              	.LVL14:
 198              		.loc 1 332 0
 199 002a 42EA0902 		orr	r2, r2, r9
 200              		.loc 1 316 0
 201 002e 43EA0C0C 		orr	ip, r3, ip
 202              	.LVL15:
 203              		.loc 1 334 0
 204 0032 42EA0803 		orr	r3, r2, r8
 205              		.loc 1 318 0
 206 0036 A0F804C0 		strh	ip, [r0, #4]	@ movhi
 207              		.loc 1 334 0
 208 003a 3B43     		orrs	r3, r3, r7
 209              		.loc 1 321 0
 210 003c 0288     		ldrh	r2, [r0]
 211              	.LVL16:
 212              		.loc 1 333 0
 213 003e 3343     		orrs	r3, r3, r6
 214 0040 2B43     		orrs	r3, r3, r5
 215              		.loc 1 323 0
 216 0042 02F44152 		and	r2, r2, #12352
 217              	.LVL17:
 218              		.loc 1 332 0
 219 0046 2343     		orrs	r3, r3, r4
 220 0048 1343     		orrs	r3, r3, r2
 221 004a 9BB2     		uxth	r3, r3
 222              	.LVL18:
 223              		.loc 1 338 0
 224 004c 0380     		strh	r3, [r0]	@ movhi
 225              	.LVL19:
 226              	.L14:
 227              		.loc 1 342 0
 228 004e 838B     		ldrh	r3, [r0, #28]
ARM GAS  /tmp/cc7jM5z0.s 			page 5


 229              		.loc 1 346 0
 230 0050 0A8A     		ldrh	r2, [r1, #16]
 231              		.loc 1 342 0
 232 0052 23F40063 		bic	r3, r3, #2048
 233 0056 1B04     		lsls	r3, r3, #16
 234 0058 1B0C     		lsrs	r3, r3, #16
 235 005a 8383     		strh	r3, [r0, #28]	@ movhi
 236              		.loc 1 347 0
 237 005c BDE8F003 		pop	{r4, r5, r6, r7, r8, r9}
 238              		.loc 1 346 0
 239 0060 0282     		strh	r2, [r0, #16]	@ movhi
 240              		.loc 1 347 0
 241 0062 7047     		bx	lr
 242              	.LVL20:
 243              	.L15:
 244              		.loc 1 291 0
 245 0064 B1F80080 		ldrh	r8, [r1]
 246 0068 CC88     		ldrh	r4, [r1, #6]
 247              		.loc 1 293 0
 248 006a B1F808C0 		ldrh	ip, [r1, #8]
 249              		.loc 1 292 0
 250 006e 4F89     		ldrh	r7, [r1, #10]
 251 0070 8E89     		ldrh	r6, [r1, #12]
 252              		.loc 1 280 0
 253 0072 0388     		ldrh	r3, [r0]
 254              	.LVL21:
 255              		.loc 1 291 0
 256 0074 CD89     		ldrh	r5, [r1, #14]
 257              		.loc 1 303 0
 258 0076 8A88     		ldrh	r2, [r1, #4]
 259              		.loc 1 291 0
 260 0078 48EA0404 		orr	r4, r8, r4
 261              		.loc 1 293 0
 262 007c 44F48274 		orr	r4, r4, #260
 263 0080 44EA0C04 		orr	r4, r4, ip
 264              		.loc 1 292 0
 265 0084 3C43     		orrs	r4, r4, r7
 266 0086 3443     		orrs	r4, r4, r6
 267              		.loc 1 291 0
 268 0088 2C43     		orrs	r4, r4, r5
 269              		.loc 1 282 0
 270 008a 03F44153 		and	r3, r3, #12352
 271              	.LVL22:
 272              		.loc 1 291 0
 273 008e 2343     		orrs	r3, r3, r4
 274              	.LVL23:
 275 0090 9BB2     		uxth	r3, r3
 276              	.LVL24:
 277              		.loc 1 296 0
 278 0092 0380     		strh	r3, [r0]	@ movhi
 279              		.loc 1 299 0
 280 0094 8388     		ldrh	r3, [r0, #4]
 281              	.LVL25:
 282              		.loc 1 301 0
 283 0096 23F47063 		bic	r3, r3, #3840
 284              	.LVL26:
 285 009a 1B04     		lsls	r3, r3, #16
ARM GAS  /tmp/cc7jM5z0.s 			page 6


 286 009c 1B0C     		lsrs	r3, r3, #16
 287              	.LVL27:
 288              		.loc 1 303 0
 289 009e 1343     		orrs	r3, r3, r2
 290              	.LVL28:
 291              		.loc 1 305 0
 292 00a0 8380     		strh	r3, [r0, #4]	@ movhi
 293 00a2 D4E7     		b	.L14
 294              		.cfi_endproc
 295              	.LFE113:
 296              		.size	SPI_Init, .-SPI_Init
 297 00a4 AFF30080 		.section	.text.I2S_StructInit,"ax",%progbits
 297      AFF30080 
 297      AFF30080 
 298              		.align	2
 299              		.p2align 4,,15
 300              		.global	I2S_StructInit
 301              		.thumb
 302              		.thumb_func
 303              		.type	I2S_StructInit, %function
 304              	I2S_StructInit:
 305              	.LFB114:
 306              		.loc 1 355 0
 307              		.cfi_startproc
 308              		@ args = 0, pretend = 0, frame = 0
 309              		@ frame_needed = 0, uses_anonymous_args = 0
 310              		@ link register save eliminated.
 311              	.LVL29:
 312              		.loc 1 358 0
 313 0000 0023     		movs	r3, #0
 314              		.loc 1 370 0
 315 0002 0222     		movs	r2, #2
 316 0004 8260     		str	r2, [r0, #8]
 317              		.loc 1 358 0
 318 0006 0380     		strh	r3, [r0]	@ movhi
 319              		.loc 1 361 0
 320 0008 4380     		strh	r3, [r0, #2]	@ movhi
 321              		.loc 1 364 0
 322 000a 8380     		strh	r3, [r0, #4]	@ movhi
 323              		.loc 1 367 0
 324 000c C380     		strh	r3, [r0, #6]	@ movhi
 325              		.loc 1 373 0
 326 000e 8381     		strh	r3, [r0, #12]	@ movhi
 327 0010 7047     		bx	lr
 328              		.cfi_endproc
 329              	.LFE114:
 330              		.size	I2S_StructInit, .-I2S_StructInit
 331 0012 00BFAFF3 		.section	.text.I2S_Init,"ax",%progbits
 331      0080AFF3 
 331      0080AFF3 
 331      0080
 332              		.align	2
 333              		.p2align 4,,15
 334              		.global	I2S_Init
 335              		.thumb
 336              		.thumb_func
 337              		.type	I2S_Init, %function
ARM GAS  /tmp/cc7jM5z0.s 			page 7


 338              	I2S_Init:
 339              	.LFB115:
 340              		.loc 1 392 0
 341              		.cfi_startproc
 342              		@ args = 0, pretend = 0, frame = 64
 343              		@ frame_needed = 0, uses_anonymous_args = 0
 344              	.LVL30:
 345              		.loc 1 409 0
 346 0000 838B     		ldrh	r3, [r0, #28]
 347              		.loc 1 416 0
 348 0002 8A68     		ldr	r2, [r1, #8]
 349              		.loc 1 409 0
 350 0004 23F47B63 		bic	r3, r3, #4016
 351 0008 23F00F03 		bic	r3, r3, #15
 352              		.loc 1 392 0
 353 000c F0B5     		push	{r4, r5, r6, r7, lr}
 354              		.cfi_def_cfa_offset 20
 355              		.cfi_offset 4, -20
 356              		.cfi_offset 5, -16
 357              		.cfi_offset 6, -12
 358              		.cfi_offset 7, -8
 359              		.cfi_offset 14, -4
 360              		.loc 1 409 0
 361 000e 1B04     		lsls	r3, r3, #16
 362              		.loc 1 392 0
 363 0010 0C46     		mov	r4, r1
 364              		.loc 1 409 0
 365 0012 1B0C     		lsrs	r3, r3, #16
 366              		.loc 1 410 0
 367 0014 0221     		movs	r1, #2
 368              	.LVL31:
 369              		.loc 1 409 0
 370 0016 8383     		strh	r3, [r0, #28]	@ movhi
 371              		.loc 1 410 0
 372 0018 0184     		strh	r1, [r0, #32]	@ movhi
 373              		.loc 1 413 0
 374 001a 868B     		ldrh	r6, [r0, #28]
 375              		.loc 1 416 0
 376 001c 8A42     		cmp	r2, r1
 377              		.loc 1 392 0
 378 001e 91B0     		sub	sp, sp, #68
 379              		.cfi_def_cfa_offset 88
 380              		.loc 1 392 0
 381 0020 0546     		mov	r5, r0
 382              		.loc 1 413 0
 383 0022 B6B2     		uxth	r6, r6
 384              	.LVL32:
 385              		.loc 1 416 0
 386 0024 37D0     		beq	.L26
 387              		.loc 1 425 0
 388 0026 A388     		ldrh	r3, [r4, #4]
 389              		.loc 1 437 0
 390 0028 01A8     		add	r0, sp, #4
 391              	.LVL33:
 392              		.loc 1 425 0
 393 002a 002B     		cmp	r3, #0
 394              		.loc 1 428 0
ARM GAS  /tmp/cc7jM5z0.s 			page 8


 395 002c 14BF     		ite	ne
 396 002e 0227     		movne	r7, #2
 397 0030 0127     		moveq	r7, #1
 398              	.LVL34:
 399              		.loc 1 437 0
 400 0032 FFF7FEFF 		bl	RCC_GetClocksFreq
 401              	.LVL35:
 402              		.loc 1 443 0
 403 0036 E388     		ldrh	r3, [r4, #6]
 404              		.loc 1 440 0
 405 0038 0199     		ldr	r1, [sp, #4]
 406              	.LVL36:
 407              		.loc 1 443 0
 408 003a B3F5007F 		cmp	r3, #512
 409 003e 2CD0     		beq	.L27
 410              		.loc 1 451 0
 411 0040 7A01     		lsls	r2, r7, #5
 412 0042 B1FBF2F2 		udiv	r2, r1, r2
 413 0046 02EB8202 		add	r2, r2, r2, lsl #2
 414 004a A168     		ldr	r1, [r4, #8]
 415              	.LVL37:
 416 004c 5200     		lsls	r2, r2, #1
 417 004e B2FBF1F2 		udiv	r2, r2, r1
 418 0052 0532     		adds	r2, r2, #5
 419 0054 92B2     		uxth	r2, r2
 420              	.LVL38:
 421              	.L22:
 422              		.loc 1 455 0
 423 0056 1649     		ldr	r1, .L28
 424 0058 A1FB0202 		umull	r0, r2, r1, r2
 425              	.LVL39:
 426 005c D208     		lsrs	r2, r2, #3
 427              	.LVL40:
 428              		.loc 1 461 0
 429 005e 5108     		lsrs	r1, r2, #1
 430              		.loc 1 468 0
 431 0060 881E     		subs	r0, r1, #2
 432              		.loc 1 461 0
 433 0062 02F00102 		and	r2, r2, #1
 434              	.LVL41:
 435              		.loc 1 468 0
 436 0066 FD28     		cmp	r0, #253
 437 0068 94BF     		ite	ls
 438 006a 41EA0222 		orrls	r2, r1, r2, lsl #8
 439              	.LVL42:
 440 006e 0222     		movhi	r2, #2
 441              	.LVL43:
 442              	.L23:
 443              		.loc 1 480 0
 444 0070 2188     		ldrh	r1, [r4]
 445              		.loc 1 479 0
 446 0072 B4F802C0 		ldrh	ip, [r4, #2]
 447 0076 A788     		ldrh	r7, [r4, #4]
 448 0078 A089     		ldrh	r0, [r4, #12]
 449              		.loc 1 480 0
 450 007a 3143     		orrs	r1, r1, r6
 451 007c 41F40061 		orr	r1, r1, #2048
ARM GAS  /tmp/cc7jM5z0.s 			page 9


 452              		.loc 1 479 0
 453 0080 41EA0C01 		orr	r1, r1, ip
 454 0084 3943     		orrs	r1, r1, r7
 455              		.loc 1 476 0
 456 0086 1343     		orrs	r3, r3, r2
 457              		.loc 1 479 0
 458 0088 0143     		orrs	r1, r1, r0
 459              		.loc 1 476 0
 460 008a 9BB2     		uxth	r3, r3
 461              		.loc 1 479 0
 462 008c 89B2     		uxth	r1, r1
 463              	.LVL44:
 464              		.loc 1 476 0
 465 008e 2B84     		strh	r3, [r5, #32]	@ movhi
 466              		.loc 1 484 0
 467 0090 A983     		strh	r1, [r5, #28]	@ movhi
 468              		.loc 1 485 0
 469 0092 11B0     		add	sp, sp, #68
 470              		@ sp needed
 471 0094 F0BD     		pop	{r4, r5, r6, r7, pc}
 472              	.LVL45:
 473              	.L26:
 474 0096 E388     		ldrh	r3, [r4, #6]
 475 0098 EAE7     		b	.L23
 476              	.LVL46:
 477              	.L27:
 478              		.loc 1 446 0
 479 009a 090A     		lsrs	r1, r1, #8
 480              	.LVL47:
 481 009c 01EB8101 		add	r1, r1, r1, lsl #2
 482 00a0 A068     		ldr	r0, [r4, #8]
 483 00a2 4A00     		lsls	r2, r1, #1
 484 00a4 B2FBF0F2 		udiv	r2, r2, r0
 485 00a8 0532     		adds	r2, r2, #5
 486 00aa 92B2     		uxth	r2, r2
 487              	.LVL48:
 488 00ac D3E7     		b	.L22
 489              	.L29:
 490 00ae 00BF     		.align	2
 491              	.L28:
 492 00b0 CDCCCCCC 		.word	-858993459
 493              		.cfi_endproc
 494              	.LFE115:
 495              		.size	I2S_Init, .-I2S_Init
 496 00b4 AFF30080 		.section	.text.SPI_Cmd,"ax",%progbits
 496      AFF30080 
 496      AFF30080 
 497              		.align	2
 498              		.p2align 4,,15
 499              		.global	SPI_Cmd
 500              		.thumb
 501              		.thumb_func
 502              		.type	SPI_Cmd, %function
 503              	SPI_Cmd:
 504              	.LFB116:
 505              		.loc 1 495 0
 506              		.cfi_startproc
ARM GAS  /tmp/cc7jM5z0.s 			page 10


 507              		@ args = 0, pretend = 0, frame = 0
 508              		@ frame_needed = 0, uses_anonymous_args = 0
 509              		@ link register save eliminated.
 510              	.LVL49:
 511              		.loc 1 503 0
 512 0000 0388     		ldrh	r3, [r0]
 513              		.loc 1 500 0
 514 0002 29B9     		cbnz	r1, .L33
 515              		.loc 1 508 0
 516 0004 23F04003 		bic	r3, r3, #64
 517 0008 1B04     		lsls	r3, r3, #16
 518 000a 1B0C     		lsrs	r3, r3, #16
 519 000c 0380     		strh	r3, [r0]	@ movhi
 520 000e 7047     		bx	lr
 521              	.L33:
 522              		.loc 1 503 0
 523 0010 9BB2     		uxth	r3, r3
 524 0012 43F04003 		orr	r3, r3, #64
 525 0016 0380     		strh	r3, [r0]	@ movhi
 526 0018 7047     		bx	lr
 527              		.cfi_endproc
 528              	.LFE116:
 529              		.size	SPI_Cmd, .-SPI_Cmd
 530 001a 00BFAFF3 		.section	.text.SPI_TIModeCmd,"ax",%progbits
 530      0080
 531              		.align	2
 532              		.p2align 4,,15
 533              		.global	SPI_TIModeCmd
 534              		.thumb
 535              		.thumb_func
 536              		.type	SPI_TIModeCmd, %function
 537              	SPI_TIModeCmd:
 538              	.LFB117:
 539              		.loc 1 525 0
 540              		.cfi_startproc
 541              		@ args = 0, pretend = 0, frame = 0
 542              		@ frame_needed = 0, uses_anonymous_args = 0
 543              		@ link register save eliminated.
 544              	.LVL50:
 545              		.loc 1 533 0
 546 0000 8388     		ldrh	r3, [r0, #4]
 547              		.loc 1 530 0
 548 0002 29B9     		cbnz	r1, .L37
 549              		.loc 1 538 0
 550 0004 23F01003 		bic	r3, r3, #16
 551 0008 1B04     		lsls	r3, r3, #16
 552 000a 1B0C     		lsrs	r3, r3, #16
 553 000c 8380     		strh	r3, [r0, #4]	@ movhi
 554 000e 7047     		bx	lr
 555              	.L37:
 556              		.loc 1 533 0
 557 0010 9BB2     		uxth	r3, r3
 558 0012 43F01003 		orr	r3, r3, #16
 559 0016 8380     		strh	r3, [r0, #4]	@ movhi
 560 0018 7047     		bx	lr
 561              		.cfi_endproc
 562              	.LFE117:
ARM GAS  /tmp/cc7jM5z0.s 			page 11


 563              		.size	SPI_TIModeCmd, .-SPI_TIModeCmd
 564 001a 00BFAFF3 		.section	.text.I2S_Cmd,"ax",%progbits
 564      0080
 565              		.align	2
 566              		.p2align 4,,15
 567              		.global	I2S_Cmd
 568              		.thumb
 569              		.thumb_func
 570              		.type	I2S_Cmd, %function
 571              	I2S_Cmd:
 572              	.LFB118:
 573              		.loc 1 551 0
 574              		.cfi_startproc
 575              		@ args = 0, pretend = 0, frame = 0
 576              		@ frame_needed = 0, uses_anonymous_args = 0
 577              		@ link register save eliminated.
 578              	.LVL51:
 579              		.loc 1 558 0
 580 0000 838B     		ldrh	r3, [r0, #28]
 581              		.loc 1 555 0
 582 0002 29B9     		cbnz	r1, .L41
 583              		.loc 1 563 0
 584 0004 23F48063 		bic	r3, r3, #1024
 585 0008 1B04     		lsls	r3, r3, #16
 586 000a 1B0C     		lsrs	r3, r3, #16
 587 000c 8383     		strh	r3, [r0, #28]	@ movhi
 588 000e 7047     		bx	lr
 589              	.L41:
 590              		.loc 1 558 0
 591 0010 9BB2     		uxth	r3, r3
 592 0012 43F48063 		orr	r3, r3, #1024
 593 0016 8383     		strh	r3, [r0, #28]	@ movhi
 594 0018 7047     		bx	lr
 595              		.cfi_endproc
 596              	.LFE118:
 597              		.size	I2S_Cmd, .-I2S_Cmd
 598 001a 00BFAFF3 		.section	.text.SPI_DataSizeConfig,"ax",%progbits
 598      0080
 599              		.align	2
 600              		.p2align 4,,15
 601              		.global	SPI_DataSizeConfig
 602              		.thumb
 603              		.thumb_func
 604              		.type	SPI_DataSizeConfig, %function
 605              	SPI_DataSizeConfig:
 606              	.LFB119:
 607              		.loc 1 588 0
 608              		.cfi_startproc
 609              		@ args = 0, pretend = 0, frame = 0
 610              		@ frame_needed = 0, uses_anonymous_args = 0
 611              		@ link register save eliminated.
 612              	.LVL52:
 613              		.loc 1 595 0
 614 0000 8388     		ldrh	r3, [r0, #4]
 615              	.LVL53:
 616              		.loc 1 597 0
 617 0002 23F47063 		bic	r3, r3, #3840
ARM GAS  /tmp/cc7jM5z0.s 			page 12


 618              	.LVL54:
 619 0006 1B04     		lsls	r3, r3, #16
 620 0008 1B0C     		lsrs	r3, r3, #16
 621              	.LVL55:
 622              		.loc 1 599 0
 623 000a 1943     		orrs	r1, r1, r3
 624              	.LVL56:
 625              		.loc 1 600 0
 626 000c 8180     		strh	r1, [r0, #4]	@ movhi
 627 000e 7047     		bx	lr
 628              		.cfi_endproc
 629              	.LFE119:
 630              		.size	SPI_DataSizeConfig, .-SPI_DataSizeConfig
 631              		.section	.text.SPI_RxFIFOThresholdConfig,"ax",%progbits
 632              		.align	2
 633              		.p2align 4,,15
 634              		.global	SPI_RxFIFOThresholdConfig
 635              		.thumb
 636              		.thumb_func
 637              		.type	SPI_RxFIFOThresholdConfig, %function
 638              	SPI_RxFIFOThresholdConfig:
 639              	.LFB120:
 640              		.loc 1 615 0
 641              		.cfi_startproc
 642              		@ args = 0, pretend = 0, frame = 0
 643              		@ frame_needed = 0, uses_anonymous_args = 0
 644              		@ link register save eliminated.
 645              	.LVL57:
 646              		.loc 1 621 0
 647 0000 8388     		ldrh	r3, [r0, #4]
 648 0002 23F48053 		bic	r3, r3, #4096
 649 0006 1B04     		lsls	r3, r3, #16
 650 0008 1B0C     		lsrs	r3, r3, #16
 651 000a 8380     		strh	r3, [r0, #4]	@ movhi
 652              		.loc 1 624 0
 653 000c 8388     		ldrh	r3, [r0, #4]
 654 000e 9BB2     		uxth	r3, r3
 655 0010 1943     		orrs	r1, r1, r3
 656              	.LVL58:
 657 0012 8180     		strh	r1, [r0, #4]	@ movhi
 658 0014 7047     		bx	lr
 659              		.cfi_endproc
 660              	.LFE120:
 661              		.size	SPI_RxFIFOThresholdConfig, .-SPI_RxFIFOThresholdConfig
 662 0016 00BFAFF3 		.section	.text.SPI_BiDirectionalLineConfig,"ax",%progbits
 662      0080AFF3 
 662      0080
 663              		.align	2
 664              		.p2align 4,,15
 665              		.global	SPI_BiDirectionalLineConfig
 666              		.thumb
 667              		.thumb_func
 668              		.type	SPI_BiDirectionalLineConfig, %function
 669              	SPI_BiDirectionalLineConfig:
 670              	.LFB121:
 671              		.loc 1 637 0
 672              		.cfi_startproc
ARM GAS  /tmp/cc7jM5z0.s 			page 13


 673              		@ args = 0, pretend = 0, frame = 0
 674              		@ frame_needed = 0, uses_anonymous_args = 0
 675              		@ link register save eliminated.
 676              	.LVL59:
 677              		.loc 1 641 0
 678 0000 B1F5804F 		cmp	r1, #16384
 679              		.loc 1 644 0
 680 0004 0388     		ldrh	r3, [r0]
 681              		.loc 1 641 0
 682 0006 05D0     		beq	.L47
 683              		.loc 1 649 0
 684 0008 23F48043 		bic	r3, r3, #16384
 685 000c 1B04     		lsls	r3, r3, #16
 686 000e 1B0C     		lsrs	r3, r3, #16
 687 0010 0380     		strh	r3, [r0]	@ movhi
 688 0012 7047     		bx	lr
 689              	.L47:
 690              		.loc 1 644 0
 691 0014 9BB2     		uxth	r3, r3
 692 0016 43F48043 		orr	r3, r3, #16384
 693 001a 0380     		strh	r3, [r0]	@ movhi
 694 001c 7047     		bx	lr
 695              		.cfi_endproc
 696              	.LFE121:
 697              		.size	SPI_BiDirectionalLineConfig, .-SPI_BiDirectionalLineConfig
 698              		.section	.text.SPI_NSSInternalSoftwareConfig,"ax",%progbits
 699              		.align	2
 700              		.p2align 4,,15
 701              		.global	SPI_NSSInternalSoftwareConfig
 702              		.thumb
 703              		.thumb_func
 704              		.type	SPI_NSSInternalSoftwareConfig, %function
 705              	SPI_NSSInternalSoftwareConfig:
 706              	.LFB122:
 707              		.loc 1 665 0
 708              		.cfi_startproc
 709              		@ args = 0, pretend = 0, frame = 0
 710              		@ frame_needed = 0, uses_anonymous_args = 0
 711              		@ link register save eliminated.
 712              	.LVL60:
 713              		.loc 1 670 0
 714 0000 4FF6FF63 		movw	r3, #65279
 715 0004 9942     		cmp	r1, r3
 716              		.loc 1 673 0
 717 0006 0388     		ldrh	r3, [r0]
 718              		.loc 1 670 0
 719 0008 04D0     		beq	.L49
 720              		.loc 1 673 0
 721 000a 9BB2     		uxth	r3, r3
 722 000c 43F48073 		orr	r3, r3, #256
 723 0010 0380     		strh	r3, [r0]	@ movhi
 724 0012 7047     		bx	lr
 725              	.L49:
 726              		.loc 1 678 0
 727 0014 23F48073 		bic	r3, r3, #256
 728 0018 1B04     		lsls	r3, r3, #16
 729 001a 1B0C     		lsrs	r3, r3, #16
ARM GAS  /tmp/cc7jM5z0.s 			page 14


 730 001c 0380     		strh	r3, [r0]	@ movhi
 731 001e 7047     		bx	lr
 732              		.cfi_endproc
 733              	.LFE122:
 734              		.size	SPI_NSSInternalSoftwareConfig, .-SPI_NSSInternalSoftwareConfig
 735              		.section	.text.I2S_FullDuplexConfig,"ax",%progbits
 736              		.align	2
 737              		.p2align 4,,15
 738              		.global	I2S_FullDuplexConfig
 739              		.thumb
 740              		.thumb_func
 741              		.type	I2S_FullDuplexConfig, %function
 742              	I2S_FullDuplexConfig:
 743              	.LFB123:
 744              		.loc 1 702 0
 745              		.cfi_startproc
 746              		@ args = 0, pretend = 0, frame = 0
 747              		@ frame_needed = 0, uses_anonymous_args = 0
 748              		@ link register save eliminated.
 749              	.LVL61:
 750              		.loc 1 714 0
 751 0000 838B     		ldrh	r3, [r0, #28]
 752 0002 23F47B63 		bic	r3, r3, #4016
 753 0006 23F00F03 		bic	r3, r3, #15
 754 000a 1B04     		lsls	r3, r3, #16
 755              		.loc 1 715 0
 756 000c 0222     		movs	r2, #2
 757              		.loc 1 714 0
 758 000e 1B0C     		lsrs	r3, r3, #16
 759 0010 8383     		strh	r3, [r0, #28]	@ movhi
 760              		.loc 1 715 0
 761 0012 0284     		strh	r2, [r0, #32]	@ movhi
 762              		.loc 1 718 0
 763 0014 838B     		ldrh	r3, [r0, #28]
 764              		.loc 1 721 0
 765 0016 0A88     		ldrh	r2, [r1]
 766              		.loc 1 702 0
 767 0018 30B4     		push	{r4, r5}
 768              		.cfi_def_cfa_offset 8
 769              		.cfi_offset 4, -8
 770              		.cfi_offset 5, -4
 771              		.loc 1 736 0
 772 001a 4D88     		ldrh	r5, [r1, #2]
 773              		.loc 1 735 0
 774 001c 8C88     		ldrh	r4, [r1, #4]
 775 001e 8989     		ldrh	r1, [r1, #12]
 776              	.LVL62:
 777              		.loc 1 718 0
 778 0020 9BB2     		uxth	r3, r3
 779              	.LVL63:
 780              		.loc 1 736 0
 781 0022 2B43     		orrs	r3, r3, r5
 782              	.LVL64:
 783 0024 43F40063 		orr	r3, r3, #2048
 784              		.loc 1 721 0
 785 0028 22F40072 		bic	r2, r2, #512
 786              		.loc 1 735 0
ARM GAS  /tmp/cc7jM5z0.s 			page 15


 787 002c 2343     		orrs	r3, r3, r4
 788              		.loc 1 721 0
 789 002e 92B2     		uxth	r2, r2
 790              		.loc 1 735 0
 791 0030 0B43     		orrs	r3, r3, r1
 792              		.loc 1 721 0
 793 0032 002A     		cmp	r2, #0
 794              		.loc 1 735 0
 795 0034 9BB2     		uxth	r3, r3
 796              		.loc 1 723 0
 797 0036 14BF     		ite	ne
 798 0038 0022     		movne	r2, #0
 799 003a 4FF48072 		moveq	r2, #256
 800              	.LVL65:
 801              		.loc 1 735 0
 802 003e 1343     		orrs	r3, r3, r2
 803              	.LVL66:
 804              		.loc 1 740 0
 805 0040 8383     		strh	r3, [r0, #28]	@ movhi
 806              		.loc 1 741 0
 807 0042 30BC     		pop	{r4, r5}
 808 0044 7047     		bx	lr
 809              		.cfi_endproc
 810              	.LFE123:
 811              		.size	I2S_FullDuplexConfig, .-I2S_FullDuplexConfig
 812 0046 00BFAFF3 		.section	.text.SPI_SSOutputCmd,"ax",%progbits
 812      0080AFF3 
 812      0080
 813              		.align	2
 814              		.p2align 4,,15
 815              		.global	SPI_SSOutputCmd
 816              		.thumb
 817              		.thumb_func
 818              		.type	SPI_SSOutputCmd, %function
 819              	SPI_SSOutputCmd:
 820              	.LFB124:
 821              		.loc 1 753 0
 822              		.cfi_startproc
 823              		@ args = 0, pretend = 0, frame = 0
 824              		@ frame_needed = 0, uses_anonymous_args = 0
 825              		@ link register save eliminated.
 826              	.LVL67:
 827              		.loc 1 760 0
 828 0000 8388     		ldrh	r3, [r0, #4]
 829              		.loc 1 757 0
 830 0002 29B9     		cbnz	r1, .L57
 831              		.loc 1 765 0
 832 0004 23F00403 		bic	r3, r3, #4
 833 0008 1B04     		lsls	r3, r3, #16
 834 000a 1B0C     		lsrs	r3, r3, #16
 835 000c 8380     		strh	r3, [r0, #4]	@ movhi
 836 000e 7047     		bx	lr
 837              	.L57:
 838              		.loc 1 760 0
 839 0010 9BB2     		uxth	r3, r3
 840 0012 43F00403 		orr	r3, r3, #4
 841 0016 8380     		strh	r3, [r0, #4]	@ movhi
ARM GAS  /tmp/cc7jM5z0.s 			page 16


 842 0018 7047     		bx	lr
 843              		.cfi_endproc
 844              	.LFE124:
 845              		.size	SPI_SSOutputCmd, .-SPI_SSOutputCmd
 846 001a 00BFAFF3 		.section	.text.SPI_NSSPulseModeCmd,"ax",%progbits
 846      0080
 847              		.align	2
 848              		.p2align 4,,15
 849              		.global	SPI_NSSPulseModeCmd
 850              		.thumb
 851              		.thumb_func
 852              		.type	SPI_NSSPulseModeCmd, %function
 853              	SPI_NSSPulseModeCmd:
 854              	.LFB125:
 855              		.loc 1 782 0
 856              		.cfi_startproc
 857              		@ args = 0, pretend = 0, frame = 0
 858              		@ frame_needed = 0, uses_anonymous_args = 0
 859              		@ link register save eliminated.
 860              	.LVL68:
 861              		.loc 1 790 0
 862 0000 8388     		ldrh	r3, [r0, #4]
 863              		.loc 1 787 0
 864 0002 29B9     		cbnz	r1, .L61
 865              		.loc 1 795 0
 866 0004 23F00803 		bic	r3, r3, #8
 867 0008 1B04     		lsls	r3, r3, #16
 868 000a 1B0C     		lsrs	r3, r3, #16
 869 000c 8380     		strh	r3, [r0, #4]	@ movhi
 870 000e 7047     		bx	lr
 871              	.L61:
 872              		.loc 1 790 0
 873 0010 9BB2     		uxth	r3, r3
 874 0012 43F00803 		orr	r3, r3, #8
 875 0016 8380     		strh	r3, [r0, #4]	@ movhi
 876 0018 7047     		bx	lr
 877              		.cfi_endproc
 878              	.LFE125:
 879              		.size	SPI_NSSPulseModeCmd, .-SPI_NSSPulseModeCmd
 880 001a 00BFAFF3 		.section	.text.SPI_SendData8,"ax",%progbits
 880      0080
 881              		.align	2
 882              		.p2align 4,,15
 883              		.global	SPI_SendData8
 884              		.thumb
 885              		.thumb_func
 886              		.type	SPI_SendData8, %function
 887              	SPI_SendData8:
 888              	.LFB126:
 889              		.loc 1 831 0
 890              		.cfi_startproc
 891              		@ args = 0, pretend = 0, frame = 0
 892              		@ frame_needed = 0, uses_anonymous_args = 0
 893              		@ link register save eliminated.
 894              	.LVL69:
 895              		.loc 1 840 0
 896 0000 0173     		strb	r1, [r0, #12]
ARM GAS  /tmp/cc7jM5z0.s 			page 17


 897 0002 7047     		bx	lr
 898              		.cfi_endproc
 899              	.LFE126:
 900              		.size	SPI_SendData8, .-SPI_SendData8
 901 0004 AFF30080 		.section	.text.SPI_I2S_SendData16,"ax",%progbits
 901      AFF30080 
 901      AFF30080 
 902              		.align	2
 903              		.p2align 4,,15
 904              		.global	SPI_I2S_SendData16
 905              		.thumb
 906              		.thumb_func
 907              		.type	SPI_I2S_SendData16, %function
 908              	SPI_I2S_SendData16:
 909              	.LFB127:
 910              		.loc 1 851 0
 911              		.cfi_startproc
 912              		@ args = 0, pretend = 0, frame = 0
 913              		@ frame_needed = 0, uses_anonymous_args = 0
 914              		@ link register save eliminated.
 915              	.LVL70:
 916              		.loc 1 855 0
 917 0000 8181     		strh	r1, [r0, #12]	@ movhi
 918 0002 7047     		bx	lr
 919              		.cfi_endproc
 920              	.LFE127:
 921              		.size	SPI_I2S_SendData16, .-SPI_I2S_SendData16
 922 0004 AFF30080 		.section	.text.SPI_ReceiveData8,"ax",%progbits
 922      AFF30080 
 922      AFF30080 
 923              		.align	2
 924              		.p2align 4,,15
 925              		.global	SPI_ReceiveData8
 926              		.thumb
 927              		.thumb_func
 928              		.type	SPI_ReceiveData8, %function
 929              	SPI_ReceiveData8:
 930              	.LFB128:
 931              		.loc 1 864 0
 932              		.cfi_startproc
 933              		@ args = 0, pretend = 0, frame = 0
 934              		@ frame_needed = 0, uses_anonymous_args = 0
 935              		@ link register save eliminated.
 936              	.LVL71:
 937              		.loc 1 873 0
 938 0000 007B     		ldrb	r0, [r0, #12]	@ zero_extendqisi2
 939              	.LVL72:
 940              		.loc 1 874 0
 941 0002 7047     		bx	lr
 942              		.cfi_endproc
 943              	.LFE128:
 944              		.size	SPI_ReceiveData8, .-SPI_ReceiveData8
 945 0004 AFF30080 		.section	.text.SPI_I2S_ReceiveData16,"ax",%progbits
 945      AFF30080 
 945      AFF30080 
 946              		.align	2
 947              		.p2align 4,,15
ARM GAS  /tmp/cc7jM5z0.s 			page 18


 948              		.global	SPI_I2S_ReceiveData16
 949              		.thumb
 950              		.thumb_func
 951              		.type	SPI_I2S_ReceiveData16, %function
 952              	SPI_I2S_ReceiveData16:
 953              	.LFB129:
 954              		.loc 1 883 0
 955              		.cfi_startproc
 956              		@ args = 0, pretend = 0, frame = 0
 957              		@ frame_needed = 0, uses_anonymous_args = 0
 958              		@ link register save eliminated.
 959              	.LVL73:
 960              		.loc 1 887 0
 961 0000 8089     		ldrh	r0, [r0, #12]
 962              	.LVL74:
 963              		.loc 1 888 0
 964 0002 80B2     		uxth	r0, r0
 965 0004 7047     		bx	lr
 966              		.cfi_endproc
 967              	.LFE129:
 968              		.size	SPI_I2S_ReceiveData16, .-SPI_I2S_ReceiveData16
 969 0006 00BFAFF3 		.section	.text.SPI_CRCLengthConfig,"ax",%progbits
 969      0080AFF3 
 969      0080
 970              		.align	2
 971              		.p2align 4,,15
 972              		.global	SPI_CRCLengthConfig
 973              		.thumb
 974              		.thumb_func
 975              		.type	SPI_CRCLengthConfig, %function
 976              	SPI_CRCLengthConfig:
 977              	.LFB130:
 978              		.loc 1 965 0
 979              		.cfi_startproc
 980              		@ args = 0, pretend = 0, frame = 0
 981              		@ frame_needed = 0, uses_anonymous_args = 0
 982              		@ link register save eliminated.
 983              	.LVL75:
 984              		.loc 1 971 0
 985 0000 0388     		ldrh	r3, [r0]
 986 0002 23F40063 		bic	r3, r3, #2048
 987 0006 1B04     		lsls	r3, r3, #16
 988 0008 1B0C     		lsrs	r3, r3, #16
 989 000a 0380     		strh	r3, [r0]	@ movhi
 990              		.loc 1 974 0
 991 000c 0388     		ldrh	r3, [r0]
 992 000e 9BB2     		uxth	r3, r3
 993 0010 1943     		orrs	r1, r1, r3
 994              	.LVL76:
 995 0012 0180     		strh	r1, [r0]	@ movhi
 996 0014 7047     		bx	lr
 997              		.cfi_endproc
 998              	.LFE130:
 999              		.size	SPI_CRCLengthConfig, .-SPI_CRCLengthConfig
 1000 0016 00BFAFF3 		.section	.text.SPI_CalculateCRC,"ax",%progbits
 1000      0080AFF3 
 1000      0080
ARM GAS  /tmp/cc7jM5z0.s 			page 19


 1001              		.align	2
 1002              		.p2align 4,,15
 1003              		.global	SPI_CalculateCRC
 1004              		.thumb
 1005              		.thumb_func
 1006              		.type	SPI_CalculateCRC, %function
 1007              	SPI_CalculateCRC:
 1008              	.LFB131:
 1009              		.loc 1 985 0
 1010              		.cfi_startproc
 1011              		@ args = 0, pretend = 0, frame = 0
 1012              		@ frame_needed = 0, uses_anonymous_args = 0
 1013              		@ link register save eliminated.
 1014              	.LVL77:
 1015              		.loc 1 993 0
 1016 0000 0388     		ldrh	r3, [r0]
 1017              		.loc 1 990 0
 1018 0002 29B9     		cbnz	r1, .L70
 1019              		.loc 1 998 0
 1020 0004 23F40053 		bic	r3, r3, #8192
 1021 0008 1B04     		lsls	r3, r3, #16
 1022 000a 1B0C     		lsrs	r3, r3, #16
 1023 000c 0380     		strh	r3, [r0]	@ movhi
 1024 000e 7047     		bx	lr
 1025              	.L70:
 1026              		.loc 1 993 0
 1027 0010 9BB2     		uxth	r3, r3
 1028 0012 43F40053 		orr	r3, r3, #8192
 1029 0016 0380     		strh	r3, [r0]	@ movhi
 1030 0018 7047     		bx	lr
 1031              		.cfi_endproc
 1032              	.LFE131:
 1033              		.size	SPI_CalculateCRC, .-SPI_CalculateCRC
 1034 001a 00BFAFF3 		.section	.text.SPI_TransmitCRC,"ax",%progbits
 1034      0080
 1035              		.align	2
 1036              		.p2align 4,,15
 1037              		.global	SPI_TransmitCRC
 1038              		.thumb
 1039              		.thumb_func
 1040              		.type	SPI_TransmitCRC, %function
 1041              	SPI_TransmitCRC:
 1042              	.LFB132:
 1043              		.loc 1 1008 0
 1044              		.cfi_startproc
 1045              		@ args = 0, pretend = 0, frame = 0
 1046              		@ frame_needed = 0, uses_anonymous_args = 0
 1047              		@ link register save eliminated.
 1048              	.LVL78:
 1049              		.loc 1 1013 0
 1050 0000 0388     		ldrh	r3, [r0]
 1051 0002 9BB2     		uxth	r3, r3
 1052 0004 43F48053 		orr	r3, r3, #4096
 1053 0008 0380     		strh	r3, [r0]	@ movhi
 1054 000a 7047     		bx	lr
 1055              		.cfi_endproc
 1056              	.LFE132:
ARM GAS  /tmp/cc7jM5z0.s 			page 20


 1057              		.size	SPI_TransmitCRC, .-SPI_TransmitCRC
 1058 000c AFF30080 		.section	.text.SPI_GetCRC,"ax",%progbits
 1059              		.align	2
 1060              		.p2align 4,,15
 1061              		.global	SPI_GetCRC
 1062              		.thumb
 1063              		.thumb_func
 1064              		.type	SPI_GetCRC, %function
 1065              	SPI_GetCRC:
 1066              	.LFB133:
 1067              		.loc 1 1026 0
 1068              		.cfi_startproc
 1069              		@ args = 0, pretend = 0, frame = 0
 1070              		@ frame_needed = 0, uses_anonymous_args = 0
 1071              		@ link register save eliminated.
 1072              	.LVL79:
 1073              		.loc 1 1032 0
 1074 0000 0129     		cmp	r1, #1
 1075              		.loc 1 1035 0
 1076 0002 14BF     		ite	ne
 1077 0004 008B     		ldrhne	r0, [r0, #24]
 1078              	.LVL80:
 1079              		.loc 1 1040 0
 1080 0006 808A     		ldrheq	r0, [r0, #20]
 1081 0008 80B2     		uxth	r0, r0
 1082              	.LVL81:
 1083              		.loc 1 1044 0
 1084 000a 7047     		bx	lr
 1085              		.cfi_endproc
 1086              	.LFE133:
 1087              		.size	SPI_GetCRC, .-SPI_GetCRC
 1088 000c AFF30080 		.section	.text.SPI_GetCRCPolynomial,"ax",%progbits
 1089              		.align	2
 1090              		.p2align 4,,15
 1091              		.global	SPI_GetCRCPolynomial
 1092              		.thumb
 1093              		.thumb_func
 1094              		.type	SPI_GetCRCPolynomial, %function
 1095              	SPI_GetCRCPolynomial:
 1096              	.LFB134:
 1097              		.loc 1 1052 0
 1098              		.cfi_startproc
 1099              		@ args = 0, pretend = 0, frame = 0
 1100              		@ frame_needed = 0, uses_anonymous_args = 0
 1101              		@ link register save eliminated.
 1102              	.LVL82:
 1103              		.loc 1 1057 0
 1104 0000 008A     		ldrh	r0, [r0, #16]
 1105              	.LVL83:
 1106              		.loc 1 1058 0
 1107 0002 80B2     		uxth	r0, r0
 1108 0004 7047     		bx	lr
 1109              		.cfi_endproc
 1110              	.LFE134:
 1111              		.size	SPI_GetCRCPolynomial, .-SPI_GetCRCPolynomial
 1112 0006 00BFAFF3 		.section	.text.SPI_I2S_DMACmd,"ax",%progbits
 1112      0080AFF3 
ARM GAS  /tmp/cc7jM5z0.s 			page 21


 1112      0080
 1113              		.align	2
 1114              		.p2align 4,,15
 1115              		.global	SPI_I2S_DMACmd
 1116              		.thumb
 1117              		.thumb_func
 1118              		.type	SPI_I2S_DMACmd, %function
 1119              	SPI_I2S_DMACmd:
 1120              	.LFB135:
 1121              		.loc 1 1089 0
 1122              		.cfi_startproc
 1123              		@ args = 0, pretend = 0, frame = 0
 1124              		@ frame_needed = 0, uses_anonymous_args = 0
 1125              		@ link register save eliminated.
 1126              	.LVL84:
 1127              		.loc 1 1098 0
 1128 0000 8388     		ldrh	r3, [r0, #4]
 1129 0002 9BB2     		uxth	r3, r3
 1130              		.loc 1 1095 0
 1131 0004 1AB9     		cbnz	r2, .L79
 1132              		.loc 1 1103 0
 1133 0006 23EA0101 		bic	r1, r3, r1
 1134              	.LVL85:
 1135 000a 8180     		strh	r1, [r0, #4]	@ movhi
 1136 000c 7047     		bx	lr
 1137              	.LVL86:
 1138              	.L79:
 1139              		.loc 1 1098 0
 1140 000e 1943     		orrs	r1, r1, r3
 1141              	.LVL87:
 1142 0010 8180     		strh	r1, [r0, #4]	@ movhi
 1143 0012 7047     		bx	lr
 1144              		.cfi_endproc
 1145              	.LFE135:
 1146              		.size	SPI_I2S_DMACmd, .-SPI_I2S_DMACmd
 1147 0014 AFF30080 		.section	.text.SPI_LastDMATransferCmd,"ax",%progbits
 1147      AFF30080 
 1147      AFF30080 
 1148              		.align	2
 1149              		.p2align 4,,15
 1150              		.global	SPI_LastDMATransferCmd
 1151              		.thumb
 1152              		.thumb_func
 1153              		.type	SPI_LastDMATransferCmd, %function
 1154              	SPI_LastDMATransferCmd:
 1155              	.LFB136:
 1156              		.loc 1 1126 0
 1157              		.cfi_startproc
 1158              		@ args = 0, pretend = 0, frame = 0
 1159              		@ frame_needed = 0, uses_anonymous_args = 0
 1160              		@ link register save eliminated.
 1161              	.LVL88:
 1162              		.loc 1 1132 0
 1163 0000 8388     		ldrh	r3, [r0, #4]
 1164 0002 23F4C043 		bic	r3, r3, #24576
 1165 0006 1B04     		lsls	r3, r3, #16
 1166 0008 1B0C     		lsrs	r3, r3, #16
ARM GAS  /tmp/cc7jM5z0.s 			page 22


 1167 000a 8380     		strh	r3, [r0, #4]	@ movhi
 1168              		.loc 1 1135 0
 1169 000c 8388     		ldrh	r3, [r0, #4]
 1170 000e 9BB2     		uxth	r3, r3
 1171 0010 1943     		orrs	r1, r1, r3
 1172              	.LVL89:
 1173 0012 8180     		strh	r1, [r0, #4]	@ movhi
 1174 0014 7047     		bx	lr
 1175              		.cfi_endproc
 1176              	.LFE136:
 1177              		.size	SPI_LastDMATransferCmd, .-SPI_LastDMATransferCmd
 1178 0016 00BFAFF3 		.section	.text.SPI_I2S_ITConfig,"ax",%progbits
 1178      0080AFF3 
 1178      0080
 1179              		.align	2
 1180              		.p2align 4,,15
 1181              		.global	SPI_I2S_ITConfig
 1182              		.thumb
 1183              		.thumb_func
 1184              		.type	SPI_I2S_ITConfig, %function
 1185              	SPI_I2S_ITConfig:
 1186              	.LFB137:
 1187              		.loc 1 1225 0
 1188              		.cfi_startproc
 1189              		@ args = 0, pretend = 0, frame = 0
 1190              		@ frame_needed = 0, uses_anonymous_args = 0
 1191              		@ link register save eliminated.
 1192              	.LVL90:
 1193              		.loc 1 1237 0
 1194 0000 0123     		movs	r3, #1
 1195 0002 0909     		lsrs	r1, r1, #4
 1196              	.LVL91:
 1197 0004 03FA01F1 		lsl	r1, r3, r1
 1198              		.loc 1 1242 0
 1199 0008 8388     		ldrh	r3, [r0, #4]
 1200              		.loc 1 1237 0
 1201 000a 89B2     		uxth	r1, r1
 1202              	.LVL92:
 1203              		.loc 1 1242 0
 1204 000c 9BB2     		uxth	r3, r3
 1205              		.loc 1 1239 0
 1206 000e 1AB9     		cbnz	r2, .L84
 1207              		.loc 1 1247 0
 1208 0010 23EA0101 		bic	r1, r3, r1
 1209              	.LVL93:
 1210 0014 8180     		strh	r1, [r0, #4]	@ movhi
 1211 0016 7047     		bx	lr
 1212              	.LVL94:
 1213              	.L84:
 1214              		.loc 1 1242 0
 1215 0018 1943     		orrs	r1, r1, r3
 1216              	.LVL95:
 1217 001a 8180     		strh	r1, [r0, #4]	@ movhi
 1218 001c 7047     		bx	lr
 1219              		.cfi_endproc
 1220              	.LFE137:
 1221              		.size	SPI_I2S_ITConfig, .-SPI_I2S_ITConfig
ARM GAS  /tmp/cc7jM5z0.s 			page 23


 1222 001e 00BF     		.section	.text.SPI_GetTransmissionFIFOStatus,"ax",%progbits
 1223              		.align	2
 1224              		.p2align 4,,15
 1225              		.global	SPI_GetTransmissionFIFOStatus
 1226              		.thumb
 1227              		.thumb_func
 1228              		.type	SPI_GetTransmissionFIFOStatus, %function
 1229              	SPI_GetTransmissionFIFOStatus:
 1230              	.LFB138:
 1231              		.loc 1 1261 0
 1232              		.cfi_startproc
 1233              		@ args = 0, pretend = 0, frame = 0
 1234              		@ frame_needed = 0, uses_anonymous_args = 0
 1235              		@ link register save eliminated.
 1236              	.LVL96:
 1237              		.loc 1 1263 0
 1238 0000 0089     		ldrh	r0, [r0, #8]
 1239              	.LVL97:
 1240              		.loc 1 1264 0
 1241 0002 00F4C050 		and	r0, r0, #6144
 1242 0006 7047     		bx	lr
 1243              		.cfi_endproc
 1244              	.LFE138:
 1245              		.size	SPI_GetTransmissionFIFOStatus, .-SPI_GetTransmissionFIFOStatus
 1246 0008 AFF30080 		.section	.text.SPI_GetReceptionFIFOStatus,"ax",%progbits
 1246      AFF30080 
 1247              		.align	2
 1248              		.p2align 4,,15
 1249              		.global	SPI_GetReceptionFIFOStatus
 1250              		.thumb
 1251              		.thumb_func
 1252              		.type	SPI_GetReceptionFIFOStatus, %function
 1253              	SPI_GetReceptionFIFOStatus:
 1254              	.LFB139:
 1255              		.loc 1 1276 0
 1256              		.cfi_startproc
 1257              		@ args = 0, pretend = 0, frame = 0
 1258              		@ frame_needed = 0, uses_anonymous_args = 0
 1259              		@ link register save eliminated.
 1260              	.LVL98:
 1261              		.loc 1 1278 0
 1262 0000 0089     		ldrh	r0, [r0, #8]
 1263              	.LVL99:
 1264              		.loc 1 1279 0
 1265 0002 00F4C060 		and	r0, r0, #1536
 1266 0006 7047     		bx	lr
 1267              		.cfi_endproc
 1268              	.LFE139:
 1269              		.size	SPI_GetReceptionFIFOStatus, .-SPI_GetReceptionFIFOStatus
 1270 0008 AFF30080 		.section	.text.SPI_I2S_GetFlagStatus,"ax",%progbits
 1270      AFF30080 
 1271              		.align	2
 1272              		.p2align 4,,15
 1273              		.global	SPI_I2S_GetFlagStatus
 1274              		.thumb
 1275              		.thumb_func
 1276              		.type	SPI_I2S_GetFlagStatus, %function
ARM GAS  /tmp/cc7jM5z0.s 			page 24


 1277              	SPI_I2S_GetFlagStatus:
 1278              	.LFB140:
 1279              		.loc 1 1299 0
 1280              		.cfi_startproc
 1281              		@ args = 0, pretend = 0, frame = 0
 1282              		@ frame_needed = 0, uses_anonymous_args = 0
 1283              		@ link register save eliminated.
 1284              	.LVL100:
 1285              		.loc 1 1306 0
 1286 0000 0389     		ldrh	r3, [r0, #8]
 1287              	.LVL101:
 1288 0002 1942     		tst	r1, r3
 1289              		.loc 1 1318 0
 1290 0004 0CBF     		ite	eq
 1291 0006 0020     		moveq	r0, #0
 1292 0008 0120     		movne	r0, #1
 1293              	.LVL102:
 1294 000a 7047     		bx	lr
 1295              		.cfi_endproc
 1296              	.LFE140:
 1297              		.size	SPI_I2S_GetFlagStatus, .-SPI_I2S_GetFlagStatus
 1298 000c AFF30080 		.section	.text.SPI_I2S_ClearFlag,"ax",%progbits
 1299              		.align	2
 1300              		.p2align 4,,15
 1301              		.global	SPI_I2S_ClearFlag
 1302              		.thumb
 1303              		.thumb_func
 1304              		.type	SPI_I2S_ClearFlag, %function
 1305              	SPI_I2S_ClearFlag:
 1306              	.LFB141:
 1307              		.loc 1 1335 0
 1308              		.cfi_startproc
 1309              		@ args = 0, pretend = 0, frame = 0
 1310              		@ frame_needed = 0, uses_anonymous_args = 0
 1311              		@ link register save eliminated.
 1312              	.LVL103:
 1313              		.loc 1 1341 0
 1314 0000 C943     		mvns	r1, r1
 1315              	.LVL104:
 1316 0002 89B2     		uxth	r1, r1
 1317 0004 0181     		strh	r1, [r0, #8]	@ movhi
 1318 0006 7047     		bx	lr
 1319              		.cfi_endproc
 1320              	.LFE141:
 1321              		.size	SPI_I2S_ClearFlag, .-SPI_I2S_ClearFlag
 1322 0008 AFF30080 		.section	.text.SPI_I2S_GetITStatus,"ax",%progbits
 1322      AFF30080 
 1323              		.align	2
 1324              		.p2align 4,,15
 1325              		.global	SPI_I2S_GetITStatus
 1326              		.thumb
 1327              		.thumb_func
 1328              		.type	SPI_I2S_GetITStatus, %function
 1329              	SPI_I2S_GetITStatus:
 1330              	.LFB142:
 1331              		.loc 1 1359 0
 1332              		.cfi_startproc
ARM GAS  /tmp/cc7jM5z0.s 			page 25


 1333              		@ args = 0, pretend = 0, frame = 0
 1334              		@ frame_needed = 0, uses_anonymous_args = 0
 1335              		@ link register save eliminated.
 1336              	.LVL105:
 1337 0000 10B4     		push	{r4}
 1338              		.cfi_def_cfa_offset 4
 1339              		.cfi_offset 4, -4
 1340              		.loc 1 1377 0
 1341 0002 8488     		ldrh	r4, [r0, #4]
 1342              		.loc 1 1380 0
 1343 0004 0089     		ldrh	r0, [r0, #8]
 1344              	.LVL106:
 1345              		.loc 1 1368 0
 1346 0006 01F00F03 		and	r3, r1, #15
 1347 000a 0122     		movs	r2, #1
 1348              		.loc 1 1380 0
 1349 000c 80B2     		uxth	r0, r0
 1350              		.loc 1 1368 0
 1351 000e 02FA03F3 		lsl	r3, r2, r3
 1352              		.loc 1 1380 0
 1353 0012 1840     		ands	r0, r0, r3
 1354              		.loc 1 1377 0
 1355 0014 A4B2     		uxth	r4, r4
 1356              	.LVL107:
 1357              		.loc 1 1380 0
 1358 0016 05D0     		beq	.L90
 1359              		.loc 1 1374 0 discriminator 1
 1360 0018 0909     		lsrs	r1, r1, #4
 1361              	.LVL108:
 1362 001a 8A40     		lsls	r2, r2, r1
 1363              		.loc 1 1380 0 discriminator 1
 1364 001c 1442     		tst	r4, r2
 1365              		.loc 1 1383 0 discriminator 1
 1366 001e 0CBF     		ite	eq
 1367 0020 0020     		moveq	r0, #0
 1368 0022 0120     		movne	r0, #1
 1369              	.L90:
 1370              	.LVL109:
 1371              		.loc 1 1392 0
 1372 0024 5DF8044B 		ldr	r4, [sp], #4
 1373 0028 7047     		bx	lr
 1374              		.cfi_endproc
 1375              	.LFE142:
 1376              		.size	SPI_I2S_GetITStatus, .-SPI_I2S_GetITStatus
 1377 002a 00BFAFF3 		.text
 1377      0080
 1378              	.Letext0:
 1379              		.file 2 "/usr/include/newlib/machine/_default_types.h"
 1380              		.file 3 "/usr/include/newlib/stdint.h"
 1381              		.file 4 "../../../../os/hal/platforms/STM32F30x/stm32f30x.h"
 1382              		.file 5 "../../../../ext/stm32lib/inc/stm32f30x_rcc.h"
 1383              		.file 6 "../../../../ext/stm32lib/inc/stm32f30x_spi.h"
 1384              		.file 7 "../../../../os/ports/common/ARMCMx/CMSIS/include/core_cm4.h"