ARM GAS  /tmp/ccoXmwUB.s 			page 1


   1              		.syntax unified
   2              		.cpu cortex-m4
   3              		.eabi_attribute 27, 3
   4              		.fpu fpv4-sp-d16
   5              		.eabi_attribute 20, 1
   6              		.eabi_attribute 21, 1
   7              		.eabi_attribute 23, 3
   8              		.eabi_attribute 24, 1
   9              		.eabi_attribute 25, 1
  10              		.eabi_attribute 26, 1
  11              		.eabi_attribute 30, 2
  12              		.eabi_attribute 34, 1
  13              		.eabi_attribute 18, 4
  14              		.thumb
  15              		.file	"stm32f30x_pwr.c"
  16              		.text
  17              	.Ltext0:
  18              		.cfi_sections	.debug_frame
  19              		.section	.text.PWR_DeInit,"ax",%progbits
  20              		.align	2
  21              		.p2align 4,,15
  22              		.global	PWR_DeInit
  23              		.thumb
  24              		.thumb_func
  25              		.type	PWR_DeInit, %function
  26              	PWR_DeInit:
  27              	.LFB111:
  28              		.file 1 "../../../../ext/stm32lib/src/stm32f30x_pwr.c"
  29              		.loc 1 101 0
  30              		.cfi_startproc
  31              		@ args = 0, pretend = 0, frame = 0
  32              		@ frame_needed = 0, uses_anonymous_args = 0
  33 0000 08B5     		push	{r3, lr}
  34              		.cfi_def_cfa_offset 8
  35              		.cfi_offset 3, -8
  36              		.cfi_offset 14, -4
  37              		.loc 1 102 0
  38 0002 4FF08050 		mov	r0, #268435456
  39 0006 0121     		movs	r1, #1
  40 0008 FFF7FEFF 		bl	RCC_APB1PeriphResetCmd
  41              	.LVL0:
  42              		.loc 1 103 0
  43 000c 4FF08050 		mov	r0, #268435456
  44 0010 0021     		movs	r1, #0
  45              		.loc 1 104 0
  46 0012 BDE80840 		pop	{r3, lr}
  47              		.loc 1 103 0
  48 0016 FFF7FEBF 		b	RCC_APB1PeriphResetCmd
  49              	.LVL1:
  50              		.cfi_endproc
  51              	.LFE111:
  52              		.size	PWR_DeInit, .-PWR_DeInit
  53 001a 00BFAFF3 		.section	.text.PWR_BackupAccessCmd,"ax",%progbits
  53      0080
  54              		.align	2
  55              		.p2align 4,,15
  56              		.global	PWR_BackupAccessCmd
ARM GAS  /tmp/ccoXmwUB.s 			page 2


  57              		.thumb
  58              		.thumb_func
  59              		.type	PWR_BackupAccessCmd, %function
  60              	PWR_BackupAccessCmd:
  61              	.LFB112:
  62              		.loc 1 115 0
  63              		.cfi_startproc
  64              		@ args = 0, pretend = 0, frame = 0
  65              		@ frame_needed = 0, uses_anonymous_args = 0
  66              		@ link register save eliminated.
  67              	.LVL2:
  68              		.loc 1 118 0
  69 0000 014B     		ldr	r3, .L3
  70 0002 1860     		str	r0, [r3]
  71 0004 7047     		bx	lr
  72              	.L4:
  73 0006 00BF     		.align	2
  74              	.L3:
  75 0008 20000E42 		.word	1108213792
  76              		.cfi_endproc
  77              	.LFE112:
  78              		.size	PWR_BackupAccessCmd, .-PWR_BackupAccessCmd
  79 000c AFF30080 		.section	.text.PWR_PVDLevelConfig,"ax",%progbits
  80              		.align	2
  81              		.p2align 4,,15
  82              		.global	PWR_PVDLevelConfig
  83              		.thumb
  84              		.thumb_func
  85              		.type	PWR_PVDLevelConfig, %function
  86              	PWR_PVDLevelConfig:
  87              	.LFB113:
  88              		.loc 1 159 0
  89              		.cfi_startproc
  90              		@ args = 0, pretend = 0, frame = 0
  91              		@ frame_needed = 0, uses_anonymous_args = 0
  92              		@ link register save eliminated.
  93              	.LVL3:
  94              		.loc 1 165 0
  95 0000 034B     		ldr	r3, .L6
  96 0002 1A68     		ldr	r2, [r3]
  97              	.LVL4:
  98              		.loc 1 168 0
  99 0004 22F0E002 		bic	r2, r2, #224
 100              	.LVL5:
 101              		.loc 1 171 0
 102 0008 1043     		orrs	r0, r0, r2
 103              	.LVL6:
 104              		.loc 1 174 0
 105 000a 1860     		str	r0, [r3]
 106 000c 7047     		bx	lr
 107              	.L7:
 108 000e 00BF     		.align	2
 109              	.L6:
 110 0010 00700040 		.word	1073770496
 111              		.cfi_endproc
 112              	.LFE113:
 113              		.size	PWR_PVDLevelConfig, .-PWR_PVDLevelConfig
ARM GAS  /tmp/ccoXmwUB.s 			page 3


 114 0014 AFF30080 		.section	.text.PWR_PVDCmd,"ax",%progbits
 114      AFF30080 
 114      AFF30080 
 115              		.align	2
 116              		.p2align 4,,15
 117              		.global	PWR_PVDCmd
 118              		.thumb
 119              		.thumb_func
 120              		.type	PWR_PVDCmd, %function
 121              	PWR_PVDCmd:
 122              	.LFB114:
 123              		.loc 1 184 0
 124              		.cfi_startproc
 125              		@ args = 0, pretend = 0, frame = 0
 126              		@ frame_needed = 0, uses_anonymous_args = 0
 127              		@ link register save eliminated.
 128              	.LVL7:
 129              		.loc 1 187 0
 130 0000 014B     		ldr	r3, .L9
 131 0002 1860     		str	r0, [r3]
 132 0004 7047     		bx	lr
 133              	.L10:
 134 0006 00BF     		.align	2
 135              	.L9:
 136 0008 10000E42 		.word	1108213776
 137              		.cfi_endproc
 138              	.LFE114:
 139              		.size	PWR_PVDCmd, .-PWR_PVDCmd
 140 000c AFF30080 		.section	.text.PWR_WakeUpPinCmd,"ax",%progbits
 141              		.align	2
 142              		.p2align 4,,15
 143              		.global	PWR_WakeUpPinCmd
 144              		.thumb
 145              		.thumb_func
 146              		.type	PWR_WakeUpPinCmd, %function
 147              	PWR_WakeUpPinCmd:
 148              	.LFB115:
 149              		.loc 1 220 0
 150              		.cfi_startproc
 151              		@ args = 0, pretend = 0, frame = 0
 152              		@ frame_needed = 0, uses_anonymous_args = 0
 153              		@ link register save eliminated.
 154              	.LVL8:
 155              		.loc 1 228 0
 156 0000 044B     		ldr	r3, .L16
 157 0002 5A68     		ldr	r2, [r3, #4]
 158              		.loc 1 225 0
 159 0004 19B9     		cbnz	r1, .L15
 160              		.loc 1 233 0
 161 0006 22EA0000 		bic	r0, r2, r0
 162              	.LVL9:
 163 000a 5860     		str	r0, [r3, #4]
 164 000c 7047     		bx	lr
 165              	.LVL10:
 166              	.L15:
 167              		.loc 1 228 0
 168 000e 1043     		orrs	r0, r0, r2
ARM GAS  /tmp/ccoXmwUB.s 			page 4


 169              	.LVL11:
 170 0010 5860     		str	r0, [r3, #4]
 171 0012 7047     		bx	lr
 172              	.L17:
 173              		.align	2
 174              	.L16:
 175 0014 00700040 		.word	1073770496
 176              		.cfi_endproc
 177              	.LFE115:
 178              		.size	PWR_WakeUpPinCmd, .-PWR_WakeUpPinCmd
 179 0018 AFF30080 		.section	.text.PWR_EnterSleepMode,"ax",%progbits
 179      AFF30080 
 180              		.align	2
 181              		.p2align 4,,15
 182              		.global	PWR_EnterSleepMode
 183              		.thumb
 184              		.thumb_func
 185              		.type	PWR_EnterSleepMode, %function
 186              	PWR_EnterSleepMode:
 187              	.LFB116:
 188              		.loc 1 352 0
 189              		.cfi_startproc
 190              		@ args = 0, pretend = 0, frame = 0
 191              		@ frame_needed = 0, uses_anonymous_args = 0
 192              		@ link register save eliminated.
 193              	.LVL12:
 194              		.loc 1 357 0
 195 0000 054B     		ldr	r3, .L22
 196 0002 1A69     		ldr	r2, [r3, #16]
 197              		.loc 1 360 0
 198 0004 0128     		cmp	r0, #1
 199              		.loc 1 357 0
 200 0006 22F00402 		bic	r2, r2, #4
 201 000a 1A61     		str	r2, [r3, #16]
 202              		.loc 1 360 0
 203 000c 01D0     		beq	.L21
 204              	.LBB12:
 205              	.LBB13:
 206              		.file 2 "../../../../os/ports/common/ARMCMx/CMSIS/include/core_cmInstr.h"
 207              		.loc 2 310 0
 208              	@ 310 "../../../../os/ports/common/ARMCMx/CMSIS/include/core_cmInstr.h" 1
 209 000e 20BF     		wfe
 210              	@ 0 "" 2
 211              		.thumb
 212 0010 7047     		bx	lr
 213              	.L21:
 214              	.LBE13:
 215              	.LBE12:
 216              	.LBB14:
 217              	.LBB15:
 218              		.loc 2 299 0
 219              	@ 299 "../../../../os/ports/common/ARMCMx/CMSIS/include/core_cmInstr.h" 1
 220 0012 30BF     		wfi
 221              	@ 0 "" 2
 222              		.thumb
 223 0014 7047     		bx	lr
 224              	.L23:
ARM GAS  /tmp/ccoXmwUB.s 			page 5


 225 0016 00BF     		.align	2
 226              	.L22:
 227 0018 00ED00E0 		.word	-536810240
 228              	.LBE15:
 229              	.LBE14:
 230              		.cfi_endproc
 231              	.LFE116:
 232              		.size	PWR_EnterSleepMode, .-PWR_EnterSleepMode
 233 001c AFF30080 		.section	.text.PWR_EnterSTOPMode,"ax",%progbits
 234              		.align	2
 235              		.p2align 4,,15
 236              		.global	PWR_EnterSTOPMode
 237              		.thumb
 238              		.thumb_func
 239              		.type	PWR_EnterSTOPMode, %function
 240              	PWR_EnterSTOPMode:
 241              	.LFB117:
 242              		.loc 1 392 0
 243              		.cfi_startproc
 244              		@ args = 0, pretend = 0, frame = 0
 245              		@ frame_needed = 0, uses_anonymous_args = 0
 246              		@ link register save eliminated.
 247              	.LVL13:
 248              		.loc 1 400 0
 249 0000 0C4A     		ldr	r2, .L28
 250              		.loc 1 411 0
 251 0002 0D4B     		ldr	r3, .L28+4
 252              		.loc 1 392 0
 253 0004 10B4     		push	{r4}
 254              		.cfi_def_cfa_offset 4
 255              		.cfi_offset 4, -4
 256              		.loc 1 400 0
 257 0006 1468     		ldr	r4, [r2]
 258              	.LVL14:
 259              		.loc 1 402 0
 260 0008 24F00304 		bic	r4, r4, #3
 261              	.LVL15:
 262              		.loc 1 405 0
 263 000c 2043     		orrs	r0, r0, r4
 264              	.LVL16:
 265              		.loc 1 408 0
 266 000e 1060     		str	r0, [r2]
 267              		.loc 1 411 0
 268 0010 1A69     		ldr	r2, [r3, #16]
 269              		.loc 1 414 0
 270 0012 0129     		cmp	r1, #1
 271              		.loc 1 411 0
 272 0014 42F00402 		orr	r2, r2, #4
 273 0018 1A61     		str	r2, [r3, #16]
 274              		.loc 1 414 0
 275 001a 08D0     		beq	.L27
 276              	.LBB16:
 277              	.LBB17:
 278              		.loc 2 310 0
 279              	@ 310 "../../../../os/ports/common/ARMCMx/CMSIS/include/core_cmInstr.h" 1
 280 001c 20BF     		wfe
 281              	@ 0 "" 2
ARM GAS  /tmp/ccoXmwUB.s 			page 6


 282              		.thumb
 283              	.L26:
 284              	.LBE17:
 285              	.LBE16:
 286              		.loc 1 425 0
 287 001e 064B     		ldr	r3, .L28+4
 288              		.loc 1 426 0
 289 0020 5DF8044B 		ldr	r4, [sp], #4
 290              		.loc 1 425 0
 291 0024 1A69     		ldr	r2, [r3, #16]
 292 0026 22F00402 		bic	r2, r2, #4
 293 002a 1A61     		str	r2, [r3, #16]
 294              		.loc 1 426 0
 295 002c 7047     		bx	lr
 296              	.L27:
 297              	.LBB18:
 298              	.LBB19:
 299              		.loc 2 299 0
 300              	@ 299 "../../../../os/ports/common/ARMCMx/CMSIS/include/core_cmInstr.h" 1
 301 002e 30BF     		wfi
 302              	@ 0 "" 2
 303              		.thumb
 304 0030 F5E7     		b	.L26
 305              	.L29:
 306 0032 00BF     		.align	2
 307              	.L28:
 308 0034 00700040 		.word	1073770496
 309 0038 00ED00E0 		.word	-536810240
 310              	.LBE19:
 311              	.LBE18:
 312              		.cfi_endproc
 313              	.LFE117:
 314              		.size	PWR_EnterSTOPMode, .-PWR_EnterSTOPMode
 315 003c AFF30080 		.section	.text.PWR_EnterSTANDBYMode,"ax",%progbits
 316              		.align	2
 317              		.p2align 4,,15
 318              		.global	PWR_EnterSTANDBYMode
 319              		.thumb
 320              		.thumb_func
 321              		.type	PWR_EnterSTANDBYMode, %function
 322              	PWR_EnterSTANDBYMode:
 323              	.LFB118:
 324              		.loc 1 439 0
 325              		.cfi_startproc
 326              		@ args = 0, pretend = 0, frame = 0
 327              		@ frame_needed = 0, uses_anonymous_args = 0
 328              		@ link register save eliminated.
 329              		.loc 1 441 0
 330 0000 074B     		ldr	r3, .L31
 331              		.loc 1 447 0
 332 0002 084A     		ldr	r2, .L31+4
 333              		.loc 1 441 0
 334 0004 1968     		ldr	r1, [r3]
 335 0006 41F00401 		orr	r1, r1, #4
 336 000a 1960     		str	r1, [r3]
 337              		.loc 1 444 0
 338 000c 1968     		ldr	r1, [r3]
ARM GAS  /tmp/ccoXmwUB.s 			page 7


 339 000e 41F00201 		orr	r1, r1, #2
 340 0012 1960     		str	r1, [r3]
 341              		.loc 1 447 0
 342 0014 1369     		ldr	r3, [r2, #16]
 343 0016 43F00403 		orr	r3, r3, #4
 344 001a 1361     		str	r3, [r2, #16]
 345              	.LBB20:
 346              	.LBB21:
 347              		.loc 2 299 0
 348              	@ 299 "../../../../os/ports/common/ARMCMx/CMSIS/include/core_cmInstr.h" 1
 349 001c 30BF     		wfi
 350              	@ 0 "" 2
 351              		.thumb
 352 001e 7047     		bx	lr
 353              	.L32:
 354              		.align	2
 355              	.L31:
 356 0020 00700040 		.word	1073770496
 357 0024 00ED00E0 		.word	-536810240
 358              	.LBE21:
 359              	.LBE20:
 360              		.cfi_endproc
 361              	.LFE118:
 362              		.size	PWR_EnterSTANDBYMode, .-PWR_EnterSTANDBYMode
 363 0028 AFF30080 		.section	.text.PWR_GetFlagStatus,"ax",%progbits
 363      AFF30080 
 364              		.align	2
 365              		.p2align 4,,15
 366              		.global	PWR_GetFlagStatus
 367              		.thumb
 368              		.thumb_func
 369              		.type	PWR_GetFlagStatus, %function
 370              	PWR_GetFlagStatus:
 371              	.LFB119:
 372              		.loc 1 489 0
 373              		.cfi_startproc
 374              		@ args = 0, pretend = 0, frame = 0
 375              		@ frame_needed = 0, uses_anonymous_args = 0
 376              		@ link register save eliminated.
 377              	.LVL17:
 378              		.loc 1 494 0
 379 0000 034B     		ldr	r3, .L34
 380 0002 5B68     		ldr	r3, [r3, #4]
 381              	.LVL18:
 382 0004 1842     		tst	r0, r3
 383              		.loc 1 504 0
 384 0006 0CBF     		ite	eq
 385 0008 0020     		moveq	r0, #0
 386 000a 0120     		movne	r0, #1
 387              	.LVL19:
 388 000c 7047     		bx	lr
 389              	.L35:
 390 000e 00BF     		.align	2
 391              	.L34:
 392 0010 00700040 		.word	1073770496
 393              		.cfi_endproc
 394              	.LFE119:
ARM GAS  /tmp/ccoXmwUB.s 			page 8


 395              		.size	PWR_GetFlagStatus, .-PWR_GetFlagStatus
 396 0014 AFF30080 		.section	.text.PWR_ClearFlag,"ax",%progbits
 396      AFF30080 
 396      AFF30080 
 397              		.align	2
 398              		.p2align 4,,15
 399              		.global	PWR_ClearFlag
 400              		.thumb
 401              		.thumb_func
 402              		.type	PWR_ClearFlag, %function
 403              	PWR_ClearFlag:
 404              	.LFB120:
 405              		.loc 1 515 0
 406              		.cfi_startproc
 407              		@ args = 0, pretend = 0, frame = 0
 408              		@ frame_needed = 0, uses_anonymous_args = 0
 409              		@ link register save eliminated.
 410              	.LVL20:
 411              		.loc 1 519 0
 412 0000 024B     		ldr	r3, .L37
 413 0002 1A68     		ldr	r2, [r3]
 414 0004 42EA8000 		orr	r0, r2, r0, lsl #2
 415              	.LVL21:
 416 0008 1860     		str	r0, [r3]
 417 000a 7047     		bx	lr
 418              	.L38:
 419              		.align	2
 420              	.L37:
 421 000c 00700040 		.word	1073770496
 422              		.cfi_endproc
 423              	.LFE120:
 424              		.size	PWR_ClearFlag, .-PWR_ClearFlag
 425              		.text
 426              	.Letext0:
 427              		.file 3 "/usr/include/newlib/machine/_default_types.h"
 428              		.file 4 "/usr/include/newlib/stdint.h"
 429              		.file 5 "../../../../os/ports/common/ARMCMx/CMSIS/include/core_cm4.h"
 430              		.file 6 "../../../../os/hal/platforms/STM32F30x/stm32f30x.h"
 431              		.file 7 "../../../../ext/stm32lib/inc/stm32f30x_rcc.h"