ARM GAS  /tmp/ccONhIg1.s 			page 1


   1              		.syntax unified
   2              		.cpu cortex-m4
   3              		.eabi_attribute 27, 3
   4              		.fpu fpv4-sp-d16
   5              		.eabi_attribute 20, 1
   6              		.eabi_attribute 21, 1
   7              		.eabi_attribute 23, 3
   8              		.eabi_attribute 24, 1
   9              		.eabi_attribute 25, 1
  10              		.eabi_attribute 26, 1
  11              		.eabi_attribute 30, 2
  12              		.eabi_attribute 34, 1
  13              		.eabi_attribute 18, 4
  14              		.thumb
  15              		.file	"stm32_dma.c"
  16              		.text
  17              	.Ltext0:
  18              		.cfi_sections	.debug_frame
  19              		.section	.text.Vector6C,"ax",%progbits
  20              		.align	2
  21              		.p2align 4,,15
  22              		.global	Vector6C
  23              		.thumb
  24              		.thumb_func
  25              		.type	Vector6C, %function
  26              	Vector6C:
  27              	.LFB118:
  28              		.file 1 "../../../../os/hal/platforms/STM32F30x/stm32_dma.c"
  29              		.loc 1 119 0
  30              		.cfi_startproc
  31              		@ args = 0, pretend = 0, frame = 0
  32              		@ frame_needed = 0, uses_anonymous_args = 0
  33 0000 08B5     		push	{r3, lr}
  34              		.cfi_def_cfa_offset 8
  35              		.cfi_offset 3, -8
  36              		.cfi_offset 14, -4
  37              		.loc 1 122 0
  38 0002 FFF7FEFF 		bl	dbg_check_enter_isr
  39              	.LVL0:
  40              		.loc 1 124 0
  41 0006 084B     		ldr	r3, .L7
  42              		.loc 1 126 0
  43 0008 084A     		ldr	r2, .L7+4
  44              		.loc 1 124 0
  45 000a 1968     		ldr	r1, [r3]
  46              		.loc 1 125 0
  47 000c 0F20     		movs	r0, #15
  48 000e 5860     		str	r0, [r3, #4]
  49              		.loc 1 126 0
  50 0010 1368     		ldr	r3, [r2]
  51              		.loc 1 124 0
  52 0012 0140     		ands	r1, r1, r0
  53              	.LVL1:
  54              		.loc 1 126 0
  55 0014 0BB1     		cbz	r3, .L2
  56              		.loc 1 127 0
  57 0016 5068     		ldr	r0, [r2, #4]
ARM GAS  /tmp/ccONhIg1.s 			page 2


  58 0018 9847     		blx	r3
  59              	.LVL2:
  60              	.L2:
  61              		.loc 1 129 0
  62 001a FFF7FEFF 		bl	dbg_check_leave_isr
  63              	.LVL3:
  64              		.loc 1 130 0
  65 001e BDE80840 		pop	{r3, lr}
  66              		.loc 1 129 0
  67 0022 FFF7FEBF 		b	_port_irq_epilogue
  68              	.LVL4:
  69              	.L8:
  70 0026 00BF     		.align	2
  71              	.L7:
  72 0028 00000240 		.word	1073872896
  73 002c 00000000 		.word	.LANCHOR0
  74              		.cfi_endproc
  75              	.LFE118:
  76              		.size	Vector6C, .-Vector6C
  77              		.section	.text.Vector70,"ax",%progbits
  78              		.align	2
  79              		.p2align 4,,15
  80              		.global	Vector70
  81              		.thumb
  82              		.thumb_func
  83              		.type	Vector70, %function
  84              	Vector70:
  85              	.LFB119:
  86              		.loc 1 137 0
  87              		.cfi_startproc
  88              		@ args = 0, pretend = 0, frame = 0
  89              		@ frame_needed = 0, uses_anonymous_args = 0
  90 0000 10B5     		push	{r4, lr}
  91              		.cfi_def_cfa_offset 8
  92              		.cfi_offset 4, -8
  93              		.cfi_offset 14, -4
  94              		.loc 1 140 0
  95 0002 FFF7FEFF 		bl	dbg_check_enter_isr
  96              	.LVL5:
  97              		.loc 1 142 0
  98 0006 084B     		ldr	r3, .L14
  99              		.loc 1 144 0
 100 0008 0848     		ldr	r0, .L14+4
 101              		.loc 1 142 0
 102 000a 1968     		ldr	r1, [r3]
 103              		.loc 1 144 0
 104 000c 8268     		ldr	r2, [r0, #8]
 105              		.loc 1 143 0
 106 000e F024     		movs	r4, #240
 107              		.loc 1 142 0
 108 0010 C1F30311 		ubfx	r1, r1, #4, #4
 109              	.LVL6:
 110              		.loc 1 143 0
 111 0014 5C60     		str	r4, [r3, #4]
 112              		.loc 1 144 0
 113 0016 0AB1     		cbz	r2, .L10
 114              		.loc 1 145 0
ARM GAS  /tmp/ccONhIg1.s 			page 3


 115 0018 C068     		ldr	r0, [r0, #12]
 116 001a 9047     		blx	r2
 117              	.LVL7:
 118              	.L10:
 119              		.loc 1 147 0
 120 001c FFF7FEFF 		bl	dbg_check_leave_isr
 121              	.LVL8:
 122              		.loc 1 148 0
 123 0020 BDE81040 		pop	{r4, lr}
 124              		.loc 1 147 0
 125 0024 FFF7FEBF 		b	_port_irq_epilogue
 126              	.LVL9:
 127              	.L15:
 128              		.align	2
 129              	.L14:
 130 0028 00000240 		.word	1073872896
 131 002c 00000000 		.word	.LANCHOR0
 132              		.cfi_endproc
 133              	.LFE119:
 134              		.size	Vector70, .-Vector70
 135              		.section	.text.Vector74,"ax",%progbits
 136              		.align	2
 137              		.p2align 4,,15
 138              		.global	Vector74
 139              		.thumb
 140              		.thumb_func
 141              		.type	Vector74, %function
 142              	Vector74:
 143              	.LFB120:
 144              		.loc 1 155 0
 145              		.cfi_startproc
 146              		@ args = 0, pretend = 0, frame = 0
 147              		@ frame_needed = 0, uses_anonymous_args = 0
 148 0000 10B5     		push	{r4, lr}
 149              		.cfi_def_cfa_offset 8
 150              		.cfi_offset 4, -8
 151              		.cfi_offset 14, -4
 152              		.loc 1 158 0
 153 0002 FFF7FEFF 		bl	dbg_check_enter_isr
 154              	.LVL10:
 155              		.loc 1 160 0
 156 0006 094B     		ldr	r3, .L21
 157              		.loc 1 162 0
 158 0008 0948     		ldr	r0, .L21+4
 159              		.loc 1 160 0
 160 000a 1968     		ldr	r1, [r3]
 161              		.loc 1 162 0
 162 000c 0269     		ldr	r2, [r0, #16]
 163              		.loc 1 161 0
 164 000e 4FF47064 		mov	r4, #3840
 165              		.loc 1 160 0
 166 0012 C1F30321 		ubfx	r1, r1, #8, #4
 167              	.LVL11:
 168              		.loc 1 161 0
 169 0016 5C60     		str	r4, [r3, #4]
 170              		.loc 1 162 0
 171 0018 0AB1     		cbz	r2, .L17
ARM GAS  /tmp/ccONhIg1.s 			page 4


 172              		.loc 1 163 0
 173 001a 4069     		ldr	r0, [r0, #20]
 174 001c 9047     		blx	r2
 175              	.LVL12:
 176              	.L17:
 177              		.loc 1 165 0
 178 001e FFF7FEFF 		bl	dbg_check_leave_isr
 179              	.LVL13:
 180              		.loc 1 166 0
 181 0022 BDE81040 		pop	{r4, lr}
 182              		.loc 1 165 0
 183 0026 FFF7FEBF 		b	_port_irq_epilogue
 184              	.LVL14:
 185              	.L22:
 186 002a 00BF     		.align	2
 187              	.L21:
 188 002c 00000240 		.word	1073872896
 189 0030 00000000 		.word	.LANCHOR0
 190              		.cfi_endproc
 191              	.LFE120:
 192              		.size	Vector74, .-Vector74
 193 0034 AFF30080 		.section	.text.Vector78,"ax",%progbits
 193      AFF30080 
 193      AFF30080 
 194              		.align	2
 195              		.p2align 4,,15
 196              		.global	Vector78
 197              		.thumb
 198              		.thumb_func
 199              		.type	Vector78, %function
 200              	Vector78:
 201              	.LFB121:
 202              		.loc 1 173 0
 203              		.cfi_startproc
 204              		@ args = 0, pretend = 0, frame = 0
 205              		@ frame_needed = 0, uses_anonymous_args = 0
 206 0000 10B5     		push	{r4, lr}
 207              		.cfi_def_cfa_offset 8
 208              		.cfi_offset 4, -8
 209              		.cfi_offset 14, -4
 210              		.loc 1 176 0
 211 0002 FFF7FEFF 		bl	dbg_check_enter_isr
 212              	.LVL15:
 213              		.loc 1 178 0
 214 0006 094B     		ldr	r3, .L28
 215              		.loc 1 180 0
 216 0008 0948     		ldr	r0, .L28+4
 217              		.loc 1 178 0
 218 000a 1968     		ldr	r1, [r3]
 219              		.loc 1 180 0
 220 000c 8269     		ldr	r2, [r0, #24]
 221              		.loc 1 179 0
 222 000e 4FF47044 		mov	r4, #61440
 223              		.loc 1 178 0
 224 0012 C1F30331 		ubfx	r1, r1, #12, #4
 225              	.LVL16:
 226              		.loc 1 179 0
ARM GAS  /tmp/ccONhIg1.s 			page 5


 227 0016 5C60     		str	r4, [r3, #4]
 228              		.loc 1 180 0
 229 0018 0AB1     		cbz	r2, .L24
 230              		.loc 1 181 0
 231 001a C069     		ldr	r0, [r0, #28]
 232 001c 9047     		blx	r2
 233              	.LVL17:
 234              	.L24:
 235              		.loc 1 183 0
 236 001e FFF7FEFF 		bl	dbg_check_leave_isr
 237              	.LVL18:
 238              		.loc 1 184 0
 239 0022 BDE81040 		pop	{r4, lr}
 240              		.loc 1 183 0
 241 0026 FFF7FEBF 		b	_port_irq_epilogue
 242              	.LVL19:
 243              	.L29:
 244 002a 00BF     		.align	2
 245              	.L28:
 246 002c 00000240 		.word	1073872896
 247 0030 00000000 		.word	.LANCHOR0
 248              		.cfi_endproc
 249              	.LFE121:
 250              		.size	Vector78, .-Vector78
 251 0034 AFF30080 		.section	.text.Vector7C,"ax",%progbits
 251      AFF30080 
 251      AFF30080 
 252              		.align	2
 253              		.p2align 4,,15
 254              		.global	Vector7C
 255              		.thumb
 256              		.thumb_func
 257              		.type	Vector7C, %function
 258              	Vector7C:
 259              	.LFB122:
 260              		.loc 1 191 0
 261              		.cfi_startproc
 262              		@ args = 0, pretend = 0, frame = 0
 263              		@ frame_needed = 0, uses_anonymous_args = 0
 264 0000 10B5     		push	{r4, lr}
 265              		.cfi_def_cfa_offset 8
 266              		.cfi_offset 4, -8
 267              		.cfi_offset 14, -4
 268              		.loc 1 194 0
 269 0002 FFF7FEFF 		bl	dbg_check_enter_isr
 270              	.LVL20:
 271              		.loc 1 196 0
 272 0006 094B     		ldr	r3, .L35
 273              		.loc 1 198 0
 274 0008 0948     		ldr	r0, .L35+4
 275              		.loc 1 196 0
 276 000a 1968     		ldr	r1, [r3]
 277              		.loc 1 198 0
 278 000c 026A     		ldr	r2, [r0, #32]
 279              		.loc 1 197 0
 280 000e 4FF47024 		mov	r4, #983040
 281              		.loc 1 196 0
ARM GAS  /tmp/ccONhIg1.s 			page 6


 282 0012 C1F30341 		ubfx	r1, r1, #16, #4
 283              	.LVL21:
 284              		.loc 1 197 0
 285 0016 5C60     		str	r4, [r3, #4]
 286              		.loc 1 198 0
 287 0018 0AB1     		cbz	r2, .L31
 288              		.loc 1 199 0
 289 001a 406A     		ldr	r0, [r0, #36]
 290 001c 9047     		blx	r2
 291              	.LVL22:
 292              	.L31:
 293              		.loc 1 201 0
 294 001e FFF7FEFF 		bl	dbg_check_leave_isr
 295              	.LVL23:
 296              		.loc 1 202 0
 297 0022 BDE81040 		pop	{r4, lr}
 298              		.loc 1 201 0
 299 0026 FFF7FEBF 		b	_port_irq_epilogue
 300              	.LVL24:
 301              	.L36:
 302 002a 00BF     		.align	2
 303              	.L35:
 304 002c 00000240 		.word	1073872896
 305 0030 00000000 		.word	.LANCHOR0
 306              		.cfi_endproc
 307              	.LFE122:
 308              		.size	Vector7C, .-Vector7C
 309 0034 AFF30080 		.section	.text.Vector80,"ax",%progbits
 309      AFF30080 
 309      AFF30080 
 310              		.align	2
 311              		.p2align 4,,15
 312              		.global	Vector80
 313              		.thumb
 314              		.thumb_func
 315              		.type	Vector80, %function
 316              	Vector80:
 317              	.LFB123:
 318              		.loc 1 209 0
 319              		.cfi_startproc
 320              		@ args = 0, pretend = 0, frame = 0
 321              		@ frame_needed = 0, uses_anonymous_args = 0
 322 0000 10B5     		push	{r4, lr}
 323              		.cfi_def_cfa_offset 8
 324              		.cfi_offset 4, -8
 325              		.cfi_offset 14, -4
 326              		.loc 1 212 0
 327 0002 FFF7FEFF 		bl	dbg_check_enter_isr
 328              	.LVL25:
 329              		.loc 1 214 0
 330 0006 094B     		ldr	r3, .L42
 331              		.loc 1 216 0
 332 0008 0948     		ldr	r0, .L42+4
 333              		.loc 1 214 0
 334 000a 1968     		ldr	r1, [r3]
 335              		.loc 1 216 0
 336 000c 826A     		ldr	r2, [r0, #40]
ARM GAS  /tmp/ccONhIg1.s 			page 7


 337              		.loc 1 215 0
 338 000e 4FF47004 		mov	r4, #15728640
 339              		.loc 1 214 0
 340 0012 C1F30351 		ubfx	r1, r1, #20, #4
 341              	.LVL26:
 342              		.loc 1 215 0
 343 0016 5C60     		str	r4, [r3, #4]
 344              		.loc 1 216 0
 345 0018 0AB1     		cbz	r2, .L38
 346              		.loc 1 217 0
 347 001a C06A     		ldr	r0, [r0, #44]
 348 001c 9047     		blx	r2
 349              	.LVL27:
 350              	.L38:
 351              		.loc 1 219 0
 352 001e FFF7FEFF 		bl	dbg_check_leave_isr
 353              	.LVL28:
 354              		.loc 1 220 0
 355 0022 BDE81040 		pop	{r4, lr}
 356              		.loc 1 219 0
 357 0026 FFF7FEBF 		b	_port_irq_epilogue
 358              	.LVL29:
 359              	.L43:
 360 002a 00BF     		.align	2
 361              	.L42:
 362 002c 00000240 		.word	1073872896
 363 0030 00000000 		.word	.LANCHOR0
 364              		.cfi_endproc
 365              	.LFE123:
 366              		.size	Vector80, .-Vector80
 367 0034 AFF30080 		.section	.text.Vector84,"ax",%progbits
 367      AFF30080 
 367      AFF30080 
 368              		.align	2
 369              		.p2align 4,,15
 370              		.global	Vector84
 371              		.thumb
 372              		.thumb_func
 373              		.type	Vector84, %function
 374              	Vector84:
 375              	.LFB124:
 376              		.loc 1 227 0
 377              		.cfi_startproc
 378              		@ args = 0, pretend = 0, frame = 0
 379              		@ frame_needed = 0, uses_anonymous_args = 0
 380 0000 10B5     		push	{r4, lr}
 381              		.cfi_def_cfa_offset 8
 382              		.cfi_offset 4, -8
 383              		.cfi_offset 14, -4
 384              		.loc 1 230 0
 385 0002 FFF7FEFF 		bl	dbg_check_enter_isr
 386              	.LVL30:
 387              		.loc 1 232 0
 388 0006 094B     		ldr	r3, .L49
 389              		.loc 1 234 0
 390 0008 0948     		ldr	r0, .L49+4
 391              		.loc 1 232 0
ARM GAS  /tmp/ccONhIg1.s 			page 8


 392 000a 1968     		ldr	r1, [r3]
 393              		.loc 1 234 0
 394 000c 026B     		ldr	r2, [r0, #48]
 395              		.loc 1 233 0
 396 000e 4FF07064 		mov	r4, #251658240
 397              		.loc 1 232 0
 398 0012 C1F30361 		ubfx	r1, r1, #24, #4
 399              	.LVL31:
 400              		.loc 1 233 0
 401 0016 5C60     		str	r4, [r3, #4]
 402              		.loc 1 234 0
 403 0018 0AB1     		cbz	r2, .L45
 404              		.loc 1 235 0
 405 001a 406B     		ldr	r0, [r0, #52]
 406 001c 9047     		blx	r2
 407              	.LVL32:
 408              	.L45:
 409              		.loc 1 237 0
 410 001e FFF7FEFF 		bl	dbg_check_leave_isr
 411              	.LVL33:
 412              		.loc 1 238 0
 413 0022 BDE81040 		pop	{r4, lr}
 414              		.loc 1 237 0
 415 0026 FFF7FEBF 		b	_port_irq_epilogue
 416              	.LVL34:
 417              	.L50:
 418 002a 00BF     		.align	2
 419              	.L49:
 420 002c 00000240 		.word	1073872896
 421 0030 00000000 		.word	.LANCHOR0
 422              		.cfi_endproc
 423              	.LFE124:
 424              		.size	Vector84, .-Vector84
 425 0034 AFF30080 		.section	.text.Vector120,"ax",%progbits
 425      AFF30080 
 425      AFF30080 
 426              		.align	2
 427              		.p2align 4,,15
 428              		.global	Vector120
 429              		.thumb
 430              		.thumb_func
 431              		.type	Vector120, %function
 432              	Vector120:
 433              	.LFB125:
 434              		.loc 1 245 0
 435              		.cfi_startproc
 436              		@ args = 0, pretend = 0, frame = 0
 437              		@ frame_needed = 0, uses_anonymous_args = 0
 438 0000 10B5     		push	{r4, lr}
 439              		.cfi_def_cfa_offset 8
 440              		.cfi_offset 4, -8
 441              		.cfi_offset 14, -4
 442              		.loc 1 248 0
 443 0002 FFF7FEFF 		bl	dbg_check_enter_isr
 444              	.LVL35:
 445              		.loc 1 250 0
 446 0006 084B     		ldr	r3, .L56
ARM GAS  /tmp/ccONhIg1.s 			page 9


 447              		.loc 1 252 0
 448 0008 0848     		ldr	r0, .L56+4
 449              		.loc 1 250 0
 450 000a 1968     		ldr	r1, [r3]
 451              		.loc 1 252 0
 452 000c 826B     		ldr	r2, [r0, #56]
 453              		.loc 1 251 0
 454 000e 0F24     		movs	r4, #15
 455              		.loc 1 250 0
 456 0010 2140     		ands	r1, r1, r4
 457              	.LVL36:
 458              		.loc 1 251 0
 459 0012 5C60     		str	r4, [r3, #4]
 460              		.loc 1 252 0
 461 0014 0AB1     		cbz	r2, .L52
 462              		.loc 1 253 0
 463 0016 C06B     		ldr	r0, [r0, #60]
 464 0018 9047     		blx	r2
 465              	.LVL37:
 466              	.L52:
 467              		.loc 1 255 0
 468 001a FFF7FEFF 		bl	dbg_check_leave_isr
 469              	.LVL38:
 470              		.loc 1 256 0
 471 001e BDE81040 		pop	{r4, lr}
 472              		.loc 1 255 0
 473 0022 FFF7FEBF 		b	_port_irq_epilogue
 474              	.LVL39:
 475              	.L57:
 476 0026 00BF     		.align	2
 477              	.L56:
 478 0028 00040240 		.word	1073873920
 479 002c 00000000 		.word	.LANCHOR0
 480              		.cfi_endproc
 481              	.LFE125:
 482              		.size	Vector120, .-Vector120
 483              		.section	.text.Vector124,"ax",%progbits
 484              		.align	2
 485              		.p2align 4,,15
 486              		.global	Vector124
 487              		.thumb
 488              		.thumb_func
 489              		.type	Vector124, %function
 490              	Vector124:
 491              	.LFB126:
 492              		.loc 1 263 0
 493              		.cfi_startproc
 494              		@ args = 0, pretend = 0, frame = 0
 495              		@ frame_needed = 0, uses_anonymous_args = 0
 496 0000 10B5     		push	{r4, lr}
 497              		.cfi_def_cfa_offset 8
 498              		.cfi_offset 4, -8
 499              		.cfi_offset 14, -4
 500              		.loc 1 266 0
 501 0002 FFF7FEFF 		bl	dbg_check_enter_isr
 502              	.LVL40:
 503              		.loc 1 268 0
ARM GAS  /tmp/ccONhIg1.s 			page 10


 504 0006 084B     		ldr	r3, .L63
 505              		.loc 1 270 0
 506 0008 0848     		ldr	r0, .L63+4
 507              		.loc 1 268 0
 508 000a 1968     		ldr	r1, [r3]
 509              		.loc 1 270 0
 510 000c 026C     		ldr	r2, [r0, #64]
 511              		.loc 1 269 0
 512 000e F024     		movs	r4, #240
 513              		.loc 1 268 0
 514 0010 C1F30311 		ubfx	r1, r1, #4, #4
 515              	.LVL41:
 516              		.loc 1 269 0
 517 0014 5C60     		str	r4, [r3, #4]
 518              		.loc 1 270 0
 519 0016 0AB1     		cbz	r2, .L59
 520              		.loc 1 271 0
 521 0018 406C     		ldr	r0, [r0, #68]
 522 001a 9047     		blx	r2
 523              	.LVL42:
 524              	.L59:
 525              		.loc 1 273 0
 526 001c FFF7FEFF 		bl	dbg_check_leave_isr
 527              	.LVL43:
 528              		.loc 1 274 0
 529 0020 BDE81040 		pop	{r4, lr}
 530              		.loc 1 273 0
 531 0024 FFF7FEBF 		b	_port_irq_epilogue
 532              	.LVL44:
 533              	.L64:
 534              		.align	2
 535              	.L63:
 536 0028 00040240 		.word	1073873920
 537 002c 00000000 		.word	.LANCHOR0
 538              		.cfi_endproc
 539              	.LFE126:
 540              		.size	Vector124, .-Vector124
 541              		.section	.text.Vector128,"ax",%progbits
 542              		.align	2
 543              		.p2align 4,,15
 544              		.global	Vector128
 545              		.thumb
 546              		.thumb_func
 547              		.type	Vector128, %function
 548              	Vector128:
 549              	.LFB127:
 550              		.loc 1 281 0
 551              		.cfi_startproc
 552              		@ args = 0, pretend = 0, frame = 0
 553              		@ frame_needed = 0, uses_anonymous_args = 0
 554 0000 10B5     		push	{r4, lr}
 555              		.cfi_def_cfa_offset 8
 556              		.cfi_offset 4, -8
 557              		.cfi_offset 14, -4
 558              		.loc 1 284 0
 559 0002 FFF7FEFF 		bl	dbg_check_enter_isr
 560              	.LVL45:
ARM GAS  /tmp/ccONhIg1.s 			page 11


 561              		.loc 1 286 0
 562 0006 094B     		ldr	r3, .L70
 563              		.loc 1 288 0
 564 0008 0948     		ldr	r0, .L70+4
 565              		.loc 1 286 0
 566 000a 1968     		ldr	r1, [r3]
 567              		.loc 1 288 0
 568 000c 826C     		ldr	r2, [r0, #72]
 569              		.loc 1 287 0
 570 000e 4FF47064 		mov	r4, #3840
 571              		.loc 1 286 0
 572 0012 C1F30321 		ubfx	r1, r1, #8, #4
 573              	.LVL46:
 574              		.loc 1 287 0
 575 0016 5C60     		str	r4, [r3, #4]
 576              		.loc 1 288 0
 577 0018 0AB1     		cbz	r2, .L66
 578              		.loc 1 289 0
 579 001a C06C     		ldr	r0, [r0, #76]
 580 001c 9047     		blx	r2
 581              	.LVL47:
 582              	.L66:
 583              		.loc 1 291 0
 584 001e FFF7FEFF 		bl	dbg_check_leave_isr
 585              	.LVL48:
 586              		.loc 1 292 0
 587 0022 BDE81040 		pop	{r4, lr}
 588              		.loc 1 291 0
 589 0026 FFF7FEBF 		b	_port_irq_epilogue
 590              	.LVL49:
 591              	.L71:
 592 002a 00BF     		.align	2
 593              	.L70:
 594 002c 00040240 		.word	1073873920
 595 0030 00000000 		.word	.LANCHOR0
 596              		.cfi_endproc
 597              	.LFE127:
 598              		.size	Vector128, .-Vector128
 599 0034 AFF30080 		.section	.text.Vector12C,"ax",%progbits
 599      AFF30080 
 599      AFF30080 
 600              		.align	2
 601              		.p2align 4,,15
 602              		.global	Vector12C
 603              		.thumb
 604              		.thumb_func
 605              		.type	Vector12C, %function
 606              	Vector12C:
 607              	.LFB128:
 608              		.loc 1 299 0
 609              		.cfi_startproc
 610              		@ args = 0, pretend = 0, frame = 0
 611              		@ frame_needed = 0, uses_anonymous_args = 0
 612 0000 10B5     		push	{r4, lr}
 613              		.cfi_def_cfa_offset 8
 614              		.cfi_offset 4, -8
 615              		.cfi_offset 14, -4
ARM GAS  /tmp/ccONhIg1.s 			page 12


 616              		.loc 1 302 0
 617 0002 FFF7FEFF 		bl	dbg_check_enter_isr
 618              	.LVL50:
 619              		.loc 1 304 0
 620 0006 094B     		ldr	r3, .L77
 621              		.loc 1 306 0
 622 0008 0948     		ldr	r0, .L77+4
 623              		.loc 1 304 0
 624 000a 1968     		ldr	r1, [r3]
 625              		.loc 1 306 0
 626 000c 026D     		ldr	r2, [r0, #80]
 627              		.loc 1 305 0
 628 000e 4FF47044 		mov	r4, #61440
 629              		.loc 1 304 0
 630 0012 C1F30331 		ubfx	r1, r1, #12, #4
 631              	.LVL51:
 632              		.loc 1 305 0
 633 0016 5C60     		str	r4, [r3, #4]
 634              		.loc 1 306 0
 635 0018 0AB1     		cbz	r2, .L73
 636              		.loc 1 307 0
 637 001a 406D     		ldr	r0, [r0, #84]
 638 001c 9047     		blx	r2
 639              	.LVL52:
 640              	.L73:
 641              		.loc 1 309 0
 642 001e FFF7FEFF 		bl	dbg_check_leave_isr
 643              	.LVL53:
 644              		.loc 1 310 0
 645 0022 BDE81040 		pop	{r4, lr}
 646              		.loc 1 309 0
 647 0026 FFF7FEBF 		b	_port_irq_epilogue
 648              	.LVL54:
 649              	.L78:
 650 002a 00BF     		.align	2
 651              	.L77:
 652 002c 00040240 		.word	1073873920
 653 0030 00000000 		.word	.LANCHOR0
 654              		.cfi_endproc
 655              	.LFE128:
 656              		.size	Vector12C, .-Vector12C
 657 0034 AFF30080 		.section	.text.Vector130,"ax",%progbits
 657      AFF30080 
 657      AFF30080 
 658              		.align	2
 659              		.p2align 4,,15
 660              		.global	Vector130
 661              		.thumb
 662              		.thumb_func
 663              		.type	Vector130, %function
 664              	Vector130:
 665              	.LFB129:
 666              		.loc 1 317 0
 667              		.cfi_startproc
 668              		@ args = 0, pretend = 0, frame = 0
 669              		@ frame_needed = 0, uses_anonymous_args = 0
 670 0000 10B5     		push	{r4, lr}
ARM GAS  /tmp/ccONhIg1.s 			page 13


 671              		.cfi_def_cfa_offset 8
 672              		.cfi_offset 4, -8
 673              		.cfi_offset 14, -4
 674              		.loc 1 320 0
 675 0002 FFF7FEFF 		bl	dbg_check_enter_isr
 676              	.LVL55:
 677              		.loc 1 322 0
 678 0006 094B     		ldr	r3, .L84
 679              		.loc 1 324 0
 680 0008 0948     		ldr	r0, .L84+4
 681              		.loc 1 322 0
 682 000a 1968     		ldr	r1, [r3]
 683              		.loc 1 324 0
 684 000c 826D     		ldr	r2, [r0, #88]
 685              		.loc 1 323 0
 686 000e 4FF47024 		mov	r4, #983040
 687              		.loc 1 322 0
 688 0012 C1F30341 		ubfx	r1, r1, #16, #4
 689              	.LVL56:
 690              		.loc 1 323 0
 691 0016 5C60     		str	r4, [r3, #4]
 692              		.loc 1 324 0
 693 0018 0AB1     		cbz	r2, .L80
 694              		.loc 1 325 0
 695 001a C06D     		ldr	r0, [r0, #92]
 696 001c 9047     		blx	r2
 697              	.LVL57:
 698              	.L80:
 699              		.loc 1 327 0
 700 001e FFF7FEFF 		bl	dbg_check_leave_isr
 701              	.LVL58:
 702              		.loc 1 328 0
 703 0022 BDE81040 		pop	{r4, lr}
 704              		.loc 1 327 0
 705 0026 FFF7FEBF 		b	_port_irq_epilogue
 706              	.LVL59:
 707              	.L85:
 708 002a 00BF     		.align	2
 709              	.L84:
 710 002c 00040240 		.word	1073873920
 711 0030 00000000 		.word	.LANCHOR0
 712              		.cfi_endproc
 713              	.LFE129:
 714              		.size	Vector130, .-Vector130
 715 0034 AFF30080 		.section	.text.dmaInit,"ax",%progbits
 715      AFF30080 
 715      AFF30080 
 716              		.align	2
 717              		.p2align 4,,15
 718              		.global	dmaInit
 719              		.thumb
 720              		.thumb_func
 721              		.type	dmaInit, %function
 722              	dmaInit:
 723              	.LFB130:
 724              		.loc 1 339 0
 725              		.cfi_startproc
ARM GAS  /tmp/ccONhIg1.s 			page 14


 726              		@ args = 0, pretend = 0, frame = 0
 727              		@ frame_needed = 0, uses_anonymous_args = 0
 728              		@ link register save eliminated.
 729              		.loc 1 342 0
 730 0000 0B4B     		ldr	r3, .L90
 731              		.loc 1 339 0
 732 0002 30B4     		push	{r4, r5}
 733              		.cfi_def_cfa_offset 8
 734              		.cfi_offset 4, -8
 735              		.cfi_offset 5, -4
 736              		.loc 1 342 0
 737 0004 0022     		movs	r2, #0
 738 0006 0B4D     		ldr	r5, .L90+4
 739 0008 0B4C     		ldr	r4, .L90+8
 740 000a 1A60     		str	r2, [r3]
 741              	.LVL60:
 742              		.loc 1 344 0
 743 000c 1146     		mov	r1, r2
 744              		.loc 1 342 0
 745 000e 1346     		mov	r3, r2
 746              	.LVL61:
 747              	.L88:
 748              		.loc 1 344 0 discriminator 2
 749 0010 E858     		ldr	r0, [r5, r3]
 750 0012 0C33     		adds	r3, r3, #12
 751              		.loc 1 343 0 discriminator 2
 752 0014 902B     		cmp	r3, #144
 753              		.loc 1 344 0 discriminator 2
 754 0016 0160     		str	r1, [r0]
 755              		.loc 1 345 0 discriminator 2
 756 0018 A150     		str	r1, [r4, r2]
 757 001a 02F10802 		add	r2, r2, #8
 758              		.loc 1 343 0 discriminator 2
 759 001e F7D1     		bne	.L88
 760              		.loc 1 347 0
 761 0020 0649     		ldr	r1, .L90+12
 762              		.loc 1 349 0
 763 0022 074A     		ldr	r2, .L90+16
 764              		.loc 1 347 0
 765 0024 4FF0FF33 		mov	r3, #-1
 766 0028 4B60     		str	r3, [r1, #4]
 767              		.loc 1 351 0
 768 002a 30BC     		pop	{r4, r5}
 769              		.loc 1 349 0
 770 002c 5360     		str	r3, [r2, #4]
 771              		.loc 1 351 0
 772 002e 7047     		bx	lr
 773              	.L91:
 774              		.align	2
 775              	.L90:
 776 0030 00000000 		.word	.LANCHOR1
 777 0034 00000000 		.word	.LANCHOR2
 778 0038 00000000 		.word	.LANCHOR0
 779 003c 00000240 		.word	1073872896
 780 0040 00040240 		.word	1073873920
 781              		.cfi_endproc
 782              	.LFE130:
ARM GAS  /tmp/ccONhIg1.s 			page 15


 783              		.size	dmaInit, .-dmaInit
 784 0044 AFF30080 		.section	.text.dmaStreamAllocate,"ax",%progbits
 784      AFF30080 
 784      AFF30080 
 785              		.align	2
 786              		.p2align 4,,15
 787              		.global	dmaStreamAllocate
 788              		.thumb
 789              		.thumb_func
 790              		.type	dmaStreamAllocate, %function
 791              	dmaStreamAllocate:
 792              	.LFB131:
 793              		.loc 1 380 0
 794              		.cfi_startproc
 795              		@ args = 0, pretend = 0, frame = 16
 796              		@ frame_needed = 0, uses_anonymous_args = 0
 797              	.LVL62:
 798 0000 2DE9F041 		push	{r4, r5, r6, r7, r8, lr}
 799              		.cfi_def_cfa_offset 24
 800              		.cfi_offset 4, -24
 801              		.cfi_offset 5, -20
 802              		.cfi_offset 6, -16
 803              		.cfi_offset 7, -12
 804              		.cfi_offset 8, -8
 805              		.cfi_offset 14, -4
 806              		.loc 1 382 0
 807 0004 0446     		mov	r4, r0
 808              		.loc 1 380 0
 809 0006 84B0     		sub	sp, sp, #16
 810              		.cfi_def_cfa_offset 40
 811              		.loc 1 382 0
 812 0008 0028     		cmp	r0, #0
 813 000a 3AD0     		beq	.L105
 814              	.LVL63:
 815              	.L93:
 816              		.loc 1 385 0
 817 000c 224E     		ldr	r6, .L106
 818 000e 657A     		ldrb	r5, [r4, #9]	@ zero_extendqisi2
 819 0010 3768     		ldr	r7, [r6]
 820 0012 0120     		movs	r0, #1
 821 0014 00FA05FC 		lsl	ip, r0, r5
 822 0018 1CEA070F 		tst	ip, r7
 823 001c 2AD1     		bne	.L94
 824              		.loc 1 389 0
 825 001e 1F48     		ldr	r0, .L106+4
 826              		.loc 1 390 0
 827 0020 00EBC508 		add	r8, r0, r5, lsl #3
 828              		.loc 1 391 0
 829 0024 4CEA0707 		orr	r7, ip, r7
 830              		.loc 1 389 0
 831 0028 40F83520 		str	r2, [r0, r5, lsl #3]
 832              		.loc 1 390 0
 833 002c C8F80430 		str	r3, [r8, #4]
 834              		.loc 1 394 0
 835 0030 7B06     		lsls	r3, r7, #25
 836              		.loc 1 391 0
 837 0032 3760     		str	r7, [r6]
ARM GAS  /tmp/ccONhIg1.s 			page 16


 838              		.loc 1 394 0
 839 0034 04D0     		beq	.L95
 840              		.loc 1 395 0
 841 0036 1A4B     		ldr	r3, .L106+8
 842 0038 5869     		ldr	r0, [r3, #20]
 843 003a 40F00100 		orr	r0, r0, #1
 844 003e 5861     		str	r0, [r3, #20]
 845              	.L95:
 846              		.loc 1 397 0
 847 0040 17F4786F 		tst	r7, #3968
 848 0044 04D0     		beq	.L96
 849              		.loc 1 398 0
 850 0046 164B     		ldr	r3, .L106+8
 851 0048 5869     		ldr	r0, [r3, #20]
 852 004a 40F00200 		orr	r0, r0, #2
 853 004e 5861     		str	r0, [r3, #20]
 854              	.L96:
 855              		.loc 1 402 0
 856 0050 2368     		ldr	r3, [r4]
 857 0052 6068     		ldr	r0, [r4, #4]
 858 0054 1D68     		ldr	r5, [r3]
 859 0056 25F00F05 		bic	r5, r5, #15
 860 005a 1D60     		str	r5, [r3]
 861 005c 257A     		ldrb	r5, [r4, #8]	@ zero_extendqisi2
 862 005e 0F26     		movs	r6, #15
 863 0060 AE40     		lsls	r6, r6, r5
 864              		.loc 1 403 0
 865 0062 0025     		movs	r5, #0
 866              		.loc 1 402 0
 867 0064 0660     		str	r6, [r0]
 868              		.loc 1 403 0
 869 0066 1D60     		str	r5, [r3]
 870              		.loc 1 406 0
 871 0068 3AB1     		cbz	r2, .L98
 872              		.loc 1 407 0
 873 006a A07A     		ldrb	r0, [r4, #10]	@ zero_extendqisi2
 874 006c 0901     		lsls	r1, r1, #4
 875 006e FFF7FEFF 		bl	nvicEnableVector
 876              	.LVL64:
 877              		.loc 1 409 0
 878 0072 2846     		mov	r0, r5
 879              	.L94:
 880              		.loc 1 410 0
 881 0074 04B0     		add	sp, sp, #16
 882              		@ sp needed
 883 0076 BDE8F081 		pop	{r4, r5, r6, r7, r8, pc}
 884              	.LVL65:
 885              	.L98:
 886              		.loc 1 409 0
 887 007a 1046     		mov	r0, r2
 888              		.loc 1 410 0
 889 007c 04B0     		add	sp, sp, #16
 890              		@ sp needed
 891 007e BDE8F081 		pop	{r4, r5, r6, r7, r8, pc}
 892              	.LVL66:
 893              	.L105:
 894              		.loc 1 382 0 discriminator 1
ARM GAS  /tmp/ccONhIg1.s 			page 17


 895 0082 0848     		ldr	r0, .L106+12
 896              	.LVL67:
 897 0084 0391     		str	r1, [sp, #12]
 898 0086 0292     		str	r2, [sp, #8]
 899 0088 0193     		str	r3, [sp, #4]
 900 008a FFF7FEFF 		bl	chDbgPanic
 901              	.LVL68:
 902 008e 019B     		ldr	r3, [sp, #4]
 903 0090 029A     		ldr	r2, [sp, #8]
 904 0092 0399     		ldr	r1, [sp, #12]
 905 0094 BAE7     		b	.L93
 906              	.L107:
 907 0096 00BF     		.align	2
 908              	.L106:
 909 0098 00000000 		.word	.LANCHOR1
 910 009c 00000000 		.word	.LANCHOR0
 911 00a0 00100240 		.word	1073876992
 912 00a4 00000000 		.word	.LC0
 913              		.cfi_endproc
 914              	.LFE131:
 915              		.size	dmaStreamAllocate, .-dmaStreamAllocate
 916 00a8 AFF30080 		.section	.text.dmaStreamRelease,"ax",%progbits
 916      AFF30080 
 917              		.align	2
 918              		.p2align 4,,15
 919              		.global	dmaStreamRelease
 920              		.thumb
 921              		.thumb_func
 922              		.type	dmaStreamRelease, %function
 923              	dmaStreamRelease:
 924              	.LFB132:
 925              		.loc 1 425 0
 926              		.cfi_startproc
 927              		@ args = 0, pretend = 0, frame = 0
 928              		@ frame_needed = 0, uses_anonymous_args = 0
 929              	.LVL69:
 930 0000 38B5     		push	{r3, r4, r5, lr}
 931              		.cfi_def_cfa_offset 16
 932              		.cfi_offset 3, -16
 933              		.cfi_offset 4, -12
 934              		.cfi_offset 5, -8
 935              		.cfi_offset 14, -4
 936              		.loc 1 427 0
 937 0002 0446     		mov	r4, r0
 938 0004 30B3     		cbz	r0, .L113
 939              	.LVL70:
 940              	.L109:
 941              		.loc 1 430 0
 942 0006 154D     		ldr	r5, .L115
 943 0008 627A     		ldrb	r2, [r4, #9]	@ zero_extendqisi2
 944 000a 2B68     		ldr	r3, [r5]
 945 000c 0121     		movs	r1, #1
 946 000e 01FA02F2 		lsl	r2, r1, r2
 947 0012 1A42     		tst	r2, r3
 948 0014 1AD0     		beq	.L114
 949              	.L110:
 950              		.loc 1 434 0
ARM GAS  /tmp/ccONhIg1.s 			page 18


 951 0016 A07A     		ldrb	r0, [r4, #10]	@ zero_extendqisi2
 952 0018 FFF7FEFF 		bl	nvicDisableVector
 953              	.LVL71:
 954              		.loc 1 437 0
 955 001c 637A     		ldrb	r3, [r4, #9]	@ zero_extendqisi2
 956 001e 2A68     		ldr	r2, [r5]
 957 0020 0121     		movs	r1, #1
 958 0022 01FA03F3 		lsl	r3, r1, r3
 959 0026 22EA0303 		bic	r3, r2, r3
 960              		.loc 1 440 0
 961 002a 5A06     		lsls	r2, r3, #25
 962              		.loc 1 437 0
 963 002c 2B60     		str	r3, [r5]
 964              		.loc 1 440 0
 965 002e 04D1     		bne	.L111
 966              		.loc 1 441 0
 967 0030 0B4A     		ldr	r2, .L115+4
 968 0032 5169     		ldr	r1, [r2, #20]
 969 0034 21F00101 		bic	r1, r1, #1
 970 0038 5161     		str	r1, [r2, #20]
 971              	.L111:
 972              		.loc 1 443 0
 973 003a 13F4786F 		tst	r3, #3968
 974 003e 04D1     		bne	.L108
 975              		.loc 1 444 0
 976 0040 074B     		ldr	r3, .L115+4
 977 0042 5A69     		ldr	r2, [r3, #20]
 978 0044 22F00202 		bic	r2, r2, #2
 979 0048 5A61     		str	r2, [r3, #20]
 980              	.L108:
 981 004a 38BD     		pop	{r3, r4, r5, pc}
 982              	.LVL72:
 983              	.L114:
 984              		.loc 1 430 0 discriminator 1
 985 004c 0548     		ldr	r0, .L115+8
 986 004e FFF7FEFF 		bl	chDbgPanic
 987              	.LVL73:
 988 0052 E0E7     		b	.L110
 989              	.LVL74:
 990              	.L113:
 991              		.loc 1 427 0 discriminator 1
 992 0054 0448     		ldr	r0, .L115+12
 993              	.LVL75:
 994 0056 FFF7FEFF 		bl	chDbgPanic
 995              	.LVL76:
 996 005a D4E7     		b	.L109
 997              	.L116:
 998              		.align	2
 999              	.L115:
 1000 005c 00000000 		.word	.LANCHOR1
 1001 0060 00100240 		.word	1073876992
 1002 0064 30000000 		.word	.LC2
 1003 0068 18000000 		.word	.LC1
 1004              		.cfi_endproc
 1005              	.LFE132:
 1006              		.size	dmaStreamRelease, .-dmaStreamRelease
 1007              		.global	_stm32_dma_streams
ARM GAS  /tmp/ccONhIg1.s 			page 19


 1008 006c AFF30080 		.section	.rodata.str1.4,"aMS",%progbits,1
 1009              		.align	2
 1010              	.LC0:
 1011 0000 22646D61 		.ascii	"\"dmaStreamAllocate\"()\000"
 1011      53747265 
 1011      616D416C 
 1011      6C6F6361 
 1011      74652228 
 1012 0016 0000     		.space	2
 1013              	.LC1:
 1014 0018 22646D61 		.ascii	"\"dmaStreamRelease\"()\000"
 1014      53747265 
 1014      616D5265 
 1014      6C656173 
 1014      65222829 
 1015 002d 000000   		.space	3
 1016              	.LC2:
 1017 0030 646D6153 		.ascii	"dmaStreamRelease(), #1\000"
 1017      74726561 
 1017      6D52656C 
 1017      65617365 
 1017      28292C20 
 1018 0047 00       		.section	.bss.dma_isr_redir,"aw",%nobits
 1019              		.align	2
 1020              		.set	.LANCHOR0,. + 0
 1021              		.type	dma_isr_redir, %object
 1022              		.size	dma_isr_redir, 96
 1023              	dma_isr_redir:
 1024 0000 00000000 		.space	96
 1024      00000000 
 1024      00000000 
 1024      00000000 
 1024      00000000 
 1025              		.section	.rodata._stm32_dma_streams,"a",%progbits
 1026              		.align	2
 1027              		.set	.LANCHOR2,. + 0
 1028              		.type	_stm32_dma_streams, %object
 1029              		.size	_stm32_dma_streams, 144
 1030              	_stm32_dma_streams:
 1031 0000 08000240 		.word	1073872904
 1032 0004 04000240 		.word	1073872900
 1033 0008 00       		.byte	0
 1034 0009 00       		.byte	0
 1035 000a 0B       		.byte	11
 1036 000b 00       		.space	1
 1037 000c 1C000240 		.word	1073872924
 1038 0010 04000240 		.word	1073872900
 1039 0014 04       		.byte	4
 1040 0015 01       		.byte	1
 1041 0016 0C       		.byte	12
 1042 0017 00       		.space	1
 1043 0018 30000240 		.word	1073872944
 1044 001c 04000240 		.word	1073872900
 1045 0020 08       		.byte	8
 1046 0021 02       		.byte	2
 1047 0022 0D       		.byte	13
 1048 0023 00       		.space	1
ARM GAS  /tmp/ccONhIg1.s 			page 20


 1049 0024 44000240 		.word	1073872964
 1050 0028 04000240 		.word	1073872900
 1051 002c 0C       		.byte	12
 1052 002d 03       		.byte	3
 1053 002e 0E       		.byte	14
 1054 002f 00       		.space	1
 1055 0030 58000240 		.word	1073872984
 1056 0034 04000240 		.word	1073872900
 1057 0038 10       		.byte	16
 1058 0039 04       		.byte	4
 1059 003a 0F       		.byte	15
 1060 003b 00       		.space	1
 1061 003c 6C000240 		.word	1073873004
 1062 0040 04000240 		.word	1073872900
 1063 0044 14       		.byte	20
 1064 0045 05       		.byte	5
 1065 0046 10       		.byte	16
 1066 0047 00       		.space	1
 1067 0048 80000240 		.word	1073873024
 1068 004c 04000240 		.word	1073872900
 1069 0050 18       		.byte	24
 1070 0051 06       		.byte	6
 1071 0052 11       		.byte	17
 1072 0053 00       		.space	1
 1073 0054 08040240 		.word	1073873928
 1074 0058 04040240 		.word	1073873924
 1075 005c 00       		.byte	0
 1076 005d 07       		.byte	7
 1077 005e 38       		.byte	56
 1078 005f 00       		.space	1
 1079 0060 1C040240 		.word	1073873948
 1080 0064 04040240 		.word	1073873924
 1081 0068 04       		.byte	4
 1082 0069 08       		.byte	8
 1083 006a 39       		.byte	57
 1084 006b 00       		.space	1
 1085 006c 30040240 		.word	1073873968
 1086 0070 04040240 		.word	1073873924
 1087 0074 08       		.byte	8
 1088 0075 09       		.byte	9
 1089 0076 3A       		.byte	58
 1090 0077 00       		.space	1
 1091 0078 44040240 		.word	1073873988
 1092 007c 04040240 		.word	1073873924
 1093 0080 0C       		.byte	12
 1094 0081 0A       		.byte	10
 1095 0082 3B       		.byte	59
 1096 0083 00       		.space	1
 1097 0084 58040240 		.word	1073874008
 1098 0088 04040240 		.word	1073873924
 1099 008c 10       		.byte	16
 1100 008d 0B       		.byte	11
 1101 008e 3C       		.byte	60
 1102 008f 00       		.space	1
 1103              		.section	.bss.dma_streams_mask,"aw",%nobits
 1104              		.align	2
 1105              		.set	.LANCHOR1,. + 0
ARM GAS  /tmp/ccONhIg1.s 			page 21


 1106              		.type	dma_streams_mask, %object
 1107              		.size	dma_streams_mask, 4
 1108              	dma_streams_mask:
 1109 0000 00000000 		.space	4
 1110              		.text
 1111              	.Letext0:
 1112              		.file 2 "/usr/include/newlib/machine/_default_types.h"
 1113              		.file 3 "/usr/include/newlib/stdint.h"
 1114              		.file 4 "../../../../os/ports/GCC/ARMCMx/chtypes.h"
 1115              		.file 5 "../../../../os/hal/platforms/STM32F30x/stm32f30x.h"
 1116              		.file 6 "../../../../os/hal/platforms/STM32F30x/stm32_dma.h"
 1117              		.file 7 "../../../../os/ports/common/ARMCMx/CMSIS/include/core_cm4.h"
 1118              		.file 8 "../../../../os/kernel/include/chdebug.h"
 1119              		.file 9 "../../../../os/ports/GCC/ARMCMx/chcore_v7m.h"
 1120              		.file 10 "../../../../os/ports/common/ARMCMx/nvic.h"