ARM GAS  /tmp/ccki4tb2.s 			page 1


   1              		.syntax unified
   2              		.cpu cortex-m4
   3              		.eabi_attribute 27, 3
   4              		.fpu fpv4-sp-d16
   5              		.eabi_attribute 20, 1
   6              		.eabi_attribute 21, 1
   7              		.eabi_attribute 23, 3
   8              		.eabi_attribute 24, 1
   9              		.eabi_attribute 25, 1
  10              		.eabi_attribute 26, 1
  11              		.eabi_attribute 30, 2
  12              		.eabi_attribute 34, 1
  13              		.eabi_attribute 18, 4
  14              		.thumb
  15              		.file	"stm32f30x_dbgmcu.c"
  16              		.text
  17              	.Ltext0:
  18              		.cfi_sections	.debug_frame
  19              		.section	.text.DBGMCU_GetREVID,"ax",%progbits
  20              		.align	2
  21              		.p2align 4,,15
  22              		.global	DBGMCU_GetREVID
  23              		.thumb
  24              		.thumb_func
  25              		.type	DBGMCU_GetREVID, %function
  26              	DBGMCU_GetREVID:
  27              	.LFB111:
  28              		.file 1 "../../../../ext/stm32lib/src/stm32f30x_dbgmcu.c"
  29              		.loc 1 74 0
  30              		.cfi_startproc
  31              		@ args = 0, pretend = 0, frame = 0
  32              		@ frame_needed = 0, uses_anonymous_args = 0
  33              		@ link register save eliminated.
  34              		.loc 1 75 0
  35 0000 014B     		ldr	r3, .L2
  36 0002 1868     		ldr	r0, [r3]
  37              		.loc 1 76 0
  38 0004 000C     		lsrs	r0, r0, #16
  39 0006 7047     		bx	lr
  40              	.L3:
  41              		.align	2
  42              	.L2:
  43 0008 002004E0 		.word	-536600576
  44              		.cfi_endproc
  45              	.LFE111:
  46              		.size	DBGMCU_GetREVID, .-DBGMCU_GetREVID
  47 000c AFF30080 		.section	.text.DBGMCU_GetDEVID,"ax",%progbits
  48              		.align	2
  49              		.p2align 4,,15
  50              		.global	DBGMCU_GetDEVID
  51              		.thumb
  52              		.thumb_func
  53              		.type	DBGMCU_GetDEVID, %function
  54              	DBGMCU_GetDEVID:
  55              	.LFB112:
  56              		.loc 1 84 0
  57              		.cfi_startproc
ARM GAS  /tmp/ccki4tb2.s 			page 2


  58              		@ args = 0, pretend = 0, frame = 0
  59              		@ frame_needed = 0, uses_anonymous_args = 0
  60              		@ link register save eliminated.
  61              		.loc 1 85 0
  62 0000 024B     		ldr	r3, .L5
  63 0002 1868     		ldr	r0, [r3]
  64              		.loc 1 86 0
  65 0004 C0F30B00 		ubfx	r0, r0, #0, #12
  66 0008 7047     		bx	lr
  67              	.L6:
  68 000a 00BF     		.align	2
  69              	.L5:
  70 000c 002004E0 		.word	-536600576
  71              		.cfi_endproc
  72              	.LFE112:
  73              		.size	DBGMCU_GetDEVID, .-DBGMCU_GetDEVID
  74              		.section	.text.DBGMCU_Config,"ax",%progbits
  75              		.align	2
  76              		.p2align 4,,15
  77              		.global	DBGMCU_Config
  78              		.thumb
  79              		.thumb_func
  80              		.type	DBGMCU_Config, %function
  81              	DBGMCU_Config:
  82              	.LFB113:
  83              		.loc 1 116 0
  84              		.cfi_startproc
  85              		@ args = 0, pretend = 0, frame = 0
  86              		@ frame_needed = 0, uses_anonymous_args = 0
  87              		@ link register save eliminated.
  88              	.LVL0:
  89              		.loc 1 122 0
  90 0000 044B     		ldr	r3, .L12
  91 0002 5A68     		ldr	r2, [r3, #4]
  92              		.loc 1 120 0
  93 0004 19B9     		cbnz	r1, .L11
  94              		.loc 1 126 0
  95 0006 22EA0000 		bic	r0, r2, r0
  96              	.LVL1:
  97 000a 5860     		str	r0, [r3, #4]
  98 000c 7047     		bx	lr
  99              	.LVL2:
 100              	.L11:
 101              		.loc 1 122 0
 102 000e 1043     		orrs	r0, r0, r2
 103              	.LVL3:
 104 0010 5860     		str	r0, [r3, #4]
 105 0012 7047     		bx	lr
 106              	.L13:
 107              		.align	2
 108              	.L12:
 109 0014 002004E0 		.word	-536600576
 110              		.cfi_endproc
 111              	.LFE113:
 112              		.size	DBGMCU_Config, .-DBGMCU_Config
 113 0018 AFF30080 		.section	.text.DBGMCU_APB1PeriphConfig,"ax",%progbits
 113      AFF30080 
ARM GAS  /tmp/ccki4tb2.s 			page 3


 114              		.align	2
 115              		.p2align 4,,15
 116              		.global	DBGMCU_APB1PeriphConfig
 117              		.thumb
 118              		.thumb_func
 119              		.type	DBGMCU_APB1PeriphConfig, %function
 120              	DBGMCU_APB1PeriphConfig:
 121              	.LFB114:
 122              		.loc 1 153 0
 123              		.cfi_startproc
 124              		@ args = 0, pretend = 0, frame = 0
 125              		@ frame_needed = 0, uses_anonymous_args = 0
 126              		@ link register save eliminated.
 127              	.LVL4:
 128              		.loc 1 160 0
 129 0000 044B     		ldr	r3, .L18
 130 0002 9A68     		ldr	r2, [r3, #8]
 131              		.loc 1 158 0
 132 0004 19B9     		cbnz	r1, .L17
 133              		.loc 1 164 0
 134 0006 22EA0000 		bic	r0, r2, r0
 135              	.LVL5:
 136 000a 9860     		str	r0, [r3, #8]
 137 000c 7047     		bx	lr
 138              	.LVL6:
 139              	.L17:
 140              		.loc 1 160 0
 141 000e 1043     		orrs	r0, r0, r2
 142              	.LVL7:
 143 0010 9860     		str	r0, [r3, #8]
 144 0012 7047     		bx	lr
 145              	.L19:
 146              		.align	2
 147              	.L18:
 148 0014 002004E0 		.word	-536600576
 149              		.cfi_endproc
 150              	.LFE114:
 151              		.size	DBGMCU_APB1PeriphConfig, .-DBGMCU_APB1PeriphConfig
 152 0018 AFF30080 		.section	.text.DBGMCU_APB2PeriphConfig,"ax",%progbits
 152      AFF30080 
 153              		.align	2
 154              		.p2align 4,,15
 155              		.global	DBGMCU_APB2PeriphConfig
 156              		.thumb
 157              		.thumb_func
 158              		.type	DBGMCU_APB2PeriphConfig, %function
 159              	DBGMCU_APB2PeriphConfig:
 160              	.LFB115:
 161              		.loc 1 182 0
 162              		.cfi_startproc
 163              		@ args = 0, pretend = 0, frame = 0
 164              		@ frame_needed = 0, uses_anonymous_args = 0
 165              		@ link register save eliminated.
 166              	.LVL8:
 167              		.loc 1 189 0
 168 0000 044B     		ldr	r3, .L24
 169 0002 DA68     		ldr	r2, [r3, #12]
ARM GAS  /tmp/ccki4tb2.s 			page 4


 170              		.loc 1 187 0
 171 0004 19B9     		cbnz	r1, .L23
 172              		.loc 1 193 0
 173 0006 22EA0000 		bic	r0, r2, r0
 174              	.LVL9:
 175 000a D860     		str	r0, [r3, #12]
 176 000c 7047     		bx	lr
 177              	.LVL10:
 178              	.L23:
 179              		.loc 1 189 0
 180 000e 1043     		orrs	r0, r0, r2
 181              	.LVL11:
 182 0010 D860     		str	r0, [r3, #12]
 183 0012 7047     		bx	lr
 184              	.L25:
 185              		.align	2
 186              	.L24:
 187 0014 002004E0 		.word	-536600576
 188              		.cfi_endproc
 189              	.LFE115:
 190              		.size	DBGMCU_APB2PeriphConfig, .-DBGMCU_APB2PeriphConfig
 191 0018 AFF30080 		.text
 191      AFF30080 
 192              	.Letext0:
 193              		.file 2 "/usr/include/newlib/machine/_default_types.h"
 194              		.file 3 "/usr/include/newlib/stdint.h"
 195              		.file 4 "../../../../os/hal/platforms/STM32F30x/stm32f30x.h"
 196              		.file 5 "../../../../os/ports/common/ARMCMx/CMSIS/include/core_cm4.h"