ARM GAS  /tmp/ccM7KcIy.s 			page 1


   1              		.syntax unified
   2              		.cpu cortex-m4
   3              		.eabi_attribute 27, 3
   4              		.fpu fpv4-sp-d16
   5              		.eabi_attribute 20, 1
   6              		.eabi_attribute 21, 1
   7              		.eabi_attribute 23, 3
   8              		.eabi_attribute 24, 1
   9              		.eabi_attribute 25, 1
  10              		.eabi_attribute 26, 1
  11              		.eabi_attribute 30, 2
  12              		.eabi_attribute 34, 1
  13              		.eabi_attribute 18, 4
  14              		.thumb
  15              		.file	"stm32f30x_usart.c"
  16              		.text
  17              	.Ltext0:
  18              		.cfi_sections	.debug_frame
  19              		.section	.text.USART_DeInit,"ax",%progbits
  20              		.align	2
  21              		.p2align 4,,15
  22              		.global	USART_DeInit
  23              		.thumb
  24              		.thumb_func
  25              		.type	USART_DeInit, %function
  26              	USART_DeInit:
  27              	.LFB111:
  28              		.file 1 "../../../../ext/stm32lib/src/stm32f30x_usart.c"
  29              		.loc 1 174 0
  30              		.cfi_startproc
  31              		@ args = 0, pretend = 0, frame = 0
  32              		@ frame_needed = 0, uses_anonymous_args = 0
  33              	.LVL0:
  34 0000 08B5     		push	{r3, lr}
  35              		.cfi_def_cfa_offset 8
  36              		.cfi_offset 3, -8
  37              		.cfi_offset 14, -4
  38              		.loc 1 178 0
  39 0002 264B     		ldr	r3, .L13
  40 0004 9842     		cmp	r0, r3
  41 0006 18D0     		beq	.L8
  42              		.loc 1 183 0
  43 0008 254B     		ldr	r3, .L13+4
  44 000a 9842     		cmp	r0, r3
  45 000c 21D0     		beq	.L9
  46              		.loc 1 188 0
  47 000e 254B     		ldr	r3, .L13+8
  48 0010 9842     		cmp	r0, r3
  49 0012 2AD0     		beq	.L10
  50              		.loc 1 193 0
  51 0014 244B     		ldr	r3, .L13+12
  52 0016 9842     		cmp	r0, r3
  53 0018 33D0     		beq	.L11
  54              		.loc 1 200 0
  55 001a 244B     		ldr	r3, .L13+16
  56 001c 9842     		cmp	r0, r3
  57 001e 00D0     		beq	.L12
ARM GAS  /tmp/ccM7KcIy.s 			page 2


  58 0020 08BD     		pop	{r3, pc}
  59              	.L12:
  60              		.loc 1 202 0
  61 0022 4FF48010 		mov	r0, #1048576
  62              	.LVL1:
  63 0026 0121     		movs	r1, #1
  64 0028 FFF7FEFF 		bl	RCC_APB1PeriphResetCmd
  65              	.LVL2:
  66              		.loc 1 203 0
  67 002c 4FF48010 		mov	r0, #1048576
  68 0030 0021     		movs	r1, #0
  69              		.loc 1 206 0
  70 0032 BDE80840 		pop	{r3, lr}
  71              		.loc 1 203 0
  72 0036 FFF7FEBF 		b	RCC_APB1PeriphResetCmd
  73              	.LVL3:
  74              	.L8:
  75              		.loc 1 180 0
  76 003a 4FF48040 		mov	r0, #16384
  77              	.LVL4:
  78 003e 0121     		movs	r1, #1
  79 0040 FFF7FEFF 		bl	RCC_APB2PeriphResetCmd
  80              	.LVL5:
  81              		.loc 1 181 0
  82 0044 4FF48040 		mov	r0, #16384
  83 0048 0021     		movs	r1, #0
  84              		.loc 1 206 0
  85 004a BDE80840 		pop	{r3, lr}
  86              		.loc 1 181 0
  87 004e FFF7FEBF 		b	RCC_APB2PeriphResetCmd
  88              	.LVL6:
  89              	.L9:
  90              		.loc 1 185 0
  91 0052 4FF40030 		mov	r0, #131072
  92              	.LVL7:
  93 0056 0121     		movs	r1, #1
  94 0058 FFF7FEFF 		bl	RCC_APB1PeriphResetCmd
  95              	.LVL8:
  96              		.loc 1 186 0
  97 005c 4FF40030 		mov	r0, #131072
  98 0060 0021     		movs	r1, #0
  99              		.loc 1 206 0
 100 0062 BDE80840 		pop	{r3, lr}
 101              		.loc 1 186 0
 102 0066 FFF7FEBF 		b	RCC_APB1PeriphResetCmd
 103              	.LVL9:
 104              	.L10:
 105              		.loc 1 190 0
 106 006a 4FF48020 		mov	r0, #262144
 107              	.LVL10:
 108 006e 0121     		movs	r1, #1
 109 0070 FFF7FEFF 		bl	RCC_APB1PeriphResetCmd
 110              	.LVL11:
 111              		.loc 1 191 0
 112 0074 4FF48020 		mov	r0, #262144
 113 0078 0021     		movs	r1, #0
 114              		.loc 1 206 0
ARM GAS  /tmp/ccM7KcIy.s 			page 3


 115 007a BDE80840 		pop	{r3, lr}
 116              		.loc 1 191 0
 117 007e FFF7FEBF 		b	RCC_APB1PeriphResetCmd
 118              	.LVL12:
 119              	.L11:
 120              		.loc 1 195 0
 121 0082 4FF40020 		mov	r0, #524288
 122              	.LVL13:
 123 0086 0121     		movs	r1, #1
 124 0088 FFF7FEFF 		bl	RCC_APB1PeriphResetCmd
 125              	.LVL14:
 126              		.loc 1 196 0
 127 008c 4FF40020 		mov	r0, #524288
 128 0090 0021     		movs	r1, #0
 129              		.loc 1 206 0
 130 0092 BDE80840 		pop	{r3, lr}
 131              		.loc 1 196 0
 132 0096 FFF7FEBF 		b	RCC_APB1PeriphResetCmd
 133              	.LVL15:
 134              	.L14:
 135 009a 00BF     		.align	2
 136              	.L13:
 137 009c 00380140 		.word	1073821696
 138 00a0 00440040 		.word	1073759232
 139 00a4 00480040 		.word	1073760256
 140 00a8 004C0040 		.word	1073761280
 141 00ac 00500040 		.word	1073762304
 142              		.cfi_endproc
 143              	.LFE111:
 144              		.size	USART_DeInit, .-USART_DeInit
 145              		.section	.text.USART_Init,"ax",%progbits
 146              		.align	2
 147              		.p2align 4,,15
 148              		.global	USART_Init
 149              		.thumb
 150              		.thumb_func
 151              		.type	USART_Init, %function
 152              	USART_Init:
 153              	.LFB112:
 154              		.loc 1 218 0
 155              		.cfi_startproc
 156              		@ args = 0, pretend = 0, frame = 64
 157              		@ frame_needed = 0, uses_anonymous_args = 0
 158              	.LVL16:
 159              		.loc 1 232 0
 160 0000 0368     		ldr	r3, [r0]
 161              		.loc 1 218 0
 162 0002 F0B5     		push	{r4, r5, r6, r7, lr}
 163              		.cfi_def_cfa_offset 20
 164              		.cfi_offset 4, -20
 165              		.cfi_offset 5, -16
 166              		.cfi_offset 6, -12
 167              		.cfi_offset 7, -8
 168              		.cfi_offset 14, -4
 169 0004 0446     		mov	r4, r0
 170 0006 0D46     		mov	r5, r1
 171              		.loc 1 232 0
ARM GAS  /tmp/ccM7KcIy.s 			page 4


 172 0008 23F00103 		bic	r3, r3, #1
 173              		.loc 1 241 0
 174 000c 8F68     		ldr	r7, [r1, #8]
 175              		.loc 1 255 0
 176 000e CE68     		ldr	r6, [r1, #12]
 177 0010 2869     		ldr	r0, [r5, #16]
 178              	.LVL17:
 179 0012 4968     		ldr	r1, [r1, #4]
 180              	.LVL18:
 181              		.loc 1 268 0
 182 0014 6A69     		ldr	r2, [r5, #20]
 183              		.loc 1 232 0
 184 0016 2360     		str	r3, [r4]
 185              		.loc 1 235 0
 186 0018 6368     		ldr	r3, [r4, #4]
 187              	.LVL19:
 188              		.loc 1 237 0
 189 001a 23F44053 		bic	r3, r3, #12288
 190              	.LVL20:
 191              		.loc 1 241 0
 192 001e 3B43     		orrs	r3, r3, r7
 193              	.LVL21:
 194              		.loc 1 244 0
 195 0020 6360     		str	r3, [r4, #4]
 196              		.loc 1 247 0
 197 0022 2368     		ldr	r3, [r4]
 198              	.LVL22:
 199              		.loc 1 255 0
 200 0024 3143     		orrs	r1, r1, r6
 201              		.loc 1 249 0
 202 0026 23F4B053 		bic	r3, r3, #5632
 203              	.LVL23:
 204              		.loc 1 255 0
 205 002a 0143     		orrs	r1, r1, r0
 206              		.loc 1 249 0
 207 002c 23F00C03 		bic	r3, r3, #12
 208              	.LVL24:
 209              		.loc 1 255 0
 210 0030 0B43     		orrs	r3, r3, r1
 211              	.LVL25:
 212              		.loc 1 259 0
 213 0032 2360     		str	r3, [r4]
 214              		.loc 1 262 0
 215 0034 A368     		ldr	r3, [r4, #8]
 216              	.LVL26:
 217              		.loc 1 264 0
 218 0036 23F44073 		bic	r3, r3, #768
 219              	.LVL27:
 220              		.loc 1 268 0
 221 003a 1343     		orrs	r3, r3, r2
 222              	.LVL28:
 223              		.loc 1 218 0
 224 003c 91B0     		sub	sp, sp, #68
 225              		.cfi_def_cfa_offset 88
 226              		.loc 1 271 0
 227 003e A360     		str	r3, [r4, #8]
 228              		.loc 1 275 0
ARM GAS  /tmp/ccM7KcIy.s 			page 5


 229 0040 01A8     		add	r0, sp, #4
 230 0042 FFF7FEFF 		bl	RCC_GetClocksFreq
 231              	.LVL29:
 232              		.loc 1 277 0
 233 0046 174B     		ldr	r3, .L31
 234 0048 9C42     		cmp	r4, r3
 235 004a 24D0     		beq	.L28
 236              		.loc 1 281 0
 237 004c 164B     		ldr	r3, .L31+4
 238 004e 9C42     		cmp	r4, r3
 239 0050 23D0     		beq	.L29
 240              		.loc 1 285 0
 241 0052 164B     		ldr	r3, .L31+8
 242 0054 9C42     		cmp	r4, r3
 243 0056 22D0     		beq	.L30
 244              		.loc 1 289 0
 245 0058 154B     		ldr	r3, .L31+12
 246 005a 9C42     		cmp	r4, r3
 247              		.loc 1 291 0
 248 005c 0CBF     		ite	eq
 249 005e 0E99     		ldreq	r1, [sp, #56]
 250              	.LVL30:
 251              		.loc 1 295 0
 252 0060 0F99     		ldrne	r1, [sp, #60]
 253              	.LVL31:
 254              	.L17:
 255              		.loc 1 299 0
 256 0062 2368     		ldr	r3, [r4]
 257              		.loc 1 302 0
 258 0064 2A68     		ldr	r2, [r5]
 259              		.loc 1 299 0
 260 0066 1804     		lsls	r0, r3, #16
 261              		.loc 1 302 0
 262 0068 48BF     		it	mi
 263 006a 4900     		lslmi	r1, r1, #1
 264              	.LVL32:
 265              		.loc 1 308 0
 266 006c B1FBF2F3 		udiv	r3, r1, r2
 267              	.LVL33:
 268              		.loc 1 309 0
 269 0070 02FB1311 		mls	r1, r2, r3, r1
 270              	.LVL34:
 271              		.loc 1 313 0
 272 0074 B1EB520F 		cmp	r1, r2, lsr #1
 273              		.loc 1 319 0
 274 0078 2268     		ldr	r2, [r4]
 275              		.loc 1 315 0
 276 007a 28BF     		it	cs
 277 007c 0133     		addcs	r3, r3, #1
 278              	.LVL35:
 279              		.loc 1 319 0
 280 007e 1204     		lsls	r2, r2, #16
 281 0080 05D5     		bpl	.L24
 282              		.loc 1 325 0
 283 0082 4FF6F072 		movw	r2, #65520
 284 0086 1A40     		ands	r2, r2, r3
 285              		.loc 1 322 0
ARM GAS  /tmp/ccM7KcIy.s 			page 6


 286 0088 C3F34203 		ubfx	r3, r3, #1, #3
 287              	.LVL36:
 288              		.loc 1 325 0
 289 008c 1343     		orrs	r3, r3, r2
 290              	.LVL37:
 291              	.L24:
 292              		.loc 1 329 0
 293 008e 9BB2     		uxth	r3, r3
 294              	.LVL38:
 295 0090 A381     		strh	r3, [r4, #12]	@ movhi
 296              		.loc 1 330 0
 297 0092 11B0     		add	sp, sp, #68
 298              		@ sp needed
 299 0094 F0BD     		pop	{r4, r5, r6, r7, pc}
 300              	.LVL39:
 301              	.L28:
 302              		.loc 1 279 0
 303 0096 0B99     		ldr	r1, [sp, #44]
 304              	.LVL40:
 305 0098 E3E7     		b	.L17
 306              	.LVL41:
 307              	.L29:
 308              		.loc 1 283 0
 309 009a 0C99     		ldr	r1, [sp, #48]
 310              	.LVL42:
 311 009c E1E7     		b	.L17
 312              	.LVL43:
 313              	.L30:
 314              		.loc 1 287 0
 315 009e 0D99     		ldr	r1, [sp, #52]
 316              	.LVL44:
 317 00a0 DFE7     		b	.L17
 318              	.L32:
 319 00a2 00BF     		.align	2
 320              	.L31:
 321 00a4 00380140 		.word	1073821696
 322 00a8 00440040 		.word	1073759232
 323 00ac 00480040 		.word	1073760256
 324 00b0 004C0040 		.word	1073761280
 325              		.cfi_endproc
 326              	.LFE112:
 327              		.size	USART_Init, .-USART_Init
 328 00b4 AFF30080 		.section	.text.USART_StructInit,"ax",%progbits
 328      AFF30080 
 328      AFF30080 
 329              		.align	2
 330              		.p2align 4,,15
 331              		.global	USART_StructInit
 332              		.thumb
 333              		.thumb_func
 334              		.type	USART_StructInit, %function
 335              	USART_StructInit:
 336              	.LFB113:
 337              		.loc 1 339 0
 338              		.cfi_startproc
 339              		@ args = 0, pretend = 0, frame = 0
 340              		@ frame_needed = 0, uses_anonymous_args = 0
ARM GAS  /tmp/ccM7KcIy.s 			page 7


 341              		@ link register save eliminated.
 342              	.LVL45:
 343              		.loc 1 342 0
 344 0000 0023     		movs	r3, #0
 345              		.loc 1 341 0
 346 0002 4FF41651 		mov	r1, #9600
 347              		.loc 1 345 0
 348 0006 0C22     		movs	r2, #12
 349              		.loc 1 341 0
 350 0008 0160     		str	r1, [r0]
 351              		.loc 1 345 0
 352 000a 0261     		str	r2, [r0, #16]
 353              		.loc 1 342 0
 354 000c 4360     		str	r3, [r0, #4]
 355              		.loc 1 343 0
 356 000e 8360     		str	r3, [r0, #8]
 357              		.loc 1 344 0
 358 0010 C360     		str	r3, [r0, #12]
 359              		.loc 1 346 0
 360 0012 4361     		str	r3, [r0, #20]
 361 0014 7047     		bx	lr
 362              		.cfi_endproc
 363              	.LFE113:
 364              		.size	USART_StructInit, .-USART_StructInit
 365 0016 00BFAFF3 		.section	.text.USART_ClockInit,"ax",%progbits
 365      0080AFF3 
 365      0080
 366              		.align	2
 367              		.p2align 4,,15
 368              		.global	USART_ClockInit
 369              		.thumb
 370              		.thumb_func
 371              		.type	USART_ClockInit, %function
 372              	USART_ClockInit:
 373              	.LFB114:
 374              		.loc 1 360 0
 375              		.cfi_startproc
 376              		@ args = 0, pretend = 0, frame = 0
 377              		@ frame_needed = 0, uses_anonymous_args = 0
 378              		@ link register save eliminated.
 379              	.LVL46:
 380 0000 30B4     		push	{r4, r5}
 381              		.cfi_def_cfa_offset 8
 382              		.cfi_offset 4, -8
 383              		.cfi_offset 5, -4
 384              		.loc 1 377 0
 385 0002 91E82800 		ldmia	r1, {r3, r5}
 386 0006 8C68     		ldr	r4, [r1, #8]
 387              		.loc 1 369 0
 388 0008 4268     		ldr	r2, [r0, #4]
 389              	.LVL47:
 390              		.loc 1 377 0
 391 000a C968     		ldr	r1, [r1, #12]
 392              	.LVL48:
 393 000c 2B43     		orrs	r3, r3, r5
 394 000e 2343     		orrs	r3, r3, r4
 395 0010 0B43     		orrs	r3, r3, r1
ARM GAS  /tmp/ccM7KcIy.s 			page 8


 396              		.loc 1 371 0
 397 0012 22F47062 		bic	r2, r2, #3840
 398              	.LVL49:
 399              		.loc 1 377 0
 400 0016 1343     		orrs	r3, r3, r2
 401              	.LVL50:
 402              		.loc 1 380 0
 403 0018 4360     		str	r3, [r0, #4]
 404              		.loc 1 381 0
 405 001a 30BC     		pop	{r4, r5}
 406 001c 7047     		bx	lr
 407              		.cfi_endproc
 408              	.LFE114:
 409              		.size	USART_ClockInit, .-USART_ClockInit
 410 001e 00BF     		.section	.text.USART_ClockStructInit,"ax",%progbits
 411              		.align	2
 412              		.p2align 4,,15
 413              		.global	USART_ClockStructInit
 414              		.thumb
 415              		.thumb_func
 416              		.type	USART_ClockStructInit, %function
 417              	USART_ClockStructInit:
 418              	.LFB115:
 419              		.loc 1 390 0
 420              		.cfi_startproc
 421              		@ args = 0, pretend = 0, frame = 0
 422              		@ frame_needed = 0, uses_anonymous_args = 0
 423              		@ link register save eliminated.
 424              	.LVL51:
 425              		.loc 1 392 0
 426 0000 0023     		movs	r3, #0
 427 0002 0360     		str	r3, [r0]
 428              		.loc 1 393 0
 429 0004 4360     		str	r3, [r0, #4]
 430              		.loc 1 394 0
 431 0006 8360     		str	r3, [r0, #8]
 432              		.loc 1 395 0
 433 0008 C360     		str	r3, [r0, #12]
 434 000a 7047     		bx	lr
 435              		.cfi_endproc
 436              	.LFE115:
 437              		.size	USART_ClockStructInit, .-USART_ClockStructInit
 438 000c AFF30080 		.section	.text.USART_Cmd,"ax",%progbits
 439              		.align	2
 440              		.p2align 4,,15
 441              		.global	USART_Cmd
 442              		.thumb
 443              		.thumb_func
 444              		.type	USART_Cmd, %function
 445              	USART_Cmd:
 446              	.LFB116:
 447              		.loc 1 407 0
 448              		.cfi_startproc
 449              		@ args = 0, pretend = 0, frame = 0
 450              		@ frame_needed = 0, uses_anonymous_args = 0
 451              		@ link register save eliminated.
 452              	.LVL52:
ARM GAS  /tmp/ccM7KcIy.s 			page 9


 453              		.loc 1 415 0
 454 0000 0368     		ldr	r3, [r0]
 455              		.loc 1 412 0
 456 0002 19B9     		cbnz	r1, .L39
 457              		.loc 1 420 0
 458 0004 23F00103 		bic	r3, r3, #1
 459 0008 0360     		str	r3, [r0]
 460 000a 7047     		bx	lr
 461              	.L39:
 462              		.loc 1 415 0
 463 000c 43F00103 		orr	r3, r3, #1
 464 0010 0360     		str	r3, [r0]
 465 0012 7047     		bx	lr
 466              		.cfi_endproc
 467              	.LFE116:
 468              		.size	USART_Cmd, .-USART_Cmd
 469 0014 AFF30080 		.section	.text.USART_DirectionModeCmd,"ax",%progbits
 469      AFF30080 
 469      AFF30080 
 470              		.align	2
 471              		.p2align 4,,15
 472              		.global	USART_DirectionModeCmd
 473              		.thumb
 474              		.thumb_func
 475              		.type	USART_DirectionModeCmd, %function
 476              	USART_DirectionModeCmd:
 477              	.LFB117:
 478              		.loc 1 437 0
 479              		.cfi_startproc
 480              		@ args = 0, pretend = 0, frame = 0
 481              		@ frame_needed = 0, uses_anonymous_args = 0
 482              		@ link register save eliminated.
 483              	.LVL53:
 484              		.loc 1 447 0
 485 0000 0368     		ldr	r3, [r0]
 486              		.loc 1 443 0
 487 0002 1AB9     		cbnz	r2, .L43
 488              		.loc 1 453 0
 489 0004 23EA0101 		bic	r1, r3, r1
 490              	.LVL54:
 491 0008 0160     		str	r1, [r0]
 492 000a 7047     		bx	lr
 493              	.LVL55:
 494              	.L43:
 495              		.loc 1 447 0
 496 000c 1943     		orrs	r1, r1, r3
 497              	.LVL56:
 498 000e 0160     		str	r1, [r0]
 499 0010 7047     		bx	lr
 500              		.cfi_endproc
 501              	.LFE117:
 502              		.size	USART_DirectionModeCmd, .-USART_DirectionModeCmd
 503 0012 00BFAFF3 		.section	.text.USART_OverSampling8Cmd,"ax",%progbits
 503      0080AFF3 
 503      0080AFF3 
 503      0080
 504              		.align	2
ARM GAS  /tmp/ccM7KcIy.s 			page 10


 505              		.p2align 4,,15
 506              		.global	USART_OverSampling8Cmd
 507              		.thumb
 508              		.thumb_func
 509              		.type	USART_OverSampling8Cmd, %function
 510              	USART_OverSampling8Cmd:
 511              	.LFB118:
 512              		.loc 1 469 0
 513              		.cfi_startproc
 514              		@ args = 0, pretend = 0, frame = 0
 515              		@ frame_needed = 0, uses_anonymous_args = 0
 516              		@ link register save eliminated.
 517              	.LVL57:
 518              		.loc 1 477 0
 519 0000 0368     		ldr	r3, [r0]
 520              		.loc 1 474 0
 521 0002 19B9     		cbnz	r1, .L47
 522              		.loc 1 482 0
 523 0004 23F40043 		bic	r3, r3, #32768
 524 0008 0360     		str	r3, [r0]
 525 000a 7047     		bx	lr
 526              	.L47:
 527              		.loc 1 477 0
 528 000c 43F40043 		orr	r3, r3, #32768
 529 0010 0360     		str	r3, [r0]
 530 0012 7047     		bx	lr
 531              		.cfi_endproc
 532              	.LFE118:
 533              		.size	USART_OverSampling8Cmd, .-USART_OverSampling8Cmd
 534 0014 AFF30080 		.section	.text.USART_OneBitMethodCmd,"ax",%progbits
 534      AFF30080 
 534      AFF30080 
 535              		.align	2
 536              		.p2align 4,,15
 537              		.global	USART_OneBitMethodCmd
 538              		.thumb
 539              		.thumb_func
 540              		.type	USART_OneBitMethodCmd, %function
 541              	USART_OneBitMethodCmd:
 542              	.LFB119:
 543              		.loc 1 497 0
 544              		.cfi_startproc
 545              		@ args = 0, pretend = 0, frame = 0
 546              		@ frame_needed = 0, uses_anonymous_args = 0
 547              		@ link register save eliminated.
 548              	.LVL58:
 549              		.loc 1 505 0
 550 0000 8368     		ldr	r3, [r0, #8]
 551              		.loc 1 502 0
 552 0002 19B9     		cbnz	r1, .L51
 553              		.loc 1 510 0
 554 0004 23F40063 		bic	r3, r3, #2048
 555 0008 8360     		str	r3, [r0, #8]
 556 000a 7047     		bx	lr
 557              	.L51:
 558              		.loc 1 505 0
 559 000c 43F40063 		orr	r3, r3, #2048
ARM GAS  /tmp/ccM7KcIy.s 			page 11


 560 0010 8360     		str	r3, [r0, #8]
 561 0012 7047     		bx	lr
 562              		.cfi_endproc
 563              	.LFE119:
 564              		.size	USART_OneBitMethodCmd, .-USART_OneBitMethodCmd
 565 0014 AFF30080 		.section	.text.USART_MSBFirstCmd,"ax",%progbits
 565      AFF30080 
 565      AFF30080 
 566              		.align	2
 567              		.p2align 4,,15
 568              		.global	USART_MSBFirstCmd
 569              		.thumb
 570              		.thumb_func
 571              		.type	USART_MSBFirstCmd, %function
 572              	USART_MSBFirstCmd:
 573              	.LFB120:
 574              		.loc 1 527 0
 575              		.cfi_startproc
 576              		@ args = 0, pretend = 0, frame = 0
 577              		@ frame_needed = 0, uses_anonymous_args = 0
 578              		@ link register save eliminated.
 579              	.LVL59:
 580              		.loc 1 536 0
 581 0000 4368     		ldr	r3, [r0, #4]
 582              		.loc 1 532 0
 583 0002 19B9     		cbnz	r1, .L55
 584              		.loc 1 542 0
 585 0004 23F40023 		bic	r3, r3, #524288
 586 0008 4360     		str	r3, [r0, #4]
 587 000a 7047     		bx	lr
 588              	.L55:
 589              		.loc 1 536 0
 590 000c 43F40023 		orr	r3, r3, #524288
 591 0010 4360     		str	r3, [r0, #4]
 592 0012 7047     		bx	lr
 593              		.cfi_endproc
 594              	.LFE120:
 595              		.size	USART_MSBFirstCmd, .-USART_MSBFirstCmd
 596 0014 AFF30080 		.section	.text.USART_DataInvCmd,"ax",%progbits
 596      AFF30080 
 596      AFF30080 
 597              		.align	2
 598              		.p2align 4,,15
 599              		.global	USART_DataInvCmd
 600              		.thumb
 601              		.thumb_func
 602              		.type	USART_DataInvCmd, %function
 603              	USART_DataInvCmd:
 604              	.LFB121:
 605              		.loc 1 561 0
 606              		.cfi_startproc
 607              		@ args = 0, pretend = 0, frame = 0
 608              		@ frame_needed = 0, uses_anonymous_args = 0
 609              		@ link register save eliminated.
 610              	.LVL60:
 611              		.loc 1 570 0
 612 0000 4368     		ldr	r3, [r0, #4]
ARM GAS  /tmp/ccM7KcIy.s 			page 12


 613              		.loc 1 566 0
 614 0002 19B9     		cbnz	r1, .L59
 615              		.loc 1 576 0
 616 0004 23F48023 		bic	r3, r3, #262144
 617 0008 4360     		str	r3, [r0, #4]
 618 000a 7047     		bx	lr
 619              	.L59:
 620              		.loc 1 570 0
 621 000c 43F48023 		orr	r3, r3, #262144
 622 0010 4360     		str	r3, [r0, #4]
 623 0012 7047     		bx	lr
 624              		.cfi_endproc
 625              	.LFE121:
 626              		.size	USART_DataInvCmd, .-USART_DataInvCmd
 627 0014 AFF30080 		.section	.text.USART_InvPinCmd,"ax",%progbits
 627      AFF30080 
 627      AFF30080 
 628              		.align	2
 629              		.p2align 4,,15
 630              		.global	USART_InvPinCmd
 631              		.thumb
 632              		.thumb_func
 633              		.type	USART_InvPinCmd, %function
 634              	USART_InvPinCmd:
 635              	.LFB122:
 636              		.loc 1 597 0
 637              		.cfi_startproc
 638              		@ args = 0, pretend = 0, frame = 0
 639              		@ frame_needed = 0, uses_anonymous_args = 0
 640              		@ link register save eliminated.
 641              	.LVL61:
 642              		.loc 1 607 0
 643 0000 4368     		ldr	r3, [r0, #4]
 644              		.loc 1 603 0
 645 0002 1AB9     		cbnz	r2, .L63
 646              		.loc 1 613 0
 647 0004 23EA0101 		bic	r1, r3, r1
 648              	.LVL62:
 649 0008 4160     		str	r1, [r0, #4]
 650 000a 7047     		bx	lr
 651              	.LVL63:
 652              	.L63:
 653              		.loc 1 607 0
 654 000c 1943     		orrs	r1, r1, r3
 655              	.LVL64:
 656 000e 4160     		str	r1, [r0, #4]
 657 0010 7047     		bx	lr
 658              		.cfi_endproc
 659              	.LFE122:
 660              		.size	USART_InvPinCmd, .-USART_InvPinCmd
 661 0012 00BFAFF3 		.section	.text.USART_SWAPPinCmd,"ax",%progbits
 661      0080AFF3 
 661      0080AFF3 
 661      0080
 662              		.align	2
 663              		.p2align 4,,15
 664              		.global	USART_SWAPPinCmd
ARM GAS  /tmp/ccM7KcIy.s 			page 13


 665              		.thumb
 666              		.thumb_func
 667              		.type	USART_SWAPPinCmd, %function
 668              	USART_SWAPPinCmd:
 669              	.LFB123:
 670              		.loc 1 630 0
 671              		.cfi_startproc
 672              		@ args = 0, pretend = 0, frame = 0
 673              		@ frame_needed = 0, uses_anonymous_args = 0
 674              		@ link register save eliminated.
 675              	.LVL65:
 676              		.loc 1 638 0
 677 0000 4368     		ldr	r3, [r0, #4]
 678              		.loc 1 635 0
 679 0002 19B9     		cbnz	r1, .L67
 680              		.loc 1 643 0
 681 0004 23F40043 		bic	r3, r3, #32768
 682 0008 4360     		str	r3, [r0, #4]
 683 000a 7047     		bx	lr
 684              	.L67:
 685              		.loc 1 638 0
 686 000c 43F40043 		orr	r3, r3, #32768
 687 0010 4360     		str	r3, [r0, #4]
 688 0012 7047     		bx	lr
 689              		.cfi_endproc
 690              	.LFE123:
 691              		.size	USART_SWAPPinCmd, .-USART_SWAPPinCmd
 692 0014 AFF30080 		.section	.text.USART_ReceiverTimeOutCmd,"ax",%progbits
 692      AFF30080 
 692      AFF30080 
 693              		.align	2
 694              		.p2align 4,,15
 695              		.global	USART_ReceiverTimeOutCmd
 696              		.thumb
 697              		.thumb_func
 698              		.type	USART_ReceiverTimeOutCmd, %function
 699              	USART_ReceiverTimeOutCmd:
 700              	.LFB124:
 701              		.loc 1 656 0
 702              		.cfi_startproc
 703              		@ args = 0, pretend = 0, frame = 0
 704              		@ frame_needed = 0, uses_anonymous_args = 0
 705              		@ link register save eliminated.
 706              	.LVL66:
 707              		.loc 1 665 0
 708 0000 4368     		ldr	r3, [r0, #4]
 709              		.loc 1 661 0
 710 0002 19B9     		cbnz	r1, .L71
 711              		.loc 1 671 0
 712 0004 23F40003 		bic	r3, r3, #8388608
 713 0008 4360     		str	r3, [r0, #4]
 714 000a 7047     		bx	lr
 715              	.L71:
 716              		.loc 1 665 0
 717 000c 43F40003 		orr	r3, r3, #8388608
 718 0010 4360     		str	r3, [r0, #4]
 719 0012 7047     		bx	lr
ARM GAS  /tmp/ccM7KcIy.s 			page 14


 720              		.cfi_endproc
 721              	.LFE124:
 722              		.size	USART_ReceiverTimeOutCmd, .-USART_ReceiverTimeOutCmd
 723 0014 AFF30080 		.section	.text.USART_SetReceiverTimeOut,"ax",%progbits
 723      AFF30080 
 723      AFF30080 
 724              		.align	2
 725              		.p2align 4,,15
 726              		.global	USART_SetReceiverTimeOut
 727              		.thumb
 728              		.thumb_func
 729              		.type	USART_SetReceiverTimeOut, %function
 730              	USART_SetReceiverTimeOut:
 731              	.LFB125:
 732              		.loc 1 683 0
 733              		.cfi_startproc
 734              		@ args = 0, pretend = 0, frame = 0
 735              		@ frame_needed = 0, uses_anonymous_args = 0
 736              		@ link register save eliminated.
 737              	.LVL67:
 738              		.loc 1 690 0
 739 0000 4369     		ldr	r3, [r0, #20]
 740 0002 03F07F43 		and	r3, r3, #-16777216
 741 0006 4361     		str	r3, [r0, #20]
 742              		.loc 1 693 0
 743 0008 4369     		ldr	r3, [r0, #20]
 744 000a 1943     		orrs	r1, r1, r3
 745              	.LVL68:
 746 000c 4161     		str	r1, [r0, #20]
 747 000e 7047     		bx	lr
 748              		.cfi_endproc
 749              	.LFE125:
 750              		.size	USART_SetReceiverTimeOut, .-USART_SetReceiverTimeOut
 751              		.section	.text.USART_SetPrescaler,"ax",%progbits
 752              		.align	2
 753              		.p2align 4,,15
 754              		.global	USART_SetPrescaler
 755              		.thumb
 756              		.thumb_func
 757              		.type	USART_SetPrescaler, %function
 758              	USART_SetPrescaler:
 759              	.LFB126:
 760              		.loc 1 706 0
 761              		.cfi_startproc
 762              		@ args = 0, pretend = 0, frame = 0
 763              		@ frame_needed = 0, uses_anonymous_args = 0
 764              		@ link register save eliminated.
 765              	.LVL69:
 766              		.loc 1 711 0
 767 0000 038A     		ldrh	r3, [r0, #16]
 768 0002 03F47F43 		and	r3, r3, #65280
 769 0006 0382     		strh	r3, [r0, #16]	@ movhi
 770              		.loc 1 713 0
 771 0008 038A     		ldrh	r3, [r0, #16]
 772 000a 9BB2     		uxth	r3, r3
 773 000c 1943     		orrs	r1, r1, r3
 774              	.LVL70:
ARM GAS  /tmp/ccM7KcIy.s 			page 15


 775 000e 0182     		strh	r1, [r0, #16]	@ movhi
 776 0010 7047     		bx	lr
 777              		.cfi_endproc
 778              	.LFE126:
 779              		.size	USART_SetPrescaler, .-USART_SetPrescaler
 780 0012 00BFAFF3 		.section	.text.USART_STOPModeCmd,"ax",%progbits
 780      0080AFF3 
 780      0080AFF3 
 780      0080
 781              		.align	2
 782              		.p2align 4,,15
 783              		.global	USART_STOPModeCmd
 784              		.thumb
 785              		.thumb_func
 786              		.type	USART_STOPModeCmd, %function
 787              	USART_STOPModeCmd:
 788              	.LFB127:
 789              		.loc 1 755 0
 790              		.cfi_startproc
 791              		@ args = 0, pretend = 0, frame = 0
 792              		@ frame_needed = 0, uses_anonymous_args = 0
 793              		@ link register save eliminated.
 794              	.LVL71:
 795              		.loc 1 764 0
 796 0000 0368     		ldr	r3, [r0]
 797              		.loc 1 760 0
 798 0002 19B9     		cbnz	r1, .L77
 799              		.loc 1 770 0
 800 0004 23F00203 		bic	r3, r3, #2
 801 0008 0360     		str	r3, [r0]
 802 000a 7047     		bx	lr
 803              	.L77:
 804              		.loc 1 764 0
 805 000c 43F00203 		orr	r3, r3, #2
 806 0010 0360     		str	r3, [r0]
 807 0012 7047     		bx	lr
 808              		.cfi_endproc
 809              	.LFE127:
 810              		.size	USART_STOPModeCmd, .-USART_STOPModeCmd
 811 0014 AFF30080 		.section	.text.USART_StopModeWakeUpSourceConfig,"ax",%progbits
 811      AFF30080 
 811      AFF30080 
 812              		.align	2
 813              		.p2align 4,,15
 814              		.global	USART_StopModeWakeUpSourceConfig
 815              		.thumb
 816              		.thumb_func
 817              		.type	USART_StopModeWakeUpSourceConfig, %function
 818              	USART_StopModeWakeUpSourceConfig:
 819              	.LFB128:
 820              		.loc 1 788 0
 821              		.cfi_startproc
 822              		@ args = 0, pretend = 0, frame = 0
 823              		@ frame_needed = 0, uses_anonymous_args = 0
 824              		@ link register save eliminated.
 825              	.LVL72:
 826              		.loc 1 793 0
ARM GAS  /tmp/ccM7KcIy.s 			page 16


 827 0000 8368     		ldr	r3, [r0, #8]
 828 0002 23F44013 		bic	r3, r3, #3145728
 829 0006 8360     		str	r3, [r0, #8]
 830              		.loc 1 794 0
 831 0008 8368     		ldr	r3, [r0, #8]
 832 000a 1943     		orrs	r1, r1, r3
 833              	.LVL73:
 834 000c 8160     		str	r1, [r0, #8]
 835 000e 7047     		bx	lr
 836              		.cfi_endproc
 837              	.LFE128:
 838              		.size	USART_StopModeWakeUpSourceConfig, .-USART_StopModeWakeUpSourceConfig
 839              		.section	.text.USART_AutoBaudRateCmd,"ax",%progbits
 840              		.align	2
 841              		.p2align 4,,15
 842              		.global	USART_AutoBaudRateCmd
 843              		.thumb
 844              		.thumb_func
 845              		.type	USART_AutoBaudRateCmd, %function
 846              	USART_AutoBaudRateCmd:
 847              	.LFB129:
 848              		.loc 1 839 0
 849              		.cfi_startproc
 850              		@ args = 0, pretend = 0, frame = 0
 851              		@ frame_needed = 0, uses_anonymous_args = 0
 852              		@ link register save eliminated.
 853              	.LVL74:
 854              		.loc 1 848 0
 855 0000 4368     		ldr	r3, [r0, #4]
 856              		.loc 1 844 0
 857 0002 19B9     		cbnz	r1, .L82
 858              		.loc 1 854 0
 859 0004 23F48013 		bic	r3, r3, #1048576
 860 0008 4360     		str	r3, [r0, #4]
 861 000a 7047     		bx	lr
 862              	.L82:
 863              		.loc 1 848 0
 864 000c 43F48013 		orr	r3, r3, #1048576
 865 0010 4360     		str	r3, [r0, #4]
 866 0012 7047     		bx	lr
 867              		.cfi_endproc
 868              	.LFE129:
 869              		.size	USART_AutoBaudRateCmd, .-USART_AutoBaudRateCmd
 870 0014 AFF30080 		.section	.text.USART_AutoBaudRateConfig,"ax",%progbits
 870      AFF30080 
 870      AFF30080 
 871              		.align	2
 872              		.p2align 4,,15
 873              		.global	USART_AutoBaudRateConfig
 874              		.thumb
 875              		.thumb_func
 876              		.type	USART_AutoBaudRateConfig, %function
 877              	USART_AutoBaudRateConfig:
 878              	.LFB130:
 879              		.loc 1 873 0
 880              		.cfi_startproc
 881              		@ args = 0, pretend = 0, frame = 0
ARM GAS  /tmp/ccM7KcIy.s 			page 17


 882              		@ frame_needed = 0, uses_anonymous_args = 0
 883              		@ link register save eliminated.
 884              	.LVL75:
 885              		.loc 1 878 0
 886 0000 4368     		ldr	r3, [r0, #4]
 887 0002 23F4C003 		bic	r3, r3, #6291456
 888 0006 4360     		str	r3, [r0, #4]
 889              		.loc 1 879 0
 890 0008 4368     		ldr	r3, [r0, #4]
 891 000a 1943     		orrs	r1, r1, r3
 892              	.LVL76:
 893 000c 4160     		str	r1, [r0, #4]
 894 000e 7047     		bx	lr
 895              		.cfi_endproc
 896              	.LFE130:
 897              		.size	USART_AutoBaudRateConfig, .-USART_AutoBaudRateConfig
 898              		.section	.text.USART_SendData,"ax",%progbits
 899              		.align	2
 900              		.p2align 4,,15
 901              		.global	USART_SendData
 902              		.thumb
 903              		.thumb_func
 904              		.type	USART_SendData, %function
 905              	USART_SendData:
 906              	.LFB131:
 907              		.loc 1 916 0
 908              		.cfi_startproc
 909              		@ args = 0, pretend = 0, frame = 0
 910              		@ frame_needed = 0, uses_anonymous_args = 0
 911              		@ link register save eliminated.
 912              	.LVL77:
 913              		.loc 1 922 0
 914 0000 C1F30801 		ubfx	r1, r1, #0, #9
 915              	.LVL78:
 916 0004 0185     		strh	r1, [r0, #40]	@ movhi
 917 0006 7047     		bx	lr
 918              		.cfi_endproc
 919              	.LFE131:
 920              		.size	USART_SendData, .-USART_SendData
 921 0008 AFF30080 		.section	.text.USART_ReceiveData,"ax",%progbits
 921      AFF30080 
 922              		.align	2
 923              		.p2align 4,,15
 924              		.global	USART_ReceiveData
 925              		.thumb
 926              		.thumb_func
 927              		.type	USART_ReceiveData, %function
 928              	USART_ReceiveData:
 929              	.LFB132:
 930              		.loc 1 932 0
 931              		.cfi_startproc
 932              		@ args = 0, pretend = 0, frame = 0
 933              		@ frame_needed = 0, uses_anonymous_args = 0
 934              		@ link register save eliminated.
 935              	.LVL79:
 936              		.loc 1 937 0
 937 0000 808C     		ldrh	r0, [r0, #36]
ARM GAS  /tmp/ccM7KcIy.s 			page 18


 938              	.LVL80:
 939              		.loc 1 938 0
 940 0002 C0F30800 		ubfx	r0, r0, #0, #9
 941 0006 7047     		bx	lr
 942              		.cfi_endproc
 943              	.LFE132:
 944              		.size	USART_ReceiveData, .-USART_ReceiveData
 945 0008 AFF30080 		.section	.text.USART_SetAddress,"ax",%progbits
 945      AFF30080 
 946              		.align	2
 947              		.p2align 4,,15
 948              		.global	USART_SetAddress
 949              		.thumb
 950              		.thumb_func
 951              		.type	USART_SetAddress, %function
 952              	USART_SetAddress:
 953              	.LFB133:
 954              		.loc 1 982 0
 955              		.cfi_startproc
 956              		@ args = 0, pretend = 0, frame = 0
 957              		@ frame_needed = 0, uses_anonymous_args = 0
 958              		@ link register save eliminated.
 959              	.LVL81:
 960              		.loc 1 987 0
 961 0000 4368     		ldr	r3, [r0, #4]
 962 0002 23F07F43 		bic	r3, r3, #-16777216
 963 0006 4360     		str	r3, [r0, #4]
 964              		.loc 1 989 0
 965 0008 4368     		ldr	r3, [r0, #4]
 966 000a 43EA0161 		orr	r1, r3, r1, lsl #24
 967              	.LVL82:
 968 000e 4160     		str	r1, [r0, #4]
 969 0010 7047     		bx	lr
 970              		.cfi_endproc
 971              	.LFE133:
 972              		.size	USART_SetAddress, .-USART_SetAddress
 973 0012 00BFAFF3 		.section	.text.USART_MuteModeCmd,"ax",%progbits
 973      0080AFF3 
 973      0080AFF3 
 973      0080
 974              		.align	2
 975              		.p2align 4,,15
 976              		.global	USART_MuteModeCmd
 977              		.thumb
 978              		.thumb_func
 979              		.type	USART_MuteModeCmd, %function
 980              	USART_MuteModeCmd:
 981              	.LFB134:
 982              		.loc 1 1001 0
 983              		.cfi_startproc
 984              		@ args = 0, pretend = 0, frame = 0
 985              		@ frame_needed = 0, uses_anonymous_args = 0
 986              		@ link register save eliminated.
 987              	.LVL83:
 988              		.loc 1 1009 0
 989 0000 0368     		ldr	r3, [r0]
 990              		.loc 1 1006 0
ARM GAS  /tmp/ccM7KcIy.s 			page 19


 991 0002 19B9     		cbnz	r1, .L90
 992              		.loc 1 1014 0
 993 0004 23F40053 		bic	r3, r3, #8192
 994 0008 0360     		str	r3, [r0]
 995 000a 7047     		bx	lr
 996              	.L90:
 997              		.loc 1 1009 0
 998 000c 43F40053 		orr	r3, r3, #8192
 999 0010 0360     		str	r3, [r0]
 1000 0012 7047     		bx	lr
 1001              		.cfi_endproc
 1002              	.LFE134:
 1003              		.size	USART_MuteModeCmd, .-USART_MuteModeCmd
 1004 0014 AFF30080 		.section	.text.USART_MuteModeWakeUpConfig,"ax",%progbits
 1004      AFF30080 
 1004      AFF30080 
 1005              		.align	2
 1006              		.p2align 4,,15
 1007              		.global	USART_MuteModeWakeUpConfig
 1008              		.thumb
 1009              		.thumb_func
 1010              		.type	USART_MuteModeWakeUpConfig, %function
 1011              	USART_MuteModeWakeUpConfig:
 1012              	.LFB135:
 1013              		.loc 1 1029 0
 1014              		.cfi_startproc
 1015              		@ args = 0, pretend = 0, frame = 0
 1016              		@ frame_needed = 0, uses_anonymous_args = 0
 1017              		@ link register save eliminated.
 1018              	.LVL84:
 1019              		.loc 1 1034 0
 1020 0000 0368     		ldr	r3, [r0]
 1021 0002 23F40063 		bic	r3, r3, #2048
 1022 0006 0360     		str	r3, [r0]
 1023              		.loc 1 1035 0
 1024 0008 0368     		ldr	r3, [r0]
 1025 000a 1943     		orrs	r1, r1, r3
 1026              	.LVL85:
 1027 000c 0160     		str	r1, [r0]
 1028 000e 7047     		bx	lr
 1029              		.cfi_endproc
 1030              	.LFE135:
 1031              		.size	USART_MuteModeWakeUpConfig, .-USART_MuteModeWakeUpConfig
 1032              		.section	.text.USART_AddressDetectionConfig,"ax",%progbits
 1033              		.align	2
 1034              		.p2align 4,,15
 1035              		.global	USART_AddressDetectionConfig
 1036              		.thumb
 1037              		.thumb_func
 1038              		.type	USART_AddressDetectionConfig, %function
 1039              	USART_AddressDetectionConfig:
 1040              	.LFB136:
 1041              		.loc 1 1049 0
 1042              		.cfi_startproc
 1043              		@ args = 0, pretend = 0, frame = 0
 1044              		@ frame_needed = 0, uses_anonymous_args = 0
 1045              		@ link register save eliminated.
ARM GAS  /tmp/ccM7KcIy.s 			page 20


 1046              	.LVL86:
 1047              		.loc 1 1054 0
 1048 0000 4368     		ldr	r3, [r0, #4]
 1049 0002 23F01003 		bic	r3, r3, #16
 1050 0006 4360     		str	r3, [r0, #4]
 1051              		.loc 1 1055 0
 1052 0008 4368     		ldr	r3, [r0, #4]
 1053 000a 1943     		orrs	r1, r1, r3
 1054              	.LVL87:
 1055 000c 4160     		str	r1, [r0, #4]
 1056 000e 7047     		bx	lr
 1057              		.cfi_endproc
 1058              	.LFE136:
 1059              		.size	USART_AddressDetectionConfig, .-USART_AddressDetectionConfig
 1060              		.section	.text.USART_LINBreakDetectLengthConfig,"ax",%progbits
 1061              		.align	2
 1062              		.p2align 4,,15
 1063              		.global	USART_LINBreakDetectLengthConfig
 1064              		.thumb
 1065              		.thumb_func
 1066              		.type	USART_LINBreakDetectLengthConfig, %function
 1067              	USART_LINBreakDetectLengthConfig:
 1068              	.LFB137:
 1069              		.loc 1 1114 0
 1070              		.cfi_startproc
 1071              		@ args = 0, pretend = 0, frame = 0
 1072              		@ frame_needed = 0, uses_anonymous_args = 0
 1073              		@ link register save eliminated.
 1074              	.LVL88:
 1075              		.loc 1 1119 0
 1076 0000 4368     		ldr	r3, [r0, #4]
 1077 0002 23F02003 		bic	r3, r3, #32
 1078 0006 4360     		str	r3, [r0, #4]
 1079              		.loc 1 1120 0
 1080 0008 4368     		ldr	r3, [r0, #4]
 1081 000a 1943     		orrs	r1, r1, r3
 1082              	.LVL89:
 1083 000c 4160     		str	r1, [r0, #4]
 1084 000e 7047     		bx	lr
 1085              		.cfi_endproc
 1086              	.LFE137:
 1087              		.size	USART_LINBreakDetectLengthConfig, .-USART_LINBreakDetectLengthConfig
 1088              		.section	.text.USART_LINCmd,"ax",%progbits
 1089              		.align	2
 1090              		.p2align 4,,15
 1091              		.global	USART_LINCmd
 1092              		.thumb
 1093              		.thumb_func
 1094              		.type	USART_LINCmd, %function
 1095              	USART_LINCmd:
 1096              	.LFB138:
 1097              		.loc 1 1132 0
 1098              		.cfi_startproc
 1099              		@ args = 0, pretend = 0, frame = 0
 1100              		@ frame_needed = 0, uses_anonymous_args = 0
 1101              		@ link register save eliminated.
 1102              	.LVL90:
ARM GAS  /tmp/ccM7KcIy.s 			page 21


 1103              		.loc 1 1140 0
 1104 0000 4368     		ldr	r3, [r0, #4]
 1105              		.loc 1 1137 0
 1106 0002 19B9     		cbnz	r1, .L97
 1107              		.loc 1 1145 0
 1108 0004 23F48043 		bic	r3, r3, #16384
 1109 0008 4360     		str	r3, [r0, #4]
 1110 000a 7047     		bx	lr
 1111              	.L97:
 1112              		.loc 1 1140 0
 1113 000c 43F48043 		orr	r3, r3, #16384
 1114 0010 4360     		str	r3, [r0, #4]
 1115 0012 7047     		bx	lr
 1116              		.cfi_endproc
 1117              	.LFE138:
 1118              		.size	USART_LINCmd, .-USART_LINCmd
 1119 0014 AFF30080 		.section	.text.USART_HalfDuplexCmd,"ax",%progbits
 1119      AFF30080 
 1119      AFF30080 
 1120              		.align	2
 1121              		.p2align 4,,15
 1122              		.global	USART_HalfDuplexCmd
 1123              		.thumb
 1124              		.thumb_func
 1125              		.type	USART_HalfDuplexCmd, %function
 1126              	USART_HalfDuplexCmd:
 1127              	.LFB139:
 1128              		.loc 1 1190 0
 1129              		.cfi_startproc
 1130              		@ args = 0, pretend = 0, frame = 0
 1131              		@ frame_needed = 0, uses_anonymous_args = 0
 1132              		@ link register save eliminated.
 1133              	.LVL91:
 1134              		.loc 1 1198 0
 1135 0000 8368     		ldr	r3, [r0, #8]
 1136              		.loc 1 1195 0
 1137 0002 19B9     		cbnz	r1, .L101
 1138              		.loc 1 1203 0
 1139 0004 23F00803 		bic	r3, r3, #8
 1140 0008 8360     		str	r3, [r0, #8]
 1141 000a 7047     		bx	lr
 1142              	.L101:
 1143              		.loc 1 1198 0
 1144 000c 43F00803 		orr	r3, r3, #8
 1145 0010 8360     		str	r3, [r0, #8]
 1146 0012 7047     		bx	lr
 1147              		.cfi_endproc
 1148              	.LFE139:
 1149              		.size	USART_HalfDuplexCmd, .-USART_HalfDuplexCmd
 1150 0014 AFF30080 		.section	.text.USART_SetGuardTime,"ax",%progbits
 1150      AFF30080 
 1150      AFF30080 
 1151              		.align	2
 1152              		.p2align 4,,15
 1153              		.global	USART_SetGuardTime
 1154              		.thumb
 1155              		.thumb_func
ARM GAS  /tmp/ccM7KcIy.s 			page 22


 1156              		.type	USART_SetGuardTime, %function
 1157              	USART_SetGuardTime:
 1158              	.LFB140:
 1159              		.loc 1 1271 0
 1160              		.cfi_startproc
 1161              		@ args = 0, pretend = 0, frame = 0
 1162              		@ frame_needed = 0, uses_anonymous_args = 0
 1163              		@ link register save eliminated.
 1164              	.LVL92:
 1165              		.loc 1 1276 0
 1166 0000 038A     		ldrh	r3, [r0, #16]
 1167 0002 DBB2     		uxtb	r3, r3
 1168 0004 0382     		strh	r3, [r0, #16]	@ movhi
 1169              		.loc 1 1278 0
 1170 0006 038A     		ldrh	r3, [r0, #16]
 1171 0008 9BB2     		uxth	r3, r3
 1172 000a 43EA0121 		orr	r1, r3, r1, lsl #8
 1173              	.LVL93:
 1174 000e 0182     		strh	r1, [r0, #16]	@ movhi
 1175 0010 7047     		bx	lr
 1176              		.cfi_endproc
 1177              	.LFE140:
 1178              		.size	USART_SetGuardTime, .-USART_SetGuardTime
 1179 0012 00BFAFF3 		.section	.text.USART_SmartCardCmd,"ax",%progbits
 1179      0080AFF3 
 1179      0080AFF3 
 1179      0080
 1180              		.align	2
 1181              		.p2align 4,,15
 1182              		.global	USART_SmartCardCmd
 1183              		.thumb
 1184              		.thumb_func
 1185              		.type	USART_SmartCardCmd, %function
 1186              	USART_SmartCardCmd:
 1187              	.LFB141:
 1188              		.loc 1 1290 0
 1189              		.cfi_startproc
 1190              		@ args = 0, pretend = 0, frame = 0
 1191              		@ frame_needed = 0, uses_anonymous_args = 0
 1192              		@ link register save eliminated.
 1193              	.LVL94:
 1194              		.loc 1 1297 0
 1195 0000 8368     		ldr	r3, [r0, #8]
 1196              		.loc 1 1294 0
 1197 0002 19B9     		cbnz	r1, .L106
 1198              		.loc 1 1302 0
 1199 0004 23F02003 		bic	r3, r3, #32
 1200 0008 8360     		str	r3, [r0, #8]
 1201 000a 7047     		bx	lr
 1202              	.L106:
 1203              		.loc 1 1297 0
 1204 000c 43F02003 		orr	r3, r3, #32
 1205 0010 8360     		str	r3, [r0, #8]
 1206 0012 7047     		bx	lr
 1207              		.cfi_endproc
 1208              	.LFE141:
 1209              		.size	USART_SmartCardCmd, .-USART_SmartCardCmd
ARM GAS  /tmp/ccM7KcIy.s 			page 23


 1210 0014 AFF30080 		.section	.text.USART_SmartCardNACKCmd,"ax",%progbits
 1210      AFF30080 
 1210      AFF30080 
 1211              		.align	2
 1212              		.p2align 4,,15
 1213              		.global	USART_SmartCardNACKCmd
 1214              		.thumb
 1215              		.thumb_func
 1216              		.type	USART_SmartCardNACKCmd, %function
 1217              	USART_SmartCardNACKCmd:
 1218              	.LFB142:
 1219              		.loc 1 1315 0
 1220              		.cfi_startproc
 1221              		@ args = 0, pretend = 0, frame = 0
 1222              		@ frame_needed = 0, uses_anonymous_args = 0
 1223              		@ link register save eliminated.
 1224              	.LVL95:
 1225              		.loc 1 1322 0
 1226 0000 8368     		ldr	r3, [r0, #8]
 1227              		.loc 1 1319 0
 1228 0002 19B9     		cbnz	r1, .L110
 1229              		.loc 1 1327 0
 1230 0004 23F01003 		bic	r3, r3, #16
 1231 0008 8360     		str	r3, [r0, #8]
 1232 000a 7047     		bx	lr
 1233              	.L110:
 1234              		.loc 1 1322 0
 1235 000c 43F01003 		orr	r3, r3, #16
 1236 0010 8360     		str	r3, [r0, #8]
 1237 0012 7047     		bx	lr
 1238              		.cfi_endproc
 1239              	.LFE142:
 1240              		.size	USART_SmartCardNACKCmd, .-USART_SmartCardNACKCmd
 1241 0014 AFF30080 		.section	.text.USART_SetAutoRetryCount,"ax",%progbits
 1241      AFF30080 
 1241      AFF30080 
 1242              		.align	2
 1243              		.p2align 4,,15
 1244              		.global	USART_SetAutoRetryCount
 1245              		.thumb
 1246              		.thumb_func
 1247              		.type	USART_SetAutoRetryCount, %function
 1248              	USART_SetAutoRetryCount:
 1249              	.LFB143:
 1250              		.loc 1 1339 0
 1251              		.cfi_startproc
 1252              		@ args = 0, pretend = 0, frame = 0
 1253              		@ frame_needed = 0, uses_anonymous_args = 0
 1254              		@ link register save eliminated.
 1255              	.LVL96:
 1256              		.loc 1 1344 0
 1257 0000 8368     		ldr	r3, [r0, #8]
 1258 0002 23F46023 		bic	r3, r3, #917504
 1259 0006 8360     		str	r3, [r0, #8]
 1260              		.loc 1 1346 0
 1261 0008 8368     		ldr	r3, [r0, #8]
 1262 000a 43EA4141 		orr	r1, r3, r1, lsl #17
ARM GAS  /tmp/ccM7KcIy.s 			page 24


 1263              	.LVL97:
 1264 000e 8160     		str	r1, [r0, #8]
 1265 0010 7047     		bx	lr
 1266              		.cfi_endproc
 1267              	.LFE143:
 1268              		.size	USART_SetAutoRetryCount, .-USART_SetAutoRetryCount
 1269 0012 00BFAFF3 		.section	.text.USART_SetBlockLength,"ax",%progbits
 1269      0080AFF3 
 1269      0080AFF3 
 1269      0080
 1270              		.align	2
 1271              		.p2align 4,,15
 1272              		.global	USART_SetBlockLength
 1273              		.thumb
 1274              		.thumb_func
 1275              		.type	USART_SetBlockLength, %function
 1276              	USART_SetBlockLength:
 1277              	.LFB144:
 1278              		.loc 1 1357 0
 1279              		.cfi_startproc
 1280              		@ args = 0, pretend = 0, frame = 0
 1281              		@ frame_needed = 0, uses_anonymous_args = 0
 1282              		@ link register save eliminated.
 1283              	.LVL98:
 1284              		.loc 1 1362 0
 1285 0000 4369     		ldr	r3, [r0, #20]
 1286 0002 23F07F43 		bic	r3, r3, #-16777216
 1287 0006 4361     		str	r3, [r0, #20]
 1288              		.loc 1 1364 0
 1289 0008 4369     		ldr	r3, [r0, #20]
 1290 000a 43EA0161 		orr	r1, r3, r1, lsl #24
 1291              	.LVL99:
 1292 000e 4161     		str	r1, [r0, #20]
 1293 0010 7047     		bx	lr
 1294              		.cfi_endproc
 1295              	.LFE144:
 1296              		.size	USART_SetBlockLength, .-USART_SetBlockLength
 1297 0012 00BFAFF3 		.section	.text.USART_IrDAConfig,"ax",%progbits
 1297      0080AFF3 
 1297      0080AFF3 
 1297      0080
 1298              		.align	2
 1299              		.p2align 4,,15
 1300              		.global	USART_IrDAConfig
 1301              		.thumb
 1302              		.thumb_func
 1303              		.type	USART_IrDAConfig, %function
 1304              	USART_IrDAConfig:
 1305              	.LFB145:
 1306              		.loc 1 1420 0
 1307              		.cfi_startproc
 1308              		@ args = 0, pretend = 0, frame = 0
 1309              		@ frame_needed = 0, uses_anonymous_args = 0
 1310              		@ link register save eliminated.
 1311              	.LVL100:
 1312              		.loc 1 1425 0
 1313 0000 8368     		ldr	r3, [r0, #8]
ARM GAS  /tmp/ccM7KcIy.s 			page 25


 1314 0002 23F00403 		bic	r3, r3, #4
 1315 0006 8360     		str	r3, [r0, #8]
 1316              		.loc 1 1426 0
 1317 0008 8368     		ldr	r3, [r0, #8]
 1318 000a 1943     		orrs	r1, r1, r3
 1319              	.LVL101:
 1320 000c 8160     		str	r1, [r0, #8]
 1321 000e 7047     		bx	lr
 1322              		.cfi_endproc
 1323              	.LFE145:
 1324              		.size	USART_IrDAConfig, .-USART_IrDAConfig
 1325              		.section	.text.USART_IrDACmd,"ax",%progbits
 1326              		.align	2
 1327              		.p2align 4,,15
 1328              		.global	USART_IrDACmd
 1329              		.thumb
 1330              		.thumb_func
 1331              		.type	USART_IrDACmd, %function
 1332              	USART_IrDACmd:
 1333              	.LFB146:
 1334              		.loc 1 1438 0
 1335              		.cfi_startproc
 1336              		@ args = 0, pretend = 0, frame = 0
 1337              		@ frame_needed = 0, uses_anonymous_args = 0
 1338              		@ link register save eliminated.
 1339              	.LVL102:
 1340              		.loc 1 1446 0
 1341 0000 8368     		ldr	r3, [r0, #8]
 1342              		.loc 1 1443 0
 1343 0002 19B9     		cbnz	r1, .L117
 1344              		.loc 1 1451 0
 1345 0004 23F00203 		bic	r3, r3, #2
 1346 0008 8360     		str	r3, [r0, #8]
 1347 000a 7047     		bx	lr
 1348              	.L117:
 1349              		.loc 1 1446 0
 1350 000c 43F00203 		orr	r3, r3, #2
 1351 0010 8360     		str	r3, [r0, #8]
 1352 0012 7047     		bx	lr
 1353              		.cfi_endproc
 1354              	.LFE146:
 1355              		.size	USART_IrDACmd, .-USART_IrDACmd
 1356 0014 AFF30080 		.section	.text.USART_DECmd,"ax",%progbits
 1356      AFF30080 
 1356      AFF30080 
 1357              		.align	2
 1358              		.p2align 4,,15
 1359              		.global	USART_DECmd
 1360              		.thumb
 1361              		.thumb_func
 1362              		.type	USART_DECmd, %function
 1363              	USART_DECmd:
 1364              	.LFB147:
 1365              		.loc 1 1496 0
 1366              		.cfi_startproc
 1367              		@ args = 0, pretend = 0, frame = 0
 1368              		@ frame_needed = 0, uses_anonymous_args = 0
ARM GAS  /tmp/ccM7KcIy.s 			page 26


 1369              		@ link register save eliminated.
 1370              	.LVL103:
 1371              		.loc 1 1503 0
 1372 0000 8368     		ldr	r3, [r0, #8]
 1373              		.loc 1 1500 0
 1374 0002 19B9     		cbnz	r1, .L121
 1375              		.loc 1 1508 0
 1376 0004 23F48043 		bic	r3, r3, #16384
 1377 0008 8360     		str	r3, [r0, #8]
 1378 000a 7047     		bx	lr
 1379              	.L121:
 1380              		.loc 1 1503 0
 1381 000c 43F48043 		orr	r3, r3, #16384
 1382 0010 8360     		str	r3, [r0, #8]
 1383 0012 7047     		bx	lr
 1384              		.cfi_endproc
 1385              	.LFE147:
 1386              		.size	USART_DECmd, .-USART_DECmd
 1387 0014 AFF30080 		.section	.text.USART_DEPolarityConfig,"ax",%progbits
 1387      AFF30080 
 1387      AFF30080 
 1388              		.align	2
 1389              		.p2align 4,,15
 1390              		.global	USART_DEPolarityConfig
 1391              		.thumb
 1392              		.thumb_func
 1393              		.type	USART_DEPolarityConfig, %function
 1394              	USART_DEPolarityConfig:
 1395              	.LFB148:
 1396              		.loc 1 1523 0
 1397              		.cfi_startproc
 1398              		@ args = 0, pretend = 0, frame = 0
 1399              		@ frame_needed = 0, uses_anonymous_args = 0
 1400              		@ link register save eliminated.
 1401              	.LVL104:
 1402              		.loc 1 1528 0
 1403 0000 8368     		ldr	r3, [r0, #8]
 1404 0002 23F40043 		bic	r3, r3, #32768
 1405 0006 8360     		str	r3, [r0, #8]
 1406              		.loc 1 1529 0
 1407 0008 8368     		ldr	r3, [r0, #8]
 1408 000a 1943     		orrs	r1, r1, r3
 1409              	.LVL105:
 1410 000c 8160     		str	r1, [r0, #8]
 1411 000e 7047     		bx	lr
 1412              		.cfi_endproc
 1413              	.LFE148:
 1414              		.size	USART_DEPolarityConfig, .-USART_DEPolarityConfig
 1415              		.section	.text.USART_SetDEAssertionTime,"ax",%progbits
 1416              		.align	2
 1417              		.p2align 4,,15
 1418              		.global	USART_SetDEAssertionTime
 1419              		.thumb
 1420              		.thumb_func
 1421              		.type	USART_SetDEAssertionTime, %function
 1422              	USART_SetDEAssertionTime:
 1423              	.LFB149:
ARM GAS  /tmp/ccM7KcIy.s 			page 27


 1424              		.loc 1 1541 0
 1425              		.cfi_startproc
 1426              		@ args = 0, pretend = 0, frame = 0
 1427              		@ frame_needed = 0, uses_anonymous_args = 0
 1428              		@ link register save eliminated.
 1429              	.LVL106:
 1430              		.loc 1 1547 0
 1431 0000 0368     		ldr	r3, [r0]
 1432 0002 23F07873 		bic	r3, r3, #65011712
 1433 0006 0360     		str	r3, [r0]
 1434              		.loc 1 1549 0
 1435 0008 0368     		ldr	r3, [r0]
 1436 000a 43EA4151 		orr	r1, r3, r1, lsl #21
 1437              	.LVL107:
 1438 000e 0160     		str	r1, [r0]
 1439 0010 7047     		bx	lr
 1440              		.cfi_endproc
 1441              	.LFE149:
 1442              		.size	USART_SetDEAssertionTime, .-USART_SetDEAssertionTime
 1443 0012 00BFAFF3 		.section	.text.USART_SetDEDeassertionTime,"ax",%progbits
 1443      0080AFF3 
 1443      0080AFF3 
 1443      0080
 1444              		.align	2
 1445              		.p2align 4,,15
 1446              		.global	USART_SetDEDeassertionTime
 1447              		.thumb
 1448              		.thumb_func
 1449              		.type	USART_SetDEDeassertionTime, %function
 1450              	USART_SetDEDeassertionTime:
 1451              	.LFB150:
 1452              		.loc 1 1561 0
 1453              		.cfi_startproc
 1454              		@ args = 0, pretend = 0, frame = 0
 1455              		@ frame_needed = 0, uses_anonymous_args = 0
 1456              		@ link register save eliminated.
 1457              	.LVL108:
 1458              		.loc 1 1567 0
 1459 0000 0368     		ldr	r3, [r0]
 1460 0002 23F4F813 		bic	r3, r3, #2031616
 1461 0006 0360     		str	r3, [r0]
 1462              		.loc 1 1569 0
 1463 0008 0368     		ldr	r3, [r0]
 1464 000a 43EA0141 		orr	r1, r3, r1, lsl #16
 1465              	.LVL109:
 1466 000e 0160     		str	r1, [r0]
 1467 0010 7047     		bx	lr
 1468              		.cfi_endproc
 1469              	.LFE150:
 1470              		.size	USART_SetDEDeassertionTime, .-USART_SetDEDeassertionTime
 1471 0012 00BFAFF3 		.section	.text.USART_DMACmd,"ax",%progbits
 1471      0080AFF3 
 1471      0080AFF3 
 1471      0080
 1472              		.align	2
 1473              		.p2align 4,,15
 1474              		.global	USART_DMACmd
ARM GAS  /tmp/ccM7KcIy.s 			page 28


 1475              		.thumb
 1476              		.thumb_func
 1477              		.type	USART_DMACmd, %function
 1478              	USART_DMACmd:
 1479              	.LFB151:
 1480              		.loc 1 1608 0
 1481              		.cfi_startproc
 1482              		@ args = 0, pretend = 0, frame = 0
 1483              		@ frame_needed = 0, uses_anonymous_args = 0
 1484              		@ link register save eliminated.
 1485              	.LVL110:
 1486              		.loc 1 1618 0
 1487 0000 8368     		ldr	r3, [r0, #8]
 1488              		.loc 1 1614 0
 1489 0002 1AB9     		cbnz	r2, .L128
 1490              		.loc 1 1624 0
 1491 0004 23EA0101 		bic	r1, r3, r1
 1492              	.LVL111:
 1493 0008 8160     		str	r1, [r0, #8]
 1494 000a 7047     		bx	lr
 1495              	.LVL112:
 1496              	.L128:
 1497              		.loc 1 1618 0
 1498 000c 1943     		orrs	r1, r1, r3
 1499              	.LVL113:
 1500 000e 8160     		str	r1, [r0, #8]
 1501 0010 7047     		bx	lr
 1502              		.cfi_endproc
 1503              	.LFE151:
 1504              		.size	USART_DMACmd, .-USART_DMACmd
 1505 0012 00BFAFF3 		.section	.text.USART_DMAReceptionErrorConfig,"ax",%progbits
 1505      0080AFF3 
 1505      0080AFF3 
 1505      0080
 1506              		.align	2
 1507              		.p2align 4,,15
 1508              		.global	USART_DMAReceptionErrorConfig
 1509              		.thumb
 1510              		.thumb_func
 1511              		.type	USART_DMAReceptionErrorConfig, %function
 1512              	USART_DMAReceptionErrorConfig:
 1513              	.LFB152:
 1514              		.loc 1 1641 0
 1515              		.cfi_startproc
 1516              		@ args = 0, pretend = 0, frame = 0
 1517              		@ frame_needed = 0, uses_anonymous_args = 0
 1518              		@ link register save eliminated.
 1519              	.LVL114:
 1520              		.loc 1 1647 0
 1521 0000 8368     		ldr	r3, [r0, #8]
 1522 0002 23F40053 		bic	r3, r3, #8192
 1523 0006 8360     		str	r3, [r0, #8]
 1524              		.loc 1 1649 0
 1525 0008 8368     		ldr	r3, [r0, #8]
 1526 000a 1943     		orrs	r1, r1, r3
 1527              	.LVL115:
 1528 000c 8160     		str	r1, [r0, #8]
ARM GAS  /tmp/ccM7KcIy.s 			page 29


 1529 000e 7047     		bx	lr
 1530              		.cfi_endproc
 1531              	.LFE152:
 1532              		.size	USART_DMAReceptionErrorConfig, .-USART_DMAReceptionErrorConfig
 1533              		.section	.text.USART_ITConfig,"ax",%progbits
 1534              		.align	2
 1535              		.p2align 4,,15
 1536              		.global	USART_ITConfig
 1537              		.thumb
 1538              		.thumb_func
 1539              		.type	USART_ITConfig, %function
 1540              	USART_ITConfig:
 1541              	.LFB153:
 1542              		.loc 1 1774 0
 1543              		.cfi_startproc
 1544              		@ args = 0, pretend = 0, frame = 0
 1545              		@ frame_needed = 0, uses_anonymous_args = 0
 1546              		@ link register save eliminated.
 1547              	.LVL116:
 1548              		.loc 1 1788 0
 1549 0000 CBB2     		uxtb	r3, r1
 1550              		.loc 1 1785 0
 1551 0002 C1F30721 		ubfx	r1, r1, #8, #8
 1552              	.LVL117:
 1553              		.loc 1 1774 0
 1554 0006 10B4     		push	{r4}
 1555              		.cfi_def_cfa_offset 4
 1556              		.cfi_offset 4, -4
 1557              		.loc 1 1791 0
 1558 0008 0229     		cmp	r1, #2
 1559              		.loc 1 1789 0
 1560 000a 4FF00104 		mov	r4, #1
 1561              	.LVL118:
 1562 000e 04FA03F3 		lsl	r3, r4, r3
 1563              	.LVL119:
 1564              		.loc 1 1791 0
 1565 0012 0FD0     		beq	.L135
 1566              		.loc 1 1795 0
 1567 0014 0329     		cmp	r1, #3
 1568              		.loc 1 1797 0
 1569 0016 08BF     		it	eq
 1570 0018 0830     		addeq	r0, r0, #8
 1571              	.LVL120:
 1572              	.L132:
 1573              		.loc 1 1804 0
 1574 001a 0468     		ldr	r4, [r0]
 1575              		.loc 1 1802 0
 1576 001c 2AB9     		cbnz	r2, .L136
 1577              		.loc 1 1808 0
 1578 001e 24EA0303 		bic	r3, r4, r3
 1579              	.LVL121:
 1580 0022 0360     		str	r3, [r0]
 1581              		.loc 1 1810 0
 1582 0024 5DF8044B 		ldr	r4, [sp], #4
 1583 0028 7047     		bx	lr
 1584              	.LVL122:
 1585              	.L136:
ARM GAS  /tmp/ccM7KcIy.s 			page 30


 1586              		.loc 1 1804 0
 1587 002a 2343     		orrs	r3, r3, r4
 1588              	.LVL123:
 1589 002c 0360     		str	r3, [r0]
 1590              		.loc 1 1810 0
 1591 002e 5DF8044B 		ldr	r4, [sp], #4
 1592 0032 7047     		bx	lr
 1593              	.LVL124:
 1594              	.L135:
 1595              		.loc 1 1793 0
 1596 0034 0430     		adds	r0, r0, #4
 1597              	.LVL125:
 1598 0036 F0E7     		b	.L132
 1599              		.cfi_endproc
 1600              	.LFE153:
 1601              		.size	USART_ITConfig, .-USART_ITConfig
 1602 0038 AFF30080 		.section	.text.USART_RequestCmd,"ax",%progbits
 1602      AFF30080 
 1603              		.align	2
 1604              		.p2align 4,,15
 1605              		.global	USART_RequestCmd
 1606              		.thumb
 1607              		.thumb_func
 1608              		.type	USART_RequestCmd, %function
 1609              	USART_RequestCmd:
 1610              	.LFB154:
 1611              		.loc 1 1828 0
 1612              		.cfi_startproc
 1613              		@ args = 0, pretend = 0, frame = 0
 1614              		@ frame_needed = 0, uses_anonymous_args = 0
 1615              		@ link register save eliminated.
 1616              	.LVL126:
 1617              		.loc 1 1838 0
 1618 0000 038B     		ldrh	r3, [r0, #24]
 1619              		.loc 1 1834 0
 1620 0002 22B9     		cbnz	r2, .L140
 1621              		.loc 1 1844 0
 1622 0004 9BB2     		uxth	r3, r3
 1623 0006 23EA0101 		bic	r1, r3, r1
 1624              	.LVL127:
 1625 000a 0183     		strh	r1, [r0, #24]	@ movhi
 1626 000c 7047     		bx	lr
 1627              	.LVL128:
 1628              	.L140:
 1629              		.loc 1 1838 0
 1630 000e 1943     		orrs	r1, r1, r3
 1631              	.LVL129:
 1632 0010 89B2     		uxth	r1, r1
 1633 0012 0183     		strh	r1, [r0, #24]	@ movhi
 1634 0014 7047     		bx	lr
 1635              		.cfi_endproc
 1636              	.LFE154:
 1637              		.size	USART_RequestCmd, .-USART_RequestCmd
 1638 0016 00BFAFF3 		.section	.text.USART_OverrunDetectionConfig,"ax",%progbits
 1638      0080AFF3 
 1638      0080
 1639              		.align	2
ARM GAS  /tmp/ccM7KcIy.s 			page 31


 1640              		.p2align 4,,15
 1641              		.global	USART_OverrunDetectionConfig
 1642              		.thumb
 1643              		.thumb_func
 1644              		.type	USART_OverrunDetectionConfig, %function
 1645              	USART_OverrunDetectionConfig:
 1646              	.LFB155:
 1647              		.loc 1 1861 0
 1648              		.cfi_startproc
 1649              		@ args = 0, pretend = 0, frame = 0
 1650              		@ frame_needed = 0, uses_anonymous_args = 0
 1651              		@ link register save eliminated.
 1652              	.LVL130:
 1653              		.loc 1 1867 0
 1654 0000 8368     		ldr	r3, [r0, #8]
 1655 0002 23F48053 		bic	r3, r3, #4096
 1656 0006 8360     		str	r3, [r0, #8]
 1657              		.loc 1 1869 0
 1658 0008 8368     		ldr	r3, [r0, #8]
 1659 000a 1943     		orrs	r1, r1, r3
 1660              	.LVL131:
 1661 000c 8160     		str	r1, [r0, #8]
 1662 000e 7047     		bx	lr
 1663              		.cfi_endproc
 1664              	.LFE155:
 1665              		.size	USART_OverrunDetectionConfig, .-USART_OverrunDetectionConfig
 1666              		.section	.text.USART_GetFlagStatus,"ax",%progbits
 1667              		.align	2
 1668              		.p2align 4,,15
 1669              		.global	USART_GetFlagStatus
 1670              		.thumb
 1671              		.thumb_func
 1672              		.type	USART_GetFlagStatus, %function
 1673              	USART_GetFlagStatus:
 1674              	.LFB156:
 1675              		.loc 1 1903 0
 1676              		.cfi_startproc
 1677              		@ args = 0, pretend = 0, frame = 0
 1678              		@ frame_needed = 0, uses_anonymous_args = 0
 1679              		@ link register save eliminated.
 1680              	.LVL132:
 1681              		.loc 1 1909 0
 1682 0000 C369     		ldr	r3, [r0, #28]
 1683              	.LVL133:
 1684 0002 1942     		tst	r1, r3
 1685              		.loc 1 1918 0
 1686 0004 0CBF     		ite	eq
 1687 0006 0020     		moveq	r0, #0
 1688 0008 0120     		movne	r0, #1
 1689              	.LVL134:
 1690 000a 7047     		bx	lr
 1691              		.cfi_endproc
 1692              	.LFE156:
 1693              		.size	USART_GetFlagStatus, .-USART_GetFlagStatus
 1694 000c AFF30080 		.section	.text.USART_ClearFlag,"ax",%progbits
 1695              		.align	2
 1696              		.p2align 4,,15
ARM GAS  /tmp/ccM7KcIy.s 			page 32


 1697              		.global	USART_ClearFlag
 1698              		.thumb
 1699              		.thumb_func
 1700              		.type	USART_ClearFlag, %function
 1701              	USART_ClearFlag:
 1702              	.LFB157:
 1703              		.loc 1 1954 0
 1704              		.cfi_startproc
 1705              		@ args = 0, pretend = 0, frame = 0
 1706              		@ frame_needed = 0, uses_anonymous_args = 0
 1707              		@ link register save eliminated.
 1708              	.LVL135:
 1709              		.loc 1 1959 0
 1710 0000 0162     		str	r1, [r0, #32]
 1711 0002 7047     		bx	lr
 1712              		.cfi_endproc
 1713              	.LFE157:
 1714              		.size	USART_ClearFlag, .-USART_ClearFlag
 1715 0004 AFF30080 		.section	.text.USART_GetITStatus,"ax",%progbits
 1715      AFF30080 
 1715      AFF30080 
 1716              		.align	2
 1717              		.p2align 4,,15
 1718              		.global	USART_GetITStatus
 1719              		.thumb
 1720              		.thumb_func
 1721              		.type	USART_GetITStatus, %function
 1722              	USART_GetITStatus:
 1723              	.LFB158:
 1724              		.loc 1 1985 0
 1725              		.cfi_startproc
 1726              		@ args = 0, pretend = 0, frame = 0
 1727              		@ frame_needed = 0, uses_anonymous_args = 0
 1728              		@ link register save eliminated.
 1729              	.LVL136:
 1730 0000 10B4     		push	{r4}
 1731              		.cfi_def_cfa_offset 4
 1732              		.cfi_offset 4, -4
 1733              		.loc 1 1993 0
 1734 0002 C1F30723 		ubfx	r3, r1, #8, #8
 1735              	.LVL137:
 1736              		.loc 1 1996 0
 1737 0006 0124     		movs	r4, #1
 1738              		.loc 1 1995 0
 1739 0008 CAB2     		uxtb	r2, r1
 1740              		.loc 1 1998 0
 1741 000a A342     		cmp	r3, r4
 1742              		.loc 1 1996 0
 1743 000c 04FA02F2 		lsl	r2, r4, r2
 1744              	.LVL138:
 1745              		.loc 1 1998 0
 1746 0010 15D0     		beq	.L150
 1747              		.loc 1 2002 0
 1748 0012 022B     		cmp	r3, #2
 1749              		.loc 1 2004 0
 1750 0014 0CBF     		ite	eq
 1751 0016 4368     		ldreq	r3, [r0, #4]
ARM GAS  /tmp/ccM7KcIy.s 			page 33


 1752              	.LVL139:
 1753              		.loc 1 2008 0
 1754 0018 8368     		ldrne	r3, [r0, #8]
 1755 001a 1340     		ands	r3, r3, r2
 1756              	.LVL140:
 1757              	.L146:
 1758              		.loc 1 2013 0
 1759 001c C269     		ldr	r2, [r0, #28]
 1760              	.LVL141:
 1761              		.loc 1 2014 0
 1762 001e 53B1     		cbz	r3, .L149
 1763              		.loc 1 2011 0 discriminator 1
 1764 0020 090C     		lsrs	r1, r1, #16
 1765              	.LVL142:
 1766              		.loc 1 2012 0 discriminator 1
 1767 0022 0123     		movs	r3, #1
 1768              	.LVL143:
 1769 0024 03FA01F1 		lsl	r1, r3, r1
 1770              	.LVL144:
 1771              		.loc 1 2014 0 discriminator 1
 1772 0028 1142     		tst	r1, r2
 1773              		.loc 1 2016 0 discriminator 1
 1774 002a 0CBF     		ite	eq
 1775 002c 0020     		moveq	r0, #0
 1776 002e 0120     		movne	r0, #1
 1777              	.LVL145:
 1778              		.loc 1 2024 0 discriminator 1
 1779 0030 5DF8044B 		ldr	r4, [sp], #4
 1780 0034 7047     		bx	lr
 1781              	.LVL146:
 1782              	.L149:
 1783              		.loc 1 2020 0
 1784 0036 1846     		mov	r0, r3
 1785              	.LVL147:
 1786              		.loc 1 2024 0
 1787 0038 5DF8044B 		ldr	r4, [sp], #4
 1788 003c 7047     		bx	lr
 1789              	.LVL148:
 1790              	.L150:
 1791              		.loc 1 2000 0
 1792 003e 0368     		ldr	r3, [r0]
 1793              	.LVL149:
 1794 0040 1340     		ands	r3, r3, r2
 1795              	.LVL150:
 1796 0042 EBE7     		b	.L146
 1797              		.cfi_endproc
 1798              	.LFE158:
 1799              		.size	USART_GetITStatus, .-USART_GetITStatus
 1800 0044 AFF30080 		.section	.text.USART_ClearITPendingBit,"ax",%progbits
 1800      AFF30080 
 1800      AFF30080 
 1801              		.align	2
 1802              		.p2align 4,,15
 1803              		.global	USART_ClearITPendingBit
 1804              		.thumb
 1805              		.thumb_func
 1806              		.type	USART_ClearITPendingBit, %function
ARM GAS  /tmp/ccM7KcIy.s 			page 34


 1807              	USART_ClearITPendingBit:
 1808              	.LFB159:
 1809              		.loc 1 2057 0
 1810              		.cfi_startproc
 1811              		@ args = 0, pretend = 0, frame = 0
 1812              		@ frame_needed = 0, uses_anonymous_args = 0
 1813              		@ link register save eliminated.
 1814              	.LVL151:
 1815              		.loc 1 2063 0
 1816 0000 090C     		lsrs	r1, r1, #16
 1817              	.LVL152:
 1818              		.loc 1 2064 0
 1819 0002 0123     		movs	r3, #1
 1820 0004 03FA01F1 		lsl	r1, r3, r1
 1821              	.LVL153:
 1822              		.loc 1 2065 0
 1823 0008 0162     		str	r1, [r0, #32]
 1824 000a 7047     		bx	lr
 1825              		.cfi_endproc
 1826              	.LFE159:
 1827              		.size	USART_ClearITPendingBit, .-USART_ClearITPendingBit
 1828 000c AFF30080 		.text
 1829              	.Letext0:
 1830              		.file 2 "/usr/include/newlib/machine/_default_types.h"
 1831              		.file 3 "/usr/include/newlib/stdint.h"
 1832              		.file 4 "../../../../os/hal/platforms/STM32F30x/stm32f30x.h"
 1833              		.file 5 "../../../../ext/stm32lib/inc/stm32f30x_rcc.h"
 1834              		.file 6 "../../../../ext/stm32lib/inc/stm32f30x_usart.h"
 1835              		.file 7 "../../../../os/ports/common/ARMCMx/CMSIS/include/core_cm4.h"