ARM GAS  /tmp/cc5F3ukv.s 			page 1


   1              		.syntax unified
   2              		.cpu cortex-m4
   3              		.eabi_attribute 27, 3
   4              		.fpu fpv4-sp-d16
   5              		.eabi_attribute 20, 1
   6              		.eabi_attribute 21, 1
   7              		.eabi_attribute 23, 3
   8              		.eabi_attribute 24, 1
   9              		.eabi_attribute 25, 1
  10              		.eabi_attribute 26, 1
  11              		.eabi_attribute 30, 2
  12              		.eabi_attribute 34, 1
  13              		.eabi_attribute 18, 4
  14              		.thumb
  15              		.file	"stm32f30x_adc.c"
  16              		.text
  17              	.Ltext0:
  18              		.cfi_sections	.debug_frame
  19              		.section	.text.ADC_DeInit,"ax",%progbits
  20              		.align	2
  21              		.p2align 4,,15
  22              		.global	ADC_DeInit
  23              		.thumb
  24              		.thumb_func
  25              		.type	ADC_DeInit, %function
  26              	ADC_DeInit:
  27              	.LFB111:
  28              		.file 1 "../../../../ext/stm32lib/src/stm32f30x_adc.c"
  29              		.loc 1 140 0
  30              		.cfi_startproc
  31              		@ args = 0, pretend = 0, frame = 0
  32              		@ frame_needed = 0, uses_anonymous_args = 0
  33              	.LVL0:
  34              		.loc 1 145 0
  35 0000 B0F1A04F 		cmp	r0, #1342177280
  36              		.loc 1 140 0
  37 0004 08B5     		push	{r3, lr}
  38              		.cfi_def_cfa_offset 8
  39              		.cfi_offset 3, -8
  40              		.cfi_offset 14, -4
  41              		.loc 1 145 0
  42 0006 16D0     		beq	.L2
  43              		.loc 1 145 0 is_stmt 0 discriminator 1
  44 0008 114B     		ldr	r3, .L10
  45 000a 9842     		cmp	r0, r3
  46 000c 13D0     		beq	.L2
  47              		.loc 1 152 0 is_stmt 1
  48 000e 114B     		ldr	r3, .L10+4
  49 0010 9842     		cmp	r0, r3
  50 0012 04D0     		beq	.L4
  51              		.loc 1 152 0 is_stmt 0 discriminator 1
  52 0014 03F58073 		add	r3, r3, #256
  53 0018 9842     		cmp	r0, r3
  54 001a 00D0     		beq	.L4
  55 001c 08BD     		pop	{r3, pc}
  56              	.L4:
  57              		.loc 1 155 0 is_stmt 1
ARM GAS  /tmp/cc5F3ukv.s 			page 2


  58 001e 4FF00050 		mov	r0, #536870912
  59              	.LVL1:
  60 0022 0121     		movs	r1, #1
  61 0024 FFF7FEFF 		bl	RCC_AHBPeriphResetCmd
  62              	.LVL2:
  63              		.loc 1 157 0
  64 0028 4FF00050 		mov	r0, #536870912
  65 002c 0021     		movs	r1, #0
  66              		.loc 1 159 0
  67 002e BDE80840 		pop	{r3, lr}
  68              		.loc 1 157 0
  69 0032 FFF7FEBF 		b	RCC_AHBPeriphResetCmd
  70              	.LVL3:
  71              	.L2:
  72              		.loc 1 148 0
  73 0036 4FF08050 		mov	r0, #268435456
  74              	.LVL4:
  75 003a 0121     		movs	r1, #1
  76 003c FFF7FEFF 		bl	RCC_AHBPeriphResetCmd
  77              	.LVL5:
  78              		.loc 1 150 0
  79 0040 4FF08050 		mov	r0, #268435456
  80 0044 0021     		movs	r1, #0
  81              		.loc 1 159 0
  82 0046 BDE80840 		pop	{r3, lr}
  83              		.loc 1 150 0
  84 004a FFF7FEBF 		b	RCC_AHBPeriphResetCmd
  85              	.LVL6:
  86              	.L11:
  87 004e 00BF     		.align	2
  88              	.L10:
  89 0050 00010050 		.word	1342177536
  90 0054 00040050 		.word	1342178304
  91              		.cfi_endproc
  92              	.LFE111:
  93              		.size	ADC_DeInit, .-ADC_DeInit
  94 0058 AFF30080 		.section	.text.ADC_Init,"ax",%progbits
  94      AFF30080 
  95              		.align	2
  96              		.p2align 4,,15
  97              		.global	ADC_Init
  98              		.thumb
  99              		.thumb_func
 100              		.type	ADC_Init, %function
 101              	ADC_Init:
 102              	.LFB112:
 103              		.loc 1 169 0
 104              		.cfi_startproc
 105              		@ args = 0, pretend = 0, frame = 0
 106              		@ frame_needed = 0, uses_anonymous_args = 0
 107              		@ link register save eliminated.
 108              	.LVL7:
 109 0000 2DE9F001 		push	{r4, r5, r6, r7, r8}
 110              		.cfi_def_cfa_offset 20
 111              		.cfi_offset 4, -20
 112              		.cfi_offset 5, -16
 113              		.cfi_offset 6, -12
ARM GAS  /tmp/cc5F3ukv.s 			page 3


 114              		.cfi_offset 7, -8
 115              		.cfi_offset 8, -4
 116              		.loc 1 189 0
 117 0004 4B68     		ldr	r3, [r1, #4]
 118 0006 0F68     		ldr	r7, [r1]
 119              		.loc 1 190 0
 120 0008 8E68     		ldr	r6, [r1, #8]
 121              		.loc 1 191 0
 122 000a CD68     		ldr	r5, [r1, #12]
 123              		.loc 1 192 0
 124 000c 0C69     		ldr	r4, [r1, #16]
 125              		.loc 1 193 0
 126 000e 4A69     		ldr	r2, [r1, #20]
 127              		.loc 1 184 0
 128 0010 D0F80C80 		ldr	r8, [r0, #12]
 129              	.LVL8:
 130              		.loc 1 186 0
 131 0014 DFF830C0 		ldr	ip, .L13
 132              		.loc 1 189 0
 133 0018 1F43     		orrs	r7, r7, r3
 134              		.loc 1 190 0
 135 001a 3E43     		orrs	r6, r6, r7
 136              		.loc 1 191 0
 137 001c 3543     		orrs	r5, r5, r6
 138              		.loc 1 192 0
 139 001e 2C43     		orrs	r4, r4, r5
 140              		.loc 1 193 0
 141 0020 2243     		orrs	r2, r2, r4
 142              		.loc 1 194 0
 143 0022 8C69     		ldr	r4, [r1, #24]
 144              		.loc 1 186 0
 145 0024 08EA0C0C 		and	ip, r8, ip
 146              	.LVL9:
 147              		.loc 1 194 0
 148 0028 42EA0403 		orr	r3, r2, r4
 149              		.loc 1 189 0
 150 002c 43EA0C03 		orr	r3, r3, ip
 151              	.LVL10:
 152              		.loc 1 198 0
 153 0030 C360     		str	r3, [r0, #12]
 154              		.loc 1 207 0
 155 0032 0A7F     		ldrb	r2, [r1, #28]	@ zero_extendqisi2
 156              		.loc 1 202 0
 157 0034 036B     		ldr	r3, [r0, #48]
 158              	.LVL11:
 159              		.loc 1 207 0
 160 0036 013A     		subs	r2, r2, #1
 161              		.loc 1 204 0
 162 0038 23F00F03 		bic	r3, r3, #15
 163              	.LVL12:
 164              		.loc 1 207 0
 165 003c 1343     		orrs	r3, r3, r2
 166              	.LVL13:
 167              		.loc 1 209 0
 168 003e 0363     		str	r3, [r0, #48]
 169              		.loc 1 211 0
 170 0040 BDE8F001 		pop	{r4, r5, r6, r7, r8}
ARM GAS  /tmp/cc5F3ukv.s 			page 4


 171 0044 7047     		bx	lr
 172              	.L14:
 173 0046 00BF     		.align	2
 174              	.L13:
 175 0048 07C0FFFD 		.word	-33570809
 176              		.cfi_endproc
 177              	.LFE112:
 178              		.size	ADC_Init, .-ADC_Init
 179 004c AFF30080 		.section	.text.ADC_StructInit,"ax",%progbits
 180              		.align	2
 181              		.p2align 4,,15
 182              		.global	ADC_StructInit
 183              		.thumb
 184              		.thumb_func
 185              		.type	ADC_StructInit, %function
 186              	ADC_StructInit:
 187              	.LFB113:
 188              		.loc 1 219 0
 189              		.cfi_startproc
 190              		@ args = 0, pretend = 0, frame = 0
 191              		@ frame_needed = 0, uses_anonymous_args = 0
 192              		@ link register save eliminated.
 193              	.LVL14:
 194              		.loc 1 221 0
 195 0000 0023     		movs	r3, #0
 196              		.loc 1 228 0
 197 0002 0122     		movs	r2, #1
 198 0004 0277     		strb	r2, [r0, #28]
 199              		.loc 1 221 0
 200 0006 0360     		str	r3, [r0]
 201              		.loc 1 222 0
 202 0008 4360     		str	r3, [r0, #4]
 203              		.loc 1 223 0
 204 000a 8360     		str	r3, [r0, #8]
 205              		.loc 1 224 0
 206 000c C360     		str	r3, [r0, #12]
 207              		.loc 1 225 0
 208 000e 0361     		str	r3, [r0, #16]
 209              		.loc 1 226 0
 210 0010 4361     		str	r3, [r0, #20]
 211              		.loc 1 227 0
 212 0012 8361     		str	r3, [r0, #24]
 213 0014 7047     		bx	lr
 214              		.cfi_endproc
 215              	.LFE113:
 216              		.size	ADC_StructInit, .-ADC_StructInit
 217 0016 00BFAFF3 		.section	.text.ADC_InjectedInit,"ax",%progbits
 217      0080AFF3 
 217      0080
 218              		.align	2
 219              		.p2align 4,,15
 220              		.global	ADC_InjectedInit
 221              		.thumb
 222              		.thumb_func
 223              		.type	ADC_InjectedInit, %function
 224              	ADC_InjectedInit:
 225              	.LFB114:
ARM GAS  /tmp/cc5F3ukv.s 			page 5


 226              		.loc 1 240 0
 227              		.cfi_startproc
 228              		@ args = 0, pretend = 0, frame = 0
 229              		@ frame_needed = 0, uses_anonymous_args = 0
 230              		@ link register save eliminated.
 231              	.LVL15:
 232 0000 F0B4     		push	{r4, r5, r6, r7}
 233              		.cfi_def_cfa_offset 16
 234              		.cfi_offset 4, -16
 235              		.cfi_offset 5, -12
 236              		.cfi_offset 6, -8
 237              		.cfi_offset 7, -4
 238              		.loc 1 260 0
 239 0002 91E80810 		ldmia	r1, {r3, ip}
 240              		.loc 1 263 0
 241 0006 CF68     		ldr	r7, [r1, #12]
 242              		.loc 1 264 0
 243 0008 0E69     		ldr	r6, [r1, #16]
 244              		.loc 1 265 0
 245 000a 4D69     		ldr	r5, [r1, #20]
 246              		.loc 1 266 0
 247 000c 8C69     		ldr	r4, [r1, #24]
 248              		.loc 1 260 0
 249 000e 0A7A     		ldrb	r2, [r1, #8]	@ zero_extendqisi2
 250              		.loc 1 254 0
 251 0010 C16C     		ldr	r1, [r0, #76]
 252              	.LVL16:
 253              		.loc 1 260 0
 254 0012 4CEA0303 		orr	r3, ip, r3
 255              		.loc 1 261 0
 256 0016 43EA0723 		orr	r3, r3, r7, lsl #8
 257              		.loc 1 262 0
 258 001a 43EA8633 		orr	r3, r3, r6, lsl #14
 259              		.loc 1 263 0
 260 001e 43EA0553 		orr	r3, r3, r5, lsl #20
 261              		.loc 1 264 0
 262 0022 43EA8463 		orr	r3, r3, r4, lsl #26
 263              		.loc 1 260 0
 264 0026 013A     		subs	r2, r2, #1
 265 0028 1343     		orrs	r3, r3, r2
 266              	.LVL17:
 267              		.loc 1 268 0
 268 002a C364     		str	r3, [r0, #76]
 269              		.loc 1 269 0
 270 002c F0BC     		pop	{r4, r5, r6, r7}
 271 002e 7047     		bx	lr
 272              		.cfi_endproc
 273              	.LFE114:
 274              		.size	ADC_InjectedInit, .-ADC_InjectedInit
 275              		.section	.text.ADC_InjectedStructInit,"ax",%progbits
 276              		.align	2
 277              		.p2align 4,,15
 278              		.global	ADC_InjectedStructInit
 279              		.thumb
 280              		.thumb_func
 281              		.type	ADC_InjectedStructInit, %function
 282              	ADC_InjectedStructInit:
ARM GAS  /tmp/cc5F3ukv.s 			page 6


 283              	.LFB115:
 284              		.loc 1 277 0
 285              		.cfi_startproc
 286              		@ args = 0, pretend = 0, frame = 0
 287              		@ frame_needed = 0, uses_anonymous_args = 0
 288              		@ link register save eliminated.
 289              	.LVL18:
 290              		.loc 1 280 0
 291 0000 0123     		movs	r3, #1
 292              		.loc 1 278 0
 293 0002 0022     		movs	r2, #0
 294 0004 0260     		str	r2, [r0]
 295              		.loc 1 279 0
 296 0006 4260     		str	r2, [r0, #4]
 297              		.loc 1 280 0
 298 0008 0372     		strb	r3, [r0, #8]
 299              		.loc 1 281 0
 300 000a C360     		str	r3, [r0, #12]
 301              		.loc 1 282 0
 302 000c 0361     		str	r3, [r0, #16]
 303              		.loc 1 283 0
 304 000e 4361     		str	r3, [r0, #20]
 305              		.loc 1 284 0
 306 0010 8361     		str	r3, [r0, #24]
 307 0012 7047     		bx	lr
 308              		.cfi_endproc
 309              	.LFE115:
 310              		.size	ADC_InjectedStructInit, .-ADC_InjectedStructInit
 311 0014 AFF30080 		.section	.text.ADC_CommonInit,"ax",%progbits
 311      AFF30080 
 311      AFF30080 
 312              		.align	2
 313              		.p2align 4,,15
 314              		.global	ADC_CommonInit
 315              		.thumb
 316              		.thumb_func
 317              		.type	ADC_CommonInit, %function
 318              	ADC_CommonInit:
 319              	.LFB116:
 320              		.loc 1 296 0
 321              		.cfi_startproc
 322              		@ args = 0, pretend = 0, frame = 0
 323              		@ frame_needed = 0, uses_anonymous_args = 0
 324              		@ link register save eliminated.
 325              	.LVL19:
 326              		.loc 1 305 0
 327 0000 B0F1A04F 		cmp	r0, #1342177280
 328              		.loc 1 296 0
 329 0004 F0B4     		push	{r4, r5, r6, r7}
 330              		.cfi_def_cfa_offset 16
 331              		.cfi_offset 4, -16
 332              		.cfi_offset 5, -12
 333              		.cfi_offset 6, -8
 334              		.cfi_offset 7, -4
 335              		.loc 1 305 0
 336 0006 17D0     		beq	.L19
 337              		.loc 1 305 0 is_stmt 0 discriminator 1
ARM GAS  /tmp/cc5F3ukv.s 			page 7


 338 0008 194B     		ldr	r3, .L32
 339 000a 9842     		cmp	r0, r3
 340 000c 14D0     		beq	.L19
 341              		.loc 1 316 0 is_stmt 1
 342 000e 194B     		ldr	r3, .L32+4
 343              		.loc 1 329 0
 344 0010 8F68     		ldr	r7, [r1, #8]
 345 0012 4E68     		ldr	r6, [r1, #4]
 346              		.loc 1 316 0
 347 0014 9D68     		ldr	r5, [r3, #8]
 348              	.LVL20:
 349              		.loc 1 330 0
 350 0016 0C68     		ldr	r4, [r1]
 351              		.loc 1 319 0
 352 0018 174B     		ldr	r3, .L32+8
 353              		.loc 1 332 0
 354 001a C868     		ldr	r0, [r1, #12]
 355              	.LVL21:
 356              		.loc 1 333 0
 357 001c 0A7C     		ldrb	r2, [r1, #16]	@ zero_extendqisi2
 358              		.loc 1 329 0
 359 001e 47EA0601 		orr	r1, r7, r6
 360              	.LVL22:
 361              		.loc 1 319 0
 362 0022 2B40     		ands	r3, r3, r5
 363              	.LVL23:
 364              		.loc 1 330 0
 365 0024 2143     		orrs	r1, r1, r4
 366              		.loc 1 331 0
 367 0026 0B43     		orrs	r3, r3, r1
 368              	.LVL24:
 369              		.loc 1 329 0
 370 0028 43EA0033 		orr	r3, r3, r0, lsl #12
 371 002c 43EA0223 		orr	r3, r3, r2, lsl #8
 372              	.LVL25:
 373              	.L23:
 374              		.loc 1 343 0
 375 0030 104A     		ldr	r2, .L32+4
 376              		.loc 1 345 0
 377 0032 F0BC     		pop	{r4, r5, r6, r7}
 378              		.loc 1 343 0
 379 0034 9360     		str	r3, [r2, #8]
 380              		.loc 1 345 0
 381 0036 7047     		bx	lr
 382              	.LVL26:
 383              	.L19:
 384              		.loc 1 308 0
 385 0038 104B     		ldr	r3, .L32+12
 386              		.loc 1 330 0
 387 003a 8D68     		ldr	r5, [r1, #8]
 388              		.loc 1 308 0
 389 003c 9E68     		ldr	r6, [r3, #8]
 390              	.LVL27:
 391              		.loc 1 311 0
 392 003e 0E4A     		ldr	r2, .L32+8
 393              		.loc 1 332 0
 394 0040 CC68     		ldr	r4, [r1, #12]
ARM GAS  /tmp/cc5F3ukv.s 			page 8


 395              		.loc 1 333 0
 396 0042 0B7C     		ldrb	r3, [r1, #16]	@ zero_extendqisi2
 397              		.loc 1 329 0
 398 0044 91E88010 		ldmia	r1, {r7, ip}
 399 0048 4CEA0701 		orr	r1, ip, r7
 400              	.LVL28:
 401              		.loc 1 311 0
 402 004c 3240     		ands	r2, r2, r6
 403              	.LVL29:
 404              		.loc 1 330 0
 405 004e 2943     		orrs	r1, r1, r5
 406              		.loc 1 331 0
 407 0050 0A43     		orrs	r2, r2, r1
 408              	.LVL30:
 409              		.loc 1 329 0
 410 0052 42EA0432 		orr	r2, r2, r4, lsl #12
 411              		.loc 1 335 0
 412 0056 B0F1A04F 		cmp	r0, #1342177280
 413              		.loc 1 329 0
 414 005a 42EA0323 		orr	r3, r2, r3, lsl #8
 415              	.LVL31:
 416              		.loc 1 335 0
 417 005e 02D0     		beq	.L21
 418              		.loc 1 335 0 is_stmt 0 discriminator 1
 419 0060 034A     		ldr	r2, .L32
 420 0062 9042     		cmp	r0, r2
 421 0064 E4D1     		bne	.L23
 422              	.L21:
 423              		.loc 1 338 0 is_stmt 1
 424 0066 054A     		ldr	r2, .L32+12
 425              		.loc 1 345 0
 426 0068 F0BC     		pop	{r4, r5, r6, r7}
 427              		.loc 1 338 0
 428 006a 9360     		str	r3, [r2, #8]
 429              		.loc 1 345 0
 430 006c 7047     		bx	lr
 431              	.L33:
 432 006e 00BF     		.align	2
 433              	.L32:
 434 0070 00010050 		.word	1342177536
 435 0074 00070050 		.word	1342179072
 436 0078 E010FCFF 		.word	-257824
 437 007c 00030050 		.word	1342178048
 438              		.cfi_endproc
 439              	.LFE116:
 440              		.size	ADC_CommonInit, .-ADC_CommonInit
 441              		.section	.text.ADC_CommonStructInit,"ax",%progbits
 442              		.align	2
 443              		.p2align 4,,15
 444              		.global	ADC_CommonStructInit
 445              		.thumb
 446              		.thumb_func
 447              		.type	ADC_CommonStructInit, %function
 448              	ADC_CommonStructInit:
 449              	.LFB117:
 450              		.loc 1 354 0
 451              		.cfi_startproc
ARM GAS  /tmp/cc5F3ukv.s 			page 9


 452              		@ args = 0, pretend = 0, frame = 0
 453              		@ frame_needed = 0, uses_anonymous_args = 0
 454              		@ link register save eliminated.
 455              	.LVL32:
 456              		.loc 1 356 0
 457 0000 0023     		movs	r3, #0
 458 0002 0360     		str	r3, [r0]
 459              		.loc 1 359 0
 460 0004 4360     		str	r3, [r0, #4]
 461              		.loc 1 362 0
 462 0006 8360     		str	r3, [r0, #8]
 463              		.loc 1 365 0
 464 0008 C360     		str	r3, [r0, #12]
 465              		.loc 1 368 0
 466 000a 0374     		strb	r3, [r0, #16]
 467 000c 7047     		bx	lr
 468              		.cfi_endproc
 469              	.LFE117:
 470              		.size	ADC_CommonStructInit, .-ADC_CommonStructInit
 471 000e 00BF     		.section	.text.ADC_Cmd,"ax",%progbits
 472              		.align	2
 473              		.p2align 4,,15
 474              		.global	ADC_Cmd
 475              		.thumb
 476              		.thumb_func
 477              		.type	ADC_Cmd, %function
 478              	ADC_Cmd:
 479              	.LFB118:
 480              		.loc 1 380 0
 481              		.cfi_startproc
 482              		@ args = 0, pretend = 0, frame = 0
 483              		@ frame_needed = 0, uses_anonymous_args = 0
 484              		@ link register save eliminated.
 485              	.LVL33:
 486              		.loc 1 388 0
 487 0000 8368     		ldr	r3, [r0, #8]
 488              		.loc 1 385 0
 489 0002 19B9     		cbnz	r1, .L38
 490              		.loc 1 393 0
 491 0004 43F00203 		orr	r3, r3, #2
 492 0008 8360     		str	r3, [r0, #8]
 493 000a 7047     		bx	lr
 494              	.L38:
 495              		.loc 1 388 0
 496 000c 43F00103 		orr	r3, r3, #1
 497 0010 8360     		str	r3, [r0, #8]
 498 0012 7047     		bx	lr
 499              		.cfi_endproc
 500              	.LFE118:
 501              		.size	ADC_Cmd, .-ADC_Cmd
 502 0014 AFF30080 		.section	.text.ADC_StartCalibration,"ax",%progbits
 502      AFF30080 
 502      AFF30080 
 503              		.align	2
 504              		.p2align 4,,15
 505              		.global	ADC_StartCalibration
 506              		.thumb
ARM GAS  /tmp/cc5F3ukv.s 			page 10


 507              		.thumb_func
 508              		.type	ADC_StartCalibration, %function
 509              	ADC_StartCalibration:
 510              	.LFB119:
 511              		.loc 1 403 0
 512              		.cfi_startproc
 513              		@ args = 0, pretend = 0, frame = 0
 514              		@ frame_needed = 0, uses_anonymous_args = 0
 515              		@ link register save eliminated.
 516              	.LVL34:
 517              		.loc 1 408 0
 518 0000 8368     		ldr	r3, [r0, #8]
 519 0002 43F00043 		orr	r3, r3, #-2147483648
 520 0006 8360     		str	r3, [r0, #8]
 521 0008 7047     		bx	lr
 522              		.cfi_endproc
 523              	.LFE119:
 524              		.size	ADC_StartCalibration, .-ADC_StartCalibration
 525 000a 00BFAFF3 		.section	.text.ADC_GetCalibrationValue,"ax",%progbits
 525      0080
 526              		.align	2
 527              		.p2align 4,,15
 528              		.global	ADC_GetCalibrationValue
 529              		.thumb
 530              		.thumb_func
 531              		.type	ADC_GetCalibrationValue, %function
 532              	ADC_GetCalibrationValue:
 533              	.LFB120:
 534              		.loc 1 417 0
 535              		.cfi_startproc
 536              		@ args = 0, pretend = 0, frame = 0
 537              		@ frame_needed = 0, uses_anonymous_args = 0
 538              		@ link register save eliminated.
 539              	.LVL35:
 540              		.loc 1 422 0
 541 0000 D0F8B400 		ldr	r0, [r0, #180]
 542              	.LVL36:
 543              		.loc 1 423 0
 544 0004 7047     		bx	lr
 545              		.cfi_endproc
 546              	.LFE120:
 547              		.size	ADC_GetCalibrationValue, .-ADC_GetCalibrationValue
 548 0006 00BFAFF3 		.section	.text.ADC_SetCalibrationValue,"ax",%progbits
 548      0080AFF3 
 548      0080
 549              		.align	2
 550              		.p2align 4,,15
 551              		.global	ADC_SetCalibrationValue
 552              		.thumb
 553              		.thumb_func
 554              		.type	ADC_SetCalibrationValue, %function
 555              	ADC_SetCalibrationValue:
 556              	.LFB121:
 557              		.loc 1 431 0
 558              		.cfi_startproc
 559              		@ args = 0, pretend = 0, frame = 0
 560              		@ frame_needed = 0, uses_anonymous_args = 0
ARM GAS  /tmp/cc5F3ukv.s 			page 11


 561              		@ link register save eliminated.
 562              	.LVL37:
 563              		.loc 1 436 0
 564 0000 C0F8B410 		str	r1, [r0, #180]
 565 0004 7047     		bx	lr
 566              		.cfi_endproc
 567              	.LFE121:
 568              		.size	ADC_SetCalibrationValue, .-ADC_SetCalibrationValue
 569 0006 00BFAFF3 		.section	.text.ADC_SelectCalibrationMode,"ax",%progbits
 569      0080AFF3 
 569      0080
 570              		.align	2
 571              		.p2align 4,,15
 572              		.global	ADC_SelectCalibrationMode
 573              		.thumb
 574              		.thumb_func
 575              		.type	ADC_SelectCalibrationMode, %function
 576              	ADC_SelectCalibrationMode:
 577              	.LFB122:
 578              		.loc 1 449 0
 579              		.cfi_startproc
 580              		@ args = 0, pretend = 0, frame = 0
 581              		@ frame_needed = 0, uses_anonymous_args = 0
 582              		@ link register save eliminated.
 583              	.LVL38:
 584              		.loc 1 454 0
 585 0000 8368     		ldr	r3, [r0, #8]
 586 0002 23F08043 		bic	r3, r3, #1073741824
 587 0006 8360     		str	r3, [r0, #8]
 588              		.loc 1 455 0
 589 0008 8368     		ldr	r3, [r0, #8]
 590 000a 1943     		orrs	r1, r1, r3
 591              	.LVL39:
 592 000c 8160     		str	r1, [r0, #8]
 593 000e 7047     		bx	lr
 594              		.cfi_endproc
 595              	.LFE122:
 596              		.size	ADC_SelectCalibrationMode, .-ADC_SelectCalibrationMode
 597              		.section	.text.ADC_GetCalibrationStatus,"ax",%progbits
 598              		.align	2
 599              		.p2align 4,,15
 600              		.global	ADC_GetCalibrationStatus
 601              		.thumb
 602              		.thumb_func
 603              		.type	ADC_GetCalibrationStatus, %function
 604              	ADC_GetCalibrationStatus:
 605              	.LFB123:
 606              		.loc 1 465 0
 607              		.cfi_startproc
 608              		@ args = 0, pretend = 0, frame = 0
 609              		@ frame_needed = 0, uses_anonymous_args = 0
 610              		@ link register save eliminated.
 611              	.LVL40:
 612              		.loc 1 470 0
 613 0000 8068     		ldr	r0, [r0, #8]
 614              	.LVL41:
 615              		.loc 1 482 0
ARM GAS  /tmp/cc5F3ukv.s 			page 12


 616 0002 C00F     		lsrs	r0, r0, #31
 617 0004 7047     		bx	lr
 618              		.cfi_endproc
 619              	.LFE123:
 620              		.size	ADC_GetCalibrationStatus, .-ADC_GetCalibrationStatus
 621 0006 00BFAFF3 		.section	.text.ADC_DisableCmd,"ax",%progbits
 621      0080AFF3 
 621      0080
 622              		.align	2
 623              		.p2align 4,,15
 624              		.global	ADC_DisableCmd
 625              		.thumb
 626              		.thumb_func
 627              		.type	ADC_DisableCmd, %function
 628              	ADC_DisableCmd:
 629              	.LFB124:
 630              		.loc 1 490 0
 631              		.cfi_startproc
 632              		@ args = 0, pretend = 0, frame = 0
 633              		@ frame_needed = 0, uses_anonymous_args = 0
 634              		@ link register save eliminated.
 635              	.LVL42:
 636              		.loc 1 495 0
 637 0000 8368     		ldr	r3, [r0, #8]
 638 0002 43F00203 		orr	r3, r3, #2
 639 0006 8360     		str	r3, [r0, #8]
 640 0008 7047     		bx	lr
 641              		.cfi_endproc
 642              	.LFE124:
 643              		.size	ADC_DisableCmd, .-ADC_DisableCmd
 644 000a 00BFAFF3 		.section	.text.ADC_GetDisableCmdStatus,"ax",%progbits
 644      0080
 645              		.align	2
 646              		.p2align 4,,15
 647              		.global	ADC_GetDisableCmdStatus
 648              		.thumb
 649              		.thumb_func
 650              		.type	ADC_GetDisableCmdStatus, %function
 651              	ADC_GetDisableCmdStatus:
 652              	.LFB125:
 653              		.loc 1 505 0
 654              		.cfi_startproc
 655              		@ args = 0, pretend = 0, frame = 0
 656              		@ frame_needed = 0, uses_anonymous_args = 0
 657              		@ link register save eliminated.
 658              	.LVL43:
 659              		.loc 1 511 0
 660 0000 8068     		ldr	r0, [r0, #8]
 661              	.LVL44:
 662              		.loc 1 523 0
 663 0002 C0F34000 		ubfx	r0, r0, #1, #1
 664              	.LVL45:
 665 0006 7047     		bx	lr
 666              		.cfi_endproc
 667              	.LFE125:
 668              		.size	ADC_GetDisableCmdStatus, .-ADC_GetDisableCmdStatus
 669 0008 AFF30080 		.section	.text.ADC_VoltageRegulatorCmd,"ax",%progbits
ARM GAS  /tmp/cc5F3ukv.s 			page 13


 669      AFF30080 
 670              		.align	2
 671              		.p2align 4,,15
 672              		.global	ADC_VoltageRegulatorCmd
 673              		.thumb
 674              		.thumb_func
 675              		.type	ADC_VoltageRegulatorCmd, %function
 676              	ADC_VoltageRegulatorCmd:
 677              	.LFB126:
 678              		.loc 1 533 0
 679              		.cfi_startproc
 680              		@ args = 0, pretend = 0, frame = 0
 681              		@ frame_needed = 0, uses_anonymous_args = 0
 682              		@ link register save eliminated.
 683              	.LVL46:
 684              		.loc 1 540 0
 685 0000 8368     		ldr	r3, [r0, #8]
 686 0002 23F04053 		bic	r3, r3, #805306368
 687 0006 8360     		str	r3, [r0, #8]
 688              		.loc 1 545 0
 689 0008 8368     		ldr	r3, [r0, #8]
 690              		.loc 1 542 0
 691 000a 19B9     		cbnz	r1, .L49
 692              		.loc 1 550 0
 693 000c 43F00053 		orr	r3, r3, #536870912
 694 0010 8360     		str	r3, [r0, #8]
 695 0012 7047     		bx	lr
 696              	.L49:
 697              		.loc 1 545 0
 698 0014 43F08053 		orr	r3, r3, #268435456
 699 0018 8360     		str	r3, [r0, #8]
 700 001a 7047     		bx	lr
 701              		.cfi_endproc
 702              	.LFE126:
 703              		.size	ADC_VoltageRegulatorCmd, .-ADC_VoltageRegulatorCmd
 704 001c AFF30080 		.section	.text.ADC_SelectDifferentialMode,"ax",%progbits
 705              		.align	2
 706              		.p2align 4,,15
 707              		.global	ADC_SelectDifferentialMode
 708              		.thumb
 709              		.thumb_func
 710              		.type	ADC_SelectDifferentialMode, %function
 711              	ADC_SelectDifferentialMode:
 712              	.LFB127:
 713              		.loc 1 577 0
 714              		.cfi_startproc
 715              		@ args = 0, pretend = 0, frame = 0
 716              		@ frame_needed = 0, uses_anonymous_args = 0
 717              		@ link register save eliminated.
 718              	.LVL47:
 719              		.loc 1 583 0
 720 0000 4AB9     		cbnz	r2, .L53
 721              		.loc 1 591 0
 722 0002 D0F8B030 		ldr	r3, [r0, #176]
 723 0006 0122     		movs	r2, #1
 724              	.LVL48:
 725 0008 02FA01F1 		lsl	r1, r2, r1
ARM GAS  /tmp/cc5F3ukv.s 			page 14


 726              	.LVL49:
 727 000c 23EA0101 		bic	r1, r3, r1
 728 0010 C0F8B010 		str	r1, [r0, #176]
 729 0014 7047     		bx	lr
 730              	.LVL50:
 731              	.L53:
 732              		.loc 1 586 0
 733 0016 D0F8B030 		ldr	r3, [r0, #176]
 734 001a 0122     		movs	r2, #1
 735              	.LVL51:
 736 001c 02FA01F1 		lsl	r1, r2, r1
 737              	.LVL52:
 738 0020 1943     		orrs	r1, r1, r3
 739 0022 C0F8B010 		str	r1, [r0, #176]
 740 0026 7047     		bx	lr
 741              		.cfi_endproc
 742              	.LFE127:
 743              		.size	ADC_SelectDifferentialMode, .-ADC_SelectDifferentialMode
 744 0028 AFF30080 		.section	.text.ADC_SelectQueueOfContextMode,"ax",%progbits
 744      AFF30080 
 745              		.align	2
 746              		.p2align 4,,15
 747              		.global	ADC_SelectQueueOfContextMode
 748              		.thumb
 749              		.thumb_func
 750              		.type	ADC_SelectQueueOfContextMode, %function
 751              	ADC_SelectQueueOfContextMode:
 752              	.LFB128:
 753              		.loc 1 603 0
 754              		.cfi_startproc
 755              		@ args = 0, pretend = 0, frame = 0
 756              		@ frame_needed = 0, uses_anonymous_args = 0
 757              		@ link register save eliminated.
 758              	.LVL53:
 759              		.loc 1 611 0
 760 0000 C368     		ldr	r3, [r0, #12]
 761              		.loc 1 608 0
 762 0002 19B9     		cbnz	r1, .L57
 763              		.loc 1 616 0
 764 0004 23F40013 		bic	r3, r3, #2097152
 765 0008 C360     		str	r3, [r0, #12]
 766 000a 7047     		bx	lr
 767              	.L57:
 768              		.loc 1 611 0
 769 000c 43F40013 		orr	r3, r3, #2097152
 770 0010 C360     		str	r3, [r0, #12]
 771 0012 7047     		bx	lr
 772              		.cfi_endproc
 773              	.LFE128:
 774              		.size	ADC_SelectQueueOfContextMode, .-ADC_SelectQueueOfContextMode
 775 0014 AFF30080 		.section	.text.ADC_AutoDelayCmd,"ax",%progbits
 775      AFF30080 
 775      AFF30080 
 776              		.align	2
 777              		.p2align 4,,15
 778              		.global	ADC_AutoDelayCmd
 779              		.thumb
ARM GAS  /tmp/cc5F3ukv.s 			page 15


 780              		.thumb_func
 781              		.type	ADC_AutoDelayCmd, %function
 782              	ADC_AutoDelayCmd:
 783              	.LFB129:
 784              		.loc 1 628 0
 785              		.cfi_startproc
 786              		@ args = 0, pretend = 0, frame = 0
 787              		@ frame_needed = 0, uses_anonymous_args = 0
 788              		@ link register save eliminated.
 789              	.LVL54:
 790              		.loc 1 636 0
 791 0000 C368     		ldr	r3, [r0, #12]
 792              		.loc 1 633 0
 793 0002 19B9     		cbnz	r1, .L61
 794              		.loc 1 641 0
 795 0004 23F48043 		bic	r3, r3, #16384
 796 0008 C360     		str	r3, [r0, #12]
 797 000a 7047     		bx	lr
 798              	.L61:
 799              		.loc 1 636 0
 800 000c 43F48043 		orr	r3, r3, #16384
 801 0010 C360     		str	r3, [r0, #12]
 802 0012 7047     		bx	lr
 803              		.cfi_endproc
 804              	.LFE129:
 805              		.size	ADC_AutoDelayCmd, .-ADC_AutoDelayCmd
 806 0014 AFF30080 		.section	.text.ADC_AnalogWatchdogCmd,"ax",%progbits
 806      AFF30080 
 806      AFF30080 
 807              		.align	2
 808              		.p2align 4,,15
 809              		.global	ADC_AnalogWatchdogCmd
 810              		.thumb
 811              		.thumb_func
 812              		.type	ADC_AnalogWatchdogCmd, %function
 813              	ADC_AnalogWatchdogCmd:
 814              	.LFB130:
 815              		.loc 1 695 0
 816              		.cfi_startproc
 817              		@ args = 0, pretend = 0, frame = 0
 818              		@ frame_needed = 0, uses_anonymous_args = 0
 819              		@ link register save eliminated.
 820              	.LVL55:
 821              		.loc 1 701 0
 822 0000 C368     		ldr	r3, [r0, #12]
 823              	.LVL56:
 824              		.loc 1 703 0
 825 0002 23F0E073 		bic	r3, r3, #29360128
 826              	.LVL57:
 827              		.loc 1 705 0
 828 0006 1943     		orrs	r1, r1, r3
 829              	.LVL58:
 830              		.loc 1 707 0
 831 0008 C160     		str	r1, [r0, #12]
 832 000a 7047     		bx	lr
 833              		.cfi_endproc
 834              	.LFE130:
ARM GAS  /tmp/cc5F3ukv.s 			page 16


 835              		.size	ADC_AnalogWatchdogCmd, .-ADC_AnalogWatchdogCmd
 836 000c AFF30080 		.section	.text.ADC_AnalogWatchdog1ThresholdsConfig,"ax",%progbits
 837              		.align	2
 838              		.p2align 4,,15
 839              		.global	ADC_AnalogWatchdog1ThresholdsConfig
 840              		.thumb
 841              		.thumb_func
 842              		.type	ADC_AnalogWatchdog1ThresholdsConfig, %function
 843              	ADC_AnalogWatchdog1ThresholdsConfig:
 844              	.LFB131:
 845              		.loc 1 721 0
 846              		.cfi_startproc
 847              		@ args = 0, pretend = 0, frame = 0
 848              		@ frame_needed = 0, uses_anonymous_args = 0
 849              		@ link register save eliminated.
 850              	.LVL59:
 851              		.loc 1 727 0
 852 0000 036A     		ldr	r3, [r0, #32]
 853 0002 23F07F63 		bic	r3, r3, #267386880
 854 0006 23F47023 		bic	r3, r3, #983040
 855 000a 0362     		str	r3, [r0, #32]
 856              		.loc 1 728 0
 857 000c 036A     		ldr	r3, [r0, #32]
 858 000e 43EA0141 		orr	r1, r3, r1, lsl #16
 859              	.LVL60:
 860 0012 0162     		str	r1, [r0, #32]
 861              		.loc 1 731 0
 862 0014 036A     		ldr	r3, [r0, #32]
 863 0016 23F47F63 		bic	r3, r3, #4080
 864 001a 23F00F03 		bic	r3, r3, #15
 865 001e 0362     		str	r3, [r0, #32]
 866              		.loc 1 732 0
 867 0020 036A     		ldr	r3, [r0, #32]
 868 0022 1A43     		orrs	r2, r2, r3
 869              	.LVL61:
 870 0024 0262     		str	r2, [r0, #32]
 871 0026 7047     		bx	lr
 872              		.cfi_endproc
 873              	.LFE131:
 874              		.size	ADC_AnalogWatchdog1ThresholdsConfig, .-ADC_AnalogWatchdog1ThresholdsConfig
 875 0028 AFF30080 		.section	.text.ADC_AnalogWatchdog2ThresholdsConfig,"ax",%progbits
 875      AFF30080 
 876              		.align	2
 877              		.p2align 4,,15
 878              		.global	ADC_AnalogWatchdog2ThresholdsConfig
 879              		.thumb
 880              		.thumb_func
 881              		.type	ADC_AnalogWatchdog2ThresholdsConfig, %function
 882              	ADC_AnalogWatchdog2ThresholdsConfig:
 883              	.LFB132:
 884              		.loc 1 746 0
 885              		.cfi_startproc
 886              		@ args = 0, pretend = 0, frame = 0
 887              		@ frame_needed = 0, uses_anonymous_args = 0
 888              		@ link register save eliminated.
 889              	.LVL62:
 890              		.loc 1 751 0
ARM GAS  /tmp/cc5F3ukv.s 			page 17


 891 0000 436A     		ldr	r3, [r0, #36]
 892 0002 23F47F03 		bic	r3, r3, #16711680
 893 0006 4362     		str	r3, [r0, #36]
 894              		.loc 1 752 0
 895 0008 436A     		ldr	r3, [r0, #36]
 896 000a 43EA0141 		orr	r1, r3, r1, lsl #16
 897              	.LVL63:
 898 000e 4162     		str	r1, [r0, #36]
 899              		.loc 1 755 0
 900 0010 436A     		ldr	r3, [r0, #36]
 901 0012 23F0FF03 		bic	r3, r3, #255
 902 0016 4362     		str	r3, [r0, #36]
 903              		.loc 1 756 0
 904 0018 436A     		ldr	r3, [r0, #36]
 905 001a 1A43     		orrs	r2, r2, r3
 906              	.LVL64:
 907 001c 4262     		str	r2, [r0, #36]
 908 001e 7047     		bx	lr
 909              		.cfi_endproc
 910              	.LFE132:
 911              		.size	ADC_AnalogWatchdog2ThresholdsConfig, .-ADC_AnalogWatchdog2ThresholdsConfig
 912              		.section	.text.ADC_AnalogWatchdog3ThresholdsConfig,"ax",%progbits
 913              		.align	2
 914              		.p2align 4,,15
 915              		.global	ADC_AnalogWatchdog3ThresholdsConfig
 916              		.thumb
 917              		.thumb_func
 918              		.type	ADC_AnalogWatchdog3ThresholdsConfig, %function
 919              	ADC_AnalogWatchdog3ThresholdsConfig:
 920              	.LFB133:
 921              		.loc 1 770 0
 922              		.cfi_startproc
 923              		@ args = 0, pretend = 0, frame = 0
 924              		@ frame_needed = 0, uses_anonymous_args = 0
 925              		@ link register save eliminated.
 926              	.LVL65:
 927              		.loc 1 775 0
 928 0000 836A     		ldr	r3, [r0, #40]
 929 0002 23F47F03 		bic	r3, r3, #16711680
 930 0006 8362     		str	r3, [r0, #40]
 931              		.loc 1 776 0
 932 0008 836A     		ldr	r3, [r0, #40]
 933 000a 43EA0141 		orr	r1, r3, r1, lsl #16
 934              	.LVL66:
 935 000e 8162     		str	r1, [r0, #40]
 936              		.loc 1 779 0
 937 0010 836A     		ldr	r3, [r0, #40]
 938 0012 23F0FF03 		bic	r3, r3, #255
 939 0016 8362     		str	r3, [r0, #40]
 940              		.loc 1 780 0
 941 0018 836A     		ldr	r3, [r0, #40]
 942 001a 1A43     		orrs	r2, r2, r3
 943              	.LVL67:
 944 001c 8262     		str	r2, [r0, #40]
 945 001e 7047     		bx	lr
 946              		.cfi_endproc
 947              	.LFE133:
ARM GAS  /tmp/cc5F3ukv.s 			page 18


 948              		.size	ADC_AnalogWatchdog3ThresholdsConfig, .-ADC_AnalogWatchdog3ThresholdsConfig
 949              		.section	.text.ADC_AnalogWatchdog1SingleChannelConfig,"ax",%progbits
 950              		.align	2
 951              		.p2align 4,,15
 952              		.global	ADC_AnalogWatchdog1SingleChannelConfig
 953              		.thumb
 954              		.thumb_func
 955              		.type	ADC_AnalogWatchdog1SingleChannelConfig, %function
 956              	ADC_AnalogWatchdog1SingleChannelConfig:
 957              	.LFB134:
 958              		.loc 1 809 0
 959              		.cfi_startproc
 960              		@ args = 0, pretend = 0, frame = 0
 961              		@ frame_needed = 0, uses_anonymous_args = 0
 962              		@ link register save eliminated.
 963              	.LVL68:
 964              		.loc 1 815 0
 965 0000 C368     		ldr	r3, [r0, #12]
 966              	.LVL69:
 967              		.loc 1 817 0
 968 0002 23F0F843 		bic	r3, r3, #2080374784
 969              	.LVL70:
 970              		.loc 1 819 0
 971 0006 43EA8161 		orr	r1, r3, r1, lsl #26
 972              	.LVL71:
 973              		.loc 1 821 0
 974 000a C160     		str	r1, [r0, #12]
 975 000c 7047     		bx	lr
 976              		.cfi_endproc
 977              	.LFE134:
 978              		.size	ADC_AnalogWatchdog1SingleChannelConfig, .-ADC_AnalogWatchdog1SingleChannelConfig
 979 000e 00BF     		.section	.text.ADC_AnalogWatchdog2SingleChannelConfig,"ax",%progbits
 980              		.align	2
 981              		.p2align 4,,15
 982              		.global	ADC_AnalogWatchdog2SingleChannelConfig
 983              		.thumb
 984              		.thumb_func
 985              		.type	ADC_AnalogWatchdog2SingleChannelConfig, %function
 986              	ADC_AnalogWatchdog2SingleChannelConfig:
 987              	.LFB135:
 988              		.loc 1 850 0
 989              		.cfi_startproc
 990              		@ args = 0, pretend = 0, frame = 0
 991              		@ frame_needed = 0, uses_anonymous_args = 0
 992              		@ link register save eliminated.
 993              	.LVL72:
 994              		.loc 1 856 0
 995 0000 D0F8A020 		ldr	r2, [r0, #160]
 996              	.LVL73:
 997              		.loc 1 858 0
 998 0004 074B     		ldr	r3, .L68
 999              		.loc 1 850 0
 1000 0006 10B4     		push	{r4}
 1001              		.cfi_def_cfa_offset 4
 1002              		.cfi_offset 4, -4
 1003              		.loc 1 862 0
 1004 0008 D0F8A040 		ldr	r4, [r0, #160]
ARM GAS  /tmp/cc5F3ukv.s 			page 19


 1005              		.loc 1 858 0
 1006 000c 1340     		ands	r3, r3, r2
 1007              	.LVL74:
 1008              		.loc 1 860 0
 1009 000e 0122     		movs	r2, #1
 1010 0010 2343     		orrs	r3, r3, r4
 1011              	.LVL75:
 1012 0012 02FA01F1 		lsl	r1, r2, r1
 1013              	.LVL76:
 1014              		.loc 1 862 0
 1015 0016 0B43     		orrs	r3, r3, r1
 1016 0018 C0F8A030 		str	r3, [r0, #160]
 1017              		.loc 1 863 0
 1018 001c 5DF8044B 		ldr	r4, [sp], #4
 1019 0020 7047     		bx	lr
 1020              	.L69:
 1021 0022 00BF     		.align	2
 1022              	.L68:
 1023 0024 0100F8FF 		.word	-524287
 1024              		.cfi_endproc
 1025              	.LFE135:
 1026              		.size	ADC_AnalogWatchdog2SingleChannelConfig, .-ADC_AnalogWatchdog2SingleChannelConfig
 1027 0028 AFF30080 		.section	.text.ADC_AnalogWatchdog3SingleChannelConfig,"ax",%progbits
 1027      AFF30080 
 1028              		.align	2
 1029              		.p2align 4,,15
 1030              		.global	ADC_AnalogWatchdog3SingleChannelConfig
 1031              		.thumb
 1032              		.thumb_func
 1033              		.type	ADC_AnalogWatchdog3SingleChannelConfig, %function
 1034              	ADC_AnalogWatchdog3SingleChannelConfig:
 1035              	.LFB136:
 1036              		.loc 1 891 0
 1037              		.cfi_startproc
 1038              		@ args = 0, pretend = 0, frame = 0
 1039              		@ frame_needed = 0, uses_anonymous_args = 0
 1040              		@ link register save eliminated.
 1041              	.LVL77:
 1042              		.loc 1 897 0
 1043 0000 D0F8A420 		ldr	r2, [r0, #164]
 1044              	.LVL78:
 1045              		.loc 1 899 0
 1046 0004 074B     		ldr	r3, .L71
 1047              		.loc 1 891 0
 1048 0006 10B4     		push	{r4}
 1049              		.cfi_def_cfa_offset 4
 1050              		.cfi_offset 4, -4
 1051              		.loc 1 903 0
 1052 0008 D0F8A440 		ldr	r4, [r0, #164]
 1053              		.loc 1 899 0
 1054 000c 1340     		ands	r3, r3, r2
 1055              	.LVL79:
 1056              		.loc 1 901 0
 1057 000e 0122     		movs	r2, #1
 1058 0010 2343     		orrs	r3, r3, r4
 1059              	.LVL80:
 1060 0012 02FA01F1 		lsl	r1, r2, r1
ARM GAS  /tmp/cc5F3ukv.s 			page 20


 1061              	.LVL81:
 1062              		.loc 1 903 0
 1063 0016 0B43     		orrs	r3, r3, r1
 1064 0018 C0F8A430 		str	r3, [r0, #164]
 1065              		.loc 1 904 0
 1066 001c 5DF8044B 		ldr	r4, [sp], #4
 1067 0020 7047     		bx	lr
 1068              	.L72:
 1069 0022 00BF     		.align	2
 1070              	.L71:
 1071 0024 0100F8FF 		.word	-524287
 1072              		.cfi_endproc
 1073              	.LFE136:
 1074              		.size	ADC_AnalogWatchdog3SingleChannelConfig, .-ADC_AnalogWatchdog3SingleChannelConfig
 1075 0028 AFF30080 		.section	.text.ADC_TempSensorCmd,"ax",%progbits
 1075      AFF30080 
 1076              		.align	2
 1077              		.p2align 4,,15
 1078              		.global	ADC_TempSensorCmd
 1079              		.thumb
 1080              		.thumb_func
 1081              		.type	ADC_TempSensorCmd, %function
 1082              	ADC_TempSensorCmd:
 1083              	.LFB137:
 1084              		.loc 1 949 0
 1085              		.cfi_startproc
 1086              		@ args = 0, pretend = 0, frame = 0
 1087              		@ frame_needed = 0, uses_anonymous_args = 0
 1088              		@ link register save eliminated.
 1089              	.LVL82:
 1090              		.loc 1 954 0
 1091 0000 B0F1A04F 		cmp	r0, #1342177280
 1092 0004 09D0     		beq	.L74
 1093              		.loc 1 954 0 is_stmt 0 discriminator 1
 1094 0006 094B     		ldr	r3, .L83
 1095 0008 9842     		cmp	r0, r3
 1096 000a 06D0     		beq	.L74
 1097              		.loc 1 972 0 is_stmt 1
 1098 000c 084B     		ldr	r3, .L83+4
 1099 000e 9A68     		ldr	r2, [r3, #8]
 1100              		.loc 1 969 0
 1101 0010 39B9     		cbnz	r1, .L82
 1102              	.L78:
 1103              		.loc 1 977 0
 1104 0012 22F40002 		bic	r2, r2, #8388608
 1105 0016 9A60     		str	r2, [r3, #8]
 1106 0018 7047     		bx	lr
 1107              	.L74:
 1108              		.loc 1 959 0
 1109 001a 064B     		ldr	r3, .L83+8
 1110 001c 9A68     		ldr	r2, [r3, #8]
 1111              		.loc 1 956 0
 1112 001e 0029     		cmp	r1, #0
 1113 0020 F7D0     		beq	.L78
 1114              	.L82:
 1115              		.loc 1 972 0
 1116 0022 42F40002 		orr	r2, r2, #8388608
ARM GAS  /tmp/cc5F3ukv.s 			page 21


 1117 0026 9A60     		str	r2, [r3, #8]
 1118 0028 7047     		bx	lr
 1119              	.L84:
 1120 002a 00BF     		.align	2
 1121              	.L83:
 1122 002c 00010050 		.word	1342177536
 1123 0030 00070050 		.word	1342179072
 1124 0034 00030050 		.word	1342178048
 1125              		.cfi_endproc
 1126              	.LFE137:
 1127              		.size	ADC_TempSensorCmd, .-ADC_TempSensorCmd
 1128 0038 AFF30080 		.section	.text.ADC_VrefintCmd,"ax",%progbits
 1128      AFF30080 
 1129              		.align	2
 1130              		.p2align 4,,15
 1131              		.global	ADC_VrefintCmd
 1132              		.thumb
 1133              		.thumb_func
 1134              		.type	ADC_VrefintCmd, %function
 1135              	ADC_VrefintCmd:
 1136              	.LFB138:
 1137              		.loc 1 990 0
 1138              		.cfi_startproc
 1139              		@ args = 0, pretend = 0, frame = 0
 1140              		@ frame_needed = 0, uses_anonymous_args = 0
 1141              		@ link register save eliminated.
 1142              	.LVL83:
 1143              		.loc 1 995 0
 1144 0000 B0F1A04F 		cmp	r0, #1342177280
 1145 0004 09D0     		beq	.L86
 1146              		.loc 1 995 0 is_stmt 0 discriminator 1
 1147 0006 094B     		ldr	r3, .L95
 1148 0008 9842     		cmp	r0, r3
 1149 000a 06D0     		beq	.L86
 1150              		.loc 1 1013 0 is_stmt 1
 1151 000c 084B     		ldr	r3, .L95+4
 1152 000e 9A68     		ldr	r2, [r3, #8]
 1153              		.loc 1 1010 0
 1154 0010 39B9     		cbnz	r1, .L94
 1155              	.L90:
 1156              		.loc 1 1018 0
 1157 0012 22F48002 		bic	r2, r2, #4194304
 1158 0016 9A60     		str	r2, [r3, #8]
 1159 0018 7047     		bx	lr
 1160              	.L86:
 1161              		.loc 1 1000 0
 1162 001a 064B     		ldr	r3, .L95+8
 1163 001c 9A68     		ldr	r2, [r3, #8]
 1164              		.loc 1 997 0
 1165 001e 0029     		cmp	r1, #0
 1166 0020 F7D0     		beq	.L90
 1167              	.L94:
 1168              		.loc 1 1013 0
 1169 0022 42F48002 		orr	r2, r2, #4194304
 1170 0026 9A60     		str	r2, [r3, #8]
 1171 0028 7047     		bx	lr
 1172              	.L96:
ARM GAS  /tmp/cc5F3ukv.s 			page 22


 1173 002a 00BF     		.align	2
 1174              	.L95:
 1175 002c 00010050 		.word	1342177536
 1176 0030 00070050 		.word	1342179072
 1177 0034 00030050 		.word	1342178048
 1178              		.cfi_endproc
 1179              	.LFE138:
 1180              		.size	ADC_VrefintCmd, .-ADC_VrefintCmd
 1181 0038 AFF30080 		.section	.text.ADC_VbatCmd,"ax",%progbits
 1181      AFF30080 
 1182              		.align	2
 1183              		.p2align 4,,15
 1184              		.global	ADC_VbatCmd
 1185              		.thumb
 1186              		.thumb_func
 1187              		.type	ADC_VbatCmd, %function
 1188              	ADC_VbatCmd:
 1189              	.LFB139:
 1190              		.loc 1 1031 0
 1191              		.cfi_startproc
 1192              		@ args = 0, pretend = 0, frame = 0
 1193              		@ frame_needed = 0, uses_anonymous_args = 0
 1194              		@ link register save eliminated.
 1195              	.LVL84:
 1196              		.loc 1 1036 0
 1197 0000 B0F1A04F 		cmp	r0, #1342177280
 1198 0004 09D0     		beq	.L98
 1199              		.loc 1 1036 0 is_stmt 0 discriminator 1
 1200 0006 094B     		ldr	r3, .L107
 1201 0008 9842     		cmp	r0, r3
 1202 000a 06D0     		beq	.L98
 1203              		.loc 1 1054 0 is_stmt 1
 1204 000c 084B     		ldr	r3, .L107+4
 1205 000e 9A68     		ldr	r2, [r3, #8]
 1206              		.loc 1 1051 0
 1207 0010 39B9     		cbnz	r1, .L106
 1208              	.L102:
 1209              		.loc 1 1059 0
 1210 0012 22F08072 		bic	r2, r2, #16777216
 1211 0016 9A60     		str	r2, [r3, #8]
 1212 0018 7047     		bx	lr
 1213              	.L98:
 1214              		.loc 1 1041 0
 1215 001a 064B     		ldr	r3, .L107+8
 1216 001c 9A68     		ldr	r2, [r3, #8]
 1217              		.loc 1 1038 0
 1218 001e 0029     		cmp	r1, #0
 1219 0020 F7D0     		beq	.L102
 1220              	.L106:
 1221              		.loc 1 1054 0
 1222 0022 42F08072 		orr	r2, r2, #16777216
 1223 0026 9A60     		str	r2, [r3, #8]
 1224 0028 7047     		bx	lr
 1225              	.L108:
 1226 002a 00BF     		.align	2
 1227              	.L107:
 1228 002c 00010050 		.word	1342177536
ARM GAS  /tmp/cc5F3ukv.s 			page 23


 1229 0030 00070050 		.word	1342179072
 1230 0034 00030050 		.word	1342178048
 1231              		.cfi_endproc
 1232              	.LFE139:
 1233              		.size	ADC_VbatCmd, .-ADC_VbatCmd
 1234 0038 AFF30080 		.section	.text.ADC_RegularChannelConfig,"ax",%progbits
 1234      AFF30080 
 1235              		.align	2
 1236              		.p2align 4,,15
 1237              		.global	ADC_RegularChannelConfig
 1238              		.thumb
 1239              		.thumb_func
 1240              		.type	ADC_RegularChannelConfig, %function
 1241              	ADC_RegularChannelConfig:
 1242              	.LFB140:
 1243              		.loc 1 1163 0
 1244              		.cfi_startproc
 1245              		@ args = 0, pretend = 0, frame = 0
 1246              		@ frame_needed = 0, uses_anonymous_args = 0
 1247              		@ link register save eliminated.
 1248              	.LVL85:
 1249              		.loc 1 1172 0
 1250 0000 042A     		cmp	r2, #4
 1251              		.loc 1 1163 0
 1252 0002 30B4     		push	{r4, r5}
 1253              		.cfi_def_cfa_offset 8
 1254              		.cfi_offset 4, -8
 1255              		.cfi_offset 5, -4
 1256              		.loc 1 1172 0
 1257 0004 1ED8     		bhi	.L110
 1258              		.loc 1 1177 0
 1259 0006 02EB4202 		add	r2, r2, r2, lsl #1
 1260              	.LVL86:
 1261 000a 5200     		lsls	r2, r2, #1
 1262              		.loc 1 1175 0
 1263 000c 056B     		ldr	r5, [r0, #48]
 1264              	.LVL87:
 1265              		.loc 1 1177 0
 1266 000e 1F24     		movs	r4, #31
 1267 0010 9440     		lsls	r4, r4, r2
 1268              	.LVL88:
 1269              		.loc 1 1179 0
 1270 0012 25EA0404 		bic	r4, r5, r4
 1271              	.LVL89:
 1272              		.loc 1 1181 0
 1273 0016 01FA02F2 		lsl	r2, r1, r2
 1274              	.LVL90:
 1275              		.loc 1 1183 0
 1276 001a 2243     		orrs	r2, r2, r4
 1277              	.LVL91:
 1278              		.loc 1 1185 0
 1279 001c 0263     		str	r2, [r0, #48]
 1280              	.L111:
 1281              		.loc 1 1237 0
 1282 001e 0929     		cmp	r1, #9
 1283 0020 21D8     		bhi	.L116
 1284              	.L114:
ARM GAS  /tmp/cc5F3ukv.s 			page 24


 1285              		.loc 1 1254 0
 1286 0022 0139     		subs	r1, r1, #1
 1287              	.LVL92:
 1288              		.loc 1 1252 0
 1289 0024 4269     		ldr	r2, [r0, #20]
 1290              	.LVL93:
 1291              		.loc 1 1256 0
 1292 0026 4469     		ldr	r4, [r0, #20]
 1293              		.loc 1 1254 0
 1294 0028 01EB4101 		add	r1, r1, r1, lsl #1
 1295              	.LVL94:
 1296 002c 3822     		movs	r2, #56
 1297 002e 8A40     		lsls	r2, r2, r1
 1298              	.LVL95:
 1299              		.loc 1 1256 0
 1300 0030 24EA0202 		bic	r2, r4, r2
 1301              	.LVL96:
 1302 0034 4261     		str	r2, [r0, #20]
 1303              		.loc 1 1258 0
 1304 0036 4269     		ldr	r2, [r0, #20]
 1305 0038 0331     		adds	r1, r1, #3
 1306              	.LVL97:
 1307 003a 8B40     		lsls	r3, r3, r1
 1308              	.LVL98:
 1309 003c 1343     		orrs	r3, r3, r2
 1310 003e 4361     		str	r3, [r0, #20]
 1311              		.loc 1 1260 0
 1312 0040 30BC     		pop	{r4, r5}
 1313 0042 7047     		bx	lr
 1314              	.LVL99:
 1315              	.L110:
 1316              		.loc 1 1188 0
 1317 0044 092A     		cmp	r2, #9
 1318 0046 1FD8     		bhi	.L112
 1319              		.loc 1 1193 0
 1320 0048 053A     		subs	r2, r2, #5
 1321              	.LVL100:
 1322 004a 02EB4202 		add	r2, r2, r2, lsl #1
 1323 004e 5200     		lsls	r2, r2, #1
 1324              		.loc 1 1191 0
 1325 0050 456B     		ldr	r5, [r0, #52]
 1326              	.LVL101:
 1327              		.loc 1 1193 0
 1328 0052 1F24     		movs	r4, #31
 1329 0054 9440     		lsls	r4, r4, r2
 1330              	.LVL102:
 1331              		.loc 1 1195 0
 1332 0056 25EA0404 		bic	r4, r5, r4
 1333              	.LVL103:
 1334              		.loc 1 1197 0
 1335 005a 01FA02F2 		lsl	r2, r1, r2
 1336              	.LVL104:
 1337              		.loc 1 1199 0
 1338 005e 2243     		orrs	r2, r2, r4
 1339              	.LVL105:
 1340              		.loc 1 1237 0
 1341 0060 0929     		cmp	r1, #9
ARM GAS  /tmp/cc5F3ukv.s 			page 25


 1342              		.loc 1 1201 0
 1343 0062 4263     		str	r2, [r0, #52]
 1344              		.loc 1 1237 0
 1345 0064 DDD9     		bls	.L114
 1346              	.L116:
 1347              		.loc 1 1242 0
 1348 0066 0A39     		subs	r1, r1, #10
 1349              	.LVL106:
 1350              		.loc 1 1240 0
 1351 0068 8269     		ldr	r2, [r0, #24]
 1352              	.LVL107:
 1353              		.loc 1 1244 0
 1354 006a 8469     		ldr	r4, [r0, #24]
 1355              		.loc 1 1242 0
 1356 006c 01EB4101 		add	r1, r1, r1, lsl #1
 1357              	.LVL108:
 1358 0070 0722     		movs	r2, #7
 1359 0072 8A40     		lsls	r2, r2, r1
 1360              	.LVL109:
 1361              		.loc 1 1244 0
 1362 0074 24EA0202 		bic	r2, r4, r2
 1363              	.LVL110:
 1364 0078 8261     		str	r2, [r0, #24]
 1365              		.loc 1 1246 0
 1366 007a 8269     		ldr	r2, [r0, #24]
 1367 007c 03FA01F1 		lsl	r1, r3, r1
 1368              	.LVL111:
 1369 0080 1143     		orrs	r1, r1, r2
 1370 0082 8161     		str	r1, [r0, #24]
 1371              		.loc 1 1260 0
 1372 0084 30BC     		pop	{r4, r5}
 1373 0086 7047     		bx	lr
 1374              	.LVL112:
 1375              	.L112:
 1376              		.loc 1 1204 0
 1377 0088 0E2A     		cmp	r2, #14
 1378 008a 0DD8     		bhi	.L113
 1379              		.loc 1 1209 0
 1380 008c 0A3A     		subs	r2, r2, #10
 1381              	.LVL113:
 1382 008e 02EB4202 		add	r2, r2, r2, lsl #1
 1383 0092 5200     		lsls	r2, r2, #1
 1384              		.loc 1 1207 0
 1385 0094 856B     		ldr	r5, [r0, #56]
 1386              	.LVL114:
 1387              		.loc 1 1209 0
 1388 0096 1F24     		movs	r4, #31
 1389 0098 9440     		lsls	r4, r4, r2
 1390              	.LVL115:
 1391              		.loc 1 1211 0
 1392 009a 25EA0404 		bic	r4, r5, r4
 1393              	.LVL116:
 1394              		.loc 1 1213 0
 1395 009e 01FA02F2 		lsl	r2, r1, r2
 1396              	.LVL117:
 1397              		.loc 1 1215 0
 1398 00a2 2243     		orrs	r2, r2, r4
ARM GAS  /tmp/cc5F3ukv.s 			page 26


 1399              	.LVL118:
 1400              		.loc 1 1217 0
 1401 00a4 8263     		str	r2, [r0, #56]
 1402 00a6 BAE7     		b	.L111
 1403              	.LVL119:
 1404              	.L113:
 1405              		.loc 1 1224 0
 1406 00a8 0F3A     		subs	r2, r2, #15
 1407              	.LVL120:
 1408 00aa 02EB4202 		add	r2, r2, r2, lsl #1
 1409 00ae 5200     		lsls	r2, r2, #1
 1410              		.loc 1 1222 0
 1411 00b0 C56B     		ldr	r5, [r0, #60]
 1412              	.LVL121:
 1413              		.loc 1 1224 0
 1414 00b2 1F24     		movs	r4, #31
 1415 00b4 9440     		lsls	r4, r4, r2
 1416              	.LVL122:
 1417              		.loc 1 1226 0
 1418 00b6 25EA0404 		bic	r4, r5, r4
 1419              	.LVL123:
 1420              		.loc 1 1228 0
 1421 00ba 01FA02F2 		lsl	r2, r1, r2
 1422              	.LVL124:
 1423              		.loc 1 1230 0
 1424 00be 2243     		orrs	r2, r2, r4
 1425              	.LVL125:
 1426              		.loc 1 1232 0
 1427 00c0 C263     		str	r2, [r0, #60]
 1428 00c2 ACE7     		b	.L111
 1429              		.cfi_endproc
 1430              	.LFE140:
 1431              		.size	ADC_RegularChannelConfig, .-ADC_RegularChannelConfig
 1432 00c4 AFF30080 		.section	.text.ADC_RegularChannelSequencerLengthConfig,"ax",%progbits
 1432      AFF30080 
 1432      AFF30080 
 1433              		.align	2
 1434              		.p2align 4,,15
 1435              		.global	ADC_RegularChannelSequencerLengthConfig
 1436              		.thumb
 1437              		.thumb_func
 1438              		.type	ADC_RegularChannelSequencerLengthConfig, %function
 1439              	ADC_RegularChannelSequencerLengthConfig:
 1440              	.LFB141:
 1441              		.loc 1 1270 0
 1442              		.cfi_startproc
 1443              		@ args = 0, pretend = 0, frame = 0
 1444              		@ frame_needed = 0, uses_anonymous_args = 0
 1445              		@ link register save eliminated.
 1446              	.LVL126:
 1447              		.loc 1 1275 0
 1448 0000 036B     		ldr	r3, [r0, #48]
 1449 0002 23F00F03 		bic	r3, r3, #15
 1450 0006 0363     		str	r3, [r0, #48]
 1451              		.loc 1 1276 0
 1452 0008 036B     		ldr	r3, [r0, #48]
 1453 000a 0139     		subs	r1, r1, #1
ARM GAS  /tmp/cc5F3ukv.s 			page 27


 1454              	.LVL127:
 1455 000c 1943     		orrs	r1, r1, r3
 1456 000e 0163     		str	r1, [r0, #48]
 1457 0010 7047     		bx	lr
 1458              		.cfi_endproc
 1459              	.LFE141:
 1460              		.size	ADC_RegularChannelSequencerLengthConfig, .-ADC_RegularChannelSequencerLengthConfig
 1461 0012 00BFAFF3 		.section	.text.ADC_ExternalTriggerConfig,"ax",%progbits
 1461      0080AFF3 
 1461      0080AFF3 
 1461      0080
 1462              		.align	2
 1463              		.p2align 4,,15
 1464              		.global	ADC_ExternalTriggerConfig
 1465              		.thumb
 1466              		.thumb_func
 1467              		.type	ADC_ExternalTriggerConfig, %function
 1468              	ADC_ExternalTriggerConfig:
 1469              	.LFB142:
 1470              		.loc 1 1310 0
 1471              		.cfi_startproc
 1472              		@ args = 0, pretend = 0, frame = 0
 1473              		@ frame_needed = 0, uses_anonymous_args = 0
 1474              		@ link register save eliminated.
 1475              	.LVL128:
 1476              		.loc 1 1317 0
 1477 0000 C368     		ldr	r3, [r0, #12]
 1478 0002 23F47C63 		bic	r3, r3, #4032
 1479 0006 C360     		str	r3, [r0, #12]
 1480              		.loc 1 1318 0
 1481 0008 C368     		ldr	r3, [r0, #12]
 1482 000a 0A43     		orrs	r2, r2, r1
 1483              	.LVL129:
 1484 000c 1A43     		orrs	r2, r2, r3
 1485 000e C260     		str	r2, [r0, #12]
 1486 0010 7047     		bx	lr
 1487              		.cfi_endproc
 1488              	.LFE142:
 1489              		.size	ADC_ExternalTriggerConfig, .-ADC_ExternalTriggerConfig
 1490 0012 00BFAFF3 		.section	.text.ADC_StartConversion,"ax",%progbits
 1490      0080AFF3 
 1490      0080AFF3 
 1490      0080
 1491              		.align	2
 1492              		.p2align 4,,15
 1493              		.global	ADC_StartConversion
 1494              		.thumb
 1495              		.thumb_func
 1496              		.type	ADC_StartConversion, %function
 1497              	ADC_StartConversion:
 1498              	.LFB143:
 1499              		.loc 1 1327 0
 1500              		.cfi_startproc
 1501              		@ args = 0, pretend = 0, frame = 0
 1502              		@ frame_needed = 0, uses_anonymous_args = 0
 1503              		@ link register save eliminated.
 1504              	.LVL130:
ARM GAS  /tmp/cc5F3ukv.s 			page 28


 1505              		.loc 1 1332 0
 1506 0000 8368     		ldr	r3, [r0, #8]
 1507 0002 43F00403 		orr	r3, r3, #4
 1508 0006 8360     		str	r3, [r0, #8]
 1509 0008 7047     		bx	lr
 1510              		.cfi_endproc
 1511              	.LFE143:
 1512              		.size	ADC_StartConversion, .-ADC_StartConversion
 1513 000a 00BFAFF3 		.section	.text.ADC_GetStartConversionStatus,"ax",%progbits
 1513      0080
 1514              		.align	2
 1515              		.p2align 4,,15
 1516              		.global	ADC_GetStartConversionStatus
 1517              		.thumb
 1518              		.thumb_func
 1519              		.type	ADC_GetStartConversionStatus, %function
 1520              	ADC_GetStartConversionStatus:
 1521              	.LFB144:
 1522              		.loc 1 1341 0
 1523              		.cfi_startproc
 1524              		@ args = 0, pretend = 0, frame = 0
 1525              		@ frame_needed = 0, uses_anonymous_args = 0
 1526              		@ link register save eliminated.
 1527              	.LVL131:
 1528              		.loc 1 1346 0
 1529 0000 8068     		ldr	r0, [r0, #8]
 1530              	.LVL132:
 1531              		.loc 1 1358 0
 1532 0002 C0F38000 		ubfx	r0, r0, #2, #1
 1533              	.LVL133:
 1534 0006 7047     		bx	lr
 1535              		.cfi_endproc
 1536              	.LFE144:
 1537              		.size	ADC_GetStartConversionStatus, .-ADC_GetStartConversionStatus
 1538 0008 AFF30080 		.section	.text.ADC_StopConversion,"ax",%progbits
 1538      AFF30080 
 1539              		.align	2
 1540              		.p2align 4,,15
 1541              		.global	ADC_StopConversion
 1542              		.thumb
 1543              		.thumb_func
 1544              		.type	ADC_StopConversion, %function
 1545              	ADC_StopConversion:
 1546              	.LFB145:
 1547              		.loc 1 1366 0
 1548              		.cfi_startproc
 1549              		@ args = 0, pretend = 0, frame = 0
 1550              		@ frame_needed = 0, uses_anonymous_args = 0
 1551              		@ link register save eliminated.
 1552              	.LVL134:
 1553              		.loc 1 1371 0
 1554 0000 8368     		ldr	r3, [r0, #8]
 1555 0002 43F01003 		orr	r3, r3, #16
 1556 0006 8360     		str	r3, [r0, #8]
 1557 0008 7047     		bx	lr
 1558              		.cfi_endproc
 1559              	.LFE145:
ARM GAS  /tmp/cc5F3ukv.s 			page 29


 1560              		.size	ADC_StopConversion, .-ADC_StopConversion
 1561 000a 00BFAFF3 		.section	.text.ADC_DiscModeChannelCountConfig,"ax",%progbits
 1561      0080
 1562              		.align	2
 1563              		.p2align 4,,15
 1564              		.global	ADC_DiscModeChannelCountConfig
 1565              		.thumb
 1566              		.thumb_func
 1567              		.type	ADC_DiscModeChannelCountConfig, %function
 1568              	ADC_DiscModeChannelCountConfig:
 1569              	.LFB146:
 1570              		.loc 1 1384 0
 1571              		.cfi_startproc
 1572              		@ args = 0, pretend = 0, frame = 0
 1573              		@ frame_needed = 0, uses_anonymous_args = 0
 1574              		@ link register save eliminated.
 1575              	.LVL135:
 1576              		.loc 1 1391 0
 1577 0000 C368     		ldr	r3, [r0, #12]
 1578              	.LVL136:
 1579              		.loc 1 1395 0
 1580 0002 0139     		subs	r1, r1, #1
 1581              	.LVL137:
 1582              		.loc 1 1393 0
 1583 0004 23F46023 		bic	r3, r3, #917504
 1584              	.LVL138:
 1585              		.loc 1 1396 0
 1586 0008 43EA4141 		orr	r1, r3, r1, lsl #17
 1587              	.LVL139:
 1588              		.loc 1 1398 0
 1589 000c C160     		str	r1, [r0, #12]
 1590 000e 7047     		bx	lr
 1591              		.cfi_endproc
 1592              	.LFE146:
 1593              		.size	ADC_DiscModeChannelCountConfig, .-ADC_DiscModeChannelCountConfig
 1594              		.section	.text.ADC_DiscModeCmd,"ax",%progbits
 1595              		.align	2
 1596              		.p2align 4,,15
 1597              		.global	ADC_DiscModeCmd
 1598              		.thumb
 1599              		.thumb_func
 1600              		.type	ADC_DiscModeCmd, %function
 1601              	ADC_DiscModeCmd:
 1602              	.LFB147:
 1603              		.loc 1 1411 0
 1604              		.cfi_startproc
 1605              		@ args = 0, pretend = 0, frame = 0
 1606              		@ frame_needed = 0, uses_anonymous_args = 0
 1607              		@ link register save eliminated.
 1608              	.LVL140:
 1609              		.loc 1 1418 0
 1610 0000 C368     		ldr	r3, [r0, #12]
 1611              		.loc 1 1415 0
 1612 0002 19B9     		cbnz	r1, .L126
 1613              		.loc 1 1423 0
 1614 0004 23F48033 		bic	r3, r3, #65536
 1615 0008 C360     		str	r3, [r0, #12]
ARM GAS  /tmp/cc5F3ukv.s 			page 30


 1616 000a 7047     		bx	lr
 1617              	.L126:
 1618              		.loc 1 1418 0
 1619 000c 43F48033 		orr	r3, r3, #65536
 1620 0010 C360     		str	r3, [r0, #12]
 1621 0012 7047     		bx	lr
 1622              		.cfi_endproc
 1623              	.LFE147:
 1624              		.size	ADC_DiscModeCmd, .-ADC_DiscModeCmd
 1625 0014 AFF30080 		.section	.text.ADC_GetConversionValue,"ax",%progbits
 1625      AFF30080 
 1625      AFF30080 
 1626              		.align	2
 1627              		.p2align 4,,15
 1628              		.global	ADC_GetConversionValue
 1629              		.thumb
 1630              		.thumb_func
 1631              		.type	ADC_GetConversionValue, %function
 1632              	ADC_GetConversionValue:
 1633              	.LFB148:
 1634              		.loc 1 1433 0
 1635              		.cfi_startproc
 1636              		@ args = 0, pretend = 0, frame = 0
 1637              		@ frame_needed = 0, uses_anonymous_args = 0
 1638              		@ link register save eliminated.
 1639              	.LVL141:
 1640              		.loc 1 1437 0
 1641 0000 006C     		ldr	r0, [r0, #64]
 1642              	.LVL142:
 1643              		.loc 1 1438 0
 1644 0002 80B2     		uxth	r0, r0
 1645 0004 7047     		bx	lr
 1646              		.cfi_endproc
 1647              	.LFE148:
 1648              		.size	ADC_GetConversionValue, .-ADC_GetConversionValue
 1649 0006 00BFAFF3 		.section	.text.ADC_GetDualModeConversionValue,"ax",%progbits
 1649      0080AFF3 
 1649      0080
 1650              		.align	2
 1651              		.p2align 4,,15
 1652              		.global	ADC_GetDualModeConversionValue
 1653              		.thumb
 1654              		.thumb_func
 1655              		.type	ADC_GetDualModeConversionValue, %function
 1656              	ADC_GetDualModeConversionValue:
 1657              	.LFB149:
 1658              		.loc 1 1450 0
 1659              		.cfi_startproc
 1660              		@ args = 0, pretend = 0, frame = 0
 1661              		@ frame_needed = 0, uses_anonymous_args = 0
 1662              		@ link register save eliminated.
 1663              	.LVL143:
 1664              		.loc 1 1456 0
 1665 0000 B0F1A04F 		cmp	r0, #1342177280
 1666 0004 05D0     		beq	.L129
 1667              		.loc 1 1456 0 is_stmt 0 discriminator 1
 1668 0006 044B     		ldr	r3, .L135
ARM GAS  /tmp/cc5F3ukv.s 			page 31


 1669 0008 9842     		cmp	r0, r3
 1670 000a 02D0     		beq	.L129
 1671              		.loc 1 1464 0 is_stmt 1
 1672 000c 034B     		ldr	r3, .L135+4
 1673 000e D868     		ldr	r0, [r3, #12]
 1674              	.LVL144:
 1675              		.loc 1 1468 0
 1676 0010 7047     		bx	lr
 1677              	.LVL145:
 1678              	.L129:
 1679              		.loc 1 1459 0
 1680 0012 034B     		ldr	r3, .L135+8
 1681 0014 D868     		ldr	r0, [r3, #12]
 1682              	.LVL146:
 1683 0016 7047     		bx	lr
 1684              	.L136:
 1685              		.align	2
 1686              	.L135:
 1687 0018 00010050 		.word	1342177536
 1688 001c 00070050 		.word	1342179072
 1689 0020 00030050 		.word	1342178048
 1690              		.cfi_endproc
 1691              	.LFE149:
 1692              		.size	ADC_GetDualModeConversionValue, .-ADC_GetDualModeConversionValue
 1693 0024 AFF30080 		.section	.text.ADC_SetChannelOffset1,"ax",%progbits
 1693      AFF30080 
 1693      AFF30080 
 1694              		.align	2
 1695              		.p2align 4,,15
 1696              		.global	ADC_SetChannelOffset1
 1697              		.thumb
 1698              		.thumb_func
 1699              		.type	ADC_SetChannelOffset1, %function
 1700              	ADC_SetChannelOffset1:
 1701              	.LFB150:
 1702              		.loc 1 1498 0
 1703              		.cfi_startproc
 1704              		@ args = 0, pretend = 0, frame = 0
 1705              		@ frame_needed = 0, uses_anonymous_args = 0
 1706              		@ link register save eliminated.
 1707              	.LVL147:
 1708              		.loc 1 1505 0
 1709 0000 036E     		ldr	r3, [r0, #96]
 1710 0002 23F0F843 		bic	r3, r3, #2080374784
 1711 0006 0366     		str	r3, [r0, #96]
 1712              		.loc 1 1506 0
 1713 0008 036E     		ldr	r3, [r0, #96]
 1714 000a 43EA8161 		orr	r1, r3, r1, lsl #26
 1715              	.LVL148:
 1716 000e 0166     		str	r1, [r0, #96]
 1717              		.loc 1 1509 0
 1718 0010 036E     		ldr	r3, [r0, #96]
 1719 0012 23F47F63 		bic	r3, r3, #4080
 1720 0016 23F00F03 		bic	r3, r3, #15
 1721 001a 0366     		str	r3, [r0, #96]
 1722              		.loc 1 1510 0
 1723 001c 036E     		ldr	r3, [r0, #96]
ARM GAS  /tmp/cc5F3ukv.s 			page 32


 1724 001e 1A43     		orrs	r2, r2, r3
 1725              	.LVL149:
 1726 0020 0266     		str	r2, [r0, #96]
 1727 0022 7047     		bx	lr
 1728              		.cfi_endproc
 1729              	.LFE150:
 1730              		.size	ADC_SetChannelOffset1, .-ADC_SetChannelOffset1
 1731 0024 AFF30080 		.section	.text.ADC_SetChannelOffset2,"ax",%progbits
 1731      AFF30080 
 1731      AFF30080 
 1732              		.align	2
 1733              		.p2align 4,,15
 1734              		.global	ADC_SetChannelOffset2
 1735              		.thumb
 1736              		.thumb_func
 1737              		.type	ADC_SetChannelOffset2, %function
 1738              	ADC_SetChannelOffset2:
 1739              	.LFB151:
 1740              		.loc 1 1541 0
 1741              		.cfi_startproc
 1742              		@ args = 0, pretend = 0, frame = 0
 1743              		@ frame_needed = 0, uses_anonymous_args = 0
 1744              		@ link register save eliminated.
 1745              	.LVL150:
 1746              		.loc 1 1548 0
 1747 0000 436E     		ldr	r3, [r0, #100]
 1748 0002 23F0F843 		bic	r3, r3, #2080374784
 1749 0006 4366     		str	r3, [r0, #100]
 1750              		.loc 1 1549 0
 1751 0008 436E     		ldr	r3, [r0, #100]
 1752 000a 43EA8161 		orr	r1, r3, r1, lsl #26
 1753              	.LVL151:
 1754 000e 4166     		str	r1, [r0, #100]
 1755              		.loc 1 1552 0
 1756 0010 436E     		ldr	r3, [r0, #100]
 1757 0012 23F47F63 		bic	r3, r3, #4080
 1758 0016 23F00F03 		bic	r3, r3, #15
 1759 001a 4366     		str	r3, [r0, #100]
 1760              		.loc 1 1553 0
 1761 001c 436E     		ldr	r3, [r0, #100]
 1762 001e 1A43     		orrs	r2, r2, r3
 1763              	.LVL152:
 1764 0020 4266     		str	r2, [r0, #100]
 1765 0022 7047     		bx	lr
 1766              		.cfi_endproc
 1767              	.LFE151:
 1768              		.size	ADC_SetChannelOffset2, .-ADC_SetChannelOffset2
 1769 0024 AFF30080 		.section	.text.ADC_SetChannelOffset3,"ax",%progbits
 1769      AFF30080 
 1769      AFF30080 
 1770              		.align	2
 1771              		.p2align 4,,15
 1772              		.global	ADC_SetChannelOffset3
 1773              		.thumb
 1774              		.thumb_func
 1775              		.type	ADC_SetChannelOffset3, %function
 1776              	ADC_SetChannelOffset3:
ARM GAS  /tmp/cc5F3ukv.s 			page 33


 1777              	.LFB152:
 1778              		.loc 1 1584 0
 1779              		.cfi_startproc
 1780              		@ args = 0, pretend = 0, frame = 0
 1781              		@ frame_needed = 0, uses_anonymous_args = 0
 1782              		@ link register save eliminated.
 1783              	.LVL153:
 1784              		.loc 1 1591 0
 1785 0000 836E     		ldr	r3, [r0, #104]
 1786 0002 23F0F843 		bic	r3, r3, #2080374784
 1787 0006 8366     		str	r3, [r0, #104]
 1788              		.loc 1 1592 0
 1789 0008 836E     		ldr	r3, [r0, #104]
 1790 000a 43EA8161 		orr	r1, r3, r1, lsl #26
 1791              	.LVL154:
 1792 000e 8166     		str	r1, [r0, #104]
 1793              		.loc 1 1595 0
 1794 0010 836E     		ldr	r3, [r0, #104]
 1795 0012 23F47F63 		bic	r3, r3, #4080
 1796 0016 23F00F03 		bic	r3, r3, #15
 1797 001a 8366     		str	r3, [r0, #104]
 1798              		.loc 1 1596 0
 1799 001c 836E     		ldr	r3, [r0, #104]
 1800 001e 1A43     		orrs	r2, r2, r3
 1801              	.LVL155:
 1802 0020 8266     		str	r2, [r0, #104]
 1803 0022 7047     		bx	lr
 1804              		.cfi_endproc
 1805              	.LFE152:
 1806              		.size	ADC_SetChannelOffset3, .-ADC_SetChannelOffset3
 1807 0024 AFF30080 		.section	.text.ADC_SetChannelOffset4,"ax",%progbits
 1807      AFF30080 
 1807      AFF30080 
 1808              		.align	2
 1809              		.p2align 4,,15
 1810              		.global	ADC_SetChannelOffset4
 1811              		.thumb
 1812              		.thumb_func
 1813              		.type	ADC_SetChannelOffset4, %function
 1814              	ADC_SetChannelOffset4:
 1815              	.LFB153:
 1816              		.loc 1 1627 0
 1817              		.cfi_startproc
 1818              		@ args = 0, pretend = 0, frame = 0
 1819              		@ frame_needed = 0, uses_anonymous_args = 0
 1820              		@ link register save eliminated.
 1821              	.LVL156:
 1822              		.loc 1 1634 0
 1823 0000 C36E     		ldr	r3, [r0, #108]
 1824 0002 23F0F843 		bic	r3, r3, #2080374784
 1825 0006 C366     		str	r3, [r0, #108]
 1826              		.loc 1 1635 0
 1827 0008 C36E     		ldr	r3, [r0, #108]
 1828 000a 43EA8161 		orr	r1, r3, r1, lsl #26
 1829              	.LVL157:
 1830 000e C166     		str	r1, [r0, #108]
 1831              		.loc 1 1638 0
ARM GAS  /tmp/cc5F3ukv.s 			page 34


 1832 0010 C36E     		ldr	r3, [r0, #108]
 1833 0012 23F47F63 		bic	r3, r3, #4080
 1834 0016 23F00F03 		bic	r3, r3, #15
 1835 001a C366     		str	r3, [r0, #108]
 1836              		.loc 1 1639 0
 1837 001c C36E     		ldr	r3, [r0, #108]
 1838 001e 1A43     		orrs	r2, r2, r3
 1839              	.LVL158:
 1840 0020 C266     		str	r2, [r0, #108]
 1841 0022 7047     		bx	lr
 1842              		.cfi_endproc
 1843              	.LFE153:
 1844              		.size	ADC_SetChannelOffset4, .-ADC_SetChannelOffset4
 1845 0024 AFF30080 		.section	.text.ADC_ChannelOffset1Cmd,"ax",%progbits
 1845      AFF30080 
 1845      AFF30080 
 1846              		.align	2
 1847              		.p2align 4,,15
 1848              		.global	ADC_ChannelOffset1Cmd
 1849              		.thumb
 1850              		.thumb_func
 1851              		.type	ADC_ChannelOffset1Cmd, %function
 1852              	ADC_ChannelOffset1Cmd:
 1853              	.LFB154:
 1854              		.loc 1 1650 0
 1855              		.cfi_startproc
 1856              		@ args = 0, pretend = 0, frame = 0
 1857              		@ frame_needed = 0, uses_anonymous_args = 0
 1858              		@ link register save eliminated.
 1859              	.LVL159:
 1860              		.loc 1 1658 0
 1861 0000 036E     		ldr	r3, [r0, #96]
 1862              		.loc 1 1655 0
 1863 0002 19B9     		cbnz	r1, .L144
 1864              		.loc 1 1663 0
 1865 0004 23F00043 		bic	r3, r3, #-2147483648
 1866 0008 0366     		str	r3, [r0, #96]
 1867 000a 7047     		bx	lr
 1868              	.L144:
 1869              		.loc 1 1658 0
 1870 000c 43F00043 		orr	r3, r3, #-2147483648
 1871 0010 0366     		str	r3, [r0, #96]
 1872 0012 7047     		bx	lr
 1873              		.cfi_endproc
 1874              	.LFE154:
 1875              		.size	ADC_ChannelOffset1Cmd, .-ADC_ChannelOffset1Cmd
 1876 0014 AFF30080 		.section	.text.ADC_ChannelOffset2Cmd,"ax",%progbits
 1876      AFF30080 
 1876      AFF30080 
 1877              		.align	2
 1878              		.p2align 4,,15
 1879              		.global	ADC_ChannelOffset2Cmd
 1880              		.thumb
 1881              		.thumb_func
 1882              		.type	ADC_ChannelOffset2Cmd, %function
 1883              	ADC_ChannelOffset2Cmd:
 1884              	.LFB155:
ARM GAS  /tmp/cc5F3ukv.s 			page 35


 1885              		.loc 1 1675 0
 1886              		.cfi_startproc
 1887              		@ args = 0, pretend = 0, frame = 0
 1888              		@ frame_needed = 0, uses_anonymous_args = 0
 1889              		@ link register save eliminated.
 1890              	.LVL160:
 1891              		.loc 1 1683 0
 1892 0000 436E     		ldr	r3, [r0, #100]
 1893              		.loc 1 1680 0
 1894 0002 19B9     		cbnz	r1, .L148
 1895              		.loc 1 1688 0
 1896 0004 23F00043 		bic	r3, r3, #-2147483648
 1897 0008 4366     		str	r3, [r0, #100]
 1898 000a 7047     		bx	lr
 1899              	.L148:
 1900              		.loc 1 1683 0
 1901 000c 43F00043 		orr	r3, r3, #-2147483648
 1902 0010 4366     		str	r3, [r0, #100]
 1903 0012 7047     		bx	lr
 1904              		.cfi_endproc
 1905              	.LFE155:
 1906              		.size	ADC_ChannelOffset2Cmd, .-ADC_ChannelOffset2Cmd
 1907 0014 AFF30080 		.section	.text.ADC_ChannelOffset3Cmd,"ax",%progbits
 1907      AFF30080 
 1907      AFF30080 
 1908              		.align	2
 1909              		.p2align 4,,15
 1910              		.global	ADC_ChannelOffset3Cmd
 1911              		.thumb
 1912              		.thumb_func
 1913              		.type	ADC_ChannelOffset3Cmd, %function
 1914              	ADC_ChannelOffset3Cmd:
 1915              	.LFB156:
 1916              		.loc 1 1700 0
 1917              		.cfi_startproc
 1918              		@ args = 0, pretend = 0, frame = 0
 1919              		@ frame_needed = 0, uses_anonymous_args = 0
 1920              		@ link register save eliminated.
 1921              	.LVL161:
 1922              		.loc 1 1708 0
 1923 0000 836E     		ldr	r3, [r0, #104]
 1924              		.loc 1 1705 0
 1925 0002 19B9     		cbnz	r1, .L152
 1926              		.loc 1 1713 0
 1927 0004 23F00043 		bic	r3, r3, #-2147483648
 1928 0008 8366     		str	r3, [r0, #104]
 1929 000a 7047     		bx	lr
 1930              	.L152:
 1931              		.loc 1 1708 0
 1932 000c 43F00043 		orr	r3, r3, #-2147483648
 1933 0010 8366     		str	r3, [r0, #104]
 1934 0012 7047     		bx	lr
 1935              		.cfi_endproc
 1936              	.LFE156:
 1937              		.size	ADC_ChannelOffset3Cmd, .-ADC_ChannelOffset3Cmd
 1938 0014 AFF30080 		.section	.text.ADC_ChannelOffset4Cmd,"ax",%progbits
 1938      AFF30080 
ARM GAS  /tmp/cc5F3ukv.s 			page 36


 1938      AFF30080 
 1939              		.align	2
 1940              		.p2align 4,,15
 1941              		.global	ADC_ChannelOffset4Cmd
 1942              		.thumb
 1943              		.thumb_func
 1944              		.type	ADC_ChannelOffset4Cmd, %function
 1945              	ADC_ChannelOffset4Cmd:
 1946              	.LFB157:
 1947              		.loc 1 1725 0
 1948              		.cfi_startproc
 1949              		@ args = 0, pretend = 0, frame = 0
 1950              		@ frame_needed = 0, uses_anonymous_args = 0
 1951              		@ link register save eliminated.
 1952              	.LVL162:
 1953              		.loc 1 1733 0
 1954 0000 C36E     		ldr	r3, [r0, #108]
 1955              		.loc 1 1730 0
 1956 0002 19B9     		cbnz	r1, .L156
 1957              		.loc 1 1738 0
 1958 0004 23F00043 		bic	r3, r3, #-2147483648
 1959 0008 C366     		str	r3, [r0, #108]
 1960 000a 7047     		bx	lr
 1961              	.L156:
 1962              		.loc 1 1733 0
 1963 000c 43F00043 		orr	r3, r3, #-2147483648
 1964 0010 C366     		str	r3, [r0, #108]
 1965 0012 7047     		bx	lr
 1966              		.cfi_endproc
 1967              	.LFE157:
 1968              		.size	ADC_ChannelOffset4Cmd, .-ADC_ChannelOffset4Cmd
 1969 0014 AFF30080 		.section	.text.ADC_DMACmd,"ax",%progbits
 1969      AFF30080 
 1969      AFF30080 
 1970              		.align	2
 1971              		.p2align 4,,15
 1972              		.global	ADC_DMACmd
 1973              		.thumb
 1974              		.thumb_func
 1975              		.type	ADC_DMACmd, %function
 1976              	ADC_DMACmd:
 1977              	.LFB158:
 1978              		.loc 1 1776 0
 1979              		.cfi_startproc
 1980              		@ args = 0, pretend = 0, frame = 0
 1981              		@ frame_needed = 0, uses_anonymous_args = 0
 1982              		@ link register save eliminated.
 1983              	.LVL163:
 1984              		.loc 1 1783 0
 1985 0000 C368     		ldr	r3, [r0, #12]
 1986              		.loc 1 1780 0
 1987 0002 19B9     		cbnz	r1, .L160
 1988              		.loc 1 1788 0
 1989 0004 23F00103 		bic	r3, r3, #1
 1990 0008 C360     		str	r3, [r0, #12]
 1991 000a 7047     		bx	lr
 1992              	.L160:
ARM GAS  /tmp/cc5F3ukv.s 			page 37


 1993              		.loc 1 1783 0
 1994 000c 43F00103 		orr	r3, r3, #1
 1995 0010 C360     		str	r3, [r0, #12]
 1996 0012 7047     		bx	lr
 1997              		.cfi_endproc
 1998              	.LFE158:
 1999              		.size	ADC_DMACmd, .-ADC_DMACmd
 2000 0014 AFF30080 		.section	.text.ADC_DMAConfig,"ax",%progbits
 2000      AFF30080 
 2000      AFF30080 
 2001              		.align	2
 2002              		.p2align 4,,15
 2003              		.global	ADC_DMAConfig
 2004              		.thumb
 2005              		.thumb_func
 2006              		.type	ADC_DMAConfig, %function
 2007              	ADC_DMAConfig:
 2008              	.LFB159:
 2009              		.loc 1 1800 0
 2010              		.cfi_startproc
 2011              		@ args = 0, pretend = 0, frame = 0
 2012              		@ frame_needed = 0, uses_anonymous_args = 0
 2013              		@ link register save eliminated.
 2014              	.LVL164:
 2015              		.loc 1 1806 0
 2016 0000 C368     		ldr	r3, [r0, #12]
 2017 0002 23F00203 		bic	r3, r3, #2
 2018 0006 C360     		str	r3, [r0, #12]
 2019              		.loc 1 1807 0
 2020 0008 C368     		ldr	r3, [r0, #12]
 2021 000a 1943     		orrs	r1, r1, r3
 2022              	.LVL165:
 2023 000c C160     		str	r1, [r0, #12]
 2024 000e 7047     		bx	lr
 2025              		.cfi_endproc
 2026              	.LFE159:
 2027              		.size	ADC_DMAConfig, .-ADC_DMAConfig
 2028              		.section	.text.ADC_InjectedChannelConfig,"ax",%progbits
 2029              		.align	2
 2030              		.p2align 4,,15
 2031              		.global	ADC_InjectedChannelConfig
 2032              		.thumb
 2033              		.thumb_func
 2034              		.type	ADC_InjectedChannelConfig, %function
 2035              	ADC_InjectedChannelConfig:
 2036              	.LFB160:
 2037              		.loc 1 1881 0
 2038              		.cfi_startproc
 2039              		@ args = 0, pretend = 0, frame = 0
 2040              		@ frame_needed = 0, uses_anonymous_args = 0
 2041              		@ link register save eliminated.
 2042              	.LVL166:
 2043              		.loc 1 1890 0
 2044 0000 0929     		cmp	r1, #9
 2045              		.loc 1 1881 0
 2046 0002 70B4     		push	{r4, r5, r6}
 2047              		.cfi_def_cfa_offset 12
ARM GAS  /tmp/cc5F3ukv.s 			page 38


 2048              		.cfi_offset 4, -12
 2049              		.cfi_offset 5, -8
 2050              		.cfi_offset 6, -4
 2051              		.loc 1 1890 0
 2052 0004 1AD8     		bhi	.L165
 2053              		.loc 1 1910 0
 2054 0006 01EB4104 		add	r4, r1, r1, lsl #1
 2055              		.loc 1 1908 0
 2056 000a 4569     		ldr	r5, [r0, #20]
 2057              	.LVL167:
 2058              		.loc 1 1910 0
 2059 000c 0726     		movs	r6, #7
 2060 000e A640     		lsls	r6, r6, r4
 2061              	.LVL168:
 2062              		.loc 1 1914 0
 2063 0010 03FA04F4 		lsl	r4, r3, r4
 2064              		.loc 1 1912 0
 2065 0014 25EA0603 		bic	r3, r5, r6
 2066              	.LVL169:
 2067              		.loc 1 1916 0
 2068 0018 2343     		orrs	r3, r3, r4
 2069              	.LVL170:
 2070              		.loc 1 1918 0
 2071 001a 4361     		str	r3, [r0, #20]
 2072              	.L164:
 2073              		.loc 1 1925 0
 2074 001c 531E     		subs	r3, r2, #1
 2075              	.LVL171:
 2076 001e 03EB4303 		add	r3, r3, r3, lsl #1
 2077              		.loc 1 1923 0
 2078 0022 C46C     		ldr	r4, [r0, #76]
 2079              	.LVL172:
 2080              		.loc 1 1925 0
 2081 0024 5B00     		lsls	r3, r3, #1
 2082              	.LVL173:
 2083 0026 4FF4F852 		mov	r2, #7936
 2084              	.LVL174:
 2085 002a 9A40     		lsls	r2, r2, r3
 2086              	.LVL175:
 2087              		.loc 1 1927 0
 2088 002c 24EA0202 		bic	r2, r4, r2
 2089              	.LVL176:
 2090              		.loc 1 1929 0
 2091 0030 01FA03F3 		lsl	r3, r1, r3
 2092              	.LVL177:
 2093              		.loc 1 1931 0
 2094 0034 1343     		orrs	r3, r3, r2
 2095              	.LVL178:
 2096              		.loc 1 1933 0
 2097 0036 C364     		str	r3, [r0, #76]
 2098              		.loc 1 1934 0
 2099 0038 70BC     		pop	{r4, r5, r6}
 2100 003a 7047     		bx	lr
 2101              	.LVL179:
 2102              	.L165:
 2103              		.loc 1 1895 0
 2104 003c A1F10A04 		sub	r4, r1, #10
ARM GAS  /tmp/cc5F3ukv.s 			page 39


 2105 0040 04EB4404 		add	r4, r4, r4, lsl #1
 2106              		.loc 1 1893 0
 2107 0044 8569     		ldr	r5, [r0, #24]
 2108              	.LVL180:
 2109              		.loc 1 1895 0
 2110 0046 0726     		movs	r6, #7
 2111 0048 A640     		lsls	r6, r6, r4
 2112              	.LVL181:
 2113              		.loc 1 1899 0
 2114 004a 03FA04F4 		lsl	r4, r3, r4
 2115              		.loc 1 1897 0
 2116 004e 25EA0603 		bic	r3, r5, r6
 2117              	.LVL182:
 2118              		.loc 1 1901 0
 2119 0052 2343     		orrs	r3, r3, r4
 2120              	.LVL183:
 2121              		.loc 1 1903 0
 2122 0054 8361     		str	r3, [r0, #24]
 2123 0056 E1E7     		b	.L164
 2124              		.cfi_endproc
 2125              	.LFE160:
 2126              		.size	ADC_InjectedChannelConfig, .-ADC_InjectedChannelConfig
 2127 0058 AFF30080 		.section	.text.ADC_InjectedSequencerLengthConfig,"ax",%progbits
 2127      AFF30080 
 2128              		.align	2
 2129              		.p2align 4,,15
 2130              		.global	ADC_InjectedSequencerLengthConfig
 2131              		.thumb
 2132              		.thumb_func
 2133              		.type	ADC_InjectedSequencerLengthConfig, %function
 2134              	ADC_InjectedSequencerLengthConfig:
 2135              	.LFB161:
 2136              		.loc 1 1944 0
 2137              		.cfi_startproc
 2138              		@ args = 0, pretend = 0, frame = 0
 2139              		@ frame_needed = 0, uses_anonymous_args = 0
 2140              		@ link register save eliminated.
 2141              	.LVL184:
 2142              		.loc 1 1951 0
 2143 0000 C36C     		ldr	r3, [r0, #76]
 2144              	.LVL185:
 2145              		.loc 1 1955 0
 2146 0002 0139     		subs	r1, r1, #1
 2147              	.LVL186:
 2148              		.loc 1 1953 0
 2149 0004 23F00303 		bic	r3, r3, #3
 2150              	.LVL187:
 2151              		.loc 1 1955 0
 2152 0008 1943     		orrs	r1, r1, r3
 2153              	.LVL188:
 2154              		.loc 1 1957 0
 2155 000a C164     		str	r1, [r0, #76]
 2156 000c 7047     		bx	lr
 2157              		.cfi_endproc
 2158              	.LFE161:
 2159              		.size	ADC_InjectedSequencerLengthConfig, .-ADC_InjectedSequencerLengthConfig
 2160 000e 00BF     		.section	.text.ADC_ExternalTriggerInjectedConfig,"ax",%progbits
ARM GAS  /tmp/cc5F3ukv.s 			page 40


 2161              		.align	2
 2162              		.p2align 4,,15
 2163              		.global	ADC_ExternalTriggerInjectedConfig
 2164              		.thumb
 2165              		.thumb_func
 2166              		.type	ADC_ExternalTriggerInjectedConfig, %function
 2167              	ADC_ExternalTriggerInjectedConfig:
 2168              	.LFB162:
 2169              		.loc 1 1991 0
 2170              		.cfi_startproc
 2171              		@ args = 0, pretend = 0, frame = 0
 2172              		@ frame_needed = 0, uses_anonymous_args = 0
 2173              		@ link register save eliminated.
 2174              	.LVL189:
 2175              		.loc 1 1998 0
 2176 0000 C36C     		ldr	r3, [r0, #76]
 2177 0002 23F0FC03 		bic	r3, r3, #252
 2178 0006 C364     		str	r3, [r0, #76]
 2179              		.loc 1 1999 0
 2180 0008 C36C     		ldr	r3, [r0, #76]
 2181 000a 0A43     		orrs	r2, r2, r1
 2182              	.LVL190:
 2183 000c 1A43     		orrs	r2, r2, r3
 2184 000e C264     		str	r2, [r0, #76]
 2185 0010 7047     		bx	lr
 2186              		.cfi_endproc
 2187              	.LFE162:
 2188              		.size	ADC_ExternalTriggerInjectedConfig, .-ADC_ExternalTriggerInjectedConfig
 2189 0012 00BFAFF3 		.section	.text.ADC_StartInjectedConversion,"ax",%progbits
 2189      0080AFF3 
 2189      0080AFF3 
 2189      0080
 2190              		.align	2
 2191              		.p2align 4,,15
 2192              		.global	ADC_StartInjectedConversion
 2193              		.thumb
 2194              		.thumb_func
 2195              		.type	ADC_StartInjectedConversion, %function
 2196              	ADC_StartInjectedConversion:
 2197              	.LFB163:
 2198              		.loc 1 2011 0
 2199              		.cfi_startproc
 2200              		@ args = 0, pretend = 0, frame = 0
 2201              		@ frame_needed = 0, uses_anonymous_args = 0
 2202              		@ link register save eliminated.
 2203              	.LVL191:
 2204              		.loc 1 2017 0
 2205 0000 8368     		ldr	r3, [r0, #8]
 2206 0002 43F00803 		orr	r3, r3, #8
 2207 0006 8360     		str	r3, [r0, #8]
 2208 0008 7047     		bx	lr
 2209              		.cfi_endproc
 2210              	.LFE163:
 2211              		.size	ADC_StartInjectedConversion, .-ADC_StartInjectedConversion
 2212 000a 00BFAFF3 		.section	.text.ADC_StopInjectedConversion,"ax",%progbits
 2212      0080
 2213              		.align	2
ARM GAS  /tmp/cc5F3ukv.s 			page 41


 2214              		.p2align 4,,15
 2215              		.global	ADC_StopInjectedConversion
 2216              		.thumb
 2217              		.thumb_func
 2218              		.type	ADC_StopInjectedConversion, %function
 2219              	ADC_StopInjectedConversion:
 2220              	.LFB164:
 2221              		.loc 1 2026 0
 2222              		.cfi_startproc
 2223              		@ args = 0, pretend = 0, frame = 0
 2224              		@ frame_needed = 0, uses_anonymous_args = 0
 2225              		@ link register save eliminated.
 2226              	.LVL192:
 2227              		.loc 1 2031 0
 2228 0000 8368     		ldr	r3, [r0, #8]
 2229 0002 43F02003 		orr	r3, r3, #32
 2230 0006 8360     		str	r3, [r0, #8]
 2231 0008 7047     		bx	lr
 2232              		.cfi_endproc
 2233              	.LFE164:
 2234              		.size	ADC_StopInjectedConversion, .-ADC_StopInjectedConversion
 2235 000a 00BFAFF3 		.section	.text.ADC_GetStartInjectedConversionStatus,"ax",%progbits
 2235      0080
 2236              		.align	2
 2237              		.p2align 4,,15
 2238              		.global	ADC_GetStartInjectedConversionStatus
 2239              		.thumb
 2240              		.thumb_func
 2241              		.type	ADC_GetStartInjectedConversionStatus, %function
 2242              	ADC_GetStartInjectedConversionStatus:
 2243              	.LFB165:
 2244              		.loc 1 2040 0
 2245              		.cfi_startproc
 2246              		@ args = 0, pretend = 0, frame = 0
 2247              		@ frame_needed = 0, uses_anonymous_args = 0
 2248              		@ link register save eliminated.
 2249              	.LVL193:
 2250              		.loc 1 2046 0
 2251 0000 8068     		ldr	r0, [r0, #8]
 2252              	.LVL194:
 2253              		.loc 1 2058 0
 2254 0002 C0F3C000 		ubfx	r0, r0, #3, #1
 2255              	.LVL195:
 2256 0006 7047     		bx	lr
 2257              		.cfi_endproc
 2258              	.LFE165:
 2259              		.size	ADC_GetStartInjectedConversionStatus, .-ADC_GetStartInjectedConversionStatus
 2260 0008 AFF30080 		.section	.text.ADC_AutoInjectedConvCmd,"ax",%progbits
 2260      AFF30080 
 2261              		.align	2
 2262              		.p2align 4,,15
 2263              		.global	ADC_AutoInjectedConvCmd
 2264              		.thumb
 2265              		.thumb_func
 2266              		.type	ADC_AutoInjectedConvCmd, %function
 2267              	ADC_AutoInjectedConvCmd:
 2268              	.LFB166:
ARM GAS  /tmp/cc5F3ukv.s 			page 42


 2269              		.loc 1 2069 0
 2270              		.cfi_startproc
 2271              		@ args = 0, pretend = 0, frame = 0
 2272              		@ frame_needed = 0, uses_anonymous_args = 0
 2273              		@ link register save eliminated.
 2274              	.LVL196:
 2275              		.loc 1 2076 0
 2276 0000 C368     		ldr	r3, [r0, #12]
 2277              		.loc 1 2073 0
 2278 0002 19B9     		cbnz	r1, .L174
 2279              		.loc 1 2081 0
 2280 0004 23F00073 		bic	r3, r3, #33554432
 2281 0008 C360     		str	r3, [r0, #12]
 2282 000a 7047     		bx	lr
 2283              	.L174:
 2284              		.loc 1 2076 0
 2285 000c 43F00073 		orr	r3, r3, #33554432
 2286 0010 C360     		str	r3, [r0, #12]
 2287 0012 7047     		bx	lr
 2288              		.cfi_endproc
 2289              	.LFE166:
 2290              		.size	ADC_AutoInjectedConvCmd, .-ADC_AutoInjectedConvCmd
 2291 0014 AFF30080 		.section	.text.ADC_InjectedDiscModeCmd,"ax",%progbits
 2291      AFF30080 
 2291      AFF30080 
 2292              		.align	2
 2293              		.p2align 4,,15
 2294              		.global	ADC_InjectedDiscModeCmd
 2295              		.thumb
 2296              		.thumb_func
 2297              		.type	ADC_InjectedDiscModeCmd, %function
 2298              	ADC_InjectedDiscModeCmd:
 2299              	.LFB167:
 2300              		.loc 1 2095 0
 2301              		.cfi_startproc
 2302              		@ args = 0, pretend = 0, frame = 0
 2303              		@ frame_needed = 0, uses_anonymous_args = 0
 2304              		@ link register save eliminated.
 2305              	.LVL197:
 2306              		.loc 1 2102 0
 2307 0000 C368     		ldr	r3, [r0, #12]
 2308              		.loc 1 2099 0
 2309 0002 19B9     		cbnz	r1, .L178
 2310              		.loc 1 2107 0
 2311 0004 23F48013 		bic	r3, r3, #1048576
 2312 0008 C360     		str	r3, [r0, #12]
 2313 000a 7047     		bx	lr
 2314              	.L178:
 2315              		.loc 1 2102 0
 2316 000c 43F48013 		orr	r3, r3, #1048576
 2317 0010 C360     		str	r3, [r0, #12]
 2318 0012 7047     		bx	lr
 2319              		.cfi_endproc
 2320              	.LFE167:
 2321              		.size	ADC_InjectedDiscModeCmd, .-ADC_InjectedDiscModeCmd
 2322 0014 AFF30080 		.section	.text.ADC_GetInjectedConversionValue,"ax",%progbits
 2322      AFF30080 
ARM GAS  /tmp/cc5F3ukv.s 			page 43


 2322      AFF30080 
 2323              		.align	2
 2324              		.p2align 4,,15
 2325              		.global	ADC_GetInjectedConversionValue
 2326              		.thumb
 2327              		.thumb_func
 2328              		.type	ADC_GetInjectedConversionValue, %function
 2329              	ADC_GetInjectedConversionValue:
 2330              	.LFB168:
 2331              		.loc 1 2123 0
 2332              		.cfi_startproc
 2333              		@ args = 0, pretend = 0, frame = 8
 2334              		@ frame_needed = 0, uses_anonymous_args = 0
 2335              		@ link register save eliminated.
 2336              	.LVL198:
 2337 0000 82B0     		sub	sp, sp, #8
 2338              		.cfi_def_cfa_offset 8
 2339              		.loc 1 2124 0
 2340 0002 0023     		movs	r3, #0
 2341 0004 0193     		str	r3, [sp, #4]
 2342              		.loc 1 2130 0
 2343 0006 0190     		str	r0, [sp, #4]
 2344              		.loc 1 2131 0
 2345 0008 019B     		ldr	r3, [sp, #4]
 2346 000a 8033     		adds	r3, r3, #128
 2347 000c 1944     		add	r1, r1, r3
 2348              	.LVL199:
 2349 000e 0191     		str	r1, [sp, #4]
 2350              		.loc 1 2134 0
 2351 0010 019B     		ldr	r3, [sp, #4]
 2352 0012 1868     		ldr	r0, [r3]
 2353              	.LVL200:
 2354              		.loc 1 2135 0
 2355 0014 80B2     		uxth	r0, r0
 2356 0016 02B0     		add	sp, sp, #8
 2357              		@ sp needed
 2358 0018 7047     		bx	lr
 2359              		.cfi_endproc
 2360              	.LFE168:
 2361              		.size	ADC_GetInjectedConversionValue, .-ADC_GetInjectedConversionValue
 2362 001a 00BFAFF3 		.section	.text.ADC_ITConfig,"ax",%progbits
 2362      0080
 2363              		.align	2
 2364              		.p2align 4,,15
 2365              		.global	ADC_ITConfig
 2366              		.thumb
 2367              		.thumb_func
 2368              		.type	ADC_ITConfig, %function
 2369              	ADC_ITConfig:
 2370              	.LFB169:
 2371              		.loc 1 2256 0
 2372              		.cfi_startproc
 2373              		@ args = 0, pretend = 0, frame = 0
 2374              		@ frame_needed = 0, uses_anonymous_args = 0
 2375              		@ link register save eliminated.
 2376              	.LVL201:
 2377              		.loc 1 2265 0
ARM GAS  /tmp/cc5F3ukv.s 			page 44


 2378 0000 4368     		ldr	r3, [r0, #4]
 2379              		.loc 1 2262 0
 2380 0002 1AB9     		cbnz	r2, .L183
 2381              		.loc 1 2270 0
 2382 0004 23EA0101 		bic	r1, r3, r1
 2383              	.LVL202:
 2384 0008 4160     		str	r1, [r0, #4]
 2385 000a 7047     		bx	lr
 2386              	.LVL203:
 2387              	.L183:
 2388              		.loc 1 2265 0
 2389 000c 1943     		orrs	r1, r1, r3
 2390              	.LVL204:
 2391 000e 4160     		str	r1, [r0, #4]
 2392 0010 7047     		bx	lr
 2393              		.cfi_endproc
 2394              	.LFE169:
 2395              		.size	ADC_ITConfig, .-ADC_ITConfig
 2396 0012 00BFAFF3 		.section	.text.ADC_GetFlagStatus,"ax",%progbits
 2396      0080AFF3 
 2396      0080AFF3 
 2396      0080
 2397              		.align	2
 2398              		.p2align 4,,15
 2399              		.global	ADC_GetFlagStatus
 2400              		.thumb
 2401              		.thumb_func
 2402              		.type	ADC_GetFlagStatus, %function
 2403              	ADC_GetFlagStatus:
 2404              	.LFB170:
 2405              		.loc 1 2293 0
 2406              		.cfi_startproc
 2407              		@ args = 0, pretend = 0, frame = 0
 2408              		@ frame_needed = 0, uses_anonymous_args = 0
 2409              		@ link register save eliminated.
 2410              	.LVL205:
 2411              		.loc 1 2300 0
 2412 0000 0368     		ldr	r3, [r0]
 2413              	.LVL206:
 2414 0002 1942     		tst	r1, r3
 2415              		.loc 1 2312 0
 2416 0004 0CBF     		ite	eq
 2417 0006 0020     		moveq	r0, #0
 2418 0008 0120     		movne	r0, #1
 2419              	.LVL207:
 2420 000a 7047     		bx	lr
 2421              		.cfi_endproc
 2422              	.LFE170:
 2423              		.size	ADC_GetFlagStatus, .-ADC_GetFlagStatus
 2424 000c AFF30080 		.section	.text.ADC_ClearFlag,"ax",%progbits
 2425              		.align	2
 2426              		.p2align 4,,15
 2427              		.global	ADC_ClearFlag
 2428              		.thumb
 2429              		.thumb_func
 2430              		.type	ADC_ClearFlag, %function
 2431              	ADC_ClearFlag:
ARM GAS  /tmp/cc5F3ukv.s 			page 45


 2432              	.LFB171:
 2433              		.loc 1 2333 0
 2434              		.cfi_startproc
 2435              		@ args = 0, pretend = 0, frame = 0
 2436              		@ frame_needed = 0, uses_anonymous_args = 0
 2437              		@ link register save eliminated.
 2438              	.LVL208:
 2439              		.loc 1 2338 0
 2440 0000 0160     		str	r1, [r0]
 2441 0002 7047     		bx	lr
 2442              		.cfi_endproc
 2443              	.LFE171:
 2444              		.size	ADC_ClearFlag, .-ADC_ClearFlag
 2445 0004 AFF30080 		.section	.text.ADC_GetCommonFlagStatus,"ax",%progbits
 2445      AFF30080 
 2445      AFF30080 
 2446              		.align	2
 2447              		.p2align 4,,15
 2448              		.global	ADC_GetCommonFlagStatus
 2449              		.thumb
 2450              		.thumb_func
 2451              		.type	ADC_GetCommonFlagStatus, %function
 2452              	ADC_GetCommonFlagStatus:
 2453              	.LFB172:
 2454              		.loc 1 2371 0
 2455              		.cfi_startproc
 2456              		@ args = 0, pretend = 0, frame = 0
 2457              		@ frame_needed = 0, uses_anonymous_args = 0
 2458              		@ link register save eliminated.
 2459              	.LVL209:
 2460              		.loc 1 2379 0
 2461 0000 B0F1A04F 		cmp	r0, #1342177280
 2462 0004 09D0     		beq	.L187
 2463              		.loc 1 2379 0 is_stmt 0 discriminator 1
 2464 0006 064B     		ldr	r3, .L193
 2465 0008 9842     		cmp	r0, r3
 2466 000a 06D0     		beq	.L187
 2467              		.loc 1 2385 0 is_stmt 1
 2468 000c 054B     		ldr	r3, .L193+4
 2469 000e 1B68     		ldr	r3, [r3]
 2470              	.LVL210:
 2471              	.L189:
 2472              		.loc 1 2388 0
 2473 0010 0B42     		tst	r3, r1
 2474              		.loc 1 2400 0
 2475 0012 0CBF     		ite	eq
 2476 0014 0020     		moveq	r0, #0
 2477 0016 0120     		movne	r0, #1
 2478              	.LVL211:
 2479 0018 7047     		bx	lr
 2480              	.LVL212:
 2481              	.L187:
 2482              		.loc 1 2381 0
 2483 001a 034B     		ldr	r3, .L193+8
 2484 001c 1B68     		ldr	r3, [r3]
 2485              	.LVL213:
 2486 001e F7E7     		b	.L189
ARM GAS  /tmp/cc5F3ukv.s 			page 46


 2487              	.L194:
 2488              		.align	2
 2489              	.L193:
 2490 0020 00010050 		.word	1342177536
 2491 0024 00070050 		.word	1342179072
 2492 0028 00030050 		.word	1342178048
 2493              		.cfi_endproc
 2494              	.LFE172:
 2495              		.size	ADC_GetCommonFlagStatus, .-ADC_GetCommonFlagStatus
 2496 002c AFF30080 		.section	.text.ADC_ClearCommonFlag,"ax",%progbits
 2497              		.align	2
 2498              		.p2align 4,,15
 2499              		.global	ADC_ClearCommonFlag
 2500              		.thumb
 2501              		.thumb_func
 2502              		.type	ADC_ClearCommonFlag, %function
 2503              	ADC_ClearCommonFlag:
 2504              	.LFB173:
 2505              		.loc 1 2432 0
 2506              		.cfi_startproc
 2507              		@ args = 0, pretend = 0, frame = 0
 2508              		@ frame_needed = 0, uses_anonymous_args = 0
 2509              		@ link register save eliminated.
 2510              	.LVL214:
 2511              		.loc 1 2437 0
 2512 0000 B0F1A04F 		cmp	r0, #1342177280
 2513 0004 07D0     		beq	.L196
 2514              		.loc 1 2437 0 is_stmt 0 discriminator 1
 2515 0006 064B     		ldr	r3, .L202
 2516 0008 9842     		cmp	r0, r3
 2517 000a 04D0     		beq	.L196
 2518              		.loc 1 2445 0 is_stmt 1
 2519 000c 054B     		ldr	r3, .L202+4
 2520 000e 1A68     		ldr	r2, [r3]
 2521 0010 1143     		orrs	r1, r1, r2
 2522              	.LVL215:
 2523 0012 1960     		str	r1, [r3]
 2524 0014 7047     		bx	lr
 2525              	.LVL216:
 2526              	.L196:
 2527              		.loc 1 2440 0
 2528 0016 044B     		ldr	r3, .L202+8
 2529 0018 1A68     		ldr	r2, [r3]
 2530 001a 1143     		orrs	r1, r1, r2
 2531              	.LVL217:
 2532 001c 1960     		str	r1, [r3]
 2533 001e 7047     		bx	lr
 2534              	.L203:
 2535              		.align	2
 2536              	.L202:
 2537 0020 00010050 		.word	1342177536
 2538 0024 00070050 		.word	1342179072
 2539 0028 00030050 		.word	1342178048
 2540              		.cfi_endproc
 2541              	.LFE173:
 2542              		.size	ADC_ClearCommonFlag, .-ADC_ClearCommonFlag
 2543 002c AFF30080 		.section	.text.ADC_GetITStatus,"ax",%progbits
ARM GAS  /tmp/cc5F3ukv.s 			page 47


 2544              		.align	2
 2545              		.p2align 4,,15
 2546              		.global	ADC_GetITStatus
 2547              		.thumb
 2548              		.thumb_func
 2549              		.type	ADC_GetITStatus, %function
 2550              	ADC_GetITStatus:
 2551              	.LFB174:
 2552              		.loc 1 2468 0
 2553              		.cfi_startproc
 2554              		@ args = 0, pretend = 0, frame = 0
 2555              		@ frame_needed = 0, uses_anonymous_args = 0
 2556              		@ link register save eliminated.
 2557              	.LVL218:
 2558              		.loc 1 2475 0
 2559 0000 0368     		ldr	r3, [r0]
 2560              		.loc 1 2477 0
 2561 0002 4268     		ldr	r2, [r0, #4]
 2562              		.loc 1 2475 0
 2563 0004 89B2     		uxth	r1, r1
 2564              	.LVL219:
 2565              		.loc 1 2478 0
 2566 0006 11EA0300 		ands	r0, r1, r3
 2567              	.LVL220:
 2568 000a 03D0     		beq	.L205
 2569              		.loc 1 2478 0 is_stmt 0 discriminator 1
 2570 000c 1142     		tst	r1, r2
 2571              		.loc 1 2480 0 is_stmt 1 discriminator 1
 2572 000e 0CBF     		ite	eq
 2573 0010 0020     		moveq	r0, #0
 2574 0012 0120     		movne	r0, #1
 2575              	.L205:
 2576              	.LVL221:
 2577              		.loc 1 2487 0
 2578 0014 7047     		bx	lr
 2579              		.cfi_endproc
 2580              	.LFE174:
 2581              		.size	ADC_GetITStatus, .-ADC_GetITStatus
 2582 0016 00BFAFF3 		.section	.text.ADC_ClearITPendingBit,"ax",%progbits
 2582      0080AFF3 
 2582      0080
 2583              		.align	2
 2584              		.p2align 4,,15
 2585              		.global	ADC_ClearITPendingBit
 2586              		.thumb
 2587              		.thumb_func
 2588              		.type	ADC_ClearITPendingBit, %function
 2589              	ADC_ClearITPendingBit:
 2590              	.LFB175:
 2591              		.loc 1 2508 0
 2592              		.cfi_startproc
 2593              		@ args = 0, pretend = 0, frame = 0
 2594              		@ frame_needed = 0, uses_anonymous_args = 0
 2595              		@ link register save eliminated.
 2596              	.LVL222:
 2597              		.loc 1 2513 0
 2598 0000 0368     		ldr	r3, [r0]
ARM GAS  /tmp/cc5F3ukv.s 			page 48


 2599 0002 1943     		orrs	r1, r1, r3
 2600              	.LVL223:
 2601 0004 0160     		str	r1, [r0]
 2602 0006 7047     		bx	lr
 2603              		.cfi_endproc
 2604              	.LFE175:
 2605              		.size	ADC_ClearITPendingBit, .-ADC_ClearITPendingBit
 2606 0008 AFF30080 		.text
 2606      AFF30080 
 2607              	.Letext0:
 2608              		.file 2 "/usr/include/newlib/machine/_default_types.h"
 2609              		.file 3 "/usr/include/newlib/stdint.h"
 2610              		.file 4 "../../../../os/hal/platforms/STM32F30x/stm32f30x.h"
 2611              		.file 5 "../../../../ext/stm32lib/inc/stm32f30x_adc.h"
 2612              		.file 6 "../../../../os/ports/common/ARMCMx/CMSIS/include/core_cm4.h"
 2613              		.file 7 "../../../../ext/stm32lib/inc/stm32f30x_rcc.h"