ARM GAS  /tmp/cc7U31o4.s 			page 1


   1              		.syntax unified
   2              		.cpu cortex-m4
   3              		.eabi_attribute 27, 3
   4              		.fpu fpv4-sp-d16
   5              		.eabi_attribute 20, 1
   6              		.eabi_attribute 21, 1
   7              		.eabi_attribute 23, 3
   8              		.eabi_attribute 24, 1
   9              		.eabi_attribute 25, 1
  10              		.eabi_attribute 26, 1
  11              		.eabi_attribute 30, 2
  12              		.eabi_attribute 34, 1
  13              		.eabi_attribute 18, 4
  14              		.thumb
  15              		.file	"stm32f30x_dma.c"
  16              		.text
  17              	.Ltext0:
  18              		.cfi_sections	.debug_frame
  19              		.section	.text.DMA_DeInit,"ax",%progbits
  20              		.align	2
  21              		.p2align 4,,15
  22              		.global	DMA_DeInit
  23              		.thumb
  24              		.thumb_func
  25              		.type	DMA_DeInit, %function
  26              	DMA_DeInit:
  27              	.LFB111:
  28              		.file 1 "../../../../ext/stm32lib/src/stm32f30x_dma.c"
  29              		.loc 1 142 0
  30              		.cfi_startproc
  31              		@ args = 0, pretend = 0, frame = 0
  32              		@ frame_needed = 0, uses_anonymous_args = 0
  33              		@ link register save eliminated.
  34              	.LVL0:
  35              		.loc 1 147 0
  36 0000 0368     		ldr	r3, [r0]
  37              		.loc 1 161 0
  38 0002 3349     		ldr	r1, .L23
  39              		.loc 1 147 0
  40 0004 4FF6FE72 		movw	r2, #65534
  41 0008 1A40     		ands	r2, r2, r3
  42              		.loc 1 161 0
  43 000a 8842     		cmp	r0, r1
  44              		.loc 1 150 0
  45 000c 4FF00003 		mov	r3, #0
  46              		.loc 1 147 0
  47 0010 0260     		str	r2, [r0]
  48              		.loc 1 150 0
  49 0012 0360     		str	r3, [r0]
  50              		.loc 1 153 0
  51 0014 4360     		str	r3, [r0, #4]
  52              		.loc 1 156 0
  53 0016 8360     		str	r3, [r0, #8]
  54              		.loc 1 159 0
  55 0018 C360     		str	r3, [r0, #12]
  56              		.loc 1 161 0
  57 001a 44D0     		beq	.L19
ARM GAS  /tmp/cc7U31o4.s 			page 2


  58              		.loc 1 166 0
  59 001c 2D4B     		ldr	r3, .L23+4
  60 001e 9842     		cmp	r0, r3
  61 0020 25D0     		beq	.L14
  62              		.loc 1 171 0
  63 0022 2D4B     		ldr	r3, .L23+8
  64 0024 9842     		cmp	r0, r3
  65 0026 30D0     		beq	.L15
  66              		.loc 1 176 0
  67 0028 2C4B     		ldr	r3, .L23+12
  68 002a 9842     		cmp	r0, r3
  69 002c 34D0     		beq	.L16
  70              		.loc 1 181 0
  71 002e 2C4B     		ldr	r3, .L23+16
  72 0030 9842     		cmp	r0, r3
  73 0032 23D0     		beq	.L17
  74              		.loc 1 186 0
  75 0034 2B4B     		ldr	r3, .L23+20
  76 0036 9842     		cmp	r0, r3
  77 0038 3BD0     		beq	.L20
  78              		.loc 1 191 0
  79 003a 2B4B     		ldr	r3, .L23+24
  80 003c 9842     		cmp	r0, r3
  81 003e 0FD0     		beq	.L21
  82              		.loc 1 196 0
  83 0040 2A4B     		ldr	r3, .L23+28
  84 0042 9842     		cmp	r0, r3
  85 0044 3CD0     		beq	.L22
  86              		.loc 1 201 0
  87 0046 2A4B     		ldr	r3, .L23+32
  88 0048 9842     		cmp	r0, r3
  89 004a 10D0     		beq	.L14
  90              		.loc 1 206 0
  91 004c 294B     		ldr	r3, .L23+36
  92 004e 9842     		cmp	r0, r3
  93 0050 1BD0     		beq	.L15
  94              		.loc 1 211 0
  95 0052 294B     		ldr	r3, .L23+40
  96 0054 9842     		cmp	r0, r3
  97 0056 1FD0     		beq	.L16
  98              		.loc 1 218 0
  99 0058 284B     		ldr	r3, .L23+44
 100 005a 9842     		cmp	r0, r3
 101 005c 0ED0     		beq	.L17
 102 005e 7047     		bx	lr
 103              	.L21:
 104              		.loc 1 194 0
 105 0060 53F87C2C 		ldr	r2, [r3, #-124]
 106 0064 42F07062 		orr	r2, r2, #251658240
 107 0068 43F87C2C 		str	r2, [r3, #-124]
 108 006c 7047     		bx	lr
 109              	.L14:
 110              		.loc 1 204 0
 111 006e 53F8182C 		ldr	r2, [r3, #-24]
 112 0072 42F0F002 		orr	r2, r2, #240
 113 0076 43F8182C 		str	r2, [r3, #-24]
 114 007a 7047     		bx	lr
ARM GAS  /tmp/cc7U31o4.s 			page 3


 115              	.L17:
 116              		.loc 1 221 0
 117 007c 53F8542C 		ldr	r2, [r3, #-84]
 118 0080 42F47022 		orr	r2, r2, #983040
 119 0084 43F8542C 		str	r2, [r3, #-84]
 120 0088 7047     		bx	lr
 121              	.L15:
 122              		.loc 1 209 0
 123 008a 53F82C2C 		ldr	r2, [r3, #-44]
 124 008e 42F47062 		orr	r2, r2, #3840
 125 0092 43F82C2C 		str	r2, [r3, #-44]
 126 0096 7047     		bx	lr
 127              	.L16:
 128              		.loc 1 214 0
 129 0098 53F8402C 		ldr	r2, [r3, #-64]
 130 009c 42F47042 		orr	r2, r2, #61440
 131 00a0 43F8402C 		str	r2, [r3, #-64]
 132 00a4 7047     		bx	lr
 133              	.L19:
 134              		.loc 1 164 0
 135 00a6 164B     		ldr	r3, .L23+48
 136 00a8 5A68     		ldr	r2, [r3, #4]
 137 00aa 42F00F02 		orr	r2, r2, #15
 138 00ae 5A60     		str	r2, [r3, #4]
 139 00b0 7047     		bx	lr
 140              	.L20:
 141              		.loc 1 189 0
 142 00b2 53F8682C 		ldr	r2, [r3, #-104]
 143 00b6 42F47002 		orr	r2, r2, #15728640
 144 00ba 43F8682C 		str	r2, [r3, #-104]
 145 00be 7047     		bx	lr
 146              	.L22:
 147              		.loc 1 199 0
 148 00c0 53F8042C 		ldr	r2, [r3, #-4]
 149 00c4 42F00F02 		orr	r2, r2, #15
 150 00c8 43F8042C 		str	r2, [r3, #-4]
 151 00cc 7047     		bx	lr
 152              	.L24:
 153 00ce 00BF     		.align	2
 154              	.L23:
 155 00d0 08000240 		.word	1073872904
 156 00d4 1C000240 		.word	1073872924
 157 00d8 30000240 		.word	1073872944
 158 00dc 44000240 		.word	1073872964
 159 00e0 58000240 		.word	1073872984
 160 00e4 6C000240 		.word	1073873004
 161 00e8 80000240 		.word	1073873024
 162 00ec 08040240 		.word	1073873928
 163 00f0 1C040240 		.word	1073873948
 164 00f4 30040240 		.word	1073873968
 165 00f8 44040240 		.word	1073873988
 166 00fc 58040240 		.word	1073874008
 167 0100 00000240 		.word	1073872896
 168              		.cfi_endproc
 169              	.LFE111:
 170              		.size	DMA_DeInit, .-DMA_DeInit
 171 0104 AFF30080 		.section	.text.DMA_Init,"ax",%progbits
ARM GAS  /tmp/cc7U31o4.s 			page 4


 171      AFF30080 
 171      AFF30080 
 172              		.align	2
 173              		.p2align 4,,15
 174              		.global	DMA_Init
 175              		.thumb
 176              		.thumb_func
 177              		.type	DMA_Init, %function
 178              	DMA_Init:
 179              	.LFB112:
 180              		.loc 1 236 0
 181              		.cfi_startproc
 182              		@ args = 0, pretend = 0, frame = 0
 183              		@ frame_needed = 0, uses_anonymous_args = 0
 184              		@ link register save eliminated.
 185              	.LVL1:
 186 0000 2DE9F00F 		push	{r4, r5, r6, r7, r8, r9, r10, fp}
 187              		.cfi_def_cfa_offset 32
 188              		.cfi_offset 4, -32
 189              		.cfi_offset 5, -28
 190              		.cfi_offset 6, -24
 191              		.cfi_offset 7, -20
 192              		.cfi_offset 8, -16
 193              		.cfi_offset 9, -12
 194              		.cfi_offset 10, -8
 195              		.cfi_offset 11, -4
 196              		.loc 1 266 0
 197 0004 D1F820B0 		ldr	fp, [r1, #32]
 198 0008 D1F808A0 		ldr	r10, [r1, #8]
 199 000c D1F81090 		ldr	r9, [r1, #16]
 200              		.loc 1 267 0
 201 0010 D1F81480 		ldr	r8, [r1, #20]
 202 0014 D1F818C0 		ldr	ip, [r1, #24]
 203              		.loc 1 268 0
 204 0018 CF69     		ldr	r7, [r1, #28]
 205 001a 4E6A     		ldr	r6, [r1, #36]
 206              		.loc 1 252 0
 207 001c 0568     		ldr	r5, [r0]
 208              	.LVL2:
 209              		.loc 1 269 0
 210 001e 8C6A     		ldr	r4, [r1, #40]
 211              		.loc 1 276 0
 212 0020 8A89     		ldrh	r2, [r1, #12]
 213              		.loc 1 280 0
 214 0022 0B68     		ldr	r3, [r1]
 215              		.loc 1 284 0
 216 0024 4968     		ldr	r1, [r1, #4]
 217              	.LVL3:
 218              		.loc 1 266 0
 219 0026 4BEA0A0A 		orr	r10, fp, r10
 220 002a 4AEA0909 		orr	r9, r10, r9
 221              		.loc 1 267 0
 222 002e 49EA0808 		orr	r8, r9, r8
 223 0032 48EA0C0C 		orr	ip, r8, ip
 224              		.loc 1 268 0
 225 0036 4CEA0707 		orr	r7, ip, r7
 226 003a 3E43     		orrs	r6, r6, r7
ARM GAS  /tmp/cc7U31o4.s 			page 5


 227              		.loc 1 255 0
 228 003c 25F4FF45 		bic	r5, r5, #32640
 229              	.LVL4:
 230              		.loc 1 269 0
 231 0040 3443     		orrs	r4, r4, r6
 232              		.loc 1 255 0
 233 0042 25F07005 		bic	r5, r5, #112
 234              	.LVL5:
 235              		.loc 1 266 0
 236 0046 2543     		orrs	r5, r5, r4
 237              	.LVL6:
 238              		.loc 1 272 0
 239 0048 0560     		str	r5, [r0]
 240              		.loc 1 276 0
 241 004a 4260     		str	r2, [r0, #4]
 242              		.loc 1 285 0
 243 004c BDE8F00F 		pop	{r4, r5, r6, r7, r8, r9, r10, fp}
 244              	.LVL7:
 245              		.loc 1 280 0
 246 0050 8360     		str	r3, [r0, #8]
 247              		.loc 1 284 0
 248 0052 C160     		str	r1, [r0, #12]
 249              		.loc 1 285 0
 250 0054 7047     		bx	lr
 251              		.cfi_endproc
 252              	.LFE112:
 253              		.size	DMA_Init, .-DMA_Init
 254 0056 00BFAFF3 		.section	.text.DMA_StructInit,"ax",%progbits
 254      0080AFF3 
 254      0080
 255              		.align	2
 256              		.p2align 4,,15
 257              		.global	DMA_StructInit
 258              		.thumb
 259              		.thumb_func
 260              		.type	DMA_StructInit, %function
 261              	DMA_StructInit:
 262              	.LFB113:
 263              		.loc 1 294 0
 264              		.cfi_startproc
 265              		@ args = 0, pretend = 0, frame = 0
 266              		@ frame_needed = 0, uses_anonymous_args = 0
 267              		@ link register save eliminated.
 268              	.LVL8:
 269              		.loc 1 297 0
 270 0000 0023     		movs	r3, #0
 271 0002 0360     		str	r3, [r0]
 272              		.loc 1 299 0
 273 0004 4360     		str	r3, [r0, #4]
 274              		.loc 1 301 0
 275 0006 8360     		str	r3, [r0, #8]
 276              		.loc 1 303 0
 277 0008 8381     		strh	r3, [r0, #12]	@ movhi
 278              		.loc 1 305 0
 279 000a 0361     		str	r3, [r0, #16]
 280              		.loc 1 307 0
 281 000c 4361     		str	r3, [r0, #20]
ARM GAS  /tmp/cc7U31o4.s 			page 6


 282              		.loc 1 309 0
 283 000e 8361     		str	r3, [r0, #24]
 284              		.loc 1 311 0
 285 0010 C361     		str	r3, [r0, #28]
 286              		.loc 1 313 0
 287 0012 0362     		str	r3, [r0, #32]
 288              		.loc 1 315 0
 289 0014 4362     		str	r3, [r0, #36]
 290              		.loc 1 317 0
 291 0016 8362     		str	r3, [r0, #40]
 292 0018 7047     		bx	lr
 293              		.cfi_endproc
 294              	.LFE113:
 295              		.size	DMA_StructInit, .-DMA_StructInit
 296              		.section	.text.DMA_Cmd,"ax",%progbits
 297              		.align	2
 298              		.p2align 4,,15
 299              		.global	DMA_Cmd
 300              		.thumb
 301              		.thumb_func
 302              		.type	DMA_Cmd, %function
 303              	DMA_Cmd:
 304              	.LFB114:
 305              		.loc 1 329 0
 306              		.cfi_startproc
 307              		@ args = 0, pretend = 0, frame = 0
 308              		@ frame_needed = 0, uses_anonymous_args = 0
 309              		@ link register save eliminated.
 310              	.LVL9:
 311              		.loc 1 334 0
 312 0000 29B9     		cbnz	r1, .L30
 313              		.loc 1 342 0
 314 0002 0268     		ldr	r2, [r0]
 315 0004 4FF6FE73 		movw	r3, #65534
 316 0008 1340     		ands	r3, r3, r2
 317 000a 0360     		str	r3, [r0]
 318 000c 7047     		bx	lr
 319              	.L30:
 320              		.loc 1 337 0
 321 000e 0368     		ldr	r3, [r0]
 322 0010 43F00103 		orr	r3, r3, #1
 323 0014 0360     		str	r3, [r0]
 324 0016 7047     		bx	lr
 325              		.cfi_endproc
 326              	.LFE114:
 327              		.size	DMA_Cmd, .-DMA_Cmd
 328 0018 AFF30080 		.section	.text.DMA_SetCurrDataCounter,"ax",%progbits
 328      AFF30080 
 329              		.align	2
 330              		.p2align 4,,15
 331              		.global	DMA_SetCurrDataCounter
 332              		.thumb
 333              		.thumb_func
 334              		.type	DMA_SetCurrDataCounter, %function
 335              	DMA_SetCurrDataCounter:
 336              	.LFB115:
 337              		.loc 1 388 0
ARM GAS  /tmp/cc7U31o4.s 			page 7


 338              		.cfi_startproc
 339              		@ args = 0, pretend = 0, frame = 0
 340              		@ frame_needed = 0, uses_anonymous_args = 0
 341              		@ link register save eliminated.
 342              	.LVL10:
 343              		.loc 1 394 0
 344 0000 4160     		str	r1, [r0, #4]
 345 0002 7047     		bx	lr
 346              		.cfi_endproc
 347              	.LFE115:
 348              		.size	DMA_SetCurrDataCounter, .-DMA_SetCurrDataCounter
 349 0004 AFF30080 		.section	.text.DMA_GetCurrDataCounter,"ax",%progbits
 349      AFF30080 
 349      AFF30080 
 350              		.align	2
 351              		.p2align 4,,15
 352              		.global	DMA_GetCurrDataCounter
 353              		.thumb
 354              		.thumb_func
 355              		.type	DMA_GetCurrDataCounter, %function
 356              	DMA_GetCurrDataCounter:
 357              	.LFB116:
 358              		.loc 1 406 0
 359              		.cfi_startproc
 360              		@ args = 0, pretend = 0, frame = 0
 361              		@ frame_needed = 0, uses_anonymous_args = 0
 362              		@ link register save eliminated.
 363              	.LVL11:
 364              		.loc 1 410 0
 365 0000 4068     		ldr	r0, [r0, #4]
 366              	.LVL12:
 367              		.loc 1 411 0
 368 0002 80B2     		uxth	r0, r0
 369 0004 7047     		bx	lr
 370              		.cfi_endproc
 371              	.LFE116:
 372              		.size	DMA_GetCurrDataCounter, .-DMA_GetCurrDataCounter
 373 0006 00BFAFF3 		.section	.text.DMA_ITConfig,"ax",%progbits
 373      0080AFF3 
 373      0080
 374              		.align	2
 375              		.p2align 4,,15
 376              		.global	DMA_ITConfig
 377              		.thumb
 378              		.thumb_func
 379              		.type	DMA_ITConfig, %function
 380              	DMA_ITConfig:
 381              	.LFB117:
 382              		.loc 1 482 0
 383              		.cfi_startproc
 384              		@ args = 0, pretend = 0, frame = 0
 385              		@ frame_needed = 0, uses_anonymous_args = 0
 386              		@ link register save eliminated.
 387              	.LVL13:
 388              		.loc 1 491 0
 389 0000 0368     		ldr	r3, [r0]
 390              		.loc 1 488 0
ARM GAS  /tmp/cc7U31o4.s 			page 8


 391 0002 1AB9     		cbnz	r2, .L36
 392              		.loc 1 496 0
 393 0004 23EA0101 		bic	r1, r3, r1
 394              	.LVL14:
 395 0008 0160     		str	r1, [r0]
 396 000a 7047     		bx	lr
 397              	.LVL15:
 398              	.L36:
 399              		.loc 1 491 0
 400 000c 1943     		orrs	r1, r1, r3
 401              	.LVL16:
 402 000e 0160     		str	r1, [r0]
 403 0010 7047     		bx	lr
 404              		.cfi_endproc
 405              	.LFE117:
 406              		.size	DMA_ITConfig, .-DMA_ITConfig
 407 0012 00BFAFF3 		.section	.text.DMA_GetFlagStatus,"ax",%progbits
 407      0080AFF3 
 407      0080AFF3 
 407      0080
 408              		.align	2
 409              		.p2align 4,,15
 410              		.global	DMA_GetFlagStatus
 411              		.thumb
 412              		.thumb_func
 413              		.type	DMA_GetFlagStatus, %function
 414              	DMA_GetFlagStatus:
 415              	.LFB118:
 416              		.loc 1 562 0
 417              		.cfi_startproc
 418              		@ args = 0, pretend = 0, frame = 0
 419              		@ frame_needed = 0, uses_anonymous_args = 0
 420              		@ link register save eliminated.
 421              	.LVL17:
 422              		.loc 1 570 0
 423 0000 C300     		lsls	r3, r0, #3
 424              		.loc 1 573 0
 425 0002 4CBF     		ite	mi
 426 0004 034B     		ldrmi	r3, .L40
 427              		.loc 1 578 0
 428 0006 044B     		ldrpl	r3, .L40+4
 429 0008 1B68     		ldr	r3, [r3]
 430              	.LVL18:
 431              		.loc 1 582 0
 432 000a 0342     		tst	r3, r0
 433              		.loc 1 595 0
 434 000c 0CBF     		ite	eq
 435 000e 0020     		moveq	r0, #0
 436 0010 0120     		movne	r0, #1
 437              	.LVL19:
 438 0012 7047     		bx	lr
 439              	.L41:
 440              		.align	2
 441              	.L40:
 442 0014 00040240 		.word	1073873920
 443 0018 00000240 		.word	1073872896
 444              		.cfi_endproc
ARM GAS  /tmp/cc7U31o4.s 			page 9


 445              	.LFE118:
 446              		.size	DMA_GetFlagStatus, .-DMA_GetFlagStatus
 447 001c AFF30080 		.section	.text.DMA_ClearFlag,"ax",%progbits
 448              		.align	2
 449              		.p2align 4,,15
 450              		.global	DMA_ClearFlag
 451              		.thumb
 452              		.thumb_func
 453              		.type	DMA_ClearFlag, %function
 454              	DMA_ClearFlag:
 455              	.LFB119:
 456              		.loc 1 658 0
 457              		.cfi_startproc
 458              		@ args = 0, pretend = 0, frame = 0
 459              		@ frame_needed = 0, uses_anonymous_args = 0
 460              		@ link register save eliminated.
 461              	.LVL20:
 462              		.loc 1 663 0
 463 0000 C300     		lsls	r3, r0, #3
 464              		.loc 1 666 0
 465 0002 4CBF     		ite	mi
 466 0004 014B     		ldrmi	r3, .L45
 467              		.loc 1 671 0
 468 0006 024B     		ldrpl	r3, .L45+4
 469 0008 5860     		str	r0, [r3, #4]
 470 000a 7047     		bx	lr
 471              	.L46:
 472              		.align	2
 473              	.L45:
 474 000c 00040240 		.word	1073873920
 475 0010 00000240 		.word	1073872896
 476              		.cfi_endproc
 477              	.LFE119:
 478              		.size	DMA_ClearFlag, .-DMA_ClearFlag
 479 0014 AFF30080 		.section	.text.DMA_GetITStatus,"ax",%progbits
 479      AFF30080 
 479      AFF30080 
 480              		.align	2
 481              		.p2align 4,,15
 482              		.global	DMA_GetITStatus
 483              		.thumb
 484              		.thumb_func
 485              		.type	DMA_GetITStatus, %function
 486              	DMA_GetITStatus:
 487              	.LFB120:
 488              		.loc 1 737 0
 489              		.cfi_startproc
 490              		@ args = 0, pretend = 0, frame = 0
 491              		@ frame_needed = 0, uses_anonymous_args = 0
 492              		@ link register save eliminated.
 493              	.LVL21:
 494              		.loc 1 745 0
 495 0000 C300     		lsls	r3, r0, #3
 496              		.loc 1 748 0
 497 0002 4CBF     		ite	mi
 498 0004 034B     		ldrmi	r3, .L50
 499              		.loc 1 753 0
ARM GAS  /tmp/cc7U31o4.s 			page 10


 500 0006 044B     		ldrpl	r3, .L50+4
 501 0008 1B68     		ldr	r3, [r3]
 502              	.LVL22:
 503              		.loc 1 757 0
 504 000a 0342     		tst	r3, r0
 505              		.loc 1 769 0
 506 000c 0CBF     		ite	eq
 507 000e 0020     		moveq	r0, #0
 508 0010 0120     		movne	r0, #1
 509              	.LVL23:
 510 0012 7047     		bx	lr
 511              	.L51:
 512              		.align	2
 513              	.L50:
 514 0014 00040240 		.word	1073873920
 515 0018 00000240 		.word	1073872896
 516              		.cfi_endproc
 517              	.LFE120:
 518              		.size	DMA_GetITStatus, .-DMA_GetITStatus
 519 001c AFF30080 		.section	.text.DMA_ClearITPendingBit,"ax",%progbits
 520              		.align	2
 521              		.p2align 4,,15
 522              		.global	DMA_ClearITPendingBit
 523              		.thumb
 524              		.thumb_func
 525              		.type	DMA_ClearITPendingBit, %function
 526              	DMA_ClearITPendingBit:
 527              	.LFB121:
 528              		.loc 1 833 0
 529              		.cfi_startproc
 530              		@ args = 0, pretend = 0, frame = 0
 531              		@ frame_needed = 0, uses_anonymous_args = 0
 532              		@ link register save eliminated.
 533              	.LVL24:
 534              		.loc 1 838 0
 535 0000 C300     		lsls	r3, r0, #3
 536              		.loc 1 841 0
 537 0002 4CBF     		ite	mi
 538 0004 014B     		ldrmi	r3, .L55
 539              		.loc 1 846 0
 540 0006 024B     		ldrpl	r3, .L55+4
 541 0008 5860     		str	r0, [r3, #4]
 542 000a 7047     		bx	lr
 543              	.L56:
 544              		.align	2
 545              	.L55:
 546 000c 00040240 		.word	1073873920
 547 0010 00000240 		.word	1073872896
 548              		.cfi_endproc
 549              	.LFE121:
 550              		.size	DMA_ClearITPendingBit, .-DMA_ClearITPendingBit
 551 0014 AFF30080 		.text
 551      AFF30080 
 551      AFF30080 
 552              	.Letext0:
 553              		.file 2 "/usr/include/newlib/machine/_default_types.h"
 554              		.file 3 "/usr/include/newlib/stdint.h"
ARM GAS  /tmp/cc7U31o4.s 			page 11


 555              		.file 4 "../../../../os/hal/platforms/STM32F30x/stm32f30x.h"
 556              		.file 5 "../../../../ext/stm32lib/inc/stm32f30x_dma.h"
 557              		.file 6 "../../../../os/ports/common/ARMCMx/CMSIS/include/core_cm4.h"