ARM GAS  /tmp/ccDe7wQg.s 			page 1


   1              		.syntax unified
   2              		.cpu cortex-m4
   3              		.eabi_attribute 27, 3
   4              		.fpu fpv4-sp-d16
   5              		.eabi_attribute 20, 1
   6              		.eabi_attribute 21, 1
   7              		.eabi_attribute 23, 3
   8              		.eabi_attribute 24, 1
   9              		.eabi_attribute 25, 1
  10              		.eabi_attribute 26, 1
  11              		.eabi_attribute 30, 2
  12              		.eabi_attribute 34, 1
  13              		.eabi_attribute 18, 4
  14              		.thumb
  15              		.file	"stm32f30x_flash.c"
  16              		.text
  17              	.Ltext0:
  18              		.cfi_sections	.debug_frame
  19              		.section	.text.FLASH_SetLatency,"ax",%progbits
  20              		.align	2
  21              		.p2align 4,,15
  22              		.global	FLASH_SetLatency
  23              		.thumb
  24              		.thumb_func
  25              		.type	FLASH_SetLatency, %function
  26              	FLASH_SetLatency:
  27              	.LFB111:
  28              		.file 1 "../../../../ext/stm32lib/src/stm32f30x_flash.c"
  29              		.loc 1 132 0
  30              		.cfi_startproc
  31              		@ args = 0, pretend = 0, frame = 0
  32              		@ frame_needed = 0, uses_anonymous_args = 0
  33              		@ link register save eliminated.
  34              	.LVL0:
  35              		.loc 1 139 0
  36 0000 034B     		ldr	r3, .L2
  37 0002 1A68     		ldr	r2, [r3]
  38              	.LVL1:
  39              		.loc 1 142 0
  40 0004 22F00302 		bic	r2, r2, #3
  41              	.LVL2:
  42              		.loc 1 143 0
  43 0008 1043     		orrs	r0, r0, r2
  44              	.LVL3:
  45              		.loc 1 146 0
  46 000a 1860     		str	r0, [r3]
  47 000c 7047     		bx	lr
  48              	.L3:
  49 000e 00BF     		.align	2
  50              	.L2:
  51 0010 00200240 		.word	1073881088
  52              		.cfi_endproc
  53              	.LFE111:
  54              		.size	FLASH_SetLatency, .-FLASH_SetLatency
  55 0014 AFF30080 		.section	.text.FLASH_HalfCycleAccessCmd,"ax",%progbits
  55      AFF30080 
  55      AFF30080 
ARM GAS  /tmp/ccDe7wQg.s 			page 2


  56              		.align	2
  57              		.p2align 4,,15
  58              		.global	FLASH_HalfCycleAccessCmd
  59              		.thumb
  60              		.thumb_func
  61              		.type	FLASH_HalfCycleAccessCmd, %function
  62              	FLASH_HalfCycleAccessCmd:
  63              	.LFB112:
  64              		.loc 1 158 0
  65              		.cfi_startproc
  66              		@ args = 0, pretend = 0, frame = 0
  67              		@ frame_needed = 0, uses_anonymous_args = 0
  68              		@ link register save eliminated.
  69              	.LVL4:
  70              		.loc 1 164 0
  71 0000 054B     		ldr	r3, .L9
  72 0002 1A68     		ldr	r2, [r3]
  73              		.loc 1 162 0
  74 0004 18B9     		cbnz	r0, .L8
  75              		.loc 1 168 0
  76 0006 22F00802 		bic	r2, r2, #8
  77 000a 1A60     		str	r2, [r3]
  78 000c 7047     		bx	lr
  79              	.L8:
  80              		.loc 1 164 0
  81 000e 42F00802 		orr	r2, r2, #8
  82 0012 1A60     		str	r2, [r3]
  83 0014 7047     		bx	lr
  84              	.L10:
  85 0016 00BF     		.align	2
  86              	.L9:
  87 0018 00200240 		.word	1073881088
  88              		.cfi_endproc
  89              	.LFE112:
  90              		.size	FLASH_HalfCycleAccessCmd, .-FLASH_HalfCycleAccessCmd
  91 001c AFF30080 		.section	.text.FLASH_PrefetchBufferCmd,"ax",%progbits
  92              		.align	2
  93              		.p2align 4,,15
  94              		.global	FLASH_PrefetchBufferCmd
  95              		.thumb
  96              		.thumb_func
  97              		.type	FLASH_PrefetchBufferCmd, %function
  98              	FLASH_PrefetchBufferCmd:
  99              	.LFB113:
 100              		.loc 1 179 0
 101              		.cfi_startproc
 102              		@ args = 0, pretend = 0, frame = 0
 103              		@ frame_needed = 0, uses_anonymous_args = 0
 104              		@ link register save eliminated.
 105              	.LVL5:
 106              		.loc 1 185 0
 107 0000 054B     		ldr	r3, .L15
 108 0002 1A68     		ldr	r2, [r3]
 109              		.loc 1 183 0
 110 0004 18B9     		cbnz	r0, .L14
 111              		.loc 1 189 0
 112 0006 22F01002 		bic	r2, r2, #16
ARM GAS  /tmp/ccDe7wQg.s 			page 3


 113 000a 1A60     		str	r2, [r3]
 114 000c 7047     		bx	lr
 115              	.L14:
 116              		.loc 1 185 0
 117 000e 42F01002 		orr	r2, r2, #16
 118 0012 1A60     		str	r2, [r3]
 119 0014 7047     		bx	lr
 120              	.L16:
 121 0016 00BF     		.align	2
 122              	.L15:
 123 0018 00200240 		.word	1073881088
 124              		.cfi_endproc
 125              	.LFE113:
 126              		.size	FLASH_PrefetchBufferCmd, .-FLASH_PrefetchBufferCmd
 127 001c AFF30080 		.section	.text.FLASH_Unlock,"ax",%progbits
 128              		.align	2
 129              		.p2align 4,,15
 130              		.global	FLASH_Unlock
 131              		.thumb
 132              		.thumb_func
 133              		.type	FLASH_Unlock, %function
 134              	FLASH_Unlock:
 135              	.LFB114:
 136              		.loc 1 229 0
 137              		.cfi_startproc
 138              		@ args = 0, pretend = 0, frame = 0
 139              		@ frame_needed = 0, uses_anonymous_args = 0
 140              		@ link register save eliminated.
 141              		.loc 1 230 0
 142 0000 044B     		ldr	r3, .L22
 143 0002 1A69     		ldr	r2, [r3, #16]
 144 0004 1206     		lsls	r2, r2, #24
 145 0006 03D5     		bpl	.L17
 146              		.loc 1 233 0
 147 0008 0349     		ldr	r1, .L22+4
 148              		.loc 1 234 0
 149 000a 044A     		ldr	r2, .L22+8
 150              		.loc 1 233 0
 151 000c 5960     		str	r1, [r3, #4]
 152              		.loc 1 234 0
 153 000e 5A60     		str	r2, [r3, #4]
 154              	.L17:
 155 0010 7047     		bx	lr
 156              	.L23:
 157 0012 00BF     		.align	2
 158              	.L22:
 159 0014 00200240 		.word	1073881088
 160 0018 23016745 		.word	1164378403
 161 001c AB89EFCD 		.word	-839939669
 162              		.cfi_endproc
 163              	.LFE114:
 164              		.size	FLASH_Unlock, .-FLASH_Unlock
 165              		.section	.text.FLASH_Lock,"ax",%progbits
 166              		.align	2
 167              		.p2align 4,,15
 168              		.global	FLASH_Lock
 169              		.thumb
ARM GAS  /tmp/ccDe7wQg.s 			page 4


 170              		.thumb_func
 171              		.type	FLASH_Lock, %function
 172              	FLASH_Lock:
 173              	.LFB115:
 174              		.loc 1 244 0
 175              		.cfi_startproc
 176              		@ args = 0, pretend = 0, frame = 0
 177              		@ frame_needed = 0, uses_anonymous_args = 0
 178              		@ link register save eliminated.
 179              		.loc 1 246 0
 180 0000 024B     		ldr	r3, .L25
 181 0002 1A69     		ldr	r2, [r3, #16]
 182 0004 42F08002 		orr	r2, r2, #128
 183 0008 1A61     		str	r2, [r3, #16]
 184 000a 7047     		bx	lr
 185              	.L26:
 186              		.align	2
 187              	.L25:
 188 000c 00200240 		.word	1073881088
 189              		.cfi_endproc
 190              	.LFE115:
 191              		.size	FLASH_Lock, .-FLASH_Lock
 192              		.section	.text.FLASH_OB_Unlock,"ax",%progbits
 193              		.align	2
 194              		.p2align 4,,15
 195              		.global	FLASH_OB_Unlock
 196              		.thumb
 197              		.thumb_func
 198              		.type	FLASH_OB_Unlock, %function
 199              	FLASH_OB_Unlock:
 200              	.LFB120:
 201              		.loc 1 484 0
 202              		.cfi_startproc
 203              		@ args = 0, pretend = 0, frame = 0
 204              		@ frame_needed = 0, uses_anonymous_args = 0
 205              		@ link register save eliminated.
 206              		.loc 1 485 0
 207 0000 044B     		ldr	r3, .L29
 208 0002 1A69     		ldr	r2, [r3, #16]
 209 0004 9205     		lsls	r2, r2, #22
 210 0006 03D4     		bmi	.L27
 211              		.loc 1 488 0
 212 0008 0349     		ldr	r1, .L29+4
 213              		.loc 1 489 0
 214 000a 044A     		ldr	r2, .L29+8
 215              		.loc 1 488 0
 216 000c 9960     		str	r1, [r3, #8]
 217              		.loc 1 489 0
 218 000e 9A60     		str	r2, [r3, #8]
 219              	.L27:
 220 0010 7047     		bx	lr
 221              	.L30:
 222 0012 00BF     		.align	2
 223              	.L29:
 224 0014 00200240 		.word	1073881088
 225 0018 23016745 		.word	1164378403
 226 001c AB89EFCD 		.word	-839939669
ARM GAS  /tmp/ccDe7wQg.s 			page 5


 227              		.cfi_endproc
 228              	.LFE120:
 229              		.size	FLASH_OB_Unlock, .-FLASH_OB_Unlock
 230              		.section	.text.FLASH_OB_Lock,"ax",%progbits
 231              		.align	2
 232              		.p2align 4,,15
 233              		.global	FLASH_OB_Lock
 234              		.thumb
 235              		.thumb_func
 236              		.type	FLASH_OB_Lock, %function
 237              	FLASH_OB_Lock:
 238              	.LFB121:
 239              		.loc 1 499 0
 240              		.cfi_startproc
 241              		@ args = 0, pretend = 0, frame = 0
 242              		@ frame_needed = 0, uses_anonymous_args = 0
 243              		@ link register save eliminated.
 244              		.loc 1 501 0
 245 0000 024B     		ldr	r3, .L32
 246 0002 1A69     		ldr	r2, [r3, #16]
 247 0004 22F40072 		bic	r2, r2, #512
 248 0008 1A61     		str	r2, [r3, #16]
 249 000a 7047     		bx	lr
 250              	.L33:
 251              		.align	2
 252              	.L32:
 253 000c 00200240 		.word	1073881088
 254              		.cfi_endproc
 255              	.LFE121:
 256              		.size	FLASH_OB_Lock, .-FLASH_OB_Lock
 257              		.section	.text.FLASH_OB_Launch,"ax",%progbits
 258              		.align	2
 259              		.p2align 4,,15
 260              		.global	FLASH_OB_Launch
 261              		.thumb
 262              		.thumb_func
 263              		.type	FLASH_OB_Launch, %function
 264              	FLASH_OB_Launch:
 265              	.LFB122:
 266              		.loc 1 510 0
 267              		.cfi_startproc
 268              		@ args = 0, pretend = 0, frame = 0
 269              		@ frame_needed = 0, uses_anonymous_args = 0
 270              		@ link register save eliminated.
 271              		.loc 1 512 0
 272 0000 024B     		ldr	r3, .L35
 273 0002 1A69     		ldr	r2, [r3, #16]
 274 0004 42F40052 		orr	r2, r2, #8192
 275 0008 1A61     		str	r2, [r3, #16]
 276 000a 7047     		bx	lr
 277              	.L36:
 278              		.align	2
 279              	.L35:
 280 000c 00200240 		.word	1073881088
 281              		.cfi_endproc
 282              	.LFE122:
 283              		.size	FLASH_OB_Launch, .-FLASH_OB_Launch
ARM GAS  /tmp/ccDe7wQg.s 			page 6


 284              		.section	.text.FLASH_OB_GetUser,"ax",%progbits
 285              		.align	2
 286              		.p2align 4,,15
 287              		.global	FLASH_OB_GetUser
 288              		.thumb
 289              		.thumb_func
 290              		.type	FLASH_OB_GetUser, %function
 291              	FLASH_OB_GetUser:
 292              	.LFB132:
 293              		.loc 1 966 0
 294              		.cfi_startproc
 295              		@ args = 0, pretend = 0, frame = 0
 296              		@ frame_needed = 0, uses_anonymous_args = 0
 297              		@ link register save eliminated.
 298              		.loc 1 968 0
 299 0000 024B     		ldr	r3, .L38
 300 0002 D869     		ldr	r0, [r3, #28]
 301              		.loc 1 969 0
 302 0004 C0F30720 		ubfx	r0, r0, #8, #8
 303 0008 7047     		bx	lr
 304              	.L39:
 305 000a 00BF     		.align	2
 306              	.L38:
 307 000c 00200240 		.word	1073881088
 308              		.cfi_endproc
 309              	.LFE132:
 310              		.size	FLASH_OB_GetUser, .-FLASH_OB_GetUser
 311              		.section	.text.FLASH_OB_GetWRP,"ax",%progbits
 312              		.align	2
 313              		.p2align 4,,15
 314              		.global	FLASH_OB_GetWRP
 315              		.thumb
 316              		.thumb_func
 317              		.type	FLASH_OB_GetWRP, %function
 318              	FLASH_OB_GetWRP:
 319              	.LFB133:
 320              		.loc 1 977 0
 321              		.cfi_startproc
 322              		@ args = 0, pretend = 0, frame = 0
 323              		@ frame_needed = 0, uses_anonymous_args = 0
 324              		@ link register save eliminated.
 325              		.loc 1 979 0
 326 0000 014B     		ldr	r3, .L41
 327 0002 186A     		ldr	r0, [r3, #32]
 328              		.loc 1 980 0
 329 0004 7047     		bx	lr
 330              	.L42:
 331 0006 00BF     		.align	2
 332              	.L41:
 333 0008 00200240 		.word	1073881088
 334              		.cfi_endproc
 335              	.LFE133:
 336              		.size	FLASH_OB_GetWRP, .-FLASH_OB_GetWRP
 337 000c AFF30080 		.section	.text.FLASH_OB_GetRDP,"ax",%progbits
 338              		.align	2
 339              		.p2align 4,,15
 340              		.global	FLASH_OB_GetRDP
ARM GAS  /tmp/ccDe7wQg.s 			page 7


 341              		.thumb
 342              		.thumb_func
 343              		.type	FLASH_OB_GetRDP, %function
 344              	FLASH_OB_GetRDP:
 345              	.LFB134:
 346              		.loc 1 988 0
 347              		.cfi_startproc
 348              		@ args = 0, pretend = 0, frame = 0
 349              		@ frame_needed = 0, uses_anonymous_args = 0
 350              		@ link register save eliminated.
 351              	.LVL6:
 352              		.loc 1 991 0
 353 0000 034B     		ldr	r3, .L44
 354 0002 DB69     		ldr	r3, [r3, #28]
 355              	.LVL7:
 356 0004 13F0060F 		tst	r3, #6
 357              		.loc 1 1000 0
 358 0008 0CBF     		ite	eq
 359 000a 0020     		moveq	r0, #0
 360 000c 0120     		movne	r0, #1
 361 000e 7047     		bx	lr
 362              	.L45:
 363              		.align	2
 364              	.L44:
 365 0010 00200240 		.word	1073881088
 366              		.cfi_endproc
 367              	.LFE134:
 368              		.size	FLASH_OB_GetRDP, .-FLASH_OB_GetRDP
 369 0014 AFF30080 		.section	.text.FLASH_ITConfig,"ax",%progbits
 369      AFF30080 
 369      AFF30080 
 370              		.align	2
 371              		.p2align 4,,15
 372              		.global	FLASH_ITConfig
 373              		.thumb
 374              		.thumb_func
 375              		.type	FLASH_ITConfig, %function
 376              	FLASH_ITConfig:
 377              	.LFB135:
 378              		.loc 1 1028 0
 379              		.cfi_startproc
 380              		@ args = 0, pretend = 0, frame = 0
 381              		@ frame_needed = 0, uses_anonymous_args = 0
 382              		@ link register save eliminated.
 383              	.LVL8:
 384              		.loc 1 1036 0
 385 0000 044B     		ldr	r3, .L50
 386 0002 1A69     		ldr	r2, [r3, #16]
 387              		.loc 1 1033 0
 388 0004 19B9     		cbnz	r1, .L49
 389              		.loc 1 1041 0
 390 0006 22EA0000 		bic	r0, r2, r0
 391              	.LVL9:
 392 000a 1861     		str	r0, [r3, #16]
 393 000c 7047     		bx	lr
 394              	.LVL10:
 395              	.L49:
ARM GAS  /tmp/ccDe7wQg.s 			page 8


 396              		.loc 1 1036 0
 397 000e 1043     		orrs	r0, r0, r2
 398              	.LVL11:
 399 0010 1861     		str	r0, [r3, #16]
 400 0012 7047     		bx	lr
 401              	.L51:
 402              		.align	2
 403              	.L50:
 404 0014 00200240 		.word	1073881088
 405              		.cfi_endproc
 406              	.LFE135:
 407              		.size	FLASH_ITConfig, .-FLASH_ITConfig
 408 0018 AFF30080 		.section	.text.FLASH_GetFlagStatus,"ax",%progbits
 408      AFF30080 
 409              		.align	2
 410              		.p2align 4,,15
 411              		.global	FLASH_GetFlagStatus
 412              		.thumb
 413              		.thumb_func
 414              		.type	FLASH_GetFlagStatus, %function
 415              	FLASH_GetFlagStatus:
 416              	.LFB136:
 417              		.loc 1 1056 0
 418              		.cfi_startproc
 419              		@ args = 0, pretend = 0, frame = 0
 420              		@ frame_needed = 0, uses_anonymous_args = 0
 421              		@ link register save eliminated.
 422              	.LVL12:
 423              		.loc 1 1062 0
 424 0000 034B     		ldr	r3, .L53
 425 0002 DB68     		ldr	r3, [r3, #12]
 426              	.LVL13:
 427 0004 1842     		tst	r0, r3
 428              		.loc 1 1072 0
 429 0006 0CBF     		ite	eq
 430 0008 0020     		moveq	r0, #0
 431 000a 0120     		movne	r0, #1
 432              	.LVL14:
 433 000c 7047     		bx	lr
 434              	.L54:
 435 000e 00BF     		.align	2
 436              	.L53:
 437 0010 00200240 		.word	1073881088
 438              		.cfi_endproc
 439              	.LFE136:
 440              		.size	FLASH_GetFlagStatus, .-FLASH_GetFlagStatus
 441 0014 AFF30080 		.section	.text.FLASH_ClearFlag,"ax",%progbits
 441      AFF30080 
 441      AFF30080 
 442              		.align	2
 443              		.p2align 4,,15
 444              		.global	FLASH_ClearFlag
 445              		.thumb
 446              		.thumb_func
 447              		.type	FLASH_ClearFlag, %function
 448              	FLASH_ClearFlag:
 449              	.LFB137:
ARM GAS  /tmp/ccDe7wQg.s 			page 9


 450              		.loc 1 1084 0
 451              		.cfi_startproc
 452              		@ args = 0, pretend = 0, frame = 0
 453              		@ frame_needed = 0, uses_anonymous_args = 0
 454              		@ link register save eliminated.
 455              	.LVL15:
 456              		.loc 1 1089 0
 457 0000 014B     		ldr	r3, .L56
 458 0002 D860     		str	r0, [r3, #12]
 459 0004 7047     		bx	lr
 460              	.L57:
 461 0006 00BF     		.align	2
 462              	.L56:
 463 0008 00200240 		.word	1073881088
 464              		.cfi_endproc
 465              	.LFE137:
 466              		.size	FLASH_ClearFlag, .-FLASH_ClearFlag
 467 000c AFF30080 		.section	.text.FLASH_GetStatus,"ax",%progbits
 468              		.align	2
 469              		.p2align 4,,15
 470              		.global	FLASH_GetStatus
 471              		.thumb
 472              		.thumb_func
 473              		.type	FLASH_GetStatus, %function
 474              	FLASH_GetStatus:
 475              	.LFB138:
 476              		.loc 1 1099 0
 477              		.cfi_startproc
 478              		@ args = 0, pretend = 0, frame = 0
 479              		@ frame_needed = 0, uses_anonymous_args = 0
 480              		@ link register save eliminated.
 481              	.LVL16:
 482              		.loc 1 1102 0
 483 0000 084B     		ldr	r3, .L65
 484 0002 DA68     		ldr	r2, [r3, #12]
 485 0004 D107     		lsls	r1, r2, #31
 486 0006 0BD4     		bmi	.L61
 487              		.loc 1 1108 0
 488 0008 DA68     		ldr	r2, [r3, #12]
 489 000a D206     		lsls	r2, r2, #27
 490 000c 01D5     		bpl	.L64
 491              		.loc 1 1110 0
 492 000e 0220     		movs	r0, #2
 493              	.LVL17:
 494              		.loc 1 1126 0
 495 0010 7047     		bx	lr
 496              	.LVL18:
 497              	.L64:
 498              	.LBB6:
 499              	.LBB7:
 500              		.loc 1 1114 0
 501 0012 DB68     		ldr	r3, [r3, #12]
 502 0014 13F0040F 		tst	r3, #4
 503              		.loc 1 1116 0
 504 0018 0CBF     		ite	eq
 505 001a 0420     		moveq	r0, #4
 506 001c 0320     		movne	r0, #3
ARM GAS  /tmp/ccDe7wQg.s 			page 10


 507 001e 7047     		bx	lr
 508              	.L61:
 509              	.LBE7:
 510              	.LBE6:
 511              		.loc 1 1104 0
 512 0020 0120     		movs	r0, #1
 513 0022 7047     		bx	lr
 514              	.L66:
 515              		.align	2
 516              	.L65:
 517 0024 00200240 		.word	1073881088
 518              		.cfi_endproc
 519              	.LFE138:
 520              		.size	FLASH_GetStatus, .-FLASH_GetStatus
 521 0028 AFF30080 		.section	.text.FLASH_WaitForLastOperation,"ax",%progbits
 521      AFF30080 
 522              		.align	2
 523              		.p2align 4,,15
 524              		.global	FLASH_WaitForLastOperation
 525              		.thumb
 526              		.thumb_func
 527              		.type	FLASH_WaitForLastOperation, %function
 528              	FLASH_WaitForLastOperation:
 529              	.LFB139:
 530              		.loc 1 1135 0
 531              		.cfi_startproc
 532              		@ args = 0, pretend = 0, frame = 0
 533              		@ frame_needed = 0, uses_anonymous_args = 0
 534              	.LVL19:
 535 0000 10B5     		push	{r4, lr}
 536              		.cfi_def_cfa_offset 8
 537              		.cfi_offset 4, -8
 538              		.cfi_offset 14, -4
 539              		.loc 1 1135 0
 540 0002 0446     		mov	r4, r0
 541              		.loc 1 1139 0
 542 0004 FFF7FEFF 		bl	FLASH_GetStatus
 543              	.LVL20:
 544              		.loc 1 1142 0
 545 0008 0128     		cmp	r0, #1
 546 000a 06D1     		bne	.L68
 547              	.LVL21:
 548              	.L80:
 549 000c 3CB1     		cbz	r4, .L71
 550              	.LVL22:
 551              		.loc 1 1144 0
 552 000e FFF7FEFF 		bl	FLASH_GetStatus
 553              	.LVL23:
 554              		.loc 1 1142 0
 555 0012 0128     		cmp	r0, #1
 556              		.loc 1 1145 0
 557 0014 04F1FF34 		add	r4, r4, #-1
 558              	.LVL24:
 559              		.loc 1 1142 0
 560 0018 F8D0     		beq	.L80
 561              	.LVL25:
 562              	.L68:
ARM GAS  /tmp/ccDe7wQg.s 			page 11


 563              		.loc 1 1148 0
 564 001a 04B1     		cbz	r4, .L71
 565              	.LVL26:
 566              		.loc 1 1154 0
 567 001c 10BD     		pop	{r4, pc}
 568              	.LVL27:
 569              	.L71:
 570              		.loc 1 1150 0
 571 001e 0520     		movs	r0, #5
 572 0020 10BD     		pop	{r4, pc}
 573              		.cfi_endproc
 574              	.LFE139:
 575              		.size	FLASH_WaitForLastOperation, .-FLASH_WaitForLastOperation
 576 0022 00BFAFF3 		.section	.text.FLASH_ErasePage,"ax",%progbits
 576      0080AFF3 
 576      0080AFF3 
 576      0080
 577              		.align	2
 578              		.p2align 4,,15
 579              		.global	FLASH_ErasePage
 580              		.thumb
 581              		.thumb_func
 582              		.type	FLASH_ErasePage, %function
 583              	FLASH_ErasePage:
 584              	.LFB116:
 585              		.loc 1 262 0
 586              		.cfi_startproc
 587              		@ args = 0, pretend = 0, frame = 0
 588              		@ frame_needed = 0, uses_anonymous_args = 0
 589              	.LVL28:
 590 0000 38B5     		push	{r3, r4, r5, lr}
 591              		.cfi_def_cfa_offset 16
 592              		.cfi_offset 3, -16
 593              		.cfi_offset 4, -12
 594              		.cfi_offset 5, -8
 595              		.cfi_offset 14, -4
 596              		.loc 1 262 0
 597 0002 0546     		mov	r5, r0
 598              		.loc 1 269 0
 599 0004 4FF43020 		mov	r0, #720896
 600              	.LVL29:
 601 0008 FFF7FEFF 		bl	FLASH_WaitForLastOperation
 602              	.LVL30:
 603              		.loc 1 271 0
 604 000c 0428     		cmp	r0, #4
 605 000e 00D0     		beq	.L83
 606              		.loc 1 287 0
 607 0010 38BD     		pop	{r3, r4, r5, pc}
 608              	.LVL31:
 609              	.L83:
 610              		.loc 1 274 0
 611 0012 094C     		ldr	r4, .L84
 612 0014 2369     		ldr	r3, [r4, #16]
 613 0016 43F00203 		orr	r3, r3, #2
 614 001a 2361     		str	r3, [r4, #16]
 615              		.loc 1 275 0
 616 001c 6561     		str	r5, [r4, #20]
ARM GAS  /tmp/ccDe7wQg.s 			page 12


 617              		.loc 1 276 0
 618 001e 2369     		ldr	r3, [r4, #16]
 619 0020 43F04003 		orr	r3, r3, #64
 620 0024 2361     		str	r3, [r4, #16]
 621              		.loc 1 279 0
 622 0026 4FF43020 		mov	r0, #720896
 623              	.LVL32:
 624 002a FFF7FEFF 		bl	FLASH_WaitForLastOperation
 625              	.LVL33:
 626              		.loc 1 282 0
 627 002e 2369     		ldr	r3, [r4, #16]
 628 0030 23F00203 		bic	r3, r3, #2
 629 0034 2361     		str	r3, [r4, #16]
 630              		.loc 1 287 0
 631 0036 38BD     		pop	{r3, r4, r5, pc}
 632              	.LVL34:
 633              	.L85:
 634              		.align	2
 635              	.L84:
 636 0038 00200240 		.word	1073881088
 637              		.cfi_endproc
 638              	.LFE116:
 639              		.size	FLASH_ErasePage, .-FLASH_ErasePage
 640 003c AFF30080 		.section	.text.FLASH_EraseAllPages,"ax",%progbits
 641              		.align	2
 642              		.p2align 4,,15
 643              		.global	FLASH_EraseAllPages
 644              		.thumb
 645              		.thumb_func
 646              		.type	FLASH_EraseAllPages, %function
 647              	FLASH_EraseAllPages:
 648              	.LFB117:
 649              		.loc 1 300 0
 650              		.cfi_startproc
 651              		@ args = 0, pretend = 0, frame = 0
 652              		@ frame_needed = 0, uses_anonymous_args = 0
 653              	.LVL35:
 654 0000 10B5     		push	{r4, lr}
 655              		.cfi_def_cfa_offset 8
 656              		.cfi_offset 4, -8
 657              		.cfi_offset 14, -4
 658              		.loc 1 304 0
 659 0002 4FF43020 		mov	r0, #720896
 660 0006 FFF7FEFF 		bl	FLASH_WaitForLastOperation
 661              	.LVL36:
 662              		.loc 1 306 0
 663 000a 0428     		cmp	r0, #4
 664 000c 00D0     		beq	.L88
 665              		.loc 1 321 0
 666 000e 10BD     		pop	{r4, pc}
 667              	.L88:
 668              		.loc 1 309 0
 669 0010 084C     		ldr	r4, .L89
 670 0012 2369     		ldr	r3, [r4, #16]
 671 0014 43F00403 		orr	r3, r3, #4
 672 0018 2361     		str	r3, [r4, #16]
 673              		.loc 1 310 0
ARM GAS  /tmp/ccDe7wQg.s 			page 13


 674 001a 2369     		ldr	r3, [r4, #16]
 675 001c 43F04003 		orr	r3, r3, #64
 676 0020 2361     		str	r3, [r4, #16]
 677              		.loc 1 313 0
 678 0022 4FF43020 		mov	r0, #720896
 679              	.LVL37:
 680 0026 FFF7FEFF 		bl	FLASH_WaitForLastOperation
 681              	.LVL38:
 682              		.loc 1 316 0
 683 002a 2369     		ldr	r3, [r4, #16]
 684 002c 23F00403 		bic	r3, r3, #4
 685 0030 2361     		str	r3, [r4, #16]
 686              		.loc 1 321 0
 687 0032 10BD     		pop	{r4, pc}
 688              	.L90:
 689              		.align	2
 690              	.L89:
 691 0034 00200240 		.word	1073881088
 692              		.cfi_endproc
 693              	.LFE117:
 694              		.size	FLASH_EraseAllPages, .-FLASH_EraseAllPages
 695 0038 AFF30080 		.section	.text.FLASH_ProgramWord,"ax",%progbits
 695      AFF30080 
 696              		.align	2
 697              		.p2align 4,,15
 698              		.global	FLASH_ProgramWord
 699              		.thumb
 700              		.thumb_func
 701              		.type	FLASH_ProgramWord, %function
 702              	FLASH_ProgramWord:
 703              	.LFB118:
 704              		.loc 1 335 0
 705              		.cfi_startproc
 706              		@ args = 0, pretend = 0, frame = 8
 707              		@ frame_needed = 0, uses_anonymous_args = 0
 708              	.LVL39:
 709 0000 70B5     		push	{r4, r5, r6, lr}
 710              		.cfi_def_cfa_offset 16
 711              		.cfi_offset 4, -16
 712              		.cfi_offset 5, -12
 713              		.cfi_offset 6, -8
 714              		.cfi_offset 14, -4
 715 0002 82B0     		sub	sp, sp, #8
 716              		.cfi_def_cfa_offset 24
 717              		.loc 1 337 0
 718 0004 0023     		movs	r3, #0
 719              		.loc 1 335 0
 720 0006 0546     		mov	r5, r0
 721              		.loc 1 343 0
 722 0008 4FF43020 		mov	r0, #720896
 723              	.LVL40:
 724              		.loc 1 335 0
 725 000c 0C46     		mov	r4, r1
 726              		.loc 1 337 0
 727 000e 0193     		str	r3, [sp, #4]
 728              		.loc 1 343 0
 729 0010 FFF7FEFF 		bl	FLASH_WaitForLastOperation
ARM GAS  /tmp/ccDe7wQg.s 			page 14


 730              	.LVL41:
 731              		.loc 1 345 0
 732 0014 0428     		cmp	r0, #4
 733 0016 01D0     		beq	.L94
 734              	.LVL42:
 735              	.L92:
 736              		.loc 1 379 0
 737 0018 02B0     		add	sp, sp, #8
 738              		@ sp needed
 739 001a 70BD     		pop	{r4, r5, r6, pc}
 740              	.LVL43:
 741              	.L94:
 742              		.loc 1 349 0
 743 001c 104E     		ldr	r6, .L96
 744 001e 3269     		ldr	r2, [r6, #16]
 745              		.loc 1 351 0
 746 0020 A3B2     		uxth	r3, r4
 747              		.loc 1 349 0
 748 0022 42F00102 		orr	r2, r2, #1
 749 0026 3261     		str	r2, [r6, #16]
 750              		.loc 1 354 0
 751 0028 4FF43020 		mov	r0, #720896
 752              	.LVL44:
 753              		.loc 1 351 0
 754 002c 2B80     		strh	r3, [r5]	@ movhi
 755              		.loc 1 354 0
 756 002e FFF7FEFF 		bl	FLASH_WaitForLastOperation
 757              	.LVL45:
 758              		.loc 1 356 0
 759 0032 0428     		cmp	r0, #4
 760 0034 05D0     		beq	.L95
 761              		.loc 1 373 0
 762 0036 3369     		ldr	r3, [r6, #16]
 763 0038 23F00103 		bic	r3, r3, #1
 764 003c 3361     		str	r3, [r6, #16]
 765              		.loc 1 379 0
 766 003e 02B0     		add	sp, sp, #8
 767              		@ sp needed
 768 0040 70BD     		pop	{r4, r5, r6, pc}
 769              	.LVL46:
 770              	.L95:
 771              		.loc 1 360 0
 772 0042 0235     		adds	r5, r5, #2
 773              	.LVL47:
 774 0044 0195     		str	r5, [sp, #4]
 775              		.loc 1 362 0
 776 0046 019B     		ldr	r3, [sp, #4]
 777 0048 240C     		lsrs	r4, r4, #16
 778              	.LVL48:
 779 004a 1C80     		strh	r4, [r3]	@ movhi
 780              		.loc 1 365 0
 781 004c 4FF43020 		mov	r0, #720896
 782              	.LVL49:
 783 0050 FFF7FEFF 		bl	FLASH_WaitForLastOperation
 784              	.LVL50:
 785              		.loc 1 368 0
 786 0054 3369     		ldr	r3, [r6, #16]
ARM GAS  /tmp/ccDe7wQg.s 			page 15


 787 0056 23F00103 		bic	r3, r3, #1
 788 005a 3361     		str	r3, [r6, #16]
 789 005c DCE7     		b	.L92
 790              	.L97:
 791 005e 00BF     		.align	2
 792              	.L96:
 793 0060 00200240 		.word	1073881088
 794              		.cfi_endproc
 795              	.LFE118:
 796              		.size	FLASH_ProgramWord, .-FLASH_ProgramWord
 797 0064 AFF30080 		.section	.text.FLASH_ProgramHalfWord,"ax",%progbits
 797      AFF30080 
 797      AFF30080 
 798              		.align	2
 799              		.p2align 4,,15
 800              		.global	FLASH_ProgramHalfWord
 801              		.thumb
 802              		.thumb_func
 803              		.type	FLASH_ProgramHalfWord, %function
 804              	FLASH_ProgramHalfWord:
 805              	.LFB119:
 806              		.loc 1 393 0
 807              		.cfi_startproc
 808              		@ args = 0, pretend = 0, frame = 0
 809              		@ frame_needed = 0, uses_anonymous_args = 0
 810              	.LVL51:
 811 0000 70B5     		push	{r4, r5, r6, lr}
 812              		.cfi_def_cfa_offset 16
 813              		.cfi_offset 4, -16
 814              		.cfi_offset 5, -12
 815              		.cfi_offset 6, -8
 816              		.cfi_offset 14, -4
 817              		.loc 1 393 0
 818 0002 0446     		mov	r4, r0
 819              		.loc 1 400 0
 820 0004 4FF43020 		mov	r0, #720896
 821              	.LVL52:
 822              		.loc 1 393 0
 823 0008 0D46     		mov	r5, r1
 824              		.loc 1 400 0
 825 000a FFF7FEFF 		bl	FLASH_WaitForLastOperation
 826              	.LVL53:
 827              		.loc 1 402 0
 828 000e 0428     		cmp	r0, #4
 829 0010 00D0     		beq	.L100
 830              		.loc 1 418 0
 831 0012 70BD     		pop	{r4, r5, r6, pc}
 832              	.LVL54:
 833              	.L100:
 834              		.loc 1 405 0
 835 0014 074E     		ldr	r6, .L101
 836 0016 3369     		ldr	r3, [r6, #16]
 837 0018 43F00103 		orr	r3, r3, #1
 838 001c 3361     		str	r3, [r6, #16]
 839              		.loc 1 410 0
 840 001e 4FF43020 		mov	r0, #720896
 841              	.LVL55:
ARM GAS  /tmp/ccDe7wQg.s 			page 16


 842              		.loc 1 407 0
 843 0022 2580     		strh	r5, [r4]	@ movhi
 844              		.loc 1 410 0
 845 0024 FFF7FEFF 		bl	FLASH_WaitForLastOperation
 846              	.LVL56:
 847              		.loc 1 413 0
 848 0028 3369     		ldr	r3, [r6, #16]
 849 002a 23F00103 		bic	r3, r3, #1
 850 002e 3361     		str	r3, [r6, #16]
 851              		.loc 1 418 0
 852 0030 70BD     		pop	{r4, r5, r6, pc}
 853              	.LVL57:
 854              	.L102:
 855 0032 00BF     		.align	2
 856              	.L101:
 857 0034 00200240 		.word	1073881088
 858              		.cfi_endproc
 859              	.LFE119:
 860              		.size	FLASH_ProgramHalfWord, .-FLASH_ProgramHalfWord
 861 0038 AFF30080 		.section	.text.FLASH_OB_Erase,"ax",%progbits
 861      AFF30080 
 862              		.align	2
 863              		.p2align 4,,15
 864              		.global	FLASH_OB_Erase
 865              		.thumb
 866              		.thumb_func
 867              		.type	FLASH_OB_Erase, %function
 868              	FLASH_OB_Erase:
 869              	.LFB123:
 870              		.loc 1 523 0
 871              		.cfi_startproc
 872              		@ args = 0, pretend = 0, frame = 0
 873              		@ frame_needed = 0, uses_anonymous_args = 0
 874              	.LVL58:
 875 0000 38B5     		push	{r3, r4, r5, lr}
 876              		.cfi_def_cfa_offset 16
 877              		.cfi_offset 3, -16
 878              		.cfi_offset 4, -12
 879              		.cfi_offset 5, -8
 880              		.cfi_offset 14, -4
 881              	.LBB8:
 882              	.LBB9:
 883              		.loc 1 991 0
 884 0002 1A4C     		ldr	r4, .L117
 885 0004 E369     		ldr	r3, [r4, #28]
 886              	.LBE9:
 887              	.LBE8:
 888              		.loc 1 535 0
 889 0006 4FF43020 		mov	r0, #720896
 890              		.loc 1 531 0
 891 000a 13F0060F 		tst	r3, #6
 892 000e 0CBF     		ite	eq
 893 0010 AA25     		moveq	r5, #170
 894 0012 0025     		movne	r5, #0
 895              	.LVL59:
 896              		.loc 1 535 0
 897 0014 FFF7FEFF 		bl	FLASH_WaitForLastOperation
ARM GAS  /tmp/ccDe7wQg.s 			page 17


 898              	.LVL60:
 899              		.loc 1 537 0
 900 0018 0428     		cmp	r0, #4
 901 001a 00D0     		beq	.L115
 902              	.LVL61:
 903              	.L105:
 904              		.loc 1 577 0
 905 001c 38BD     		pop	{r3, r4, r5, pc}
 906              	.LVL62:
 907              	.L115:
 908              		.loc 1 540 0
 909 001e 2369     		ldr	r3, [r4, #16]
 910 0020 43F02003 		orr	r3, r3, #32
 911 0024 2361     		str	r3, [r4, #16]
 912              		.loc 1 541 0
 913 0026 2369     		ldr	r3, [r4, #16]
 914 0028 43F04003 		orr	r3, r3, #64
 915 002c 2361     		str	r3, [r4, #16]
 916              		.loc 1 544 0
 917 002e 4FF43020 		mov	r0, #720896
 918              	.LVL63:
 919 0032 FFF7FEFF 		bl	FLASH_WaitForLastOperation
 920              	.LVL64:
 921              		.loc 1 546 0
 922 0036 0428     		cmp	r0, #4
 923 0038 06D0     		beq	.L116
 924              		.loc 1 568 0
 925 003a 0528     		cmp	r0, #5
 926 003c EED0     		beq	.L105
 927              	.LVL65:
 928              	.L114:
 929              		.loc 1 571 0
 930 003e 2369     		ldr	r3, [r4, #16]
 931 0040 23F01003 		bic	r3, r3, #16
 932 0044 2361     		str	r3, [r4, #16]
 933              	.LVL66:
 934              		.loc 1 577 0
 935 0046 38BD     		pop	{r3, r4, r5, pc}
 936              	.LVL67:
 937              	.L116:
 938              		.loc 1 549 0
 939 0048 2269     		ldr	r2, [r4, #16]
 940              		.loc 1 555 0
 941 004a 094B     		ldr	r3, .L117+4
 942              		.loc 1 549 0
 943 004c 22F02002 		bic	r2, r2, #32
 944 0050 2261     		str	r2, [r4, #16]
 945              		.loc 1 552 0
 946 0052 2269     		ldr	r2, [r4, #16]
 947 0054 42F01002 		orr	r2, r2, #16
 948 0058 2261     		str	r2, [r4, #16]
 949              		.loc 1 558 0
 950 005a 4FF43020 		mov	r0, #720896
 951              	.LVL68:
 952              		.loc 1 555 0
 953 005e 1D80     		strh	r5, [r3]	@ movhi
 954              		.loc 1 558 0
ARM GAS  /tmp/ccDe7wQg.s 			page 18


 955 0060 FFF7FEFF 		bl	FLASH_WaitForLastOperation
 956              	.LVL69:
 957              		.loc 1 560 0
 958 0064 0528     		cmp	r0, #5
 959 0066 EAD1     		bne	.L114
 960 0068 D8E7     		b	.L105
 961              	.L118:
 962 006a 00BF     		.align	2
 963              	.L117:
 964 006c 00200240 		.word	1073881088
 965 0070 00F8FF1F 		.word	536868864
 966              		.cfi_endproc
 967              	.LFE123:
 968              		.size	FLASH_OB_Erase, .-FLASH_OB_Erase
 969 0074 AFF30080 		.section	.text.FLASH_OB_EnableWRP,"ax",%progbits
 969      AFF30080 
 969      AFF30080 
 970              		.align	2
 971              		.p2align 4,,15
 972              		.global	FLASH_OB_EnableWRP
 973              		.thumb
 974              		.thumb_func
 975              		.type	FLASH_OB_EnableWRP, %function
 976              	FLASH_OB_EnableWRP:
 977              	.LFB124:
 978              		.loc 1 593 0
 979              		.cfi_startproc
 980              		@ args = 0, pretend = 0, frame = 0
 981              		@ frame_needed = 0, uses_anonymous_args = 0
 982              	.LVL70:
 983 0000 10B5     		push	{r4, lr}
 984              		.cfi_def_cfa_offset 8
 985              		.cfi_offset 4, -8
 986              		.cfi_offset 14, -4
 987              		.loc 1 593 0
 988 0002 0446     		mov	r4, r0
 989              	.LVL71:
 990              		.loc 1 606 0
 991 0004 4FF43020 		mov	r0, #720896
 992              	.LVL72:
 993 0008 FFF7FEFF 		bl	FLASH_WaitForLastOperation
 994              	.LVL73:
 995              		.loc 1 608 0
 996 000c 0428     		cmp	r0, #4
 997 000e 00D0     		beq	.L130
 998              	.LVL74:
 999              	.L120:
 1000              		.loc 1 635 0
 1001 0010 10BD     		pop	{r4, pc}
 1002              	.LVL75:
 1003              	.L130:
 1004              		.loc 1 610 0
 1005 0012 134B     		ldr	r3, .L132
 1006              		.loc 1 601 0
 1007 0014 E443     		mvns	r4, r4
 1008              	.LVL76:
 1009              		.loc 1 610 0
ARM GAS  /tmp/ccDe7wQg.s 			page 19


 1010 0016 1969     		ldr	r1, [r3, #16]
 1011              		.loc 1 602 0
 1012 0018 E2B2     		uxtb	r2, r4
 1013              		.loc 1 610 0
 1014 001a 41F01001 		orr	r1, r1, #16
 1015              		.loc 1 612 0
 1016 001e FF2A     		cmp	r2, #255
 1017              		.loc 1 610 0
 1018 0020 1961     		str	r1, [r3, #16]
 1019              		.loc 1 612 0
 1020 0022 0FD0     		beq	.L124
 1021              		.loc 1 614 0
 1022 0024 0F4B     		ldr	r3, .L132+4
 1023              		.loc 1 617 0
 1024 0026 4FF43020 		mov	r0, #720896
 1025              	.LVL77:
 1026              		.loc 1 614 0
 1027 002a 1A81     		strh	r2, [r3, #8]	@ movhi
 1028              		.loc 1 617 0
 1029 002c FFF7FEFF 		bl	FLASH_WaitForLastOperation
 1030              	.LVL78:
 1031              		.loc 1 619 0
 1032 0030 0428     		cmp	r0, #4
 1033 0032 07D0     		beq	.L124
 1034              	.LVL79:
 1035              	.L125:
 1036              		.loc 1 627 0
 1037 0034 0528     		cmp	r0, #5
 1038 0036 EBD0     		beq	.L120
 1039              	.LVL80:
 1040              	.L123:
 1041              		.loc 1 630 0
 1042 0038 094B     		ldr	r3, .L132
 1043 003a 1A69     		ldr	r2, [r3, #16]
 1044 003c 22F01002 		bic	r2, r2, #16
 1045 0040 1A61     		str	r2, [r3, #16]
 1046              		.loc 1 635 0
 1047 0042 10BD     		pop	{r4, pc}
 1048              	.LVL81:
 1049              	.L124:
 1050              		.loc 1 603 0
 1051 0044 C4F30724 		ubfx	r4, r4, #8, #8
 1052              		.loc 1 619 0
 1053 0048 FF2C     		cmp	r4, #255
 1054 004a 06D0     		beq	.L131
 1055              		.loc 1 621 0
 1056 004c 054B     		ldr	r3, .L132+4
 1057              		.loc 1 624 0
 1058 004e 4FF43020 		mov	r0, #720896
 1059              		.loc 1 621 0
 1060 0052 5C81     		strh	r4, [r3, #10]	@ movhi
 1061              		.loc 1 624 0
 1062 0054 FFF7FEFF 		bl	FLASH_WaitForLastOperation
 1063              	.LVL82:
 1064 0058 ECE7     		b	.L125
 1065              	.LVL83:
 1066              	.L131:
ARM GAS  /tmp/ccDe7wQg.s 			page 20


 1067 005a 0420     		movs	r0, #4
 1068 005c ECE7     		b	.L123
 1069              	.L133:
 1070 005e 00BF     		.align	2
 1071              	.L132:
 1072 0060 00200240 		.word	1073881088
 1073 0064 00F8FF1F 		.word	536868864
 1074              		.cfi_endproc
 1075              	.LFE124:
 1076              		.size	FLASH_OB_EnableWRP, .-FLASH_OB_EnableWRP
 1077 0068 AFF30080 		.section	.text.FLASH_OB_RDPConfig,"ax",%progbits
 1077      AFF30080 
 1078              		.align	2
 1079              		.p2align 4,,15
 1080              		.global	FLASH_OB_RDPConfig
 1081              		.thumb
 1082              		.thumb_func
 1083              		.type	FLASH_OB_RDPConfig, %function
 1084              	FLASH_OB_RDPConfig:
 1085              	.LFB125:
 1086              		.loc 1 652 0
 1087              		.cfi_startproc
 1088              		@ args = 0, pretend = 0, frame = 0
 1089              		@ frame_needed = 0, uses_anonymous_args = 0
 1090              	.LVL84:
 1091 0000 38B5     		push	{r3, r4, r5, lr}
 1092              		.cfi_def_cfa_offset 16
 1093              		.cfi_offset 3, -16
 1094              		.cfi_offset 4, -12
 1095              		.cfi_offset 5, -8
 1096              		.cfi_offset 14, -4
 1097              		.loc 1 652 0
 1098 0002 0546     		mov	r5, r0
 1099              		.loc 1 657 0
 1100 0004 4FF43020 		mov	r0, #720896
 1101              	.LVL85:
 1102 0008 FFF7FEFF 		bl	FLASH_WaitForLastOperation
 1103              	.LVL86:
 1104              		.loc 1 659 0
 1105 000c 0428     		cmp	r0, #4
 1106 000e 00D0     		beq	.L143
 1107              	.LVL87:
 1108              	.L135:
 1109              		.loc 1 697 0
 1110 0010 38BD     		pop	{r3, r4, r5, pc}
 1111              	.L143:
 1112              		.loc 1 661 0
 1113 0012 154C     		ldr	r4, .L145
 1114 0014 2369     		ldr	r3, [r4, #16]
 1115 0016 43F02003 		orr	r3, r3, #32
 1116 001a 2361     		str	r3, [r4, #16]
 1117              		.loc 1 662 0
 1118 001c 2369     		ldr	r3, [r4, #16]
 1119 001e 43F04003 		orr	r3, r3, #64
 1120 0022 2361     		str	r3, [r4, #16]
 1121              		.loc 1 665 0
 1122 0024 4FF43020 		mov	r0, #720896
ARM GAS  /tmp/ccDe7wQg.s 			page 21


 1123              	.LVL88:
 1124 0028 FFF7FEFF 		bl	FLASH_WaitForLastOperation
 1125              	.LVL89:
 1126              		.loc 1 667 0
 1127 002c 0428     		cmp	r0, #4
 1128 002e 06D0     		beq	.L144
 1129              		.loc 1 688 0
 1130 0030 0528     		cmp	r0, #5
 1131 0032 EDD0     		beq	.L135
 1132              		.loc 1 691 0
 1133 0034 2369     		ldr	r3, [r4, #16]
 1134 0036 23F02003 		bic	r3, r3, #32
 1135 003a 2361     		str	r3, [r4, #16]
 1136              		.loc 1 697 0
 1137 003c 38BD     		pop	{r3, r4, r5, pc}
 1138              	.L144:
 1139              		.loc 1 670 0
 1140 003e 2269     		ldr	r2, [r4, #16]
 1141              		.loc 1 675 0
 1142 0040 0A4B     		ldr	r3, .L145+4
 1143              		.loc 1 670 0
 1144 0042 22F02002 		bic	r2, r2, #32
 1145 0046 2261     		str	r2, [r4, #16]
 1146              		.loc 1 673 0
 1147 0048 2269     		ldr	r2, [r4, #16]
 1148 004a 42F01002 		orr	r2, r2, #16
 1149 004e 2261     		str	r2, [r4, #16]
 1150              		.loc 1 678 0
 1151 0050 4FF43020 		mov	r0, #720896
 1152              	.LVL90:
 1153              		.loc 1 675 0
 1154 0054 1D80     		strh	r5, [r3]	@ movhi
 1155              		.loc 1 678 0
 1156 0056 FFF7FEFF 		bl	FLASH_WaitForLastOperation
 1157              	.LVL91:
 1158              		.loc 1 680 0
 1159 005a 0528     		cmp	r0, #5
 1160 005c D8D0     		beq	.L135
 1161              		.loc 1 683 0
 1162 005e 2369     		ldr	r3, [r4, #16]
 1163 0060 23F01003 		bic	r3, r3, #16
 1164 0064 2361     		str	r3, [r4, #16]
 1165 0066 38BD     		pop	{r3, r4, r5, pc}
 1166              	.L146:
 1167              		.align	2
 1168              	.L145:
 1169 0068 00200240 		.word	1073881088
 1170 006c 00F8FF1F 		.word	536868864
 1171              		.cfi_endproc
 1172              	.LFE125:
 1173              		.size	FLASH_OB_RDPConfig, .-FLASH_OB_RDPConfig
 1174              		.section	.text.FLASH_OB_UserConfig,"ax",%progbits
 1175              		.align	2
 1176              		.p2align 4,,15
 1177              		.global	FLASH_OB_UserConfig
 1178              		.thumb
 1179              		.thumb_func
ARM GAS  /tmp/ccDe7wQg.s 			page 22


 1180              		.type	FLASH_OB_UserConfig, %function
 1181              	FLASH_OB_UserConfig:
 1182              	.LFB126:
 1183              		.loc 1 717 0
 1184              		.cfi_startproc
 1185              		@ args = 0, pretend = 0, frame = 0
 1186              		@ frame_needed = 0, uses_anonymous_args = 0
 1187              	.LVL92:
 1188 0000 F8B5     		push	{r3, r4, r5, r6, r7, lr}
 1189              		.cfi_def_cfa_offset 24
 1190              		.cfi_offset 3, -24
 1191              		.cfi_offset 4, -20
 1192              		.cfi_offset 5, -16
 1193              		.cfi_offset 6, -12
 1194              		.cfi_offset 7, -8
 1195              		.cfi_offset 14, -4
 1196              		.loc 1 726 0
 1197 0002 124C     		ldr	r4, .L153
 1198 0004 124D     		ldr	r5, .L153+4
 1199              		.loc 1 727 0
 1200 0006 134B     		ldr	r3, .L153+8
 1201              		.loc 1 726 0
 1202 0008 A560     		str	r5, [r4, #8]
 1203              		.loc 1 717 0
 1204 000a 0546     		mov	r5, r0
 1205              		.loc 1 727 0
 1206 000c A360     		str	r3, [r4, #8]
 1207              		.loc 1 730 0
 1208 000e 4FF43020 		mov	r0, #720896
 1209              	.LVL93:
 1210              		.loc 1 717 0
 1211 0012 0E46     		mov	r6, r1
 1212 0014 1746     		mov	r7, r2
 1213              		.loc 1 730 0
 1214 0016 FFF7FEFF 		bl	FLASH_WaitForLastOperation
 1215              	.LVL94:
 1216              		.loc 1 732 0
 1217 001a 0428     		cmp	r0, #4
 1218 001c 00D0     		beq	.L152
 1219              	.LVL95:
 1220              	.L148:
 1221              		.loc 1 750 0
 1222 001e F8BD     		pop	{r3, r4, r5, r6, r7, pc}
 1223              	.L152:
 1224              		.loc 1 737 0
 1225 0020 67F00707 		orn	r7, r7, #7
 1226              		.loc 1 735 0
 1227 0024 2269     		ldr	r2, [r4, #16]
 1228              		.loc 1 737 0
 1229 0026 0C4B     		ldr	r3, .L153+12
 1230 0028 3E43     		orrs	r6, r6, r7
 1231 002a 3543     		orrs	r5, r5, r6
 1232              		.loc 1 735 0
 1233 002c 42F01002 		orr	r2, r2, #16
 1234              		.loc 1 737 0
 1235 0030 EDB2     		uxtb	r5, r5
 1236              		.loc 1 735 0
ARM GAS  /tmp/ccDe7wQg.s 			page 23


 1237 0032 2261     		str	r2, [r4, #16]
 1238              		.loc 1 740 0
 1239 0034 4FF43020 		mov	r0, #720896
 1240              	.LVL96:
 1241              		.loc 1 737 0
 1242 0038 5D80     		strh	r5, [r3, #2]	@ movhi
 1243              		.loc 1 740 0
 1244 003a FFF7FEFF 		bl	FLASH_WaitForLastOperation
 1245              	.LVL97:
 1246              		.loc 1 742 0
 1247 003e 0528     		cmp	r0, #5
 1248 0040 EDD0     		beq	.L148
 1249              		.loc 1 745 0
 1250 0042 2369     		ldr	r3, [r4, #16]
 1251 0044 23F01003 		bic	r3, r3, #16
 1252 0048 2361     		str	r3, [r4, #16]
 1253              		.loc 1 750 0
 1254 004a F8BD     		pop	{r3, r4, r5, r6, r7, pc}
 1255              	.L154:
 1256              		.align	2
 1257              	.L153:
 1258 004c 00200240 		.word	1073881088
 1259 0050 23016745 		.word	1164378403
 1260 0054 AB89EFCD 		.word	-839939669
 1261 0058 00F8FF1F 		.word	536868864
 1262              		.cfi_endproc
 1263              	.LFE126:
 1264              		.size	FLASH_OB_UserConfig, .-FLASH_OB_UserConfig
 1265 005c AFF30080 		.section	.text.FLASH_OB_BOOTConfig,"ax",%progbits
 1266              		.align	2
 1267              		.p2align 4,,15
 1268              		.global	FLASH_OB_BOOTConfig
 1269              		.thumb
 1270              		.thumb_func
 1271              		.type	FLASH_OB_BOOTConfig, %function
 1272              	FLASH_OB_BOOTConfig:
 1273              	.LFB127:
 1274              		.loc 1 761 0
 1275              		.cfi_startproc
 1276              		@ args = 0, pretend = 0, frame = 0
 1277              		@ frame_needed = 0, uses_anonymous_args = 0
 1278              	.LVL98:
 1279 0000 38B5     		push	{r3, r4, r5, lr}
 1280              		.cfi_def_cfa_offset 16
 1281              		.cfi_offset 3, -16
 1282              		.cfi_offset 4, -12
 1283              		.cfi_offset 5, -8
 1284              		.cfi_offset 14, -4
 1285              		.loc 1 768 0
 1286 0002 104C     		ldr	r4, .L161
 1287 0004 104A     		ldr	r2, .L161+4
 1288              		.loc 1 769 0
 1289 0006 114B     		ldr	r3, .L161+8
 1290              		.loc 1 768 0
 1291 0008 A260     		str	r2, [r4, #8]
 1292              		.loc 1 761 0
 1293 000a 0546     		mov	r5, r0
ARM GAS  /tmp/ccDe7wQg.s 			page 24


 1294              		.loc 1 769 0
 1295 000c A360     		str	r3, [r4, #8]
 1296              		.loc 1 772 0
 1297 000e 4FF43020 		mov	r0, #720896
 1298              	.LVL99:
 1299 0012 FFF7FEFF 		bl	FLASH_WaitForLastOperation
 1300              	.LVL100:
 1301              		.loc 1 774 0
 1302 0016 0428     		cmp	r0, #4
 1303 0018 00D0     		beq	.L160
 1304              	.LVL101:
 1305              	.L156:
 1306              		.loc 1 792 0
 1307 001a 38BD     		pop	{r3, r4, r5, pc}
 1308              	.L160:
 1309              		.loc 1 777 0
 1310 001c 2269     		ldr	r2, [r4, #16]
 1311              		.loc 1 779 0
 1312 001e 0C4B     		ldr	r3, .L161+12
 1313              		.loc 1 777 0
 1314 0020 42F01002 		orr	r2, r2, #16
 1315              		.loc 1 779 0
 1316 0024 45F0EF05 		orr	r5, r5, #239
 1317              		.loc 1 777 0
 1318 0028 2261     		str	r2, [r4, #16]
 1319              		.loc 1 782 0
 1320 002a 4FF43020 		mov	r0, #720896
 1321              	.LVL102:
 1322              		.loc 1 779 0
 1323 002e 5D80     		strh	r5, [r3, #2]	@ movhi
 1324              		.loc 1 782 0
 1325 0030 FFF7FEFF 		bl	FLASH_WaitForLastOperation
 1326              	.LVL103:
 1327              		.loc 1 784 0
 1328 0034 0528     		cmp	r0, #5
 1329 0036 F0D0     		beq	.L156
 1330              		.loc 1 787 0
 1331 0038 2369     		ldr	r3, [r4, #16]
 1332 003a 23F01003 		bic	r3, r3, #16
 1333 003e 2361     		str	r3, [r4, #16]
 1334              		.loc 1 792 0
 1335 0040 38BD     		pop	{r3, r4, r5, pc}
 1336              	.L162:
 1337 0042 00BF     		.align	2
 1338              	.L161:
 1339 0044 00200240 		.word	1073881088
 1340 0048 23016745 		.word	1164378403
 1341 004c AB89EFCD 		.word	-839939669
 1342 0050 00F8FF1F 		.word	536868864
 1343              		.cfi_endproc
 1344              	.LFE127:
 1345              		.size	FLASH_OB_BOOTConfig, .-FLASH_OB_BOOTConfig
 1346 0054 AFF30080 		.section	.text.FLASH_OB_VDDAConfig,"ax",%progbits
 1346      AFF30080 
 1346      AFF30080 
 1347              		.align	2
 1348              		.p2align 4,,15
ARM GAS  /tmp/ccDe7wQg.s 			page 25


 1349              		.global	FLASH_OB_VDDAConfig
 1350              		.thumb
 1351              		.thumb_func
 1352              		.type	FLASH_OB_VDDAConfig, %function
 1353              	FLASH_OB_VDDAConfig:
 1354              	.LFB128:
 1355              		.loc 1 803 0
 1356              		.cfi_startproc
 1357              		@ args = 0, pretend = 0, frame = 0
 1358              		@ frame_needed = 0, uses_anonymous_args = 0
 1359              	.LVL104:
 1360 0000 38B5     		push	{r3, r4, r5, lr}
 1361              		.cfi_def_cfa_offset 16
 1362              		.cfi_offset 3, -16
 1363              		.cfi_offset 4, -12
 1364              		.cfi_offset 5, -8
 1365              		.cfi_offset 14, -4
 1366              		.loc 1 810 0
 1367 0002 104C     		ldr	r4, .L169
 1368 0004 104A     		ldr	r2, .L169+4
 1369              		.loc 1 811 0
 1370 0006 114B     		ldr	r3, .L169+8
 1371              		.loc 1 810 0
 1372 0008 A260     		str	r2, [r4, #8]
 1373              		.loc 1 803 0
 1374 000a 0546     		mov	r5, r0
 1375              		.loc 1 811 0
 1376 000c A360     		str	r3, [r4, #8]
 1377              		.loc 1 814 0
 1378 000e 4FF43020 		mov	r0, #720896
 1379              	.LVL105:
 1380 0012 FFF7FEFF 		bl	FLASH_WaitForLastOperation
 1381              	.LVL106:
 1382              		.loc 1 816 0
 1383 0016 0428     		cmp	r0, #4
 1384 0018 00D0     		beq	.L168
 1385              	.LVL107:
 1386              	.L164:
 1387              		.loc 1 834 0
 1388 001a 38BD     		pop	{r3, r4, r5, pc}
 1389              	.L168:
 1390              		.loc 1 819 0
 1391 001c 2269     		ldr	r2, [r4, #16]
 1392              		.loc 1 821 0
 1393 001e 0C4B     		ldr	r3, .L169+12
 1394              		.loc 1 819 0
 1395 0020 42F01002 		orr	r2, r2, #16
 1396              		.loc 1 821 0
 1397 0024 45F0DF05 		orr	r5, r5, #223
 1398              		.loc 1 819 0
 1399 0028 2261     		str	r2, [r4, #16]
 1400              		.loc 1 824 0
 1401 002a 4FF43020 		mov	r0, #720896
 1402              	.LVL108:
 1403              		.loc 1 821 0
 1404 002e 5D80     		strh	r5, [r3, #2]	@ movhi
 1405              		.loc 1 824 0
ARM GAS  /tmp/ccDe7wQg.s 			page 26


 1406 0030 FFF7FEFF 		bl	FLASH_WaitForLastOperation
 1407              	.LVL109:
 1408              		.loc 1 826 0
 1409 0034 0528     		cmp	r0, #5
 1410 0036 F0D0     		beq	.L164
 1411              		.loc 1 829 0
 1412 0038 2369     		ldr	r3, [r4, #16]
 1413 003a 23F01003 		bic	r3, r3, #16
 1414 003e 2361     		str	r3, [r4, #16]
 1415              		.loc 1 834 0
 1416 0040 38BD     		pop	{r3, r4, r5, pc}
 1417              	.L170:
 1418 0042 00BF     		.align	2
 1419              	.L169:
 1420 0044 00200240 		.word	1073881088
 1421 0048 23016745 		.word	1164378403
 1422 004c AB89EFCD 		.word	-839939669
 1423 0050 00F8FF1F 		.word	536868864
 1424              		.cfi_endproc
 1425              	.LFE128:
 1426              		.size	FLASH_OB_VDDAConfig, .-FLASH_OB_VDDAConfig
 1427 0054 AFF30080 		.section	.text.FLASH_OB_SRAMParityConfig,"ax",%progbits
 1427      AFF30080 
 1427      AFF30080 
 1428              		.align	2
 1429              		.p2align 4,,15
 1430              		.global	FLASH_OB_SRAMParityConfig
 1431              		.thumb
 1432              		.thumb_func
 1433              		.type	FLASH_OB_SRAMParityConfig, %function
 1434              	FLASH_OB_SRAMParityConfig:
 1435              	.LFB129:
 1436              		.loc 1 845 0
 1437              		.cfi_startproc
 1438              		@ args = 0, pretend = 0, frame = 0
 1439              		@ frame_needed = 0, uses_anonymous_args = 0
 1440              	.LVL110:
 1441 0000 38B5     		push	{r3, r4, r5, lr}
 1442              		.cfi_def_cfa_offset 16
 1443              		.cfi_offset 3, -16
 1444              		.cfi_offset 4, -12
 1445              		.cfi_offset 5, -8
 1446              		.cfi_offset 14, -4
 1447              		.loc 1 845 0
 1448 0002 0446     		mov	r4, r0
 1449              		.loc 1 852 0
 1450 0004 4FF43020 		mov	r0, #720896
 1451              	.LVL111:
 1452 0008 FFF7FEFF 		bl	FLASH_WaitForLastOperation
 1453              	.LVL112:
 1454              		.loc 1 854 0
 1455 000c 0428     		cmp	r0, #4
 1456 000e 00D0     		beq	.L176
 1457              	.LVL113:
 1458              	.L172:
 1459              		.loc 1 872 0
 1460 0010 38BD     		pop	{r3, r4, r5, pc}
ARM GAS  /tmp/ccDe7wQg.s 			page 27


 1461              	.L176:
 1462              		.loc 1 857 0
 1463 0012 0A4D     		ldr	r5, .L177
 1464              		.loc 1 859 0
 1465 0014 0A4B     		ldr	r3, .L177+4
 1466              		.loc 1 857 0
 1467 0016 2A69     		ldr	r2, [r5, #16]
 1468              		.loc 1 859 0
 1469 0018 44F0BF04 		orr	r4, r4, #191
 1470              		.loc 1 857 0
 1471 001c 42F01002 		orr	r2, r2, #16
 1472 0020 2A61     		str	r2, [r5, #16]
 1473              		.loc 1 862 0
 1474 0022 4FF43020 		mov	r0, #720896
 1475              	.LVL114:
 1476              		.loc 1 859 0
 1477 0026 5C80     		strh	r4, [r3, #2]	@ movhi
 1478              		.loc 1 862 0
 1479 0028 FFF7FEFF 		bl	FLASH_WaitForLastOperation
 1480              	.LVL115:
 1481              		.loc 1 864 0
 1482 002c 0528     		cmp	r0, #5
 1483 002e EFD0     		beq	.L172
 1484              		.loc 1 867 0
 1485 0030 2B69     		ldr	r3, [r5, #16]
 1486 0032 23F01003 		bic	r3, r3, #16
 1487 0036 2B61     		str	r3, [r5, #16]
 1488              		.loc 1 872 0
 1489 0038 38BD     		pop	{r3, r4, r5, pc}
 1490              	.L178:
 1491 003a 00BF     		.align	2
 1492              	.L177:
 1493 003c 00200240 		.word	1073881088
 1494 0040 00F8FF1F 		.word	536868864
 1495              		.cfi_endproc
 1496              	.LFE129:
 1497              		.size	FLASH_OB_SRAMParityConfig, .-FLASH_OB_SRAMParityConfig
 1498 0044 AFF30080 		.section	.text.FLASH_OB_WriteUser,"ax",%progbits
 1498      AFF30080 
 1498      AFF30080 
 1499              		.align	2
 1500              		.p2align 4,,15
 1501              		.global	FLASH_OB_WriteUser
 1502              		.thumb
 1503              		.thumb_func
 1504              		.type	FLASH_OB_WriteUser, %function
 1505              	FLASH_OB_WriteUser:
 1506              	.LFB130:
 1507              		.loc 1 891 0
 1508              		.cfi_startproc
 1509              		@ args = 0, pretend = 0, frame = 0
 1510              		@ frame_needed = 0, uses_anonymous_args = 0
 1511              	.LVL116:
 1512 0000 38B5     		push	{r3, r4, r5, lr}
 1513              		.cfi_def_cfa_offset 16
 1514              		.cfi_offset 3, -16
 1515              		.cfi_offset 4, -12
ARM GAS  /tmp/ccDe7wQg.s 			page 28


 1516              		.cfi_offset 5, -8
 1517              		.cfi_offset 14, -4
 1518              		.loc 1 895 0
 1519 0002 104C     		ldr	r4, .L185
 1520 0004 104A     		ldr	r2, .L185+4
 1521              		.loc 1 896 0
 1522 0006 114B     		ldr	r3, .L185+8
 1523              		.loc 1 895 0
 1524 0008 A260     		str	r2, [r4, #8]
 1525              		.loc 1 891 0
 1526 000a 0546     		mov	r5, r0
 1527              		.loc 1 896 0
 1528 000c A360     		str	r3, [r4, #8]
 1529              		.loc 1 899 0
 1530 000e 4FF43020 		mov	r0, #720896
 1531              	.LVL117:
 1532 0012 FFF7FEFF 		bl	FLASH_WaitForLastOperation
 1533              	.LVL118:
 1534              		.loc 1 901 0
 1535 0016 0428     		cmp	r0, #4
 1536 0018 00D0     		beq	.L184
 1537              	.LVL119:
 1538              	.L180:
 1539              		.loc 1 920 0
 1540 001a 38BD     		pop	{r3, r4, r5, pc}
 1541              	.L184:
 1542              		.loc 1 904 0
 1543 001c 2269     		ldr	r2, [r4, #16]
 1544              		.loc 1 906 0
 1545 001e 0C4B     		ldr	r3, .L185+12
 1546              		.loc 1 904 0
 1547 0020 42F01002 		orr	r2, r2, #16
 1548              		.loc 1 906 0
 1549 0024 45F08805 		orr	r5, r5, #136
 1550              		.loc 1 904 0
 1551 0028 2261     		str	r2, [r4, #16]
 1552              		.loc 1 909 0
 1553 002a 4FF43020 		mov	r0, #720896
 1554              	.LVL120:
 1555              		.loc 1 906 0
 1556 002e 5D80     		strh	r5, [r3, #2]	@ movhi
 1557              		.loc 1 909 0
 1558 0030 FFF7FEFF 		bl	FLASH_WaitForLastOperation
 1559              	.LVL121:
 1560              		.loc 1 911 0
 1561 0034 0528     		cmp	r0, #5
 1562 0036 F0D0     		beq	.L180
 1563              		.loc 1 914 0
 1564 0038 2369     		ldr	r3, [r4, #16]
 1565 003a 23F01003 		bic	r3, r3, #16
 1566 003e 2361     		str	r3, [r4, #16]
 1567              		.loc 1 920 0
 1568 0040 38BD     		pop	{r3, r4, r5, pc}
 1569              	.L186:
 1570 0042 00BF     		.align	2
 1571              	.L185:
 1572 0044 00200240 		.word	1073881088
ARM GAS  /tmp/ccDe7wQg.s 			page 29


 1573 0048 23016745 		.word	1164378403
 1574 004c AB89EFCD 		.word	-839939669
 1575 0050 00F8FF1F 		.word	536868864
 1576              		.cfi_endproc
 1577              	.LFE130:
 1578              		.size	FLASH_OB_WriteUser, .-FLASH_OB_WriteUser
 1579 0054 AFF30080 		.section	.text.FLASH_ProgramOptionByteData,"ax",%progbits
 1579      AFF30080 
 1579      AFF30080 
 1580              		.align	2
 1581              		.p2align 4,,15
 1582              		.global	FLASH_ProgramOptionByteData
 1583              		.thumb
 1584              		.thumb_func
 1585              		.type	FLASH_ProgramOptionByteData, %function
 1586              	FLASH_ProgramOptionByteData:
 1587              	.LFB131:
 1588              		.loc 1 935 0
 1589              		.cfi_startproc
 1590              		@ args = 0, pretend = 0, frame = 0
 1591              		@ frame_needed = 0, uses_anonymous_args = 0
 1592              	.LVL122:
 1593 0000 70B5     		push	{r4, r5, r6, lr}
 1594              		.cfi_def_cfa_offset 16
 1595              		.cfi_offset 4, -16
 1596              		.cfi_offset 5, -12
 1597              		.cfi_offset 6, -8
 1598              		.cfi_offset 14, -4
 1599              		.loc 1 935 0
 1600 0002 0446     		mov	r4, r0
 1601              		.loc 1 939 0
 1602 0004 4FF43020 		mov	r0, #720896
 1603              	.LVL123:
 1604              		.loc 1 935 0
 1605 0008 0D46     		mov	r5, r1
 1606              		.loc 1 939 0
 1607 000a FFF7FEFF 		bl	FLASH_WaitForLastOperation
 1608              	.LVL124:
 1609              		.loc 1 941 0
 1610 000e 0428     		cmp	r0, #4
 1611 0010 00D0     		beq	.L192
 1612              	.LVL125:
 1613              	.L188:
 1614              		.loc 1 958 0
 1615 0012 70BD     		pop	{r4, r5, r6, pc}
 1616              	.LVL126:
 1617              	.L192:
 1618              		.loc 1 944 0
 1619 0014 084E     		ldr	r6, .L193
 1620 0016 3369     		ldr	r3, [r6, #16]
 1621 0018 43F01003 		orr	r3, r3, #16
 1622 001c 3361     		str	r3, [r6, #16]
 1623              		.loc 1 948 0
 1624 001e 4FF43020 		mov	r0, #720896
 1625              	.LVL127:
 1626              		.loc 1 945 0
 1627 0022 2580     		strh	r5, [r4]	@ movhi
ARM GAS  /tmp/ccDe7wQg.s 			page 30


 1628              		.loc 1 948 0
 1629 0024 FFF7FEFF 		bl	FLASH_WaitForLastOperation
 1630              	.LVL128:
 1631              		.loc 1 950 0
 1632 0028 0528     		cmp	r0, #5
 1633 002a F2D0     		beq	.L188
 1634              		.loc 1 953 0
 1635 002c 3369     		ldr	r3, [r6, #16]
 1636 002e 23F01003 		bic	r3, r3, #16
 1637 0032 3361     		str	r3, [r6, #16]
 1638              		.loc 1 958 0
 1639 0034 70BD     		pop	{r4, r5, r6, pc}
 1640              	.LVL129:
 1641              	.L194:
 1642 0036 00BF     		.align	2
 1643              	.L193:
 1644 0038 00200240 		.word	1073881088
 1645              		.cfi_endproc
 1646              	.LFE131:
 1647              		.size	FLASH_ProgramOptionByteData, .-FLASH_ProgramOptionByteData
 1648 003c AFF30080 		.text
 1649              	.Letext0:
 1650              		.file 2 "/usr/include/newlib/machine/_default_types.h"
 1651              		.file 3 "/usr/include/newlib/stdint.h"
 1652              		.file 4 "../../../../os/hal/platforms/STM32F30x/stm32f30x.h"
 1653              		.file 5 "../../../../ext/stm32lib/inc/stm32f30x_flash.h"
 1654              		.file 6 "../../../../os/ports/common/ARMCMx/CMSIS/include/core_cm4.h"
 1655              		.section	.debug_info,"",%progbits
 1656              	.Ldebug_info0:
 1657 0000 980A0000 		.4byte	0xa98
 1658 0004 0400     		.2byte	0x4
 1659 0006 00000000 		.4byte	.Ldebug_abbrev0
 1660 000a 04       		.byte	0x4
 1661 000b 01       		.uleb128 0x1
 1662 000c D9040000 		.4byte	.LASF96
 1663 0010 01       		.byte	0x1
 1664 0011 69010000 		.4byte	.LASF97
 1665 0015 F8030000 		.4byte	.LASF98
 1666 0019 00000000 		.4byte	.Ldebug_ranges0+0
 1667 001d 00000000 		.4byte	0
 1668 0021 00000000 		.4byte	.Ldebug_line0
 1669 0025 02       		.uleb128 0x2
 1670 0026 01       		.byte	0x1
 1671 0027 06       		.byte	0x6
 1672 0028 72020000 		.4byte	.LASF0
 1673 002c 03       		.uleb128 0x3
 1674 002d A1010000 		.4byte	.LASF3
 1675 0031 02       		.byte	0x2
 1676 0032 1D       		.byte	0x1d
 1677 0033 37000000 		.4byte	0x37
 1678 0037 02       		.uleb128 0x2
 1679 0038 01       		.byte	0x1
 1680 0039 08       		.byte	0x8
 1681 003a 10020000 		.4byte	.LASF1
 1682 003e 02       		.uleb128 0x2
 1683 003f 02       		.byte	0x2
 1684 0040 05       		.byte	0x5
ARM GAS  /tmp/ccDe7wQg.s 			page 31


 1685 0041 D3000000 		.4byte	.LASF2
 1686 0045 03       		.uleb128 0x3
 1687 0046 C1000000 		.4byte	.LASF4
 1688 004a 02       		.byte	0x2
 1689 004b 2B       		.byte	0x2b
 1690 004c 50000000 		.4byte	0x50
 1691 0050 02       		.uleb128 0x2
 1692 0051 02       		.byte	0x2
 1693 0052 07       		.byte	0x7
 1694 0053 24030000 		.4byte	.LASF5
 1695 0057 03       		.uleb128 0x3
 1696 0058 91040000 		.4byte	.LASF6
 1697 005c 02       		.byte	0x2
 1698 005d 3F       		.byte	0x3f
 1699 005e 62000000 		.4byte	0x62
 1700 0062 02       		.uleb128 0x2
 1701 0063 04       		.byte	0x4
 1702 0064 05       		.byte	0x5
 1703 0065 98010000 		.4byte	.LASF7
 1704 0069 03       		.uleb128 0x3
 1705 006a 95000000 		.4byte	.LASF8
 1706 006e 02       		.byte	0x2
 1707 006f 41       		.byte	0x41
 1708 0070 74000000 		.4byte	0x74
 1709 0074 02       		.uleb128 0x2
 1710 0075 04       		.byte	0x4
 1711 0076 07       		.byte	0x7
 1712 0077 64040000 		.4byte	.LASF9
 1713 007b 02       		.uleb128 0x2
 1714 007c 08       		.byte	0x8
 1715 007d 05       		.byte	0x5
 1716 007e 5B010000 		.4byte	.LASF10
 1717 0082 02       		.uleb128 0x2
 1718 0083 08       		.byte	0x8
 1719 0084 07       		.byte	0x7
 1720 0085 92020000 		.4byte	.LASF11
 1721 0089 04       		.uleb128 0x4
 1722 008a 04       		.byte	0x4
 1723 008b 05       		.byte	0x5
 1724 008c 696E7400 		.ascii	"int\000"
 1725 0090 02       		.uleb128 0x2
 1726 0091 04       		.byte	0x4
 1727 0092 07       		.byte	0x7
 1728 0093 CD020000 		.4byte	.LASF12
 1729 0097 03       		.uleb128 0x3
 1730 0098 12010000 		.4byte	.LASF13
 1731 009c 03       		.byte	0x3
 1732 009d 2A       		.byte	0x2a
 1733 009e 2C000000 		.4byte	0x2c
 1734 00a2 03       		.uleb128 0x3
 1735 00a3 5A030000 		.4byte	.LASF14
 1736 00a7 03       		.byte	0x3
 1737 00a8 36       		.byte	0x36
 1738 00a9 45000000 		.4byte	0x45
 1739 00ad 03       		.uleb128 0x3
 1740 00ae 81030000 		.4byte	.LASF15
 1741 00b2 03       		.byte	0x3
ARM GAS  /tmp/ccDe7wQg.s 			page 32


 1742 00b3 41       		.byte	0x41
 1743 00b4 57000000 		.4byte	0x57
 1744 00b8 03       		.uleb128 0x3
 1745 00b9 B4020000 		.4byte	.LASF16
 1746 00bd 03       		.byte	0x3
 1747 00be 42       		.byte	0x42
 1748 00bf 69000000 		.4byte	0x69
 1749 00c3 02       		.uleb128 0x2
 1750 00c4 04       		.byte	0x4
 1751 00c5 07       		.byte	0x7
 1752 00c6 69000000 		.4byte	.LASF17
 1753 00ca 05       		.uleb128 0x5
 1754 00cb B8000000 		.4byte	0xb8
 1755 00cf 05       		.uleb128 0x5
 1756 00d0 A2000000 		.4byte	0xa2
 1757 00d4 05       		.uleb128 0x5
 1758 00d5 AD000000 		.4byte	0xad
 1759 00d9 06       		.uleb128 0x6
 1760 00da 01       		.byte	0x1
 1761 00db 04       		.byte	0x4
 1762 00dc 2201     		.2byte	0x122
 1763 00de EF000000 		.4byte	0xef
 1764 00e2 07       		.uleb128 0x7
 1765 00e3 E5020000 		.4byte	.LASF18
 1766 00e7 00       		.sleb128 0
 1767 00e8 08       		.uleb128 0x8
 1768 00e9 53455400 		.ascii	"SET\000"
 1769 00ed 01       		.sleb128 1
 1770 00ee 00       		.byte	0
 1771 00ef 09       		.uleb128 0x9
 1772 00f0 B6000000 		.4byte	.LASF19
 1773 00f4 04       		.byte	0x4
 1774 00f5 2201     		.2byte	0x122
 1775 00f7 D9000000 		.4byte	0xd9
 1776 00fb 06       		.uleb128 0x6
 1777 00fc 01       		.byte	0x1
 1778 00fd 04       		.byte	0x4
 1779 00fe 2401     		.2byte	0x124
 1780 0100 11010000 		.4byte	0x111
 1781 0104 07       		.uleb128 0x7
 1782 0105 4B010000 		.4byte	.LASF20
 1783 0109 00       		.sleb128 0
 1784 010a 07       		.uleb128 0x7
 1785 010b 28060000 		.4byte	.LASF21
 1786 010f 01       		.sleb128 1
 1787 0110 00       		.byte	0
 1788 0111 09       		.uleb128 0x9
 1789 0112 81040000 		.4byte	.LASF22
 1790 0116 04       		.byte	0x4
 1791 0117 2401     		.2byte	0x124
 1792 0119 FB000000 		.4byte	0xfb
 1793 011d 0A       		.uleb128 0xa
 1794 011e 24       		.byte	0x24
 1795 011f 04       		.byte	0x4
 1796 0120 0D02     		.2byte	0x20d
 1797 0122 99010000 		.4byte	0x199
 1798 0126 0B       		.uleb128 0xb
ARM GAS  /tmp/ccDe7wQg.s 			page 33


 1799 0127 41435200 		.ascii	"ACR\000"
 1800 012b 04       		.byte	0x4
 1801 012c 0F02     		.2byte	0x20f
 1802 012e CA000000 		.4byte	0xca
 1803 0132 00       		.byte	0
 1804 0133 0C       		.uleb128 0xc
 1805 0134 1A060000 		.4byte	.LASF23
 1806 0138 04       		.byte	0x4
 1807 0139 1002     		.2byte	0x210
 1808 013b CA000000 		.4byte	0xca
 1809 013f 04       		.byte	0x4
 1810 0140 0C       		.uleb128 0xc
 1811 0141 53010000 		.4byte	.LASF24
 1812 0145 04       		.byte	0x4
 1813 0146 1102     		.2byte	0x211
 1814 0148 CA000000 		.4byte	0xca
 1815 014c 08       		.byte	0x8
 1816 014d 0B       		.uleb128 0xb
 1817 014e 535200   		.ascii	"SR\000"
 1818 0151 04       		.byte	0x4
 1819 0152 1202     		.2byte	0x212
 1820 0154 CA000000 		.4byte	0xca
 1821 0158 0C       		.byte	0xc
 1822 0159 0B       		.uleb128 0xb
 1823 015a 435200   		.ascii	"CR\000"
 1824 015d 04       		.byte	0x4
 1825 015e 1302     		.2byte	0x213
 1826 0160 CA000000 		.4byte	0xca
 1827 0164 10       		.byte	0x10
 1828 0165 0B       		.uleb128 0xb
 1829 0166 415200   		.ascii	"AR\000"
 1830 0169 04       		.byte	0x4
 1831 016a 1402     		.2byte	0x214
 1832 016c CA000000 		.4byte	0xca
 1833 0170 14       		.byte	0x14
 1834 0171 0C       		.uleb128 0xc
 1835 0172 B7050000 		.4byte	.LASF25
 1836 0176 04       		.byte	0x4
 1837 0177 1502     		.2byte	0x215
 1838 0179 B8000000 		.4byte	0xb8
 1839 017d 18       		.byte	0x18
 1840 017e 0B       		.uleb128 0xb
 1841 017f 4F425200 		.ascii	"OBR\000"
 1842 0183 04       		.byte	0x4
 1843 0184 1602     		.2byte	0x216
 1844 0186 CA000000 		.4byte	0xca
 1845 018a 1C       		.byte	0x1c
 1846 018b 0C       		.uleb128 0xc
 1847 018c AB010000 		.4byte	.LASF26
 1848 0190 04       		.byte	0x4
 1849 0191 1702     		.2byte	0x217
 1850 0193 CA000000 		.4byte	0xca
 1851 0197 20       		.byte	0x20
 1852 0198 00       		.byte	0
 1853 0199 09       		.uleb128 0x9
 1854 019a C8050000 		.4byte	.LASF27
 1855 019e 04       		.byte	0x4
ARM GAS  /tmp/ccDe7wQg.s 			page 34


 1856 019f 1902     		.2byte	0x219
 1857 01a1 1D010000 		.4byte	0x11d
 1858 01a5 0A       		.uleb128 0xa
 1859 01a6 10       		.byte	0x10
 1860 01a7 04       		.byte	0x4
 1861 01a8 1E02     		.2byte	0x21e
 1862 01aa 17020000 		.4byte	0x217
 1863 01ae 0B       		.uleb128 0xb
 1864 01af 52445000 		.ascii	"RDP\000"
 1865 01b3 04       		.byte	0x4
 1866 01b4 2002     		.2byte	0x220
 1867 01b6 CF000000 		.4byte	0xcf
 1868 01ba 00       		.byte	0
 1869 01bb 0C       		.uleb128 0xc
 1870 01bc AE040000 		.4byte	.LASF28
 1871 01c0 04       		.byte	0x4
 1872 01c1 2102     		.2byte	0x221
 1873 01c3 CF000000 		.4byte	0xcf
 1874 01c7 02       		.byte	0x2
 1875 01c8 0C       		.uleb128 0xc
 1876 01c9 50040000 		.4byte	.LASF29
 1877 01cd 04       		.byte	0x4
 1878 01ce 2202     		.2byte	0x222
 1879 01d0 A2000000 		.4byte	0xa2
 1880 01d4 04       		.byte	0x4
 1881 01d5 0C       		.uleb128 0xc
 1882 01d6 5A040000 		.4byte	.LASF30
 1883 01da 04       		.byte	0x4
 1884 01db 2302     		.2byte	0x223
 1885 01dd A2000000 		.4byte	0xa2
 1886 01e1 06       		.byte	0x6
 1887 01e2 0C       		.uleb128 0xc
 1888 01e3 37010000 		.4byte	.LASF31
 1889 01e7 04       		.byte	0x4
 1890 01e8 2402     		.2byte	0x224
 1891 01ea CF000000 		.4byte	0xcf
 1892 01ee 08       		.byte	0x8
 1893 01ef 0C       		.uleb128 0xc
 1894 01f0 3C010000 		.4byte	.LASF32
 1895 01f4 04       		.byte	0x4
 1896 01f5 2502     		.2byte	0x225
 1897 01f7 CF000000 		.4byte	0xcf
 1898 01fb 0A       		.byte	0xa
 1899 01fc 0C       		.uleb128 0xc
 1900 01fd 41010000 		.4byte	.LASF33
 1901 0201 04       		.byte	0x4
 1902 0202 2602     		.2byte	0x226
 1903 0204 CF000000 		.4byte	0xcf
 1904 0208 0C       		.byte	0xc
 1905 0209 0C       		.uleb128 0xc
 1906 020a 46010000 		.4byte	.LASF34
 1907 020e 04       		.byte	0x4
 1908 020f 2702     		.2byte	0x227
 1909 0211 CF000000 		.4byte	0xcf
 1910 0215 0E       		.byte	0xe
 1911 0216 00       		.byte	0
 1912 0217 09       		.uleb128 0x9
ARM GAS  /tmp/ccDe7wQg.s 			page 35


 1913 0218 99030000 		.4byte	.LASF35
 1914 021c 04       		.byte	0x4
 1915 021d 2802     		.2byte	0x228
 1916 021f A5010000 		.4byte	0x1a5
 1917 0223 0D       		.uleb128 0xd
 1918 0224 01       		.byte	0x1
 1919 0225 05       		.byte	0x5
 1920 0226 35       		.byte	0x35
 1921 0227 4A020000 		.4byte	0x24a
 1922 022b 07       		.uleb128 0x7
 1923 022c DA020000 		.4byte	.LASF36
 1924 0230 01       		.sleb128 1
 1925 0231 07       		.uleb128 0x7
 1926 0232 40000000 		.4byte	.LASF37
 1927 0236 02       		.sleb128 2
 1928 0237 07       		.uleb128 0x7
 1929 0238 B3040000 		.4byte	.LASF38
 1930 023c 03       		.sleb128 3
 1931 023d 07       		.uleb128 0x7
 1932 023e 63030000 		.4byte	.LASF39
 1933 0242 04       		.sleb128 4
 1934 0243 07       		.uleb128 0x7
 1935 0244 F5020000 		.4byte	.LASF40
 1936 0248 05       		.sleb128 5
 1937 0249 00       		.byte	0
 1938 024a 03       		.uleb128 0x3
 1939 024b 1A010000 		.4byte	.LASF41
 1940 024f 05       		.byte	0x5
 1941 0250 3B       		.byte	0x3b
 1942 0251 23020000 		.4byte	0x223
 1943 0255 0E       		.uleb128 0xe
 1944 0256 89030000 		.4byte	.LASF42
 1945 025a 01       		.byte	0x1
 1946 025b 4A04     		.2byte	0x44a
 1947 025d 4A020000 		.4byte	0x24a
 1948 0261 01       		.byte	0x1
 1949 0262 73020000 		.4byte	0x273
 1950 0266 0F       		.uleb128 0xf
 1951 0267 4E030000 		.4byte	.LASF44
 1952 026b 01       		.byte	0x1
 1953 026c 4C04     		.2byte	0x44c
 1954 026e 4A020000 		.4byte	0x24a
 1955 0272 00       		.byte	0
 1956 0273 0E       		.uleb128 0xe
 1957 0274 2F060000 		.4byte	.LASF43
 1958 0278 01       		.byte	0x1
 1959 0279 DB03     		.2byte	0x3db
 1960 027b EF000000 		.4byte	0xef
 1961 027f 01       		.byte	0x1
 1962 0280 91020000 		.4byte	0x291
 1963 0284 0F       		.uleb128 0xf
 1964 0285 A9020000 		.4byte	.LASF45
 1965 0289 01       		.byte	0x1
 1966 028a DD03     		.2byte	0x3dd
 1967 028c EF000000 		.4byte	0xef
 1968 0290 00       		.byte	0
 1969 0291 10       		.uleb128 0x10
ARM GAS  /tmp/ccDe7wQg.s 			page 36


 1970 0292 B2030000 		.4byte	.LASF46
 1971 0296 01       		.byte	0x1
 1972 0297 83       		.byte	0x83
 1973 0298 00000000 		.4byte	.LFB111
 1974 029c 14000000 		.4byte	.LFE111-.LFB111
 1975 02a0 01       		.uleb128 0x1
 1976 02a1 9C       		.byte	0x9c
 1977 02a2 C5020000 		.4byte	0x2c5
 1978 02a6 11       		.uleb128 0x11
 1979 02a7 A4030000 		.4byte	.LASF48
 1980 02ab 01       		.byte	0x1
 1981 02ac 83       		.byte	0x83
 1982 02ad B8000000 		.4byte	0xb8
 1983 02b1 00000000 		.4byte	.LLST0
 1984 02b5 12       		.uleb128 0x12
 1985 02b6 EE010000 		.4byte	.LASF61
 1986 02ba 01       		.byte	0x1
 1987 02bb 85       		.byte	0x85
 1988 02bc B8000000 		.4byte	0xb8
 1989 02c0 21000000 		.4byte	.LLST1
 1990 02c4 00       		.byte	0
 1991 02c5 10       		.uleb128 0x10
 1992 02c6 C3030000 		.4byte	.LASF47
 1993 02ca 01       		.byte	0x1
 1994 02cb 9D       		.byte	0x9d
 1995 02cc 00000000 		.4byte	.LFB112
 1996 02d0 1C000000 		.4byte	.LFE112-.LFB112
 1997 02d4 01       		.uleb128 0x1
 1998 02d5 9C       		.byte	0x9c
 1999 02d6 E8020000 		.4byte	0x2e8
 2000 02da 13       		.uleb128 0x13
 2001 02db 2E010000 		.4byte	.LASF49
 2002 02df 01       		.byte	0x1
 2003 02e0 9D       		.byte	0x9d
 2004 02e1 11010000 		.4byte	0x111
 2005 02e5 01       		.uleb128 0x1
 2006 02e6 50       		.byte	0x50
 2007 02e7 00       		.byte	0
 2008 02e8 10       		.uleb128 0x10
 2009 02e9 5A020000 		.4byte	.LASF50
 2010 02ed 01       		.byte	0x1
 2011 02ee B2       		.byte	0xb2
 2012 02ef 00000000 		.4byte	.LFB113
 2013 02f3 1C000000 		.4byte	.LFE113-.LFB113
 2014 02f7 01       		.uleb128 0x1
 2015 02f8 9C       		.byte	0x9c
 2016 02f9 0B030000 		.4byte	0x30b
 2017 02fd 13       		.uleb128 0x13
 2018 02fe 2E010000 		.4byte	.LASF49
 2019 0302 01       		.byte	0x1
 2020 0303 B2       		.byte	0xb2
 2021 0304 11010000 		.4byte	0x111
 2022 0308 01       		.uleb128 0x1
 2023 0309 50       		.byte	0x50
 2024 030a 00       		.byte	0
 2025 030b 14       		.uleb128 0x14
 2026 030c F1000000 		.4byte	.LASF51
ARM GAS  /tmp/ccDe7wQg.s 			page 37


 2027 0310 01       		.byte	0x1
 2028 0311 E4       		.byte	0xe4
 2029 0312 00000000 		.4byte	.LFB114
 2030 0316 20000000 		.4byte	.LFE114-.LFB114
 2031 031a 01       		.uleb128 0x1
 2032 031b 9C       		.byte	0x9c
 2033 031c 14       		.uleb128 0x14
 2034 031d 2B020000 		.4byte	.LASF52
 2035 0321 01       		.byte	0x1
 2036 0322 F3       		.byte	0xf3
 2037 0323 00000000 		.4byte	.LFB115
 2038 0327 10000000 		.4byte	.LFE115-.LFB115
 2039 032b 01       		.uleb128 0x1
 2040 032c 9C       		.byte	0x9c
 2041 032d 15       		.uleb128 0x15
 2042 032e 4A020000 		.4byte	.LASF53
 2043 0332 01       		.byte	0x1
 2044 0333 E301     		.2byte	0x1e3
 2045 0335 00000000 		.4byte	.LFB120
 2046 0339 20000000 		.4byte	.LFE120-.LFB120
 2047 033d 01       		.uleb128 0x1
 2048 033e 9C       		.byte	0x9c
 2049 033f 15       		.uleb128 0x15
 2050 0340 A0000000 		.4byte	.LASF54
 2051 0344 01       		.byte	0x1
 2052 0345 F201     		.2byte	0x1f2
 2053 0347 00000000 		.4byte	.LFB121
 2054 034b 10000000 		.4byte	.LFE121-.LFB121
 2055 034f 01       		.uleb128 0x1
 2056 0350 9C       		.byte	0x9c
 2057 0351 15       		.uleb128 0x15
 2058 0352 DE010000 		.4byte	.LASF55
 2059 0356 01       		.byte	0x1
 2060 0357 FD01     		.2byte	0x1fd
 2061 0359 00000000 		.4byte	.LFB122
 2062 035d 10000000 		.4byte	.LFE122-.LFB122
 2063 0361 01       		.uleb128 0x1
 2064 0362 9C       		.byte	0x9c
 2065 0363 16       		.uleb128 0x16
 2066 0364 FF010000 		.4byte	.LASF56
 2067 0368 01       		.byte	0x1
 2068 0369 C503     		.2byte	0x3c5
 2069 036b 97000000 		.4byte	0x97
 2070 036f 00000000 		.4byte	.LFB132
 2071 0373 10000000 		.4byte	.LFE132-.LFB132
 2072 0377 01       		.uleb128 0x1
 2073 0378 9C       		.byte	0x9c
 2074 0379 16       		.uleb128 0x16
 2075 037a 7B000000 		.4byte	.LASF57
 2076 037e 01       		.byte	0x1
 2077 037f D003     		.2byte	0x3d0
 2078 0381 B8000000 		.4byte	0xb8
 2079 0385 00000000 		.4byte	.LFB133
 2080 0389 0C000000 		.4byte	.LFE133-.LFB133
 2081 038d 01       		.uleb128 0x1
 2082 038e 9C       		.byte	0x9c
 2083 038f 17       		.uleb128 0x17
ARM GAS  /tmp/ccDe7wQg.s 			page 38


 2084 0390 73020000 		.4byte	0x273
 2085 0394 00000000 		.4byte	.LFB134
 2086 0398 14000000 		.4byte	.LFE134-.LFB134
 2087 039c 01       		.uleb128 0x1
 2088 039d 9C       		.byte	0x9c
 2089 039e AC030000 		.4byte	0x3ac
 2090 03a2 18       		.uleb128 0x18
 2091 03a3 84020000 		.4byte	0x284
 2092 03a7 4B000000 		.4byte	.LLST2
 2093 03ab 00       		.byte	0
 2094 03ac 19       		.uleb128 0x19
 2095 03ad 00000000 		.4byte	.LASF58
 2096 03b1 01       		.byte	0x1
 2097 03b2 0304     		.2byte	0x403
 2098 03b4 00000000 		.4byte	.LFB135
 2099 03b8 18000000 		.4byte	.LFE135-.LFB135
 2100 03bc 01       		.uleb128 0x1
 2101 03bd 9C       		.byte	0x9c
 2102 03be E1030000 		.4byte	0x3e1
 2103 03c2 1A       		.uleb128 0x1a
 2104 03c3 72000000 		.4byte	.LASF59
 2105 03c7 01       		.byte	0x1
 2106 03c8 0304     		.2byte	0x403
 2107 03ca B8000000 		.4byte	0xb8
 2108 03ce 70000000 		.4byte	.LLST3
 2109 03d2 1B       		.uleb128 0x1b
 2110 03d3 2E010000 		.4byte	.LASF49
 2111 03d7 01       		.byte	0x1
 2112 03d8 0304     		.2byte	0x403
 2113 03da 11010000 		.4byte	0x111
 2114 03de 01       		.uleb128 0x1
 2115 03df 51       		.byte	0x51
 2116 03e0 00       		.byte	0
 2117 03e1 1C       		.uleb128 0x1c
 2118 03e2 7E020000 		.4byte	.LASF64
 2119 03e6 01       		.byte	0x1
 2120 03e7 1F04     		.2byte	0x41f
 2121 03e9 EF000000 		.4byte	0xef
 2122 03ed 00000000 		.4byte	.LFB136
 2123 03f1 14000000 		.4byte	.LFE136-.LFB136
 2124 03f5 01       		.uleb128 0x1
 2125 03f6 9C       		.byte	0x9c
 2126 03f7 1C040000 		.4byte	0x41c
 2127 03fb 1A       		.uleb128 0x1a
 2128 03fc 76040000 		.4byte	.LASF60
 2129 0400 01       		.byte	0x1
 2130 0401 1F04     		.2byte	0x41f
 2131 0403 B8000000 		.4byte	0xb8
 2132 0407 AA000000 		.4byte	.LLST4
 2133 040b 1D       		.uleb128 0x1d
 2134 040c F5010000 		.4byte	.LASF62
 2135 0410 01       		.byte	0x1
 2136 0411 2104     		.2byte	0x421
 2137 0413 EF000000 		.4byte	0xef
 2138 0417 CB000000 		.4byte	.LLST5
 2139 041b 00       		.byte	0
 2140 041c 19       		.uleb128 0x19
ARM GAS  /tmp/ccDe7wQg.s 			page 39


 2141 041d BD020000 		.4byte	.LASF63
 2142 0421 01       		.byte	0x1
 2143 0422 3B04     		.2byte	0x43b
 2144 0424 00000000 		.4byte	.LFB137
 2145 0428 0C000000 		.4byte	.LFE137-.LFB137
 2146 042c 01       		.uleb128 0x1
 2147 042d 9C       		.byte	0x9c
 2148 042e 41040000 		.4byte	0x441
 2149 0432 1B       		.uleb128 0x1b
 2150 0433 76040000 		.4byte	.LASF60
 2151 0437 01       		.byte	0x1
 2152 0438 3B04     		.2byte	0x43b
 2153 043a B8000000 		.4byte	0xb8
 2154 043e 01       		.uleb128 0x1
 2155 043f 50       		.byte	0x50
 2156 0440 00       		.byte	0
 2157 0441 17       		.uleb128 0x17
 2158 0442 55020000 		.4byte	0x255
 2159 0446 00000000 		.4byte	.LFB138
 2160 044a 28000000 		.4byte	.LFE138-.LFB138
 2161 044e 01       		.uleb128 0x1
 2162 044f 9C       		.byte	0x9c
 2163 0450 6D040000 		.4byte	0x46d
 2164 0454 18       		.uleb128 0x18
 2165 0455 66020000 		.4byte	0x266
 2166 0459 04010000 		.4byte	.LLST6
 2167 045d 1E       		.uleb128 0x1e
 2168 045e 12000000 		.4byte	.LBB7
 2169 0462 0E000000 		.4byte	.LBE7-.LBB7
 2170 0466 1F       		.uleb128 0x1f
 2171 0467 66020000 		.4byte	0x266
 2172 046b 00       		.byte	0
 2173 046c 00       		.byte	0
 2174 046d 1C       		.uleb128 0x1c
 2175 046e D6050000 		.4byte	.LASF65
 2176 0472 01       		.byte	0x1
 2177 0473 6E04     		.2byte	0x46e
 2178 0475 4A020000 		.4byte	0x24a
 2179 0479 00000000 		.4byte	.LFB139
 2180 047d 22000000 		.4byte	.LFE139-.LFB139
 2181 0481 01       		.uleb128 0x1
 2182 0482 9C       		.byte	0x9c
 2183 0483 BA040000 		.4byte	0x4ba
 2184 0487 1A       		.uleb128 0x1a
 2185 0488 37030000 		.4byte	.LASF66
 2186 048c 01       		.byte	0x1
 2187 048d 6E04     		.2byte	0x46e
 2188 048f B8000000 		.4byte	0xb8
 2189 0493 2F010000 		.4byte	.LLST7
 2190 0497 1D       		.uleb128 0x1d
 2191 0498 1D030000 		.4byte	.LASF67
 2192 049c 01       		.byte	0x1
 2193 049d 7004     		.2byte	0x470
 2194 049f 4A020000 		.4byte	0x24a
 2195 04a3 4D010000 		.4byte	.LLST8
 2196 04a7 20       		.uleb128 0x20
 2197 04a8 08000000 		.4byte	.LVL20
ARM GAS  /tmp/ccDe7wQg.s 			page 40


 2198 04ac 55020000 		.4byte	0x255
 2199 04b0 20       		.uleb128 0x20
 2200 04b1 12000000 		.4byte	.LVL23
 2201 04b5 55020000 		.4byte	0x255
 2202 04b9 00       		.byte	0
 2203 04ba 1C       		.uleb128 0x1c
 2204 04bb 59000000 		.4byte	.LASF68
 2205 04bf 01       		.byte	0x1
 2206 04c0 0501     		.2byte	0x105
 2207 04c2 4A020000 		.4byte	0x24a
 2208 04c6 00000000 		.4byte	.LFB116
 2209 04ca 3C000000 		.4byte	.LFE116-.LFB116
 2210 04ce 01       		.uleb128 0x1
 2211 04cf 9C       		.byte	0x9c
 2212 04d0 1B050000 		.4byte	0x51b
 2213 04d4 1A       		.uleb128 0x1a
 2214 04d5 1E020000 		.4byte	.LASF69
 2215 04d9 01       		.byte	0x1
 2216 04da 0501     		.2byte	0x105
 2217 04dc B8000000 		.4byte	0xb8
 2218 04e0 9A010000 		.4byte	.LLST9
 2219 04e4 1D       		.uleb128 0x1d
 2220 04e5 1D030000 		.4byte	.LASF67
 2221 04e9 01       		.byte	0x1
 2222 04ea 0701     		.2byte	0x107
 2223 04ec 4A020000 		.4byte	0x24a
 2224 04f0 C6010000 		.4byte	.LLST10
 2225 04f4 21       		.uleb128 0x21
 2226 04f5 0C000000 		.4byte	.LVL30
 2227 04f9 6D040000 		.4byte	0x46d
 2228 04fd 09050000 		.4byte	0x509
 2229 0501 22       		.uleb128 0x22
 2230 0502 01       		.uleb128 0x1
 2231 0503 50       		.byte	0x50
 2232 0504 03       		.uleb128 0x3
 2233 0505 46       		.byte	0x46
 2234 0506 3F       		.byte	0x3f
 2235 0507 24       		.byte	0x24
 2236 0508 00       		.byte	0
 2237 0509 23       		.uleb128 0x23
 2238 050a 2E000000 		.4byte	.LVL33
 2239 050e 6D040000 		.4byte	0x46d
 2240 0512 22       		.uleb128 0x22
 2241 0513 01       		.uleb128 0x1
 2242 0514 50       		.byte	0x50
 2243 0515 03       		.uleb128 0x3
 2244 0516 46       		.byte	0x46
 2245 0517 3F       		.byte	0x3f
 2246 0518 24       		.byte	0x24
 2247 0519 00       		.byte	0
 2248 051a 00       		.byte	0
 2249 051b 1C       		.uleb128 0x1c
 2250 051c FE000000 		.4byte	.LASF70
 2251 0520 01       		.byte	0x1
 2252 0521 2B01     		.2byte	0x12b
 2253 0523 4A020000 		.4byte	0x24a
 2254 0527 00000000 		.4byte	.LFB117
ARM GAS  /tmp/ccDe7wQg.s 			page 41


 2255 052b 38000000 		.4byte	.LFE117-.LFB117
 2256 052f 01       		.uleb128 0x1
 2257 0530 9C       		.byte	0x9c
 2258 0531 6C050000 		.4byte	0x56c
 2259 0535 1D       		.uleb128 0x1d
 2260 0536 1D030000 		.4byte	.LASF67
 2261 053a 01       		.byte	0x1
 2262 053b 2D01     		.2byte	0x12d
 2263 053d 4A020000 		.4byte	0x24a
 2264 0541 F0010000 		.4byte	.LLST11
 2265 0545 21       		.uleb128 0x21
 2266 0546 0A000000 		.4byte	.LVL36
 2267 054a 6D040000 		.4byte	0x46d
 2268 054e 5A050000 		.4byte	0x55a
 2269 0552 22       		.uleb128 0x22
 2270 0553 01       		.uleb128 0x1
 2271 0554 50       		.byte	0x50
 2272 0555 03       		.uleb128 0x3
 2273 0556 46       		.byte	0x46
 2274 0557 3F       		.byte	0x3f
 2275 0558 24       		.byte	0x24
 2276 0559 00       		.byte	0
 2277 055a 23       		.uleb128 0x23
 2278 055b 2A000000 		.4byte	.LVL38
 2279 055f 6D040000 		.4byte	0x46d
 2280 0563 22       		.uleb128 0x22
 2281 0564 01       		.uleb128 0x1
 2282 0565 50       		.byte	0x50
 2283 0566 03       		.uleb128 0x3
 2284 0567 46       		.byte	0x46
 2285 0568 3F       		.byte	0x3f
 2286 0569 24       		.byte	0x24
 2287 056a 00       		.byte	0
 2288 056b 00       		.byte	0
 2289 056c 1C       		.uleb128 0x1c
 2290 056d C7040000 		.4byte	.LASF71
 2291 0571 01       		.byte	0x1
 2292 0572 4E01     		.2byte	0x14e
 2293 0574 4A020000 		.4byte	0x24a
 2294 0578 00000000 		.4byte	.LFB118
 2295 057c 64000000 		.4byte	.LFE118-.LFB118
 2296 0580 01       		.uleb128 0x1
 2297 0581 9C       		.byte	0x9c
 2298 0582 01060000 		.4byte	0x601
 2299 0586 1A       		.uleb128 0x1a
 2300 0587 AE000000 		.4byte	.LASF72
 2301 058b 01       		.byte	0x1
 2302 058c 4E01     		.2byte	0x14e
 2303 058e B8000000 		.4byte	0xb8
 2304 0592 1A020000 		.4byte	.LLST12
 2305 0596 1A       		.uleb128 0x1a
 2306 0597 C6010000 		.4byte	.LASF73
 2307 059b 01       		.byte	0x1
 2308 059c 4E01     		.2byte	0x14e
 2309 059e B8000000 		.4byte	0xb8
 2310 05a2 5E020000 		.4byte	.LLST13
 2311 05a6 1D       		.uleb128 0x1d
ARM GAS  /tmp/ccDe7wQg.s 			page 42


 2312 05a7 1D030000 		.4byte	.LASF67
 2313 05ab 01       		.byte	0x1
 2314 05ac 5001     		.2byte	0x150
 2315 05ae 4A020000 		.4byte	0x24a
 2316 05b2 A3020000 		.4byte	.LLST14
 2317 05b6 24       		.uleb128 0x24
 2318 05b7 746D7000 		.ascii	"tmp\000"
 2319 05bb 01       		.byte	0x1
 2320 05bc 5101     		.2byte	0x151
 2321 05be CA000000 		.4byte	0xca
 2322 05c2 02       		.uleb128 0x2
 2323 05c3 91       		.byte	0x91
 2324 05c4 6C       		.sleb128 -20
 2325 05c5 21       		.uleb128 0x21
 2326 05c6 14000000 		.4byte	.LVL41
 2327 05ca 6D040000 		.4byte	0x46d
 2328 05ce DA050000 		.4byte	0x5da
 2329 05d2 22       		.uleb128 0x22
 2330 05d3 01       		.uleb128 0x1
 2331 05d4 50       		.byte	0x50
 2332 05d5 03       		.uleb128 0x3
 2333 05d6 46       		.byte	0x46
 2334 05d7 3F       		.byte	0x3f
 2335 05d8 24       		.byte	0x24
 2336 05d9 00       		.byte	0
 2337 05da 21       		.uleb128 0x21
 2338 05db 32000000 		.4byte	.LVL45
 2339 05df 6D040000 		.4byte	0x46d
 2340 05e3 EF050000 		.4byte	0x5ef
 2341 05e7 22       		.uleb128 0x22
 2342 05e8 01       		.uleb128 0x1
 2343 05e9 50       		.byte	0x50
 2344 05ea 03       		.uleb128 0x3
 2345 05eb 46       		.byte	0x46
 2346 05ec 3F       		.byte	0x3f
 2347 05ed 24       		.byte	0x24
 2348 05ee 00       		.byte	0
 2349 05ef 23       		.uleb128 0x23
 2350 05f0 54000000 		.4byte	.LVL50
 2351 05f4 6D040000 		.4byte	0x46d
 2352 05f8 22       		.uleb128 0x22
 2353 05f9 01       		.uleb128 0x1
 2354 05fa 50       		.byte	0x50
 2355 05fb 03       		.uleb128 0x3
 2356 05fc 46       		.byte	0x46
 2357 05fd 3F       		.byte	0x3f
 2358 05fe 24       		.byte	0x24
 2359 05ff 00       		.byte	0
 2360 0600 00       		.byte	0
 2361 0601 1C       		.uleb128 0x1c
 2362 0602 B0010000 		.4byte	.LASF74
 2363 0606 01       		.byte	0x1
 2364 0607 8801     		.2byte	0x188
 2365 0609 4A020000 		.4byte	0x24a
 2366 060d 00000000 		.4byte	.LFB119
 2367 0611 38000000 		.4byte	.LFE119-.LFB119
 2368 0615 01       		.uleb128 0x1
ARM GAS  /tmp/ccDe7wQg.s 			page 43


 2369 0616 9C       		.byte	0x9c
 2370 0617 72060000 		.4byte	0x672
 2371 061b 1A       		.uleb128 0x1a
 2372 061c AE000000 		.4byte	.LASF72
 2373 0620 01       		.byte	0x1
 2374 0621 8801     		.2byte	0x188
 2375 0623 B8000000 		.4byte	0xb8
 2376 0627 D8020000 		.4byte	.LLST15
 2377 062b 1A       		.uleb128 0x1a
 2378 062c C6010000 		.4byte	.LASF73
 2379 0630 01       		.byte	0x1
 2380 0631 8801     		.2byte	0x188
 2381 0633 A2000000 		.4byte	0xa2
 2382 0637 04030000 		.4byte	.LLST16
 2383 063b 1D       		.uleb128 0x1d
 2384 063c 1D030000 		.4byte	.LASF67
 2385 0640 01       		.byte	0x1
 2386 0641 8A01     		.2byte	0x18a
 2387 0643 4A020000 		.4byte	0x24a
 2388 0647 25030000 		.4byte	.LLST17
 2389 064b 21       		.uleb128 0x21
 2390 064c 0E000000 		.4byte	.LVL53
 2391 0650 6D040000 		.4byte	0x46d
 2392 0654 60060000 		.4byte	0x660
 2393 0658 22       		.uleb128 0x22
 2394 0659 01       		.uleb128 0x1
 2395 065a 50       		.byte	0x50
 2396 065b 03       		.uleb128 0x3
 2397 065c 46       		.byte	0x46
 2398 065d 3F       		.byte	0x3f
 2399 065e 24       		.byte	0x24
 2400 065f 00       		.byte	0
 2401 0660 23       		.uleb128 0x23
 2402 0661 28000000 		.4byte	.LVL56
 2403 0665 6D040000 		.4byte	0x46d
 2404 0669 22       		.uleb128 0x22
 2405 066a 01       		.uleb128 0x1
 2406 066b 50       		.byte	0x50
 2407 066c 03       		.uleb128 0x3
 2408 066d 46       		.byte	0x46
 2409 066e 3F       		.byte	0x3f
 2410 066f 24       		.byte	0x24
 2411 0670 00       		.byte	0
 2412 0671 00       		.byte	0
 2413 0672 1C       		.uleb128 0x1c
 2414 0673 72030000 		.4byte	.LASF75
 2415 0677 01       		.byte	0x1
 2416 0678 0A02     		.2byte	0x20a
 2417 067a 4A020000 		.4byte	0x24a
 2418 067e 00000000 		.4byte	.LFB123
 2419 0682 74000000 		.4byte	.LFE123-.LFB123
 2420 0686 01       		.uleb128 0x1
 2421 0687 9C       		.byte	0x9c
 2422 0688 0D070000 		.4byte	0x70d
 2423 068c 1D       		.uleb128 0x1d
 2424 068d 27010000 		.4byte	.LASF76
 2425 0691 01       		.byte	0x1
ARM GAS  /tmp/ccDe7wQg.s 			page 44


 2426 0692 0C02     		.2byte	0x20c
 2427 0694 A2000000 		.4byte	0xa2
 2428 0698 4F030000 		.4byte	.LLST18
 2429 069c 1D       		.uleb128 0x1d
 2430 069d 1D030000 		.4byte	.LASF67
 2431 06a1 01       		.byte	0x1
 2432 06a2 0E02     		.2byte	0x20e
 2433 06a4 4A020000 		.4byte	0x24a
 2434 06a8 6F030000 		.4byte	.LLST19
 2435 06ac 25       		.uleb128 0x25
 2436 06ad 73020000 		.4byte	0x273
 2437 06b1 02000000 		.4byte	.LBB8
 2438 06b5 04000000 		.4byte	.LBE8-.LBB8
 2439 06b9 01       		.byte	0x1
 2440 06ba 1102     		.2byte	0x211
 2441 06bc D1060000 		.4byte	0x6d1
 2442 06c0 1E       		.uleb128 0x1e
 2443 06c1 02000000 		.4byte	.LBB9
 2444 06c5 04000000 		.4byte	.LBE9-.LBB9
 2445 06c9 26       		.uleb128 0x26
 2446 06ca 84020000 		.4byte	0x284
 2447 06ce 00       		.byte	0
 2448 06cf 00       		.byte	0
 2449 06d0 00       		.byte	0
 2450 06d1 21       		.uleb128 0x21
 2451 06d2 18000000 		.4byte	.LVL60
 2452 06d6 6D040000 		.4byte	0x46d
 2453 06da E6060000 		.4byte	0x6e6
 2454 06de 22       		.uleb128 0x22
 2455 06df 01       		.uleb128 0x1
 2456 06e0 50       		.byte	0x50
 2457 06e1 03       		.uleb128 0x3
 2458 06e2 46       		.byte	0x46
 2459 06e3 3F       		.byte	0x3f
 2460 06e4 24       		.byte	0x24
 2461 06e5 00       		.byte	0
 2462 06e6 21       		.uleb128 0x21
 2463 06e7 36000000 		.4byte	.LVL64
 2464 06eb 6D040000 		.4byte	0x46d
 2465 06ef FB060000 		.4byte	0x6fb
 2466 06f3 22       		.uleb128 0x22
 2467 06f4 01       		.uleb128 0x1
 2468 06f5 50       		.byte	0x50
 2469 06f6 03       		.uleb128 0x3
 2470 06f7 46       		.byte	0x46
 2471 06f8 3F       		.byte	0x3f
 2472 06f9 24       		.byte	0x24
 2473 06fa 00       		.byte	0
 2474 06fb 23       		.uleb128 0x23
 2475 06fc 64000000 		.4byte	.LVL69
 2476 0700 6D040000 		.4byte	0x46d
 2477 0704 22       		.uleb128 0x22
 2478 0705 01       		.uleb128 0x1
 2479 0706 50       		.byte	0x50
 2480 0707 03       		.uleb128 0x3
 2481 0708 46       		.byte	0x46
 2482 0709 3F       		.byte	0x3f
ARM GAS  /tmp/ccDe7wQg.s 			page 45


 2483 070a 24       		.byte	0x24
 2484 070b 00       		.byte	0
 2485 070c 00       		.byte	0
 2486 070d 1C       		.uleb128 0x1c
 2487 070e CB010000 		.4byte	.LASF77
 2488 0712 01       		.byte	0x1
 2489 0713 5002     		.2byte	0x250
 2490 0715 4A020000 		.4byte	0x24a
 2491 0719 00000000 		.4byte	.LFB124
 2492 071d 68000000 		.4byte	.LFE124-.LFB124
 2493 0721 01       		.uleb128 0x1
 2494 0722 9C       		.byte	0x9c
 2495 0723 A3070000 		.4byte	0x7a3
 2496 0727 1A       		.uleb128 0x1a
 2497 0728 CC000000 		.4byte	.LASF78
 2498 072c 01       		.byte	0x1
 2499 072d 5002     		.2byte	0x250
 2500 072f B8000000 		.4byte	0xb8
 2501 0733 AF030000 		.4byte	.LLST20
 2502 0737 1D       		.uleb128 0x1d
 2503 0738 EB020000 		.4byte	.LASF79
 2504 073c 01       		.byte	0x1
 2505 073d 5202     		.2byte	0x252
 2506 073f A2000000 		.4byte	0xa2
 2507 0743 15040000 		.4byte	.LLST21
 2508 0747 1D       		.uleb128 0x1d
 2509 0748 8B000000 		.4byte	.LASF80
 2510 074c 01       		.byte	0x1
 2511 074d 5202     		.2byte	0x252
 2512 074f A2000000 		.4byte	0xa2
 2513 0753 84040000 		.4byte	.LLST22
 2514 0757 1D       		.uleb128 0x1d
 2515 0758 1D030000 		.4byte	.LASF67
 2516 075c 01       		.byte	0x1
 2517 075d 5402     		.2byte	0x254
 2518 075f 4A020000 		.4byte	0x24a
 2519 0763 05050000 		.4byte	.LLST23
 2520 0767 21       		.uleb128 0x21
 2521 0768 0C000000 		.4byte	.LVL73
 2522 076c 6D040000 		.4byte	0x46d
 2523 0770 7C070000 		.4byte	0x77c
 2524 0774 22       		.uleb128 0x22
 2525 0775 01       		.uleb128 0x1
 2526 0776 50       		.byte	0x50
 2527 0777 03       		.uleb128 0x3
 2528 0778 46       		.byte	0x46
 2529 0779 3F       		.byte	0x3f
 2530 077a 24       		.byte	0x24
 2531 077b 00       		.byte	0
 2532 077c 21       		.uleb128 0x21
 2533 077d 30000000 		.4byte	.LVL78
 2534 0781 6D040000 		.4byte	0x46d
 2535 0785 91070000 		.4byte	0x791
 2536 0789 22       		.uleb128 0x22
 2537 078a 01       		.uleb128 0x1
 2538 078b 50       		.byte	0x50
 2539 078c 03       		.uleb128 0x3
ARM GAS  /tmp/ccDe7wQg.s 			page 46


 2540 078d 46       		.byte	0x46
 2541 078e 3F       		.byte	0x3f
 2542 078f 24       		.byte	0x24
 2543 0790 00       		.byte	0
 2544 0791 23       		.uleb128 0x23
 2545 0792 58000000 		.4byte	.LVL82
 2546 0796 6D040000 		.4byte	0x46d
 2547 079a 22       		.uleb128 0x22
 2548 079b 01       		.uleb128 0x1
 2549 079c 50       		.byte	0x50
 2550 079d 03       		.uleb128 0x3
 2551 079e 46       		.byte	0x46
 2552 079f 3F       		.byte	0x3f
 2553 07a0 24       		.byte	0x24
 2554 07a1 00       		.byte	0
 2555 07a2 00       		.byte	0
 2556 07a3 1C       		.uleb128 0x1c
 2557 07a4 9B040000 		.4byte	.LASF81
 2558 07a8 01       		.byte	0x1
 2559 07a9 8B02     		.2byte	0x28b
 2560 07ab 4A020000 		.4byte	0x24a
 2561 07af 00000000 		.4byte	.LFB125
 2562 07b3 70000000 		.4byte	.LFE125-.LFB125
 2563 07b7 01       		.uleb128 0x1
 2564 07b8 9C       		.byte	0x9c
 2565 07b9 19080000 		.4byte	0x819
 2566 07bd 1A       		.uleb128 0x1a
 2567 07be 1E000000 		.4byte	.LASF82
 2568 07c2 01       		.byte	0x1
 2569 07c3 8B02     		.2byte	0x28b
 2570 07c5 97000000 		.4byte	0x97
 2571 07c9 3A050000 		.4byte	.LLST24
 2572 07cd 1D       		.uleb128 0x1d
 2573 07ce 1D030000 		.4byte	.LASF67
 2574 07d2 01       		.byte	0x1
 2575 07d3 8D02     		.2byte	0x28d
 2576 07d5 4A020000 		.4byte	0x24a
 2577 07d9 5B050000 		.4byte	.LLST25
 2578 07dd 21       		.uleb128 0x21
 2579 07de 0C000000 		.4byte	.LVL86
 2580 07e2 6D040000 		.4byte	0x46d
 2581 07e6 F2070000 		.4byte	0x7f2
 2582 07ea 22       		.uleb128 0x22
 2583 07eb 01       		.uleb128 0x1
 2584 07ec 50       		.byte	0x50
 2585 07ed 03       		.uleb128 0x3
 2586 07ee 46       		.byte	0x46
 2587 07ef 3F       		.byte	0x3f
 2588 07f0 24       		.byte	0x24
 2589 07f1 00       		.byte	0
 2590 07f2 21       		.uleb128 0x21
 2591 07f3 2C000000 		.4byte	.LVL89
 2592 07f7 6D040000 		.4byte	0x46d
 2593 07fb 07080000 		.4byte	0x807
 2594 07ff 22       		.uleb128 0x22
 2595 0800 01       		.uleb128 0x1
 2596 0801 50       		.byte	0x50
ARM GAS  /tmp/ccDe7wQg.s 			page 47


 2597 0802 03       		.uleb128 0x3
 2598 0803 46       		.byte	0x46
 2599 0804 3F       		.byte	0x3f
 2600 0805 24       		.byte	0x24
 2601 0806 00       		.byte	0
 2602 0807 23       		.uleb128 0x23
 2603 0808 5A000000 		.4byte	.LVL91
 2604 080c 6D040000 		.4byte	0x46d
 2605 0810 22       		.uleb128 0x22
 2606 0811 01       		.uleb128 0x1
 2607 0812 50       		.byte	0x50
 2608 0813 03       		.uleb128 0x3
 2609 0814 46       		.byte	0x46
 2610 0815 3F       		.byte	0x3f
 2611 0816 24       		.byte	0x24
 2612 0817 00       		.byte	0
 2613 0818 00       		.byte	0
 2614 0819 1C       		.uleb128 0x1c
 2615 081a DD000000 		.4byte	.LASF83
 2616 081e 01       		.byte	0x1
 2617 081f CC02     		.2byte	0x2cc
 2618 0821 4A020000 		.4byte	0x24a
 2619 0825 00000000 		.4byte	.LFB126
 2620 0829 5C000000 		.4byte	.LFE126-.LFB126
 2621 082d 01       		.uleb128 0x1
 2622 082e 9C       		.byte	0x9c
 2623 082f 9A080000 		.4byte	0x89a
 2624 0833 1A       		.uleb128 0x1a
 2625 0834 25000000 		.4byte	.LASF84
 2626 0838 01       		.byte	0x1
 2627 0839 CC02     		.2byte	0x2cc
 2628 083b 97000000 		.4byte	0x97
 2629 083f 90050000 		.4byte	.LLST26
 2630 0843 1A       		.uleb128 0x1a
 2631 0844 FE050000 		.4byte	.LASF85
 2632 0848 01       		.byte	0x1
 2633 0849 CC02     		.2byte	0x2cc
 2634 084b 97000000 		.4byte	0x97
 2635 084f B1050000 		.4byte	.LLST27
 2636 0853 1A       		.uleb128 0x1a
 2637 0854 1F060000 		.4byte	.LASF86
 2638 0858 01       		.byte	0x1
 2639 0859 CC02     		.2byte	0x2cc
 2640 085b 97000000 		.4byte	0x97
 2641 085f D2050000 		.4byte	.LLST28
 2642 0863 1D       		.uleb128 0x1d
 2643 0864 1D030000 		.4byte	.LASF67
 2644 0868 01       		.byte	0x1
 2645 0869 CE02     		.2byte	0x2ce
 2646 086b 4A020000 		.4byte	0x24a
 2647 086f F3050000 		.4byte	.LLST29
 2648 0873 21       		.uleb128 0x21
 2649 0874 1A000000 		.4byte	.LVL94
 2650 0878 6D040000 		.4byte	0x46d
 2651 087c 88080000 		.4byte	0x888
 2652 0880 22       		.uleb128 0x22
 2653 0881 01       		.uleb128 0x1
ARM GAS  /tmp/ccDe7wQg.s 			page 48


 2654 0882 50       		.byte	0x50
 2655 0883 03       		.uleb128 0x3
 2656 0884 46       		.byte	0x46
 2657 0885 3F       		.byte	0x3f
 2658 0886 24       		.byte	0x24
 2659 0887 00       		.byte	0
 2660 0888 23       		.uleb128 0x23
 2661 0889 3E000000 		.4byte	.LVL97
 2662 088d 6D040000 		.4byte	0x46d
 2663 0891 22       		.uleb128 0x22
 2664 0892 01       		.uleb128 0x1
 2665 0893 50       		.byte	0x50
 2666 0894 03       		.uleb128 0x3
 2667 0895 46       		.byte	0x46
 2668 0896 3F       		.byte	0x3f
 2669 0897 24       		.byte	0x24
 2670 0898 00       		.byte	0
 2671 0899 00       		.byte	0
 2672 089a 1C       		.uleb128 0x1c
 2673 089b 06060000 		.4byte	.LASF87
 2674 089f 01       		.byte	0x1
 2675 08a0 F802     		.2byte	0x2f8
 2676 08a2 4A020000 		.4byte	0x24a
 2677 08a6 00000000 		.4byte	.LFB127
 2678 08aa 54000000 		.4byte	.LFE127-.LFB127
 2679 08ae 01       		.uleb128 0x1
 2680 08af 9C       		.byte	0x9c
 2681 08b0 FB080000 		.4byte	0x8fb
 2682 08b4 1A       		.uleb128 0x1a
 2683 08b5 50000000 		.4byte	.LASF88
 2684 08b9 01       		.byte	0x1
 2685 08ba F802     		.2byte	0x2f8
 2686 08bc 97000000 		.4byte	0x97
 2687 08c0 1D060000 		.4byte	.LLST30
 2688 08c4 1D       		.uleb128 0x1d
 2689 08c5 1D030000 		.4byte	.LASF67
 2690 08c9 01       		.byte	0x1
 2691 08ca FA02     		.2byte	0x2fa
 2692 08cc 4A020000 		.4byte	0x24a
 2693 08d0 3E060000 		.4byte	.LLST31
 2694 08d4 21       		.uleb128 0x21
 2695 08d5 16000000 		.4byte	.LVL100
 2696 08d9 6D040000 		.4byte	0x46d
 2697 08dd E9080000 		.4byte	0x8e9
 2698 08e1 22       		.uleb128 0x22
 2699 08e2 01       		.uleb128 0x1
 2700 08e3 50       		.byte	0x50
 2701 08e4 03       		.uleb128 0x3
 2702 08e5 46       		.byte	0x46
 2703 08e6 3F       		.byte	0x3f
 2704 08e7 24       		.byte	0x24
 2705 08e8 00       		.byte	0
 2706 08e9 23       		.uleb128 0x23
 2707 08ea 34000000 		.4byte	.LVL103
 2708 08ee 6D040000 		.4byte	0x46d
 2709 08f2 22       		.uleb128 0x22
 2710 08f3 01       		.uleb128 0x1
ARM GAS  /tmp/ccDe7wQg.s 			page 49


 2711 08f4 50       		.byte	0x50
 2712 08f5 03       		.uleb128 0x3
 2713 08f6 46       		.byte	0x46
 2714 08f7 3F       		.byte	0x3f
 2715 08f8 24       		.byte	0x24
 2716 08f9 00       		.byte	0
 2717 08fa 00       		.byte	0
 2718 08fb 1C       		.uleb128 0x1c
 2719 08fc 36020000 		.4byte	.LASF89
 2720 0900 01       		.byte	0x1
 2721 0901 2203     		.2byte	0x322
 2722 0903 4A020000 		.4byte	0x24a
 2723 0907 00000000 		.4byte	.LFB128
 2724 090b 54000000 		.4byte	.LFE128-.LFB128
 2725 090f 01       		.uleb128 0x1
 2726 0910 9C       		.byte	0x9c
 2727 0911 5C090000 		.4byte	0x95c
 2728 0915 1A       		.uleb128 0x1a
 2729 0916 3F030000 		.4byte	.LASF90
 2730 091a 01       		.byte	0x1
 2731 091b 2203     		.2byte	0x322
 2732 091d 97000000 		.4byte	0x97
 2733 0921 68060000 		.4byte	.LLST32
 2734 0925 1D       		.uleb128 0x1d
 2735 0926 1D030000 		.4byte	.LASF67
 2736 092a 01       		.byte	0x1
 2737 092b 2403     		.2byte	0x324
 2738 092d 4A020000 		.4byte	0x24a
 2739 0931 89060000 		.4byte	.LLST33
 2740 0935 21       		.uleb128 0x21
 2741 0936 16000000 		.4byte	.LVL106
 2742 093a 6D040000 		.4byte	0x46d
 2743 093e 4A090000 		.4byte	0x94a
 2744 0942 22       		.uleb128 0x22
 2745 0943 01       		.uleb128 0x1
 2746 0944 50       		.byte	0x50
 2747 0945 03       		.uleb128 0x3
 2748 0946 46       		.byte	0x46
 2749 0947 3F       		.byte	0x3f
 2750 0948 24       		.byte	0x24
 2751 0949 00       		.byte	0
 2752 094a 23       		.uleb128 0x23
 2753 094b 34000000 		.4byte	.LVL109
 2754 094f 6D040000 		.4byte	0x46d
 2755 0953 22       		.uleb128 0x22
 2756 0954 01       		.uleb128 0x1
 2757 0955 50       		.byte	0x50
 2758 0956 03       		.uleb128 0x3
 2759 0957 46       		.byte	0x46
 2760 0958 3F       		.byte	0x3f
 2761 0959 24       		.byte	0x24
 2762 095a 00       		.byte	0
 2763 095b 00       		.byte	0
 2764 095c 1C       		.uleb128 0x1c
 2765 095d 03030000 		.4byte	.LASF91
 2766 0961 01       		.byte	0x1
 2767 0962 4C03     		.2byte	0x34c
ARM GAS  /tmp/ccDe7wQg.s 			page 50


 2768 0964 4A020000 		.4byte	0x24a
 2769 0968 00000000 		.4byte	.LFB129
 2770 096c 44000000 		.4byte	.LFE129-.LFB129
 2771 0970 01       		.uleb128 0x1
 2772 0971 9C       		.byte	0x9c
 2773 0972 BD090000 		.4byte	0x9bd
 2774 0976 1A       		.uleb128 0x1a
 2775 0977 0F000000 		.4byte	.LASF92
 2776 097b 01       		.byte	0x1
 2777 097c 4C03     		.2byte	0x34c
 2778 097e 97000000 		.4byte	0x97
 2779 0982 B3060000 		.4byte	.LLST34
 2780 0986 1D       		.uleb128 0x1d
 2781 0987 1D030000 		.4byte	.LASF67
 2782 098b 01       		.byte	0x1
 2783 098c 4E03     		.2byte	0x34e
 2784 098e 4A020000 		.4byte	0x24a
 2785 0992 D4060000 		.4byte	.LLST35
 2786 0996 21       		.uleb128 0x21
 2787 0997 0C000000 		.4byte	.LVL112
 2788 099b 6D040000 		.4byte	0x46d
 2789 099f AB090000 		.4byte	0x9ab
 2790 09a3 22       		.uleb128 0x22
 2791 09a4 01       		.uleb128 0x1
 2792 09a5 50       		.byte	0x50
 2793 09a6 03       		.uleb128 0x3
 2794 09a7 46       		.byte	0x46
 2795 09a8 3F       		.byte	0x3f
 2796 09a9 24       		.byte	0x24
 2797 09aa 00       		.byte	0
 2798 09ab 23       		.uleb128 0x23
 2799 09ac 2C000000 		.4byte	.LVL115
 2800 09b0 6D040000 		.4byte	0x46d
 2801 09b4 22       		.uleb128 0x22
 2802 09b5 01       		.uleb128 0x1
 2803 09b6 50       		.byte	0x50
 2804 09b7 03       		.uleb128 0x3
 2805 09b8 46       		.byte	0x46
 2806 09b9 3F       		.byte	0x3f
 2807 09ba 24       		.byte	0x24
 2808 09bb 00       		.byte	0
 2809 09bc 00       		.byte	0
 2810 09bd 1C       		.uleb128 0x1c
 2811 09be 2D000000 		.4byte	.LASF93
 2812 09c2 01       		.byte	0x1
 2813 09c3 7A03     		.2byte	0x37a
 2814 09c5 4A020000 		.4byte	0x24a
 2815 09c9 00000000 		.4byte	.LFB130
 2816 09cd 54000000 		.4byte	.LFE130-.LFB130
 2817 09d1 01       		.uleb128 0x1
 2818 09d2 9C       		.byte	0x9c
 2819 09d3 1E0A0000 		.4byte	0xa1e
 2820 09d7 1A       		.uleb128 0x1a
 2821 09d8 C0050000 		.4byte	.LASF94
 2822 09dc 01       		.byte	0x1
 2823 09dd 7A03     		.2byte	0x37a
 2824 09df 97000000 		.4byte	0x97
ARM GAS  /tmp/ccDe7wQg.s 			page 51


 2825 09e3 FE060000 		.4byte	.LLST36
 2826 09e7 1D       		.uleb128 0x1d
 2827 09e8 1D030000 		.4byte	.LASF67
 2828 09ec 01       		.byte	0x1
 2829 09ed 7C03     		.2byte	0x37c
 2830 09ef 4A020000 		.4byte	0x24a
 2831 09f3 1F070000 		.4byte	.LLST37
 2832 09f7 21       		.uleb128 0x21
 2833 09f8 16000000 		.4byte	.LVL118
 2834 09fc 6D040000 		.4byte	0x46d
 2835 0a00 0C0A0000 		.4byte	0xa0c
 2836 0a04 22       		.uleb128 0x22
 2837 0a05 01       		.uleb128 0x1
 2838 0a06 50       		.byte	0x50
 2839 0a07 03       		.uleb128 0x3
 2840 0a08 46       		.byte	0x46
 2841 0a09 3F       		.byte	0x3f
 2842 0a0a 24       		.byte	0x24
 2843 0a0b 00       		.byte	0
 2844 0a0c 23       		.uleb128 0x23
 2845 0a0d 34000000 		.4byte	.LVL121
 2846 0a11 6D040000 		.4byte	0x46d
 2847 0a15 22       		.uleb128 0x22
 2848 0a16 01       		.uleb128 0x1
 2849 0a17 50       		.byte	0x50
 2850 0a18 03       		.uleb128 0x3
 2851 0a19 46       		.byte	0x46
 2852 0a1a 3F       		.byte	0x3f
 2853 0a1b 24       		.byte	0x24
 2854 0a1c 00       		.byte	0
 2855 0a1d 00       		.byte	0
 2856 0a1e 1C       		.uleb128 0x1c
 2857 0a1f DC030000 		.4byte	.LASF95
 2858 0a23 01       		.byte	0x1
 2859 0a24 A603     		.2byte	0x3a6
 2860 0a26 4A020000 		.4byte	0x24a
 2861 0a2a 00000000 		.4byte	.LFB131
 2862 0a2e 3C000000 		.4byte	.LFE131-.LFB131
 2863 0a32 01       		.uleb128 0x1
 2864 0a33 9C       		.byte	0x9c
 2865 0a34 8F0A0000 		.4byte	0xa8f
 2866 0a38 1A       		.uleb128 0x1a
 2867 0a39 AE000000 		.4byte	.LASF72
 2868 0a3d 01       		.byte	0x1
 2869 0a3e A603     		.2byte	0x3a6
 2870 0a40 B8000000 		.4byte	0xb8
 2871 0a44 49070000 		.4byte	.LLST38
 2872 0a48 1A       		.uleb128 0x1a
 2873 0a49 C6010000 		.4byte	.LASF73
 2874 0a4d 01       		.byte	0x1
 2875 0a4e A603     		.2byte	0x3a6
 2876 0a50 97000000 		.4byte	0x97
 2877 0a54 75070000 		.4byte	.LLST39
 2878 0a58 1D       		.uleb128 0x1d
 2879 0a59 1D030000 		.4byte	.LASF67
 2880 0a5d 01       		.byte	0x1
 2881 0a5e A803     		.2byte	0x3a8
ARM GAS  /tmp/ccDe7wQg.s 			page 52


 2882 0a60 4A020000 		.4byte	0x24a
 2883 0a64 96070000 		.4byte	.LLST40
 2884 0a68 21       		.uleb128 0x21
 2885 0a69 0E000000 		.4byte	.LVL124
 2886 0a6d 6D040000 		.4byte	0x46d
 2887 0a71 7D0A0000 		.4byte	0xa7d
 2888 0a75 22       		.uleb128 0x22
 2889 0a76 01       		.uleb128 0x1
 2890 0a77 50       		.byte	0x50
 2891 0a78 03       		.uleb128 0x3
 2892 0a79 46       		.byte	0x46
 2893 0a7a 3F       		.byte	0x3f
 2894 0a7b 24       		.byte	0x24
 2895 0a7c 00       		.byte	0
 2896 0a7d 23       		.uleb128 0x23
 2897 0a7e 28000000 		.4byte	.LVL128
 2898 0a82 6D040000 		.4byte	0x46d
 2899 0a86 22       		.uleb128 0x22
 2900 0a87 01       		.uleb128 0x1
 2901 0a88 50       		.byte	0x50
 2902 0a89 03       		.uleb128 0x3
 2903 0a8a 46       		.byte	0x46
 2904 0a8b 3F       		.byte	0x3f
 2905 0a8c 24       		.byte	0x24
 2906 0a8d 00       		.byte	0
 2907 0a8e 00       		.byte	0
 2908 0a8f 27       		.uleb128 0x27
 2909 0a90 F1050000 		.4byte	.LASF99
 2910 0a94 06       		.byte	0x6
 2911 0a95 9806     		.2byte	0x698
 2912 0a97 D4000000 		.4byte	0xd4
 2913 0a9b 00       		.byte	0
 2914              		.section	.debug_abbrev,"",%progbits
 2915              	.Ldebug_abbrev0:
 2916 0000 01       		.uleb128 0x1
 2917 0001 11       		.uleb128 0x11
 2918 0002 01       		.byte	0x1
 2919 0003 25       		.uleb128 0x25
 2920 0004 0E       		.uleb128 0xe
 2921 0005 13       		.uleb128 0x13
 2922 0006 0B       		.uleb128 0xb
 2923 0007 03       		.uleb128 0x3
 2924 0008 0E       		.uleb128 0xe
 2925 0009 1B       		.uleb128 0x1b
 2926 000a 0E       		.uleb128 0xe
 2927 000b 55       		.uleb128 0x55
 2928 000c 17       		.uleb128 0x17
 2929 000d 11       		.uleb128 0x11
 2930 000e 01       		.uleb128 0x1
 2931 000f 10       		.uleb128 0x10
 2932 0010 17       		.uleb128 0x17
 2933 0011 00       		.byte	0
 2934 0012 00       		.byte	0
 2935 0013 02       		.uleb128 0x2
 2936 0014 24       		.uleb128 0x24
 2937 0015 00       		.byte	0
 2938 0016 0B       		.uleb128 0xb
ARM GAS  /tmp/ccDe7wQg.s 			page 53


 2939 0017 0B       		.uleb128 0xb
 2940 0018 3E       		.uleb128 0x3e
 2941 0019 0B       		.uleb128 0xb
 2942 001a 03       		.uleb128 0x3
 2943 001b 0E       		.uleb128 0xe
 2944 001c 00       		.byte	0
 2945 001d 00       		.byte	0
 2946 001e 03       		.uleb128 0x3
 2947 001f 16       		.uleb128 0x16
 2948 0020 00       		.byte	0
 2949 0021 03       		.uleb128 0x3
 2950 0022 0E       		.uleb128 0xe
 2951 0023 3A       		.uleb128 0x3a
 2952 0024 0B       		.uleb128 0xb
 2953 0025 3B       		.uleb128 0x3b
 2954 0026 0B       		.uleb128 0xb
 2955 0027 49       		.uleb128 0x49
 2956 0028 13       		.uleb128 0x13
 2957 0029 00       		.byte	0
 2958 002a 00       		.byte	0
 2959 002b 04       		.uleb128 0x4
 2960 002c 24       		.uleb128 0x24
 2961 002d 00       		.byte	0
 2962 002e 0B       		.uleb128 0xb
 2963 002f 0B       		.uleb128 0xb
 2964 0030 3E       		.uleb128 0x3e
 2965 0031 0B       		.uleb128 0xb
 2966 0032 03       		.uleb128 0x3
 2967 0033 08       		.uleb128 0x8
 2968 0034 00       		.byte	0
 2969 0035 00       		.byte	0
 2970 0036 05       		.uleb128 0x5
 2971 0037 35       		.uleb128 0x35
 2972 0038 00       		.byte	0
 2973 0039 49       		.uleb128 0x49
 2974 003a 13       		.uleb128 0x13
 2975 003b 00       		.byte	0
 2976 003c 00       		.byte	0
 2977 003d 06       		.uleb128 0x6
 2978 003e 04       		.uleb128 0x4
 2979 003f 01       		.byte	0x1
 2980 0040 0B       		.uleb128 0xb
 2981 0041 0B       		.uleb128 0xb
 2982 0042 3A       		.uleb128 0x3a
 2983 0043 0B       		.uleb128 0xb
 2984 0044 3B       		.uleb128 0x3b
 2985 0045 05       		.uleb128 0x5
 2986 0046 01       		.uleb128 0x1
 2987 0047 13       		.uleb128 0x13
 2988 0048 00       		.byte	0
 2989 0049 00       		.byte	0
 2990 004a 07       		.uleb128 0x7
 2991 004b 28       		.uleb128 0x28
 2992 004c 00       		.byte	0
 2993 004d 03       		.uleb128 0x3
 2994 004e 0E       		.uleb128 0xe
 2995 004f 1C       		.uleb128 0x1c
ARM GAS  /tmp/ccDe7wQg.s 			page 54


 2996 0050 0D       		.uleb128 0xd
 2997 0051 00       		.byte	0
 2998 0052 00       		.byte	0
 2999 0053 08       		.uleb128 0x8
 3000 0054 28       		.uleb128 0x28
 3001 0055 00       		.byte	0
 3002 0056 03       		.uleb128 0x3
 3003 0057 08       		.uleb128 0x8
 3004 0058 1C       		.uleb128 0x1c
 3005 0059 0D       		.uleb128 0xd
 3006 005a 00       		.byte	0
 3007 005b 00       		.byte	0
 3008 005c 09       		.uleb128 0x9
 3009 005d 16       		.uleb128 0x16
 3010 005e 00       		.byte	0
 3011 005f 03       		.uleb128 0x3
 3012 0060 0E       		.uleb128 0xe
 3013 0061 3A       		.uleb128 0x3a
 3014 0062 0B       		.uleb128 0xb
 3015 0063 3B       		.uleb128 0x3b
 3016 0064 05       		.uleb128 0x5
 3017 0065 49       		.uleb128 0x49
 3018 0066 13       		.uleb128 0x13
 3019 0067 00       		.byte	0
 3020 0068 00       		.byte	0
 3021 0069 0A       		.uleb128 0xa
 3022 006a 13       		.uleb128 0x13
 3023 006b 01       		.byte	0x1
 3024 006c 0B       		.uleb128 0xb
 3025 006d 0B       		.uleb128 0xb
 3026 006e 3A       		.uleb128 0x3a
 3027 006f 0B       		.uleb128 0xb
 3028 0070 3B       		.uleb128 0x3b
 3029 0071 05       		.uleb128 0x5
 3030 0072 01       		.uleb128 0x1
 3031 0073 13       		.uleb128 0x13
 3032 0074 00       		.byte	0
 3033 0075 00       		.byte	0
 3034 0076 0B       		.uleb128 0xb
 3035 0077 0D       		.uleb128 0xd
 3036 0078 00       		.byte	0
 3037 0079 03       		.uleb128 0x3
 3038 007a 08       		.uleb128 0x8
 3039 007b 3A       		.uleb128 0x3a
 3040 007c 0B       		.uleb128 0xb
 3041 007d 3B       		.uleb128 0x3b
 3042 007e 05       		.uleb128 0x5
 3043 007f 49       		.uleb128 0x49
 3044 0080 13       		.uleb128 0x13
 3045 0081 38       		.uleb128 0x38
 3046 0082 0B       		.uleb128 0xb
 3047 0083 00       		.byte	0
 3048 0084 00       		.byte	0
 3049 0085 0C       		.uleb128 0xc
 3050 0086 0D       		.uleb128 0xd
 3051 0087 00       		.byte	0
 3052 0088 03       		.uleb128 0x3
ARM GAS  /tmp/ccDe7wQg.s 			page 55


 3053 0089 0E       		.uleb128 0xe
 3054 008a 3A       		.uleb128 0x3a
 3055 008b 0B       		.uleb128 0xb
 3056 008c 3B       		.uleb128 0x3b
 3057 008d 05       		.uleb128 0x5
 3058 008e 49       		.uleb128 0x49
 3059 008f 13       		.uleb128 0x13
 3060 0090 38       		.uleb128 0x38
 3061 0091 0B       		.uleb128 0xb
 3062 0092 00       		.byte	0
 3063 0093 00       		.byte	0
 3064 0094 0D       		.uleb128 0xd
 3065 0095 04       		.uleb128 0x4
 3066 0096 01       		.byte	0x1
 3067 0097 0B       		.uleb128 0xb
 3068 0098 0B       		.uleb128 0xb
 3069 0099 3A       		.uleb128 0x3a
 3070 009a 0B       		.uleb128 0xb
 3071 009b 3B       		.uleb128 0x3b
 3072 009c 0B       		.uleb128 0xb
 3073 009d 01       		.uleb128 0x1
 3074 009e 13       		.uleb128 0x13
 3075 009f 00       		.byte	0
 3076 00a0 00       		.byte	0
 3077 00a1 0E       		.uleb128 0xe
 3078 00a2 2E       		.uleb128 0x2e
 3079 00a3 01       		.byte	0x1
 3080 00a4 3F       		.uleb128 0x3f
 3081 00a5 19       		.uleb128 0x19
 3082 00a6 03       		.uleb128 0x3
 3083 00a7 0E       		.uleb128 0xe
 3084 00a8 3A       		.uleb128 0x3a
 3085 00a9 0B       		.uleb128 0xb
 3086 00aa 3B       		.uleb128 0x3b
 3087 00ab 05       		.uleb128 0x5
 3088 00ac 27       		.uleb128 0x27
 3089 00ad 19       		.uleb128 0x19
 3090 00ae 49       		.uleb128 0x49
 3091 00af 13       		.uleb128 0x13
 3092 00b0 20       		.uleb128 0x20
 3093 00b1 0B       		.uleb128 0xb
 3094 00b2 01       		.uleb128 0x1
 3095 00b3 13       		.uleb128 0x13
 3096 00b4 00       		.byte	0
 3097 00b5 00       		.byte	0
 3098 00b6 0F       		.uleb128 0xf
 3099 00b7 34       		.uleb128 0x34
 3100 00b8 00       		.byte	0
 3101 00b9 03       		.uleb128 0x3
 3102 00ba 0E       		.uleb128 0xe
 3103 00bb 3A       		.uleb128 0x3a
 3104 00bc 0B       		.uleb128 0xb
 3105 00bd 3B       		.uleb128 0x3b
 3106 00be 05       		.uleb128 0x5
 3107 00bf 49       		.uleb128 0x49
 3108 00c0 13       		.uleb128 0x13
 3109 00c1 00       		.byte	0
ARM GAS  /tmp/ccDe7wQg.s 			page 56


 3110 00c2 00       		.byte	0
 3111 00c3 10       		.uleb128 0x10
 3112 00c4 2E       		.uleb128 0x2e
 3113 00c5 01       		.byte	0x1
 3114 00c6 3F       		.uleb128 0x3f
 3115 00c7 19       		.uleb128 0x19
 3116 00c8 03       		.uleb128 0x3
 3117 00c9 0E       		.uleb128 0xe
 3118 00ca 3A       		.uleb128 0x3a
 3119 00cb 0B       		.uleb128 0xb
 3120 00cc 3B       		.uleb128 0x3b
 3121 00cd 0B       		.uleb128 0xb
 3122 00ce 27       		.uleb128 0x27
 3123 00cf 19       		.uleb128 0x19
 3124 00d0 11       		.uleb128 0x11
 3125 00d1 01       		.uleb128 0x1
 3126 00d2 12       		.uleb128 0x12
 3127 00d3 06       		.uleb128 0x6
 3128 00d4 40       		.uleb128 0x40
 3129 00d5 18       		.uleb128 0x18
 3130 00d6 9742     		.uleb128 0x2117
 3131 00d8 19       		.uleb128 0x19
 3132 00d9 01       		.uleb128 0x1
 3133 00da 13       		.uleb128 0x13
 3134 00db 00       		.byte	0
 3135 00dc 00       		.byte	0
 3136 00dd 11       		.uleb128 0x11
 3137 00de 05       		.uleb128 0x5
 3138 00df 00       		.byte	0
 3139 00e0 03       		.uleb128 0x3
 3140 00e1 0E       		.uleb128 0xe
 3141 00e2 3A       		.uleb128 0x3a
 3142 00e3 0B       		.uleb128 0xb
 3143 00e4 3B       		.uleb128 0x3b
 3144 00e5 0B       		.uleb128 0xb
 3145 00e6 49       		.uleb128 0x49
 3146 00e7 13       		.uleb128 0x13
 3147 00e8 02       		.uleb128 0x2
 3148 00e9 17       		.uleb128 0x17
 3149 00ea 00       		.byte	0
 3150 00eb 00       		.byte	0
 3151 00ec 12       		.uleb128 0x12
 3152 00ed 34       		.uleb128 0x34
 3153 00ee 00       		.byte	0
 3154 00ef 03       		.uleb128 0x3
 3155 00f0 0E       		.uleb128 0xe
 3156 00f1 3A       		.uleb128 0x3a
 3157 00f2 0B       		.uleb128 0xb
 3158 00f3 3B       		.uleb128 0x3b
 3159 00f4 0B       		.uleb128 0xb
 3160 00f5 49       		.uleb128 0x49
 3161 00f6 13       		.uleb128 0x13
 3162 00f7 02       		.uleb128 0x2
 3163 00f8 17       		.uleb128 0x17
 3164 00f9 00       		.byte	0
 3165 00fa 00       		.byte	0
 3166 00fb 13       		.uleb128 0x13
ARM GAS  /tmp/ccDe7wQg.s 			page 57


 3167 00fc 05       		.uleb128 0x5
 3168 00fd 00       		.byte	0
 3169 00fe 03       		.uleb128 0x3
 3170 00ff 0E       		.uleb128 0xe
 3171 0100 3A       		.uleb128 0x3a
 3172 0101 0B       		.uleb128 0xb
 3173 0102 3B       		.uleb128 0x3b
 3174 0103 0B       		.uleb128 0xb
 3175 0104 49       		.uleb128 0x49
 3176 0105 13       		.uleb128 0x13
 3177 0106 02       		.uleb128 0x2
 3178 0107 18       		.uleb128 0x18
 3179 0108 00       		.byte	0
 3180 0109 00       		.byte	0
 3181 010a 14       		.uleb128 0x14
 3182 010b 2E       		.uleb128 0x2e
 3183 010c 00       		.byte	0
 3184 010d 3F       		.uleb128 0x3f
 3185 010e 19       		.uleb128 0x19
 3186 010f 03       		.uleb128 0x3
 3187 0110 0E       		.uleb128 0xe
 3188 0111 3A       		.uleb128 0x3a
 3189 0112 0B       		.uleb128 0xb
 3190 0113 3B       		.uleb128 0x3b
 3191 0114 0B       		.uleb128 0xb
 3192 0115 27       		.uleb128 0x27
 3193 0116 19       		.uleb128 0x19
 3194 0117 11       		.uleb128 0x11
 3195 0118 01       		.uleb128 0x1
 3196 0119 12       		.uleb128 0x12
 3197 011a 06       		.uleb128 0x6
 3198 011b 40       		.uleb128 0x40
 3199 011c 18       		.uleb128 0x18
 3200 011d 9742     		.uleb128 0x2117
 3201 011f 19       		.uleb128 0x19
 3202 0120 00       		.byte	0
 3203 0121 00       		.byte	0
 3204 0122 15       		.uleb128 0x15
 3205 0123 2E       		.uleb128 0x2e
 3206 0124 00       		.byte	0
 3207 0125 3F       		.uleb128 0x3f
 3208 0126 19       		.uleb128 0x19
 3209 0127 03       		.uleb128 0x3
 3210 0128 0E       		.uleb128 0xe
 3211 0129 3A       		.uleb128 0x3a
 3212 012a 0B       		.uleb128 0xb
 3213 012b 3B       		.uleb128 0x3b
 3214 012c 05       		.uleb128 0x5
 3215 012d 27       		.uleb128 0x27
 3216 012e 19       		.uleb128 0x19
 3217 012f 11       		.uleb128 0x11
 3218 0130 01       		.uleb128 0x1
 3219 0131 12       		.uleb128 0x12
 3220 0132 06       		.uleb128 0x6
 3221 0133 40       		.uleb128 0x40
 3222 0134 18       		.uleb128 0x18
 3223 0135 9742     		.uleb128 0x2117
ARM GAS  /tmp/ccDe7wQg.s 			page 58


 3224 0137 19       		.uleb128 0x19
 3225 0138 00       		.byte	0
 3226 0139 00       		.byte	0
 3227 013a 16       		.uleb128 0x16
 3228 013b 2E       		.uleb128 0x2e
 3229 013c 00       		.byte	0
 3230 013d 3F       		.uleb128 0x3f
 3231 013e 19       		.uleb128 0x19
 3232 013f 03       		.uleb128 0x3
 3233 0140 0E       		.uleb128 0xe
 3234 0141 3A       		.uleb128 0x3a
 3235 0142 0B       		.uleb128 0xb
 3236 0143 3B       		.uleb128 0x3b
 3237 0144 05       		.uleb128 0x5
 3238 0145 27       		.uleb128 0x27
 3239 0146 19       		.uleb128 0x19
 3240 0147 49       		.uleb128 0x49
 3241 0148 13       		.uleb128 0x13
 3242 0149 11       		.uleb128 0x11
 3243 014a 01       		.uleb128 0x1
 3244 014b 12       		.uleb128 0x12
 3245 014c 06       		.uleb128 0x6
 3246 014d 40       		.uleb128 0x40
 3247 014e 18       		.uleb128 0x18
 3248 014f 9742     		.uleb128 0x2117
 3249 0151 19       		.uleb128 0x19
 3250 0152 00       		.byte	0
 3251 0153 00       		.byte	0
 3252 0154 17       		.uleb128 0x17
 3253 0155 2E       		.uleb128 0x2e
 3254 0156 01       		.byte	0x1
 3255 0157 31       		.uleb128 0x31
 3256 0158 13       		.uleb128 0x13
 3257 0159 11       		.uleb128 0x11
 3258 015a 01       		.uleb128 0x1
 3259 015b 12       		.uleb128 0x12
 3260 015c 06       		.uleb128 0x6
 3261 015d 40       		.uleb128 0x40
 3262 015e 18       		.uleb128 0x18
 3263 015f 9742     		.uleb128 0x2117
 3264 0161 19       		.uleb128 0x19
 3265 0162 01       		.uleb128 0x1
 3266 0163 13       		.uleb128 0x13
 3267 0164 00       		.byte	0
 3268 0165 00       		.byte	0
 3269 0166 18       		.uleb128 0x18
 3270 0167 34       		.uleb128 0x34
 3271 0168 00       		.byte	0
 3272 0169 31       		.uleb128 0x31
 3273 016a 13       		.uleb128 0x13
 3274 016b 02       		.uleb128 0x2
 3275 016c 17       		.uleb128 0x17
 3276 016d 00       		.byte	0
 3277 016e 00       		.byte	0
 3278 016f 19       		.uleb128 0x19
 3279 0170 2E       		.uleb128 0x2e
 3280 0171 01       		.byte	0x1
ARM GAS  /tmp/ccDe7wQg.s 			page 59


 3281 0172 3F       		.uleb128 0x3f
 3282 0173 19       		.uleb128 0x19
 3283 0174 03       		.uleb128 0x3
 3284 0175 0E       		.uleb128 0xe
 3285 0176 3A       		.uleb128 0x3a
 3286 0177 0B       		.uleb128 0xb
 3287 0178 3B       		.uleb128 0x3b
 3288 0179 05       		.uleb128 0x5
 3289 017a 27       		.uleb128 0x27
 3290 017b 19       		.uleb128 0x19
 3291 017c 11       		.uleb128 0x11
 3292 017d 01       		.uleb128 0x1
 3293 017e 12       		.uleb128 0x12
 3294 017f 06       		.uleb128 0x6
 3295 0180 40       		.uleb128 0x40
 3296 0181 18       		.uleb128 0x18
 3297 0182 9742     		.uleb128 0x2117
 3298 0184 19       		.uleb128 0x19
 3299 0185 01       		.uleb128 0x1
 3300 0186 13       		.uleb128 0x13
 3301 0187 00       		.byte	0
 3302 0188 00       		.byte	0
 3303 0189 1A       		.uleb128 0x1a
 3304 018a 05       		.uleb128 0x5
 3305 018b 00       		.byte	0
 3306 018c 03       		.uleb128 0x3
 3307 018d 0E       		.uleb128 0xe
 3308 018e 3A       		.uleb128 0x3a
 3309 018f 0B       		.uleb128 0xb
 3310 0190 3B       		.uleb128 0x3b
 3311 0191 05       		.uleb128 0x5
 3312 0192 49       		.uleb128 0x49
 3313 0193 13       		.uleb128 0x13
 3314 0194 02       		.uleb128 0x2
 3315 0195 17       		.uleb128 0x17
 3316 0196 00       		.byte	0
 3317 0197 00       		.byte	0
 3318 0198 1B       		.uleb128 0x1b
 3319 0199 05       		.uleb128 0x5
 3320 019a 00       		.byte	0
 3321 019b 03       		.uleb128 0x3
 3322 019c 0E       		.uleb128 0xe
 3323 019d 3A       		.uleb128 0x3a
 3324 019e 0B       		.uleb128 0xb
 3325 019f 3B       		.uleb128 0x3b
 3326 01a0 05       		.uleb128 0x5
 3327 01a1 49       		.uleb128 0x49
 3328 01a2 13       		.uleb128 0x13
 3329 01a3 02       		.uleb128 0x2
 3330 01a4 18       		.uleb128 0x18
 3331 01a5 00       		.byte	0
 3332 01a6 00       		.byte	0
 3333 01a7 1C       		.uleb128 0x1c
 3334 01a8 2E       		.uleb128 0x2e
 3335 01a9 01       		.byte	0x1
 3336 01aa 3F       		.uleb128 0x3f
 3337 01ab 19       		.uleb128 0x19
ARM GAS  /tmp/ccDe7wQg.s 			page 60


 3338 01ac 03       		.uleb128 0x3
 3339 01ad 0E       		.uleb128 0xe
 3340 01ae 3A       		.uleb128 0x3a
 3341 01af 0B       		.uleb128 0xb
 3342 01b0 3B       		.uleb128 0x3b
 3343 01b1 05       		.uleb128 0x5
 3344 01b2 27       		.uleb128 0x27
 3345 01b3 19       		.uleb128 0x19
 3346 01b4 49       		.uleb128 0x49
 3347 01b5 13       		.uleb128 0x13
 3348 01b6 11       		.uleb128 0x11
 3349 01b7 01       		.uleb128 0x1
 3350 01b8 12       		.uleb128 0x12
 3351 01b9 06       		.uleb128 0x6
 3352 01ba 40       		.uleb128 0x40
 3353 01bb 18       		.uleb128 0x18
 3354 01bc 9742     		.uleb128 0x2117
 3355 01be 19       		.uleb128 0x19
 3356 01bf 01       		.uleb128 0x1
 3357 01c0 13       		.uleb128 0x13
 3358 01c1 00       		.byte	0
 3359 01c2 00       		.byte	0
 3360 01c3 1D       		.uleb128 0x1d
 3361 01c4 34       		.uleb128 0x34
 3362 01c5 00       		.byte	0
 3363 01c6 03       		.uleb128 0x3
 3364 01c7 0E       		.uleb128 0xe
 3365 01c8 3A       		.uleb128 0x3a
 3366 01c9 0B       		.uleb128 0xb
 3367 01ca 3B       		.uleb128 0x3b
 3368 01cb 05       		.uleb128 0x5
 3369 01cc 49       		.uleb128 0x49
 3370 01cd 13       		.uleb128 0x13
 3371 01ce 02       		.uleb128 0x2
 3372 01cf 17       		.uleb128 0x17
 3373 01d0 00       		.byte	0
 3374 01d1 00       		.byte	0
 3375 01d2 1E       		.uleb128 0x1e
 3376 01d3 0B       		.uleb128 0xb
 3377 01d4 01       		.byte	0x1
 3378 01d5 11       		.uleb128 0x11
 3379 01d6 01       		.uleb128 0x1
 3380 01d7 12       		.uleb128 0x12
 3381 01d8 06       		.uleb128 0x6
 3382 01d9 00       		.byte	0
 3383 01da 00       		.byte	0
 3384 01db 1F       		.uleb128 0x1f
 3385 01dc 34       		.uleb128 0x34
 3386 01dd 00       		.byte	0
 3387 01de 31       		.uleb128 0x31
 3388 01df 13       		.uleb128 0x13
 3389 01e0 00       		.byte	0
 3390 01e1 00       		.byte	0
 3391 01e2 20       		.uleb128 0x20
 3392 01e3 898201   		.uleb128 0x4109
 3393 01e6 00       		.byte	0
 3394 01e7 11       		.uleb128 0x11
ARM GAS  /tmp/ccDe7wQg.s 			page 61


 3395 01e8 01       		.uleb128 0x1
 3396 01e9 31       		.uleb128 0x31
 3397 01ea 13       		.uleb128 0x13
 3398 01eb 00       		.byte	0
 3399 01ec 00       		.byte	0
 3400 01ed 21       		.uleb128 0x21
 3401 01ee 898201   		.uleb128 0x4109
 3402 01f1 01       		.byte	0x1
 3403 01f2 11       		.uleb128 0x11
 3404 01f3 01       		.uleb128 0x1
 3405 01f4 31       		.uleb128 0x31
 3406 01f5 13       		.uleb128 0x13
 3407 01f6 01       		.uleb128 0x1
 3408 01f7 13       		.uleb128 0x13
 3409 01f8 00       		.byte	0
 3410 01f9 00       		.byte	0
 3411 01fa 22       		.uleb128 0x22
 3412 01fb 8A8201   		.uleb128 0x410a
 3413 01fe 00       		.byte	0
 3414 01ff 02       		.uleb128 0x2
 3415 0200 18       		.uleb128 0x18
 3416 0201 9142     		.uleb128 0x2111
 3417 0203 18       		.uleb128 0x18
 3418 0204 00       		.byte	0
 3419 0205 00       		.byte	0
 3420 0206 23       		.uleb128 0x23
 3421 0207 898201   		.uleb128 0x4109
 3422 020a 01       		.byte	0x1
 3423 020b 11       		.uleb128 0x11
 3424 020c 01       		.uleb128 0x1
 3425 020d 31       		.uleb128 0x31
 3426 020e 13       		.uleb128 0x13
 3427 020f 00       		.byte	0
 3428 0210 00       		.byte	0
 3429 0211 24       		.uleb128 0x24
 3430 0212 34       		.uleb128 0x34
 3431 0213 00       		.byte	0
 3432 0214 03       		.uleb128 0x3
 3433 0215 08       		.uleb128 0x8
 3434 0216 3A       		.uleb128 0x3a
 3435 0217 0B       		.uleb128 0xb
 3436 0218 3B       		.uleb128 0x3b
 3437 0219 05       		.uleb128 0x5
 3438 021a 49       		.uleb128 0x49
 3439 021b 13       		.uleb128 0x13
 3440 021c 02       		.uleb128 0x2
 3441 021d 18       		.uleb128 0x18
 3442 021e 00       		.byte	0
 3443 021f 00       		.byte	0
 3444 0220 25       		.uleb128 0x25
 3445 0221 1D       		.uleb128 0x1d
 3446 0222 01       		.byte	0x1
 3447 0223 31       		.uleb128 0x31
 3448 0224 13       		.uleb128 0x13
 3449 0225 11       		.uleb128 0x11
 3450 0226 01       		.uleb128 0x1
 3451 0227 12       		.uleb128 0x12
ARM GAS  /tmp/ccDe7wQg.s 			page 62


 3452 0228 06       		.uleb128 0x6
 3453 0229 58       		.uleb128 0x58
 3454 022a 0B       		.uleb128 0xb
 3455 022b 59       		.uleb128 0x59
 3456 022c 05       		.uleb128 0x5
 3457 022d 01       		.uleb128 0x1
 3458 022e 13       		.uleb128 0x13
 3459 022f 00       		.byte	0
 3460 0230 00       		.byte	0
 3461 0231 26       		.uleb128 0x26
 3462 0232 34       		.uleb128 0x34
 3463 0233 00       		.byte	0
 3464 0234 31       		.uleb128 0x31
 3465 0235 13       		.uleb128 0x13
 3466 0236 1C       		.uleb128 0x1c
 3467 0237 0B       		.uleb128 0xb
 3468 0238 00       		.byte	0
 3469 0239 00       		.byte	0
 3470 023a 27       		.uleb128 0x27
 3471 023b 34       		.uleb128 0x34
 3472 023c 00       		.byte	0
 3473 023d 03       		.uleb128 0x3
 3474 023e 0E       		.uleb128 0xe
 3475 023f 3A       		.uleb128 0x3a
 3476 0240 0B       		.uleb128 0xb
 3477 0241 3B       		.uleb128 0x3b
 3478 0242 05       		.uleb128 0x5
 3479 0243 49       		.uleb128 0x49
 3480 0244 13       		.uleb128 0x13
 3481 0245 3F       		.uleb128 0x3f
 3482 0246 19       		.uleb128 0x19
 3483 0247 3C       		.uleb128 0x3c
 3484 0248 19       		.uleb128 0x19
 3485 0249 00       		.byte	0
 3486 024a 00       		.byte	0
 3487 024b 00       		.byte	0
 3488              		.section	.debug_loc,"",%progbits
 3489              	.Ldebug_loc0:
 3490              	.LLST0:
 3491 0000 00000000 		.4byte	.LVL0
 3492 0004 0A000000 		.4byte	.LVL3
 3493 0008 0100     		.2byte	0x1
 3494 000a 50       		.byte	0x50
 3495 000b 0A000000 		.4byte	.LVL3
 3496 000f 14000000 		.4byte	.LFE111
 3497 0013 0400     		.2byte	0x4
 3498 0015 F3       		.byte	0xf3
 3499 0016 01       		.uleb128 0x1
 3500 0017 50       		.byte	0x50
 3501 0018 9F       		.byte	0x9f
 3502 0019 00000000 		.4byte	0
 3503 001d 00000000 		.4byte	0
 3504              	.LLST1:
 3505 0021 00000000 		.4byte	.LVL0
 3506 0025 04000000 		.4byte	.LVL1
 3507 0029 0200     		.2byte	0x2
 3508 002b 30       		.byte	0x30
ARM GAS  /tmp/ccDe7wQg.s 			page 63


 3509 002c 9F       		.byte	0x9f
 3510 002d 04000000 		.4byte	.LVL1
 3511 0031 0A000000 		.4byte	.LVL3
 3512 0035 0100     		.2byte	0x1
 3513 0037 52       		.byte	0x52
 3514 0038 0A000000 		.4byte	.LVL3
 3515 003c 14000000 		.4byte	.LFE111
 3516 0040 0100     		.2byte	0x1
 3517 0042 50       		.byte	0x50
 3518 0043 00000000 		.4byte	0
 3519 0047 00000000 		.4byte	0
 3520              	.LLST2:
 3521 004b 00000000 		.4byte	.LVL6
 3522 004f 04000000 		.4byte	.LVL7
 3523 0053 0200     		.2byte	0x2
 3524 0055 30       		.byte	0x30
 3525 0056 9F       		.byte	0x9f
 3526 0057 04000000 		.4byte	.LVL7
 3527 005b 14000000 		.4byte	.LFE134
 3528 005f 0700     		.2byte	0x7
 3529 0061 73       		.byte	0x73
 3530 0062 00       		.sleb128 0
 3531 0063 36       		.byte	0x36
 3532 0064 1A       		.byte	0x1a
 3533 0065 30       		.byte	0x30
 3534 0066 2E       		.byte	0x2e
 3535 0067 9F       		.byte	0x9f
 3536 0068 00000000 		.4byte	0
 3537 006c 00000000 		.4byte	0
 3538              	.LLST3:
 3539 0070 00000000 		.4byte	.LVL8
 3540 0074 0A000000 		.4byte	.LVL9
 3541 0078 0100     		.2byte	0x1
 3542 007a 50       		.byte	0x50
 3543 007b 0A000000 		.4byte	.LVL9
 3544 007f 0E000000 		.4byte	.LVL10
 3545 0083 0400     		.2byte	0x4
 3546 0085 F3       		.byte	0xf3
 3547 0086 01       		.uleb128 0x1
 3548 0087 50       		.byte	0x50
 3549 0088 9F       		.byte	0x9f
 3550 0089 0E000000 		.4byte	.LVL10
 3551 008d 10000000 		.4byte	.LVL11
 3552 0091 0100     		.2byte	0x1
 3553 0093 50       		.byte	0x50
 3554 0094 10000000 		.4byte	.LVL11
 3555 0098 18000000 		.4byte	.LFE135
 3556 009c 0400     		.2byte	0x4
 3557 009e F3       		.byte	0xf3
 3558 009f 01       		.uleb128 0x1
 3559 00a0 50       		.byte	0x50
 3560 00a1 9F       		.byte	0x9f
 3561 00a2 00000000 		.4byte	0
 3562 00a6 00000000 		.4byte	0
 3563              	.LLST4:
 3564 00aa 00000000 		.4byte	.LVL12
 3565 00ae 0C000000 		.4byte	.LVL14
ARM GAS  /tmp/ccDe7wQg.s 			page 64


 3566 00b2 0100     		.2byte	0x1
 3567 00b4 50       		.byte	0x50
 3568 00b5 0C000000 		.4byte	.LVL14
 3569 00b9 14000000 		.4byte	.LFE136
 3570 00bd 0400     		.2byte	0x4
 3571 00bf F3       		.byte	0xf3
 3572 00c0 01       		.uleb128 0x1
 3573 00c1 50       		.byte	0x50
 3574 00c2 9F       		.byte	0x9f
 3575 00c3 00000000 		.4byte	0
 3576 00c7 00000000 		.4byte	0
 3577              	.LLST5:
 3578 00cb 00000000 		.4byte	.LVL12
 3579 00cf 04000000 		.4byte	.LVL13
 3580 00d3 0200     		.2byte	0x2
 3581 00d5 30       		.byte	0x30
 3582 00d6 9F       		.byte	0x9f
 3583 00d7 04000000 		.4byte	.LVL13
 3584 00db 0C000000 		.4byte	.LVL14
 3585 00df 0800     		.2byte	0x8
 3586 00e1 70       		.byte	0x70
 3587 00e2 00       		.sleb128 0
 3588 00e3 73       		.byte	0x73
 3589 00e4 00       		.sleb128 0
 3590 00e5 1A       		.byte	0x1a
 3591 00e6 30       		.byte	0x30
 3592 00e7 2E       		.byte	0x2e
 3593 00e8 9F       		.byte	0x9f
 3594 00e9 0C000000 		.4byte	.LVL14
 3595 00ed 14000000 		.4byte	.LFE136
 3596 00f1 0900     		.2byte	0x9
 3597 00f3 F3       		.byte	0xf3
 3598 00f4 01       		.uleb128 0x1
 3599 00f5 50       		.byte	0x50
 3600 00f6 73       		.byte	0x73
 3601 00f7 00       		.sleb128 0
 3602 00f8 1A       		.byte	0x1a
 3603 00f9 30       		.byte	0x30
 3604 00fa 2E       		.byte	0x2e
 3605 00fb 9F       		.byte	0x9f
 3606 00fc 00000000 		.4byte	0
 3607 0100 00000000 		.4byte	0
 3608              	.LLST6:
 3609 0104 00000000 		.4byte	.LVL16
 3610 0108 10000000 		.4byte	.LVL17
 3611 010c 0200     		.2byte	0x2
 3612 010e 34       		.byte	0x34
 3613 010f 9F       		.byte	0x9f
 3614 0110 10000000 		.4byte	.LVL17
 3615 0114 12000000 		.4byte	.LVL18
 3616 0118 0100     		.2byte	0x1
 3617 011a 50       		.byte	0x50
 3618 011b 12000000 		.4byte	.LVL18
 3619 011f 28000000 		.4byte	.LFE138
 3620 0123 0200     		.2byte	0x2
 3621 0125 34       		.byte	0x34
 3622 0126 9F       		.byte	0x9f
ARM GAS  /tmp/ccDe7wQg.s 			page 65


 3623 0127 00000000 		.4byte	0
 3624 012b 00000000 		.4byte	0
 3625              	.LLST7:
 3626 012f 00000000 		.4byte	.LVL19
 3627 0133 07000000 		.4byte	.LVL20-1
 3628 0137 0100     		.2byte	0x1
 3629 0139 50       		.byte	0x50
 3630 013a 07000000 		.4byte	.LVL20-1
 3631 013e 22000000 		.4byte	.LFE139
 3632 0142 0100     		.2byte	0x1
 3633 0144 54       		.byte	0x54
 3634 0145 00000000 		.4byte	0
 3635 0149 00000000 		.4byte	0
 3636              	.LLST8:
 3637 014d 00000000 		.4byte	.LVL19
 3638 0151 08000000 		.4byte	.LVL20
 3639 0155 0200     		.2byte	0x2
 3640 0157 34       		.byte	0x34
 3641 0158 9F       		.byte	0x9f
 3642 0159 08000000 		.4byte	.LVL20
 3643 015d 0C000000 		.4byte	.LVL21
 3644 0161 0100     		.2byte	0x1
 3645 0163 50       		.byte	0x50
 3646 0164 0E000000 		.4byte	.LVL22
 3647 0168 12000000 		.4byte	.LVL23
 3648 016c 0200     		.2byte	0x2
 3649 016e 31       		.byte	0x31
 3650 016f 9F       		.byte	0x9f
 3651 0170 12000000 		.4byte	.LVL23
 3652 0174 1A000000 		.4byte	.LVL25
 3653 0178 0100     		.2byte	0x1
 3654 017a 50       		.byte	0x50
 3655 017b 1C000000 		.4byte	.LVL26
 3656 017f 1E000000 		.4byte	.LVL27
 3657 0183 0100     		.2byte	0x1
 3658 0185 50       		.byte	0x50
 3659 0186 1E000000 		.4byte	.LVL27
 3660 018a 22000000 		.4byte	.LFE139
 3661 018e 0200     		.2byte	0x2
 3662 0190 35       		.byte	0x35
 3663 0191 9F       		.byte	0x9f
 3664 0192 00000000 		.4byte	0
 3665 0196 00000000 		.4byte	0
 3666              	.LLST9:
 3667 019a 00000000 		.4byte	.LVL28
 3668 019e 08000000 		.4byte	.LVL29
 3669 01a2 0100     		.2byte	0x1
 3670 01a4 50       		.byte	0x50
 3671 01a5 08000000 		.4byte	.LVL29
 3672 01a9 38000000 		.4byte	.LVL34
 3673 01ad 0100     		.2byte	0x1
 3674 01af 55       		.byte	0x55
 3675 01b0 38000000 		.4byte	.LVL34
 3676 01b4 3C000000 		.4byte	.LFE116
 3677 01b8 0400     		.2byte	0x4
 3678 01ba F3       		.byte	0xf3
 3679 01bb 01       		.uleb128 0x1
ARM GAS  /tmp/ccDe7wQg.s 			page 66


 3680 01bc 50       		.byte	0x50
 3681 01bd 9F       		.byte	0x9f
 3682 01be 00000000 		.4byte	0
 3683 01c2 00000000 		.4byte	0
 3684              	.LLST10:
 3685 01c6 00000000 		.4byte	.LVL28
 3686 01ca 0C000000 		.4byte	.LVL30
 3687 01ce 0200     		.2byte	0x2
 3688 01d0 34       		.byte	0x34
 3689 01d1 9F       		.byte	0x9f
 3690 01d2 0C000000 		.4byte	.LVL30
 3691 01d6 2A000000 		.4byte	.LVL32
 3692 01da 0100     		.2byte	0x1
 3693 01dc 50       		.byte	0x50
 3694 01dd 2E000000 		.4byte	.LVL33
 3695 01e1 3C000000 		.4byte	.LFE116
 3696 01e5 0100     		.2byte	0x1
 3697 01e7 50       		.byte	0x50
 3698 01e8 00000000 		.4byte	0
 3699 01ec 00000000 		.4byte	0
 3700              	.LLST11:
 3701 01f0 00000000 		.4byte	.LVL35
 3702 01f4 0A000000 		.4byte	.LVL36
 3703 01f8 0200     		.2byte	0x2
 3704 01fa 34       		.byte	0x34
 3705 01fb 9F       		.byte	0x9f
 3706 01fc 0A000000 		.4byte	.LVL36
 3707 0200 26000000 		.4byte	.LVL37
 3708 0204 0100     		.2byte	0x1
 3709 0206 50       		.byte	0x50
 3710 0207 2A000000 		.4byte	.LVL38
 3711 020b 38000000 		.4byte	.LFE117
 3712 020f 0100     		.2byte	0x1
 3713 0211 50       		.byte	0x50
 3714 0212 00000000 		.4byte	0
 3715 0216 00000000 		.4byte	0
 3716              	.LLST12:
 3717 021a 00000000 		.4byte	.LVL39
 3718 021e 0C000000 		.4byte	.LVL40
 3719 0222 0100     		.2byte	0x1
 3720 0224 50       		.byte	0x50
 3721 0225 0C000000 		.4byte	.LVL40
 3722 0229 18000000 		.4byte	.LVL42
 3723 022d 0100     		.2byte	0x1
 3724 022f 55       		.byte	0x55
 3725 0230 18000000 		.4byte	.LVL42
 3726 0234 1C000000 		.4byte	.LVL43
 3727 0238 0400     		.2byte	0x4
 3728 023a F3       		.byte	0xf3
 3729 023b 01       		.uleb128 0x1
 3730 023c 50       		.byte	0x50
 3731 023d 9F       		.byte	0x9f
 3732 023e 1C000000 		.4byte	.LVL43
 3733 0242 44000000 		.4byte	.LVL47
 3734 0246 0100     		.2byte	0x1
 3735 0248 55       		.byte	0x55
 3736 0249 44000000 		.4byte	.LVL47
ARM GAS  /tmp/ccDe7wQg.s 			page 67


 3737 024d 64000000 		.4byte	.LFE118
 3738 0251 0300     		.2byte	0x3
 3739 0253 75       		.byte	0x75
 3740 0254 7E       		.sleb128 -2
 3741 0255 9F       		.byte	0x9f
 3742 0256 00000000 		.4byte	0
 3743 025a 00000000 		.4byte	0
 3744              	.LLST13:
 3745 025e 00000000 		.4byte	.LVL39
 3746 0262 13000000 		.4byte	.LVL41-1
 3747 0266 0100     		.2byte	0x1
 3748 0268 51       		.byte	0x51
 3749 0269 13000000 		.4byte	.LVL41-1
 3750 026d 18000000 		.4byte	.LVL42
 3751 0271 0100     		.2byte	0x1
 3752 0273 54       		.byte	0x54
 3753 0274 18000000 		.4byte	.LVL42
 3754 0278 1C000000 		.4byte	.LVL43
 3755 027c 0400     		.2byte	0x4
 3756 027e F3       		.byte	0xf3
 3757 027f 01       		.uleb128 0x1
 3758 0280 51       		.byte	0x51
 3759 0281 9F       		.byte	0x9f
 3760 0282 1C000000 		.4byte	.LVL43
 3761 0286 4A000000 		.4byte	.LVL48
 3762 028a 0100     		.2byte	0x1
 3763 028c 54       		.byte	0x54
 3764 028d 4A000000 		.4byte	.LVL48
 3765 0291 64000000 		.4byte	.LFE118
 3766 0295 0400     		.2byte	0x4
 3767 0297 F3       		.byte	0xf3
 3768 0298 01       		.uleb128 0x1
 3769 0299 51       		.byte	0x51
 3770 029a 9F       		.byte	0x9f
 3771 029b 00000000 		.4byte	0
 3772 029f 00000000 		.4byte	0
 3773              	.LLST14:
 3774 02a3 00000000 		.4byte	.LVL39
 3775 02a7 14000000 		.4byte	.LVL41
 3776 02ab 0200     		.2byte	0x2
 3777 02ad 34       		.byte	0x34
 3778 02ae 9F       		.byte	0x9f
 3779 02af 14000000 		.4byte	.LVL41
 3780 02b3 2C000000 		.4byte	.LVL44
 3781 02b7 0100     		.2byte	0x1
 3782 02b9 50       		.byte	0x50
 3783 02ba 32000000 		.4byte	.LVL45
 3784 02be 50000000 		.4byte	.LVL49
 3785 02c2 0100     		.2byte	0x1
 3786 02c4 50       		.byte	0x50
 3787 02c5 54000000 		.4byte	.LVL50
 3788 02c9 64000000 		.4byte	.LFE118
 3789 02cd 0100     		.2byte	0x1
 3790 02cf 50       		.byte	0x50
 3791 02d0 00000000 		.4byte	0
 3792 02d4 00000000 		.4byte	0
 3793              	.LLST15:
ARM GAS  /tmp/ccDe7wQg.s 			page 68


 3794 02d8 00000000 		.4byte	.LVL51
 3795 02dc 08000000 		.4byte	.LVL52
 3796 02e0 0100     		.2byte	0x1
 3797 02e2 50       		.byte	0x50
 3798 02e3 08000000 		.4byte	.LVL52
 3799 02e7 32000000 		.4byte	.LVL57
 3800 02eb 0100     		.2byte	0x1
 3801 02ed 54       		.byte	0x54
 3802 02ee 32000000 		.4byte	.LVL57
 3803 02f2 38000000 		.4byte	.LFE119
 3804 02f6 0400     		.2byte	0x4
 3805 02f8 F3       		.byte	0xf3
 3806 02f9 01       		.uleb128 0x1
 3807 02fa 50       		.byte	0x50
 3808 02fb 9F       		.byte	0x9f
 3809 02fc 00000000 		.4byte	0
 3810 0300 00000000 		.4byte	0
 3811              	.LLST16:
 3812 0304 00000000 		.4byte	.LVL51
 3813 0308 0D000000 		.4byte	.LVL53-1
 3814 030c 0100     		.2byte	0x1
 3815 030e 51       		.byte	0x51
 3816 030f 0D000000 		.4byte	.LVL53-1
 3817 0313 38000000 		.4byte	.LFE119
 3818 0317 0400     		.2byte	0x4
 3819 0319 F3       		.byte	0xf3
 3820 031a 01       		.uleb128 0x1
 3821 031b 51       		.byte	0x51
 3822 031c 9F       		.byte	0x9f
 3823 031d 00000000 		.4byte	0
 3824 0321 00000000 		.4byte	0
 3825              	.LLST17:
 3826 0325 00000000 		.4byte	.LVL51
 3827 0329 0E000000 		.4byte	.LVL53
 3828 032d 0200     		.2byte	0x2
 3829 032f 34       		.byte	0x34
 3830 0330 9F       		.byte	0x9f
 3831 0331 0E000000 		.4byte	.LVL53
 3832 0335 22000000 		.4byte	.LVL55
 3833 0339 0100     		.2byte	0x1
 3834 033b 50       		.byte	0x50
 3835 033c 28000000 		.4byte	.LVL56
 3836 0340 38000000 		.4byte	.LFE119
 3837 0344 0100     		.2byte	0x1
 3838 0346 50       		.byte	0x50
 3839 0347 00000000 		.4byte	0
 3840 034b 00000000 		.4byte	0
 3841              	.LLST18:
 3842 034f 00000000 		.4byte	.LVL58
 3843 0353 14000000 		.4byte	.LVL59
 3844 0357 0300     		.2byte	0x3
 3845 0359 08       		.byte	0x8
 3846 035a AA       		.byte	0xaa
 3847 035b 9F       		.byte	0x9f
 3848 035c 14000000 		.4byte	.LVL59
 3849 0360 74000000 		.4byte	.LFE123
 3850 0364 0100     		.2byte	0x1
ARM GAS  /tmp/ccDe7wQg.s 			page 69


 3851 0366 55       		.byte	0x55
 3852 0367 00000000 		.4byte	0
 3853 036b 00000000 		.4byte	0
 3854              	.LLST19:
 3855 036f 00000000 		.4byte	.LVL58
 3856 0373 18000000 		.4byte	.LVL60
 3857 0377 0200     		.2byte	0x2
 3858 0379 34       		.byte	0x34
 3859 037a 9F       		.byte	0x9f
 3860 037b 18000000 		.4byte	.LVL60
 3861 037f 32000000 		.4byte	.LVL63
 3862 0383 0100     		.2byte	0x1
 3863 0385 50       		.byte	0x50
 3864 0386 36000000 		.4byte	.LVL64
 3865 038a 3E000000 		.4byte	.LVL65
 3866 038e 0100     		.2byte	0x1
 3867 0390 50       		.byte	0x50
 3868 0391 46000000 		.4byte	.LVL66
 3869 0395 5E000000 		.4byte	.LVL68
 3870 0399 0100     		.2byte	0x1
 3871 039b 50       		.byte	0x50
 3872 039c 64000000 		.4byte	.LVL69
 3873 03a0 74000000 		.4byte	.LFE123
 3874 03a4 0100     		.2byte	0x1
 3875 03a6 50       		.byte	0x50
 3876 03a7 00000000 		.4byte	0
 3877 03ab 00000000 		.4byte	0
 3878              	.LLST20:
 3879 03af 00000000 		.4byte	.LVL70
 3880 03b3 04000000 		.4byte	.LVL71
 3881 03b7 0100     		.2byte	0x1
 3882 03b9 50       		.byte	0x50
 3883 03ba 04000000 		.4byte	.LVL71
 3884 03be 08000000 		.4byte	.LVL72
 3885 03c2 0400     		.2byte	0x4
 3886 03c4 70       		.byte	0x70
 3887 03c5 00       		.sleb128 0
 3888 03c6 20       		.byte	0x20
 3889 03c7 9F       		.byte	0x9f
 3890 03c8 08000000 		.4byte	.LVL72
 3891 03cc 10000000 		.4byte	.LVL74
 3892 03d0 0400     		.2byte	0x4
 3893 03d2 74       		.byte	0x74
 3894 03d3 00       		.sleb128 0
 3895 03d4 20       		.byte	0x20
 3896 03d5 9F       		.byte	0x9f
 3897 03d6 10000000 		.4byte	.LVL74
 3898 03da 12000000 		.4byte	.LVL75
 3899 03de 0500     		.2byte	0x5
 3900 03e0 F3       		.byte	0xf3
 3901 03e1 01       		.uleb128 0x1
 3902 03e2 50       		.byte	0x50
 3903 03e3 20       		.byte	0x20
 3904 03e4 9F       		.byte	0x9f
 3905 03e5 12000000 		.4byte	.LVL75
 3906 03e9 16000000 		.4byte	.LVL76
 3907 03ed 0400     		.2byte	0x4
ARM GAS  /tmp/ccDe7wQg.s 			page 70


 3908 03ef 74       		.byte	0x74
 3909 03f0 00       		.sleb128 0
 3910 03f1 20       		.byte	0x20
 3911 03f2 9F       		.byte	0x9f
 3912 03f3 16000000 		.4byte	.LVL76
 3913 03f7 34000000 		.4byte	.LVL79
 3914 03fb 0100     		.2byte	0x1
 3915 03fd 54       		.byte	0x54
 3916 03fe 34000000 		.4byte	.LVL79
 3917 0402 68000000 		.4byte	.LFE124
 3918 0406 0500     		.2byte	0x5
 3919 0408 F3       		.byte	0xf3
 3920 0409 01       		.uleb128 0x1
 3921 040a 50       		.byte	0x50
 3922 040b 20       		.byte	0x20
 3923 040c 9F       		.byte	0x9f
 3924 040d 00000000 		.4byte	0
 3925 0411 00000000 		.4byte	0
 3926              	.LLST21:
 3927 0415 04000000 		.4byte	.LVL71
 3928 0419 08000000 		.4byte	.LVL72
 3929 041d 0700     		.2byte	0x7
 3930 041f 70       		.byte	0x70
 3931 0420 00       		.sleb128 0
 3932 0421 20       		.byte	0x20
 3933 0422 08       		.byte	0x8
 3934 0423 FF       		.byte	0xff
 3935 0424 1A       		.byte	0x1a
 3936 0425 9F       		.byte	0x9f
 3937 0426 08000000 		.4byte	.LVL72
 3938 042a 10000000 		.4byte	.LVL74
 3939 042e 0700     		.2byte	0x7
 3940 0430 74       		.byte	0x74
 3941 0431 00       		.sleb128 0
 3942 0432 20       		.byte	0x20
 3943 0433 08       		.byte	0x8
 3944 0434 FF       		.byte	0xff
 3945 0435 1A       		.byte	0x1a
 3946 0436 9F       		.byte	0x9f
 3947 0437 10000000 		.4byte	.LVL74
 3948 043b 12000000 		.4byte	.LVL75
 3949 043f 0800     		.2byte	0x8
 3950 0441 F3       		.byte	0xf3
 3951 0442 01       		.uleb128 0x1
 3952 0443 50       		.byte	0x50
 3953 0444 20       		.byte	0x20
 3954 0445 08       		.byte	0x8
 3955 0446 FF       		.byte	0xff
 3956 0447 1A       		.byte	0x1a
 3957 0448 9F       		.byte	0x9f
 3958 0449 12000000 		.4byte	.LVL75
 3959 044d 16000000 		.4byte	.LVL76
 3960 0451 0700     		.2byte	0x7
 3961 0453 74       		.byte	0x74
 3962 0454 00       		.sleb128 0
 3963 0455 20       		.byte	0x20
 3964 0456 08       		.byte	0x8
ARM GAS  /tmp/ccDe7wQg.s 			page 71


 3965 0457 FF       		.byte	0xff
 3966 0458 1A       		.byte	0x1a
 3967 0459 9F       		.byte	0x9f
 3968 045a 16000000 		.4byte	.LVL76
 3969 045e 34000000 		.4byte	.LVL79
 3970 0462 0600     		.2byte	0x6
 3971 0464 74       		.byte	0x74
 3972 0465 00       		.sleb128 0
 3973 0466 08       		.byte	0x8
 3974 0467 FF       		.byte	0xff
 3975 0468 1A       		.byte	0x1a
 3976 0469 9F       		.byte	0x9f
 3977 046a 34000000 		.4byte	.LVL79
 3978 046e 68000000 		.4byte	.LFE124
 3979 0472 0800     		.2byte	0x8
 3980 0474 F3       		.byte	0xf3
 3981 0475 01       		.uleb128 0x1
 3982 0476 50       		.byte	0x50
 3983 0477 20       		.byte	0x20
 3984 0478 08       		.byte	0x8
 3985 0479 FF       		.byte	0xff
 3986 047a 1A       		.byte	0x1a
 3987 047b 9F       		.byte	0x9f
 3988 047c 00000000 		.4byte	0
 3989 0480 00000000 		.4byte	0
 3990              	.LLST22:
 3991 0484 04000000 		.4byte	.LVL71
 3992 0488 08000000 		.4byte	.LVL72
 3993 048c 0A00     		.2byte	0xa
 3994 048e 70       		.byte	0x70
 3995 048f 00       		.sleb128 0
 3996 0490 20       		.byte	0x20
 3997 0491 0A       		.byte	0xa
 3998 0492 00FF     		.2byte	0xff00
 3999 0494 1A       		.byte	0x1a
 4000 0495 38       		.byte	0x38
 4001 0496 25       		.byte	0x25
 4002 0497 9F       		.byte	0x9f
 4003 0498 08000000 		.4byte	.LVL72
 4004 049c 10000000 		.4byte	.LVL74
 4005 04a0 0A00     		.2byte	0xa
 4006 04a2 74       		.byte	0x74
 4007 04a3 00       		.sleb128 0
 4008 04a4 20       		.byte	0x20
 4009 04a5 0A       		.byte	0xa
 4010 04a6 00FF     		.2byte	0xff00
 4011 04a8 1A       		.byte	0x1a
 4012 04a9 38       		.byte	0x38
 4013 04aa 25       		.byte	0x25
 4014 04ab 9F       		.byte	0x9f
 4015 04ac 10000000 		.4byte	.LVL74
 4016 04b0 12000000 		.4byte	.LVL75
 4017 04b4 0B00     		.2byte	0xb
 4018 04b6 F3       		.byte	0xf3
 4019 04b7 01       		.uleb128 0x1
 4020 04b8 50       		.byte	0x50
 4021 04b9 20       		.byte	0x20
ARM GAS  /tmp/ccDe7wQg.s 			page 72


 4022 04ba 0A       		.byte	0xa
 4023 04bb 00FF     		.2byte	0xff00
 4024 04bd 1A       		.byte	0x1a
 4025 04be 38       		.byte	0x38
 4026 04bf 25       		.byte	0x25
 4027 04c0 9F       		.byte	0x9f
 4028 04c1 12000000 		.4byte	.LVL75
 4029 04c5 16000000 		.4byte	.LVL76
 4030 04c9 0A00     		.2byte	0xa
 4031 04cb 74       		.byte	0x74
 4032 04cc 00       		.sleb128 0
 4033 04cd 20       		.byte	0x20
 4034 04ce 0A       		.byte	0xa
 4035 04cf 00FF     		.2byte	0xff00
 4036 04d1 1A       		.byte	0x1a
 4037 04d2 38       		.byte	0x38
 4038 04d3 25       		.byte	0x25
 4039 04d4 9F       		.byte	0x9f
 4040 04d5 16000000 		.4byte	.LVL76
 4041 04d9 34000000 		.4byte	.LVL79
 4042 04dd 0900     		.2byte	0x9
 4043 04df 74       		.byte	0x74
 4044 04e0 00       		.sleb128 0
 4045 04e1 0A       		.byte	0xa
 4046 04e2 00FF     		.2byte	0xff00
 4047 04e4 1A       		.byte	0x1a
 4048 04e5 38       		.byte	0x38
 4049 04e6 25       		.byte	0x25
 4050 04e7 9F       		.byte	0x9f
 4051 04e8 34000000 		.4byte	.LVL79
 4052 04ec 68000000 		.4byte	.LFE124
 4053 04f0 0B00     		.2byte	0xb
 4054 04f2 F3       		.byte	0xf3
 4055 04f3 01       		.uleb128 0x1
 4056 04f4 50       		.byte	0x50
 4057 04f5 20       		.byte	0x20
 4058 04f6 0A       		.byte	0xa
 4059 04f7 00FF     		.2byte	0xff00
 4060 04f9 1A       		.byte	0x1a
 4061 04fa 38       		.byte	0x38
 4062 04fb 25       		.byte	0x25
 4063 04fc 9F       		.byte	0x9f
 4064 04fd 00000000 		.4byte	0
 4065 0501 00000000 		.4byte	0
 4066              	.LLST23:
 4067 0505 00000000 		.4byte	.LVL70
 4068 0509 0C000000 		.4byte	.LVL73
 4069 050d 0200     		.2byte	0x2
 4070 050f 34       		.byte	0x34
 4071 0510 9F       		.byte	0x9f
 4072 0511 0C000000 		.4byte	.LVL73
 4073 0515 2A000000 		.4byte	.LVL77
 4074 0519 0100     		.2byte	0x1
 4075 051b 50       		.byte	0x50
 4076 051c 30000000 		.4byte	.LVL78
 4077 0520 44000000 		.4byte	.LVL81
 4078 0524 0100     		.2byte	0x1
ARM GAS  /tmp/ccDe7wQg.s 			page 73


 4079 0526 50       		.byte	0x50
 4080 0527 58000000 		.4byte	.LVL82
 4081 052b 5A000000 		.4byte	.LVL83
 4082 052f 0100     		.2byte	0x1
 4083 0531 50       		.byte	0x50
 4084 0532 00000000 		.4byte	0
 4085 0536 00000000 		.4byte	0
 4086              	.LLST24:
 4087 053a 00000000 		.4byte	.LVL84
 4088 053e 08000000 		.4byte	.LVL85
 4089 0542 0100     		.2byte	0x1
 4090 0544 50       		.byte	0x50
 4091 0545 08000000 		.4byte	.LVL85
 4092 0549 70000000 		.4byte	.LFE125
 4093 054d 0400     		.2byte	0x4
 4094 054f F3       		.byte	0xf3
 4095 0550 01       		.uleb128 0x1
 4096 0551 50       		.byte	0x50
 4097 0552 9F       		.byte	0x9f
 4098 0553 00000000 		.4byte	0
 4099 0557 00000000 		.4byte	0
 4100              	.LLST25:
 4101 055b 00000000 		.4byte	.LVL84
 4102 055f 0C000000 		.4byte	.LVL86
 4103 0563 0200     		.2byte	0x2
 4104 0565 34       		.byte	0x34
 4105 0566 9F       		.byte	0x9f
 4106 0567 0C000000 		.4byte	.LVL86
 4107 056b 28000000 		.4byte	.LVL88
 4108 056f 0100     		.2byte	0x1
 4109 0571 50       		.byte	0x50
 4110 0572 2C000000 		.4byte	.LVL89
 4111 0576 54000000 		.4byte	.LVL90
 4112 057a 0100     		.2byte	0x1
 4113 057c 50       		.byte	0x50
 4114 057d 5A000000 		.4byte	.LVL91
 4115 0581 70000000 		.4byte	.LFE125
 4116 0585 0100     		.2byte	0x1
 4117 0587 50       		.byte	0x50
 4118 0588 00000000 		.4byte	0
 4119 058c 00000000 		.4byte	0
 4120              	.LLST26:
 4121 0590 00000000 		.4byte	.LVL92
 4122 0594 12000000 		.4byte	.LVL93
 4123 0598 0100     		.2byte	0x1
 4124 059a 50       		.byte	0x50
 4125 059b 12000000 		.4byte	.LVL93
 4126 059f 5C000000 		.4byte	.LFE126
 4127 05a3 0400     		.2byte	0x4
 4128 05a5 F3       		.byte	0xf3
 4129 05a6 01       		.uleb128 0x1
 4130 05a7 50       		.byte	0x50
 4131 05a8 9F       		.byte	0x9f
 4132 05a9 00000000 		.4byte	0
 4133 05ad 00000000 		.4byte	0
 4134              	.LLST27:
 4135 05b1 00000000 		.4byte	.LVL92
ARM GAS  /tmp/ccDe7wQg.s 			page 74


 4136 05b5 19000000 		.4byte	.LVL94-1
 4137 05b9 0100     		.2byte	0x1
 4138 05bb 51       		.byte	0x51
 4139 05bc 19000000 		.4byte	.LVL94-1
 4140 05c0 5C000000 		.4byte	.LFE126
 4141 05c4 0400     		.2byte	0x4
 4142 05c6 F3       		.byte	0xf3
 4143 05c7 01       		.uleb128 0x1
 4144 05c8 51       		.byte	0x51
 4145 05c9 9F       		.byte	0x9f
 4146 05ca 00000000 		.4byte	0
 4147 05ce 00000000 		.4byte	0
 4148              	.LLST28:
 4149 05d2 00000000 		.4byte	.LVL92
 4150 05d6 19000000 		.4byte	.LVL94-1
 4151 05da 0100     		.2byte	0x1
 4152 05dc 52       		.byte	0x52
 4153 05dd 19000000 		.4byte	.LVL94-1
 4154 05e1 5C000000 		.4byte	.LFE126
 4155 05e5 0400     		.2byte	0x4
 4156 05e7 F3       		.byte	0xf3
 4157 05e8 01       		.uleb128 0x1
 4158 05e9 52       		.byte	0x52
 4159 05ea 9F       		.byte	0x9f
 4160 05eb 00000000 		.4byte	0
 4161 05ef 00000000 		.4byte	0
 4162              	.LLST29:
 4163 05f3 00000000 		.4byte	.LVL92
 4164 05f7 1A000000 		.4byte	.LVL94
 4165 05fb 0200     		.2byte	0x2
 4166 05fd 34       		.byte	0x34
 4167 05fe 9F       		.byte	0x9f
 4168 05ff 1A000000 		.4byte	.LVL94
 4169 0603 38000000 		.4byte	.LVL96
 4170 0607 0100     		.2byte	0x1
 4171 0609 50       		.byte	0x50
 4172 060a 3E000000 		.4byte	.LVL97
 4173 060e 5C000000 		.4byte	.LFE126
 4174 0612 0100     		.2byte	0x1
 4175 0614 50       		.byte	0x50
 4176 0615 00000000 		.4byte	0
 4177 0619 00000000 		.4byte	0
 4178              	.LLST30:
 4179 061d 00000000 		.4byte	.LVL98
 4180 0621 12000000 		.4byte	.LVL99
 4181 0625 0100     		.2byte	0x1
 4182 0627 50       		.byte	0x50
 4183 0628 12000000 		.4byte	.LVL99
 4184 062c 54000000 		.4byte	.LFE127
 4185 0630 0400     		.2byte	0x4
 4186 0632 F3       		.byte	0xf3
 4187 0633 01       		.uleb128 0x1
 4188 0634 50       		.byte	0x50
 4189 0635 9F       		.byte	0x9f
 4190 0636 00000000 		.4byte	0
 4191 063a 00000000 		.4byte	0
 4192              	.LLST31:
ARM GAS  /tmp/ccDe7wQg.s 			page 75


 4193 063e 00000000 		.4byte	.LVL98
 4194 0642 16000000 		.4byte	.LVL100
 4195 0646 0200     		.2byte	0x2
 4196 0648 34       		.byte	0x34
 4197 0649 9F       		.byte	0x9f
 4198 064a 16000000 		.4byte	.LVL100
 4199 064e 2E000000 		.4byte	.LVL102
 4200 0652 0100     		.2byte	0x1
 4201 0654 50       		.byte	0x50
 4202 0655 34000000 		.4byte	.LVL103
 4203 0659 54000000 		.4byte	.LFE127
 4204 065d 0100     		.2byte	0x1
 4205 065f 50       		.byte	0x50
 4206 0660 00000000 		.4byte	0
 4207 0664 00000000 		.4byte	0
 4208              	.LLST32:
 4209 0668 00000000 		.4byte	.LVL104
 4210 066c 12000000 		.4byte	.LVL105
 4211 0670 0100     		.2byte	0x1
 4212 0672 50       		.byte	0x50
 4213 0673 12000000 		.4byte	.LVL105
 4214 0677 54000000 		.4byte	.LFE128
 4215 067b 0400     		.2byte	0x4
 4216 067d F3       		.byte	0xf3
 4217 067e 01       		.uleb128 0x1
 4218 067f 50       		.byte	0x50
 4219 0680 9F       		.byte	0x9f
 4220 0681 00000000 		.4byte	0
 4221 0685 00000000 		.4byte	0
 4222              	.LLST33:
 4223 0689 00000000 		.4byte	.LVL104
 4224 068d 16000000 		.4byte	.LVL106
 4225 0691 0200     		.2byte	0x2
 4226 0693 34       		.byte	0x34
 4227 0694 9F       		.byte	0x9f
 4228 0695 16000000 		.4byte	.LVL106
 4229 0699 2E000000 		.4byte	.LVL108
 4230 069d 0100     		.2byte	0x1
 4231 069f 50       		.byte	0x50
 4232 06a0 34000000 		.4byte	.LVL109
 4233 06a4 54000000 		.4byte	.LFE128
 4234 06a8 0100     		.2byte	0x1
 4235 06aa 50       		.byte	0x50
 4236 06ab 00000000 		.4byte	0
 4237 06af 00000000 		.4byte	0
 4238              	.LLST34:
 4239 06b3 00000000 		.4byte	.LVL110
 4240 06b7 08000000 		.4byte	.LVL111
 4241 06bb 0100     		.2byte	0x1
 4242 06bd 50       		.byte	0x50
 4243 06be 08000000 		.4byte	.LVL111
 4244 06c2 44000000 		.4byte	.LFE129
 4245 06c6 0400     		.2byte	0x4
 4246 06c8 F3       		.byte	0xf3
 4247 06c9 01       		.uleb128 0x1
 4248 06ca 50       		.byte	0x50
 4249 06cb 9F       		.byte	0x9f
ARM GAS  /tmp/ccDe7wQg.s 			page 76


 4250 06cc 00000000 		.4byte	0
 4251 06d0 00000000 		.4byte	0
 4252              	.LLST35:
 4253 06d4 00000000 		.4byte	.LVL110
 4254 06d8 0C000000 		.4byte	.LVL112
 4255 06dc 0200     		.2byte	0x2
 4256 06de 34       		.byte	0x34
 4257 06df 9F       		.byte	0x9f
 4258 06e0 0C000000 		.4byte	.LVL112
 4259 06e4 26000000 		.4byte	.LVL114
 4260 06e8 0100     		.2byte	0x1
 4261 06ea 50       		.byte	0x50
 4262 06eb 2C000000 		.4byte	.LVL115
 4263 06ef 44000000 		.4byte	.LFE129
 4264 06f3 0100     		.2byte	0x1
 4265 06f5 50       		.byte	0x50
 4266 06f6 00000000 		.4byte	0
 4267 06fa 00000000 		.4byte	0
 4268              	.LLST36:
 4269 06fe 00000000 		.4byte	.LVL116
 4270 0702 12000000 		.4byte	.LVL117
 4271 0706 0100     		.2byte	0x1
 4272 0708 50       		.byte	0x50
 4273 0709 12000000 		.4byte	.LVL117
 4274 070d 54000000 		.4byte	.LFE130
 4275 0711 0400     		.2byte	0x4
 4276 0713 F3       		.byte	0xf3
 4277 0714 01       		.uleb128 0x1
 4278 0715 50       		.byte	0x50
 4279 0716 9F       		.byte	0x9f
 4280 0717 00000000 		.4byte	0
 4281 071b 00000000 		.4byte	0
 4282              	.LLST37:
 4283 071f 00000000 		.4byte	.LVL116
 4284 0723 16000000 		.4byte	.LVL118
 4285 0727 0200     		.2byte	0x2
 4286 0729 34       		.byte	0x34
 4287 072a 9F       		.byte	0x9f
 4288 072b 16000000 		.4byte	.LVL118
 4289 072f 2E000000 		.4byte	.LVL120
 4290 0733 0100     		.2byte	0x1
 4291 0735 50       		.byte	0x50
 4292 0736 34000000 		.4byte	.LVL121
 4293 073a 54000000 		.4byte	.LFE130
 4294 073e 0100     		.2byte	0x1
 4295 0740 50       		.byte	0x50
 4296 0741 00000000 		.4byte	0
 4297 0745 00000000 		.4byte	0
 4298              	.LLST38:
 4299 0749 00000000 		.4byte	.LVL122
 4300 074d 08000000 		.4byte	.LVL123
 4301 0751 0100     		.2byte	0x1
 4302 0753 50       		.byte	0x50
 4303 0754 08000000 		.4byte	.LVL123
 4304 0758 36000000 		.4byte	.LVL129
 4305 075c 0100     		.2byte	0x1
 4306 075e 54       		.byte	0x54
ARM GAS  /tmp/ccDe7wQg.s 			page 77


 4307 075f 36000000 		.4byte	.LVL129
 4308 0763 3C000000 		.4byte	.LFE131
 4309 0767 0400     		.2byte	0x4
 4310 0769 F3       		.byte	0xf3
 4311 076a 01       		.uleb128 0x1
 4312 076b 50       		.byte	0x50
 4313 076c 9F       		.byte	0x9f
 4314 076d 00000000 		.4byte	0
 4315 0771 00000000 		.4byte	0
 4316              	.LLST39:
 4317 0775 00000000 		.4byte	.LVL122
 4318 0779 0D000000 		.4byte	.LVL124-1
 4319 077d 0100     		.2byte	0x1
 4320 077f 51       		.byte	0x51
 4321 0780 0D000000 		.4byte	.LVL124-1
 4322 0784 3C000000 		.4byte	.LFE131
 4323 0788 0400     		.2byte	0x4
 4324 078a F3       		.byte	0xf3
 4325 078b 01       		.uleb128 0x1
 4326 078c 51       		.byte	0x51
 4327 078d 9F       		.byte	0x9f
 4328 078e 00000000 		.4byte	0
 4329 0792 00000000 		.4byte	0
 4330              	.LLST40:
 4331 0796 00000000 		.4byte	.LVL122
 4332 079a 0E000000 		.4byte	.LVL124
 4333 079e 0200     		.2byte	0x2
 4334 07a0 34       		.byte	0x34
 4335 07a1 9F       		.byte	0x9f
 4336 07a2 0E000000 		.4byte	.LVL124
 4337 07a6 22000000 		.4byte	.LVL127
 4338 07aa 0100     		.2byte	0x1
 4339 07ac 50       		.byte	0x50
 4340 07ad 28000000 		.4byte	.LVL128
 4341 07b1 3C000000 		.4byte	.LFE131
 4342 07b5 0100     		.2byte	0x1
 4343 07b7 50       		.byte	0x50
 4344 07b8 00000000 		.4byte	0
 4345 07bc 00000000 		.4byte	0
 4346              		.section	.debug_aranges,"",%progbits
 4347 0000 FC000000 		.4byte	0xfc
 4348 0004 0200     		.2byte	0x2
 4349 0006 00000000 		.4byte	.Ldebug_info0
 4350 000a 04       		.byte	0x4
 4351 000b 00       		.byte	0
 4352 000c 0000     		.2byte	0
 4353 000e 0000     		.2byte	0
 4354 0010 00000000 		.4byte	.LFB111
 4355 0014 14000000 		.4byte	.LFE111-.LFB111
 4356 0018 00000000 		.4byte	.LFB112
 4357 001c 1C000000 		.4byte	.LFE112-.LFB112
 4358 0020 00000000 		.4byte	.LFB113
 4359 0024 1C000000 		.4byte	.LFE113-.LFB113
 4360 0028 00000000 		.4byte	.LFB114
 4361 002c 20000000 		.4byte	.LFE114-.LFB114
 4362 0030 00000000 		.4byte	.LFB115
 4363 0034 10000000 		.4byte	.LFE115-.LFB115
ARM GAS  /tmp/ccDe7wQg.s 			page 78


 4364 0038 00000000 		.4byte	.LFB120
 4365 003c 20000000 		.4byte	.LFE120-.LFB120
 4366 0040 00000000 		.4byte	.LFB121
 4367 0044 10000000 		.4byte	.LFE121-.LFB121
 4368 0048 00000000 		.4byte	.LFB122
 4369 004c 10000000 		.4byte	.LFE122-.LFB122
 4370 0050 00000000 		.4byte	.LFB132
 4371 0054 10000000 		.4byte	.LFE132-.LFB132
 4372 0058 00000000 		.4byte	.LFB133
 4373 005c 0C000000 		.4byte	.LFE133-.LFB133
 4374 0060 00000000 		.4byte	.LFB134
 4375 0064 14000000 		.4byte	.LFE134-.LFB134
 4376 0068 00000000 		.4byte	.LFB135
 4377 006c 18000000 		.4byte	.LFE135-.LFB135
 4378 0070 00000000 		.4byte	.LFB136
 4379 0074 14000000 		.4byte	.LFE136-.LFB136
 4380 0078 00000000 		.4byte	.LFB137
 4381 007c 0C000000 		.4byte	.LFE137-.LFB137
 4382 0080 00000000 		.4byte	.LFB138
 4383 0084 28000000 		.4byte	.LFE138-.LFB138
 4384 0088 00000000 		.4byte	.LFB139
 4385 008c 22000000 		.4byte	.LFE139-.LFB139
 4386 0090 00000000 		.4byte	.LFB116
 4387 0094 3C000000 		.4byte	.LFE116-.LFB116
 4388 0098 00000000 		.4byte	.LFB117
 4389 009c 38000000 		.4byte	.LFE117-.LFB117
 4390 00a0 00000000 		.4byte	.LFB118
 4391 00a4 64000000 		.4byte	.LFE118-.LFB118
 4392 00a8 00000000 		.4byte	.LFB119
 4393 00ac 38000000 		.4byte	.LFE119-.LFB119
 4394 00b0 00000000 		.4byte	.LFB123
 4395 00b4 74000000 		.4byte	.LFE123-.LFB123
 4396 00b8 00000000 		.4byte	.LFB124
 4397 00bc 68000000 		.4byte	.LFE124-.LFB124
 4398 00c0 00000000 		.4byte	.LFB125
 4399 00c4 70000000 		.4byte	.LFE125-.LFB125
 4400 00c8 00000000 		.4byte	.LFB126
 4401 00cc 5C000000 		.4byte	.LFE126-.LFB126
 4402 00d0 00000000 		.4byte	.LFB127
 4403 00d4 54000000 		.4byte	.LFE127-.LFB127
 4404 00d8 00000000 		.4byte	.LFB128
 4405 00dc 54000000 		.4byte	.LFE128-.LFB128
 4406 00e0 00000000 		.4byte	.LFB129
 4407 00e4 44000000 		.4byte	.LFE129-.LFB129
 4408 00e8 00000000 		.4byte	.LFB130
 4409 00ec 54000000 		.4byte	.LFE130-.LFB130
 4410 00f0 00000000 		.4byte	.LFB131
 4411 00f4 3C000000 		.4byte	.LFE131-.LFB131
 4412 00f8 00000000 		.4byte	0
 4413 00fc 00000000 		.4byte	0
 4414              		.section	.debug_ranges,"",%progbits
 4415              	.Ldebug_ranges0:
 4416 0000 00000000 		.4byte	.LFB111
 4417 0004 14000000 		.4byte	.LFE111
 4418 0008 00000000 		.4byte	.LFB112
 4419 000c 1C000000 		.4byte	.LFE112
 4420 0010 00000000 		.4byte	.LFB113
ARM GAS  /tmp/ccDe7wQg.s 			page 79


 4421 0014 1C000000 		.4byte	.LFE113
 4422 0018 00000000 		.4byte	.LFB114
 4423 001c 20000000 		.4byte	.LFE114
 4424 0020 00000000 		.4byte	.LFB115
 4425 0024 10000000 		.4byte	.LFE115
 4426 0028 00000000 		.4byte	.LFB120
 4427 002c 20000000 		.4byte	.LFE120
 4428 0030 00000000 		.4byte	.LFB121
 4429 0034 10000000 		.4byte	.LFE121
 4430 0038 00000000 		.4byte	.LFB122
 4431 003c 10000000 		.4byte	.LFE122
 4432 0040 00000000 		.4byte	.LFB132
 4433 0044 10000000 		.4byte	.LFE132
 4434 0048 00000000 		.4byte	.LFB133
 4435 004c 0C000000 		.4byte	.LFE133
 4436 0050 00000000 		.4byte	.LFB134
 4437 0054 14000000 		.4byte	.LFE134
 4438 0058 00000000 		.4byte	.LFB135
 4439 005c 18000000 		.4byte	.LFE135
 4440 0060 00000000 		.4byte	.LFB136
 4441 0064 14000000 		.4byte	.LFE136
 4442 0068 00000000 		.4byte	.LFB137
 4443 006c 0C000000 		.4byte	.LFE137
 4444 0070 00000000 		.4byte	.LFB138
 4445 0074 28000000 		.4byte	.LFE138
 4446 0078 00000000 		.4byte	.LFB139
 4447 007c 22000000 		.4byte	.LFE139
 4448 0080 00000000 		.4byte	.LFB116
 4449 0084 3C000000 		.4byte	.LFE116
 4450 0088 00000000 		.4byte	.LFB117
 4451 008c 38000000 		.4byte	.LFE117
 4452 0090 00000000 		.4byte	.LFB118
 4453 0094 64000000 		.4byte	.LFE118
 4454 0098 00000000 		.4byte	.LFB119
 4455 009c 38000000 		.4byte	.LFE119
 4456 00a0 00000000 		.4byte	.LFB123
 4457 00a4 74000000 		.4byte	.LFE123
 4458 00a8 00000000 		.4byte	.LFB124
 4459 00ac 68000000 		.4byte	.LFE124
 4460 00b0 00000000 		.4byte	.LFB125
 4461 00b4 70000000 		.4byte	.LFE125
 4462 00b8 00000000 		.4byte	.LFB126
 4463 00bc 5C000000 		.4byte	.LFE126
 4464 00c0 00000000 		.4byte	.LFB127
 4465 00c4 54000000 		.4byte	.LFE127
 4466 00c8 00000000 		.4byte	.LFB128
 4467 00cc 54000000 		.4byte	.LFE128
 4468 00d0 00000000 		.4byte	.LFB129
 4469 00d4 44000000 		.4byte	.LFE129
 4470 00d8 00000000 		.4byte	.LFB130
 4471 00dc 54000000 		.4byte	.LFE130
 4472 00e0 00000000 		.4byte	.LFB131
 4473 00e4 3C000000 		.4byte	.LFE131
 4474 00e8 00000000 		.4byte	0
 4475 00ec 00000000 		.4byte	0
 4476              		.section	.debug_line,"",%progbits
 4477              	.Ldebug_line0:
ARM GAS  /tmp/ccDe7wQg.s 			page 80


 4478 0000 9A040000 		.section	.debug_str,"MS",%progbits,1
 4478      02003C01 
 4478      00000201 
 4478      FB0E0D00 
 4478      01010101 
 4479              	.LASF58:
 4480 0000 464C4153 		.ascii	"FLASH_ITConfig\000"
 4480      485F4954 
 4480      436F6E66 
 4480      696700
 4481              	.LASF92:
 4482 000f 4F425F53 		.ascii	"OB_SRAM_Parity\000"
 4482      52414D5F 
 4482      50617269 
 4482      747900
 4483              	.LASF82:
 4484 001e 4F425F52 		.ascii	"OB_RDP\000"
 4484      445000
 4485              	.LASF84:
 4486 0025 4F425F49 		.ascii	"OB_IWDG\000"
 4486      57444700 
 4487              	.LASF93:
 4488 002d 464C4153 		.ascii	"FLASH_OB_WriteUser\000"
 4488      485F4F42 
 4488      5F577269 
 4488      74655573 
 4488      657200
 4489              	.LASF37:
 4490 0040 464C4153 		.ascii	"FLASH_ERROR_WRP\000"
 4490      485F4552 
 4490      524F525F 
 4490      57525000 
 4491              	.LASF88:
 4492 0050 4F425F42 		.ascii	"OB_BOOT1\000"
 4492      4F4F5431 
 4492      00
 4493              	.LASF68:
 4494 0059 464C4153 		.ascii	"FLASH_ErasePage\000"
 4494      485F4572 
 4494      61736550 
 4494      61676500 
 4495              	.LASF17:
 4496 0069 73697A65 		.ascii	"sizetype\000"
 4496      74797065 
 4496      00
 4497              	.LASF59:
 4498 0072 464C4153 		.ascii	"FLASH_IT\000"
 4498      485F4954 
 4498      00
 4499              	.LASF57:
 4500 007b 464C4153 		.ascii	"FLASH_OB_GetWRP\000"
 4500      485F4F42 
 4500      5F476574 
 4500      57525000 
 4501              	.LASF80:
 4502 008b 57525031 		.ascii	"WRP1_Data\000"
 4502      5F446174 
ARM GAS  /tmp/ccDe7wQg.s 			page 81


 4502      6100
 4503              	.LASF8:
 4504 0095 5F5F7569 		.ascii	"__uint32_t\000"
 4504      6E743332 
 4504      5F7400
 4505              	.LASF54:
 4506 00a0 464C4153 		.ascii	"FLASH_OB_Lock\000"
 4506      485F4F42 
 4506      5F4C6F63 
 4506      6B00
 4507              	.LASF72:
 4508 00ae 41646472 		.ascii	"Address\000"
 4508      65737300 
 4509              	.LASF19:
 4510 00b6 466C6167 		.ascii	"FlagStatus\000"
 4510      53746174 
 4510      757300
 4511              	.LASF4:
 4512 00c1 5F5F7569 		.ascii	"__uint16_t\000"
 4512      6E743136 
 4512      5F7400
 4513              	.LASF78:
 4514 00cc 4F425F57 		.ascii	"OB_WRP\000"
 4514      525000
 4515              	.LASF2:
 4516 00d3 73686F72 		.ascii	"short int\000"
 4516      7420696E 
 4516      7400
 4517              	.LASF83:
 4518 00dd 464C4153 		.ascii	"FLASH_OB_UserConfig\000"
 4518      485F4F42 
 4518      5F557365 
 4518      72436F6E 
 4518      66696700 
 4519              	.LASF51:
 4520 00f1 464C4153 		.ascii	"FLASH_Unlock\000"
 4520      485F556E 
 4520      6C6F636B 
 4520      00
 4521              	.LASF70:
 4522 00fe 464C4153 		.ascii	"FLASH_EraseAllPages\000"
 4522      485F4572 
 4522      61736541 
 4522      6C6C5061 
 4522      67657300 
 4523              	.LASF13:
 4524 0112 75696E74 		.ascii	"uint8_t\000"
 4524      385F7400 
 4525              	.LASF41:
 4526 011a 464C4153 		.ascii	"FLASH_Status\000"
 4526      485F5374 
 4526      61747573 
 4526      00
 4527              	.LASF76:
 4528 0127 72647074 		.ascii	"rdptmp\000"
 4528      6D7000
 4529              	.LASF49:
ARM GAS  /tmp/ccDe7wQg.s 			page 82


 4530 012e 4E657753 		.ascii	"NewState\000"
 4530      74617465 
 4530      00
 4531              	.LASF31:
 4532 0137 57525030 		.ascii	"WRP0\000"
 4532      00
 4533              	.LASF32:
 4534 013c 57525031 		.ascii	"WRP1\000"
 4534      00
 4535              	.LASF33:
 4536 0141 57525032 		.ascii	"WRP2\000"
 4536      00
 4537              	.LASF34:
 4538 0146 57525033 		.ascii	"WRP3\000"
 4538      00
 4539              	.LASF20:
 4540 014b 44495341 		.ascii	"DISABLE\000"
 4540      424C4500 
 4541              	.LASF24:
 4542 0153 4F50544B 		.ascii	"OPTKEYR\000"
 4542      45595200 
 4543              	.LASF10:
 4544 015b 6C6F6E67 		.ascii	"long long int\000"
 4544      206C6F6E 
 4544      6720696E 
 4544      7400
 4545              	.LASF97:
 4546 0169 2E2E2F2E 		.ascii	"../../../../ext/stm32lib/src/stm32f30x_flash.c\000"
 4546      2E2F2E2E 
 4546      2F2E2E2F 
 4546      6578742F 
 4546      73746D33 
 4547              	.LASF7:
 4548 0198 6C6F6E67 		.ascii	"long int\000"
 4548      20696E74 
 4548      00
 4549              	.LASF3:
 4550 01a1 5F5F7569 		.ascii	"__uint8_t\000"
 4550      6E74385F 
 4550      7400
 4551              	.LASF26:
 4552 01ab 57525052 		.ascii	"WRPR\000"
 4552      00
 4553              	.LASF74:
 4554 01b0 464C4153 		.ascii	"FLASH_ProgramHalfWord\000"
 4554      485F5072 
 4554      6F677261 
 4554      6D48616C 
 4554      66576F72 
 4555              	.LASF73:
 4556 01c6 44617461 		.ascii	"Data\000"
 4556      00
 4557              	.LASF77:
 4558 01cb 464C4153 		.ascii	"FLASH_OB_EnableWRP\000"
 4558      485F4F42 
 4558      5F456E61 
 4558      626C6557 
ARM GAS  /tmp/ccDe7wQg.s 			page 83


 4558      525000
 4559              	.LASF55:
 4560 01de 464C4153 		.ascii	"FLASH_OB_Launch\000"
 4560      485F4F42 
 4560      5F4C6175 
 4560      6E636800 
 4561              	.LASF61:
 4562 01ee 746D7072 		.ascii	"tmpreg\000"
 4562      656700
 4563              	.LASF62:
 4564 01f5 62697473 		.ascii	"bitstatus\000"
 4564      74617475 
 4564      7300
 4565              	.LASF56:
 4566 01ff 464C4153 		.ascii	"FLASH_OB_GetUser\000"
 4566      485F4F42 
 4566      5F476574 
 4566      55736572 
 4566      00
 4567              	.LASF1:
 4568 0210 756E7369 		.ascii	"unsigned char\000"
 4568      676E6564 
 4568      20636861 
 4568      7200
 4569              	.LASF69:
 4570 021e 50616765 		.ascii	"Page_Address\000"
 4570      5F416464 
 4570      72657373 
 4570      00
 4571              	.LASF52:
 4572 022b 464C4153 		.ascii	"FLASH_Lock\000"
 4572      485F4C6F 
 4572      636B00
 4573              	.LASF89:
 4574 0236 464C4153 		.ascii	"FLASH_OB_VDDAConfig\000"
 4574      485F4F42 
 4574      5F564444 
 4574      41436F6E 
 4574      66696700 
 4575              	.LASF53:
 4576 024a 464C4153 		.ascii	"FLASH_OB_Unlock\000"
 4576      485F4F42 
 4576      5F556E6C 
 4576      6F636B00 
 4577              	.LASF50:
 4578 025a 464C4153 		.ascii	"FLASH_PrefetchBufferCmd\000"
 4578      485F5072 
 4578      65666574 
 4578      63684275 
 4578      66666572 
 4579              	.LASF0:
 4580 0272 7369676E 		.ascii	"signed char\000"
 4580      65642063 
 4580      68617200 
 4581              	.LASF64:
 4582 027e 464C4153 		.ascii	"FLASH_GetFlagStatus\000"
 4582      485F4765 
ARM GAS  /tmp/ccDe7wQg.s 			page 84


 4582      74466C61 
 4582      67537461 
 4582      74757300 
 4583              	.LASF11:
 4584 0292 6C6F6E67 		.ascii	"long long unsigned int\000"
 4584      206C6F6E 
 4584      6720756E 
 4584      7369676E 
 4584      65642069 
 4585              	.LASF45:
 4586 02a9 72656164 		.ascii	"readstatus\000"
 4586      73746174 
 4586      757300
 4587              	.LASF16:
 4588 02b4 75696E74 		.ascii	"uint32_t\000"
 4588      33325F74 
 4588      00
 4589              	.LASF63:
 4590 02bd 464C4153 		.ascii	"FLASH_ClearFlag\000"
 4590      485F436C 
 4590      65617246 
 4590      6C616700 
 4591              	.LASF12:
 4592 02cd 756E7369 		.ascii	"unsigned int\000"
 4592      676E6564 
 4592      20696E74 
 4592      00
 4593              	.LASF36:
 4594 02da 464C4153 		.ascii	"FLASH_BUSY\000"
 4594      485F4255 
 4594      535900
 4595              	.LASF18:
 4596 02e5 52455345 		.ascii	"RESET\000"
 4596      5400
 4597              	.LASF79:
 4598 02eb 57525030 		.ascii	"WRP0_Data\000"
 4598      5F446174 
 4598      6100
 4599              	.LASF40:
 4600 02f5 464C4153 		.ascii	"FLASH_TIMEOUT\000"
 4600      485F5449 
 4600      4D454F55 
 4600      5400
 4601              	.LASF91:
 4602 0303 464C4153 		.ascii	"FLASH_OB_SRAMParityConfig\000"
 4602      485F4F42 
 4602      5F535241 
 4602      4D506172 
 4602      69747943 
 4603              	.LASF67:
 4604 031d 73746174 		.ascii	"status\000"
 4604      757300
 4605              	.LASF5:
 4606 0324 73686F72 		.ascii	"short unsigned int\000"
 4606      7420756E 
 4606      7369676E 
 4606      65642069 
ARM GAS  /tmp/ccDe7wQg.s 			page 85


 4606      6E7400
 4607              	.LASF66:
 4608 0337 54696D65 		.ascii	"Timeout\000"
 4608      6F757400 
 4609              	.LASF90:
 4610 033f 4F425F56 		.ascii	"OB_VDDA_ANALOG\000"
 4610      4444415F 
 4610      414E414C 
 4610      4F4700
 4611              	.LASF44:
 4612 034e 464C4153 		.ascii	"FLASHstatus\000"
 4612      48737461 
 4612      74757300 
 4613              	.LASF14:
 4614 035a 75696E74 		.ascii	"uint16_t\000"
 4614      31365F74 
 4614      00
 4615              	.LASF39:
 4616 0363 464C4153 		.ascii	"FLASH_COMPLETE\000"
 4616      485F434F 
 4616      4D504C45 
 4616      544500
 4617              	.LASF75:
 4618 0372 464C4153 		.ascii	"FLASH_OB_Erase\000"
 4618      485F4F42 
 4618      5F457261 
 4618      736500
 4619              	.LASF15:
 4620 0381 696E7433 		.ascii	"int32_t\000"
 4620      325F7400 
 4621              	.LASF42:
 4622 0389 464C4153 		.ascii	"FLASH_GetStatus\000"
 4622      485F4765 
 4622      74537461 
 4622      74757300 
 4623              	.LASF35:
 4624 0399 4F425F54 		.ascii	"OB_TypeDef\000"
 4624      79706544 
 4624      656600
 4625              	.LASF48:
 4626 03a4 464C4153 		.ascii	"FLASH_Latency\000"
 4626      485F4C61 
 4626      74656E63 
 4626      7900
 4627              	.LASF46:
 4628 03b2 464C4153 		.ascii	"FLASH_SetLatency\000"
 4628      485F5365 
 4628      744C6174 
 4628      656E6379 
 4628      00
 4629              	.LASF47:
 4630 03c3 464C4153 		.ascii	"FLASH_HalfCycleAccessCmd\000"
 4630      485F4861 
 4630      6C664379 
 4630      636C6541 
 4630      63636573 
 4631              	.LASF95:
ARM GAS  /tmp/ccDe7wQg.s 			page 86


 4632 03dc 464C4153 		.ascii	"FLASH_ProgramOptionByteData\000"
 4632      485F5072 
 4632      6F677261 
 4632      6D4F7074 
 4632      696F6E42 
 4633              	.LASF98:
 4634 03f8 2F686F6D 		.ascii	"/home/jordyaw/Documents/referensi/coba/ChibiOS_2.5."
 4634      652F6A6F 
 4634      72647961 
 4634      772F446F 
 4634      63756D65 
 4635 042b 32782F74 		.ascii	"2x/testhal/STM32F30x/WSC/board joule\000"
 4635      65737468 
 4635      616C2F53 
 4635      544D3332 
 4635      46333078 
 4636              	.LASF29:
 4637 0450 52455345 		.ascii	"RESERVED0\000"
 4637      52564544 
 4637      3000
 4638              	.LASF30:
 4639 045a 52455345 		.ascii	"RESERVED1\000"
 4639      52564544 
 4639      3100
 4640              	.LASF9:
 4641 0464 6C6F6E67 		.ascii	"long unsigned int\000"
 4641      20756E73 
 4641      69676E65 
 4641      6420696E 
 4641      7400
 4642              	.LASF60:
 4643 0476 464C4153 		.ascii	"FLASH_FLAG\000"
 4643      485F464C 
 4643      414700
 4644              	.LASF22:
 4645 0481 46756E63 		.ascii	"FunctionalState\000"
 4645      74696F6E 
 4645      616C5374 
 4645      61746500 
 4646              	.LASF6:
 4647 0491 5F5F696E 		.ascii	"__int32_t\000"
 4647      7433325F 
 4647      7400
 4648              	.LASF81:
 4649 049b 464C4153 		.ascii	"FLASH_OB_RDPConfig\000"
 4649      485F4F42 
 4649      5F524450 
 4649      436F6E66 
 4649      696700
 4650              	.LASF28:
 4651 04ae 55534552 		.ascii	"USER\000"
 4651      00
 4652              	.LASF38:
 4653 04b3 464C4153 		.ascii	"FLASH_ERROR_PROGRAM\000"
 4653      485F4552 
 4653      524F525F 
 4653      50524F47 
ARM GAS  /tmp/ccDe7wQg.s 			page 87


 4653      52414D00 
 4654              	.LASF71:
 4655 04c7 464C4153 		.ascii	"FLASH_ProgramWord\000"
 4655      485F5072 
 4655      6F677261 
 4655      6D576F72 
 4655      6400
 4656              	.LASF96:
 4657 04d9 474E5520 		.ascii	"GNU C 4.8.3 -mcpu=cortex-m4 -mfloat-abi=softfp -mfp"
 4657      4320342E 
 4657      382E3320 
 4657      2D6D6370 
 4657      753D636F 
 4658 050c 753D6670 		.ascii	"u=fpv4-sp-d16 -mno-thumb-interwork -mthumb -ggdb -O"
 4658      76342D73 
 4658      702D6431 
 4658      36202D6D 
 4658      6E6F2D74 
 4659 053f 32202D66 		.ascii	"2 -fomit-frame-pointer -falign-functions=16 -fsingl"
 4659      6F6D6974 
 4659      2D667261 
 4659      6D652D70 
 4659      6F696E74 
 4660 0572 652D7072 		.ascii	"e-precision-constant -ffunction-sections -fdata-sec"
 4660      65636973 
 4660      696F6E2D 
 4660      636F6E73 
 4660      74616E74 
 4661 05a5 74696F6E 		.ascii	"tions -fno-common\000"
 4661      73202D66 
 4661      6E6F2D63 
 4661      6F6D6D6F 
 4661      6E00
 4662              	.LASF25:
 4663 05b7 52455345 		.ascii	"RESERVED\000"
 4663      52564544 
 4663      00
 4664              	.LASF94:
 4665 05c0 4F425F55 		.ascii	"OB_USER\000"
 4665      53455200 
 4666              	.LASF27:
 4667 05c8 464C4153 		.ascii	"FLASH_TypeDef\000"
 4667      485F5479 
 4667      70654465 
 4667      6600
 4668              	.LASF65:
 4669 05d6 464C4153 		.ascii	"FLASH_WaitForLastOperation\000"
 4669      485F5761 
 4669      6974466F 
 4669      724C6173 
 4669      744F7065 
 4670              	.LASF99:
 4671 05f1 49544D5F 		.ascii	"ITM_RxBuffer\000"
 4671      52784275 
 4671      66666572 
 4671      00
 4672              	.LASF85:
ARM GAS  /tmp/ccDe7wQg.s 			page 88


 4673 05fe 4F425F53 		.ascii	"OB_STOP\000"
 4673      544F5000 
 4674              	.LASF87:
 4675 0606 464C4153 		.ascii	"FLASH_OB_BOOTConfig\000"
 4675      485F4F42 
 4675      5F424F4F 
 4675      54436F6E 
 4675      66696700 
 4676              	.LASF23:
 4677 061a 4B455952 		.ascii	"KEYR\000"
 4677      00
 4678              	.LASF86:
 4679 061f 4F425F53 		.ascii	"OB_STDBY\000"
 4679      54444259 
 4679      00
 4680              	.LASF21:
 4681 0628 454E4142 		.ascii	"ENABLE\000"
 4681      4C4500
 4682              	.LASF43:
 4683 062f 464C4153 		.ascii	"FLASH_OB_GetRDP\000"
 4683      485F4F42 
 4683      5F476574 
 4683      52445000 
 4684              		.ident	"GCC: (4.8.3-18ubuntu2+12) 4.8.3"
ARM GAS  /tmp/ccDe7wQg.s 			page 89


DEFINED SYMBOLS
                            *ABS*:0000000000000000 stm32f30x_flash.c
     /tmp/ccDe7wQg.s:20     .text.FLASH_SetLatency:0000000000000000 $t
     /tmp/ccDe7wQg.s:26     .text.FLASH_SetLatency:0000000000000000 FLASH_SetLatency
     /tmp/ccDe7wQg.s:51     .text.FLASH_SetLatency:0000000000000010 $d
     /tmp/ccDe7wQg.s:56     .text.FLASH_HalfCycleAccessCmd:0000000000000000 $t
     /tmp/ccDe7wQg.s:62     .text.FLASH_HalfCycleAccessCmd:0000000000000000 FLASH_HalfCycleAccessCmd
     /tmp/ccDe7wQg.s:87     .text.FLASH_HalfCycleAccessCmd:0000000000000018 $d
     /tmp/ccDe7wQg.s:92     .text.FLASH_PrefetchBufferCmd:0000000000000000 $t
     /tmp/ccDe7wQg.s:98     .text.FLASH_PrefetchBufferCmd:0000000000000000 FLASH_PrefetchBufferCmd
     /tmp/ccDe7wQg.s:123    .text.FLASH_PrefetchBufferCmd:0000000000000018 $d
     /tmp/ccDe7wQg.s:128    .text.FLASH_Unlock:0000000000000000 $t
     /tmp/ccDe7wQg.s:134    .text.FLASH_Unlock:0000000000000000 FLASH_Unlock
     /tmp/ccDe7wQg.s:159    .text.FLASH_Unlock:0000000000000014 $d
     /tmp/ccDe7wQg.s:166    .text.FLASH_Lock:0000000000000000 $t
     /tmp/ccDe7wQg.s:172    .text.FLASH_Lock:0000000000000000 FLASH_Lock
     /tmp/ccDe7wQg.s:188    .text.FLASH_Lock:000000000000000c $d
     /tmp/ccDe7wQg.s:193    .text.FLASH_OB_Unlock:0000000000000000 $t
     /tmp/ccDe7wQg.s:199    .text.FLASH_OB_Unlock:0000000000000000 FLASH_OB_Unlock
     /tmp/ccDe7wQg.s:224    .text.FLASH_OB_Unlock:0000000000000014 $d
     /tmp/ccDe7wQg.s:231    .text.FLASH_OB_Lock:0000000000000000 $t
     /tmp/ccDe7wQg.s:237    .text.FLASH_OB_Lock:0000000000000000 FLASH_OB_Lock
     /tmp/ccDe7wQg.s:253    .text.FLASH_OB_Lock:000000000000000c $d
     /tmp/ccDe7wQg.s:258    .text.FLASH_OB_Launch:0000000000000000 $t
     /tmp/ccDe7wQg.s:264    .text.FLASH_OB_Launch:0000000000000000 FLASH_OB_Launch
     /tmp/ccDe7wQg.s:280    .text.FLASH_OB_Launch:000000000000000c $d
     /tmp/ccDe7wQg.s:285    .text.FLASH_OB_GetUser:0000000000000000 $t
     /tmp/ccDe7wQg.s:291    .text.FLASH_OB_GetUser:0000000000000000 FLASH_OB_GetUser
     /tmp/ccDe7wQg.s:307    .text.FLASH_OB_GetUser:000000000000000c $d
     /tmp/ccDe7wQg.s:312    .text.FLASH_OB_GetWRP:0000000000000000 $t
     /tmp/ccDe7wQg.s:318    .text.FLASH_OB_GetWRP:0000000000000000 FLASH_OB_GetWRP
     /tmp/ccDe7wQg.s:333    .text.FLASH_OB_GetWRP:0000000000000008 $d
     /tmp/ccDe7wQg.s:338    .text.FLASH_OB_GetRDP:0000000000000000 $t
     /tmp/ccDe7wQg.s:344    .text.FLASH_OB_GetRDP:0000000000000000 FLASH_OB_GetRDP
     /tmp/ccDe7wQg.s:365    .text.FLASH_OB_GetRDP:0000000000000010 $d
     /tmp/ccDe7wQg.s:370    .text.FLASH_ITConfig:0000000000000000 $t
     /tmp/ccDe7wQg.s:376    .text.FLASH_ITConfig:0000000000000000 FLASH_ITConfig
     /tmp/ccDe7wQg.s:404    .text.FLASH_ITConfig:0000000000000014 $d
     /tmp/ccDe7wQg.s:409    .text.FLASH_GetFlagStatus:0000000000000000 $t
     /tmp/ccDe7wQg.s:415    .text.FLASH_GetFlagStatus:0000000000000000 FLASH_GetFlagStatus
     /tmp/ccDe7wQg.s:437    .text.FLASH_GetFlagStatus:0000000000000010 $d
     /tmp/ccDe7wQg.s:442    .text.FLASH_ClearFlag:0000000000000000 $t
     /tmp/ccDe7wQg.s:448    .text.FLASH_ClearFlag:0000000000000000 FLASH_ClearFlag
     /tmp/ccDe7wQg.s:463    .text.FLASH_ClearFlag:0000000000000008 $d
     /tmp/ccDe7wQg.s:468    .text.FLASH_GetStatus:0000000000000000 $t
     /tmp/ccDe7wQg.s:474    .text.FLASH_GetStatus:0000000000000000 FLASH_GetStatus
     /tmp/ccDe7wQg.s:517    .text.FLASH_GetStatus:0000000000000024 $d
     /tmp/ccDe7wQg.s:522    .text.FLASH_WaitForLastOperation:0000000000000000 $t
     /tmp/ccDe7wQg.s:528    .text.FLASH_WaitForLastOperation:0000000000000000 FLASH_WaitForLastOperation
     /tmp/ccDe7wQg.s:577    .text.FLASH_ErasePage:0000000000000000 $t
     /tmp/ccDe7wQg.s:583    .text.FLASH_ErasePage:0000000000000000 FLASH_ErasePage
     /tmp/ccDe7wQg.s:636    .text.FLASH_ErasePage:0000000000000038 $d
     /tmp/ccDe7wQg.s:641    .text.FLASH_EraseAllPages:0000000000000000 $t
     /tmp/ccDe7wQg.s:647    .text.FLASH_EraseAllPages:0000000000000000 FLASH_EraseAllPages
     /tmp/ccDe7wQg.s:691    .text.FLASH_EraseAllPages:0000000000000034 $d
     /tmp/ccDe7wQg.s:696    .text.FLASH_ProgramWord:0000000000000000 $t
     /tmp/ccDe7wQg.s:702    .text.FLASH_ProgramWord:0000000000000000 FLASH_ProgramWord
ARM GAS  /tmp/ccDe7wQg.s 			page 90


     /tmp/ccDe7wQg.s:793    .text.FLASH_ProgramWord:0000000000000060 $d
     /tmp/ccDe7wQg.s:798    .text.FLASH_ProgramHalfWord:0000000000000000 $t
     /tmp/ccDe7wQg.s:804    .text.FLASH_ProgramHalfWord:0000000000000000 FLASH_ProgramHalfWord
     /tmp/ccDe7wQg.s:857    .text.FLASH_ProgramHalfWord:0000000000000034 $d
     /tmp/ccDe7wQg.s:862    .text.FLASH_OB_Erase:0000000000000000 $t
     /tmp/ccDe7wQg.s:868    .text.FLASH_OB_Erase:0000000000000000 FLASH_OB_Erase
     /tmp/ccDe7wQg.s:964    .text.FLASH_OB_Erase:000000000000006c $d
     /tmp/ccDe7wQg.s:970    .text.FLASH_OB_EnableWRP:0000000000000000 $t
     /tmp/ccDe7wQg.s:976    .text.FLASH_OB_EnableWRP:0000000000000000 FLASH_OB_EnableWRP
     /tmp/ccDe7wQg.s:1072   .text.FLASH_OB_EnableWRP:0000000000000060 $d
     /tmp/ccDe7wQg.s:1078   .text.FLASH_OB_RDPConfig:0000000000000000 $t
     /tmp/ccDe7wQg.s:1084   .text.FLASH_OB_RDPConfig:0000000000000000 FLASH_OB_RDPConfig
     /tmp/ccDe7wQg.s:1169   .text.FLASH_OB_RDPConfig:0000000000000068 $d
     /tmp/ccDe7wQg.s:1175   .text.FLASH_OB_UserConfig:0000000000000000 $t
     /tmp/ccDe7wQg.s:1181   .text.FLASH_OB_UserConfig:0000000000000000 FLASH_OB_UserConfig
     /tmp/ccDe7wQg.s:1258   .text.FLASH_OB_UserConfig:000000000000004c $d
     /tmp/ccDe7wQg.s:1266   .text.FLASH_OB_BOOTConfig:0000000000000000 $t
     /tmp/ccDe7wQg.s:1272   .text.FLASH_OB_BOOTConfig:0000000000000000 FLASH_OB_BOOTConfig
     /tmp/ccDe7wQg.s:1339   .text.FLASH_OB_BOOTConfig:0000000000000044 $d
     /tmp/ccDe7wQg.s:1347   .text.FLASH_OB_VDDAConfig:0000000000000000 $t
     /tmp/ccDe7wQg.s:1353   .text.FLASH_OB_VDDAConfig:0000000000000000 FLASH_OB_VDDAConfig
     /tmp/ccDe7wQg.s:1420   .text.FLASH_OB_VDDAConfig:0000000000000044 $d
     /tmp/ccDe7wQg.s:1428   .text.FLASH_OB_SRAMParityConfig:0000000000000000 $t
     /tmp/ccDe7wQg.s:1434   .text.FLASH_OB_SRAMParityConfig:0000000000000000 FLASH_OB_SRAMParityConfig
     /tmp/ccDe7wQg.s:1493   .text.FLASH_OB_SRAMParityConfig:000000000000003c $d
     /tmp/ccDe7wQg.s:1499   .text.FLASH_OB_WriteUser:0000000000000000 $t
     /tmp/ccDe7wQg.s:1505   .text.FLASH_OB_WriteUser:0000000000000000 FLASH_OB_WriteUser
     /tmp/ccDe7wQg.s:1572   .text.FLASH_OB_WriteUser:0000000000000044 $d
     /tmp/ccDe7wQg.s:1580   .text.FLASH_ProgramOptionByteData:0000000000000000 $t
     /tmp/ccDe7wQg.s:1586   .text.FLASH_ProgramOptionByteData:0000000000000000 FLASH_ProgramOptionByteData
     /tmp/ccDe7wQg.s:1644   .text.FLASH_ProgramOptionByteData:0000000000000038 $d
                     .debug_frame:0000000000000010 $d
     /tmp/ccDe7wQg.s:55     .text.FLASH_SetLatency:0000000000000014 $t
     /tmp/ccDe7wQg.s:91     .text.FLASH_HalfCycleAccessCmd:000000000000001c $t
     /tmp/ccDe7wQg.s:127    .text.FLASH_PrefetchBufferCmd:000000000000001c $t
     /tmp/ccDe7wQg.s:337    .text.FLASH_OB_GetWRP:000000000000000c $t
     /tmp/ccDe7wQg.s:369    .text.FLASH_OB_GetRDP:0000000000000014 $t
     /tmp/ccDe7wQg.s:408    .text.FLASH_ITConfig:0000000000000018 $t
     /tmp/ccDe7wQg.s:441    .text.FLASH_GetFlagStatus:0000000000000014 $t
     /tmp/ccDe7wQg.s:467    .text.FLASH_ClearFlag:000000000000000c $t
     /tmp/ccDe7wQg.s:521    .text.FLASH_GetStatus:0000000000000028 $t
     /tmp/ccDe7wQg.s:640    .text.FLASH_ErasePage:000000000000003c $t
     /tmp/ccDe7wQg.s:695    .text.FLASH_EraseAllPages:0000000000000038 $t
     /tmp/ccDe7wQg.s:797    .text.FLASH_ProgramWord:0000000000000064 $t
     /tmp/ccDe7wQg.s:861    .text.FLASH_ProgramHalfWord:0000000000000038 $t
     /tmp/ccDe7wQg.s:969    .text.FLASH_OB_Erase:0000000000000074 $t
     /tmp/ccDe7wQg.s:1077   .text.FLASH_OB_EnableWRP:0000000000000068 $t
     /tmp/ccDe7wQg.s:1265   .text.FLASH_OB_UserConfig:000000000000005c $t
     /tmp/ccDe7wQg.s:1346   .text.FLASH_OB_BOOTConfig:0000000000000054 $t
     /tmp/ccDe7wQg.s:1427   .text.FLASH_OB_VDDAConfig:0000000000000054 $t
     /tmp/ccDe7wQg.s:1498   .text.FLASH_OB_SRAMParityConfig:0000000000000044 $t
     /tmp/ccDe7wQg.s:1579   .text.FLASH_OB_WriteUser:0000000000000054 $t
     /tmp/ccDe7wQg.s:1648   .text.FLASH_ProgramOptionByteData:000000000000003c $t

NO UNDEFINED SYMBOLS
