ARM GAS  /tmp/ccqu6znr.s 			page 1


   1              		.syntax unified
   2              		.cpu cortex-m4
   3              		.eabi_attribute 27, 3
   4              		.fpu fpv4-sp-d16
   5              		.eabi_attribute 20, 1
   6              		.eabi_attribute 21, 1
   7              		.eabi_attribute 23, 3
   8              		.eabi_attribute 24, 1
   9              		.eabi_attribute 25, 1
  10              		.eabi_attribute 26, 1
  11              		.eabi_attribute 30, 2
  12              		.eabi_attribute 34, 1
  13              		.eabi_attribute 18, 4
  14              		.thumb
  15              		.file	"stm32f30x_gpio.c"
  16              		.text
  17              	.Ltext0:
  18              		.cfi_sections	.debug_frame
  19              		.section	.text.GPIO_DeInit,"ax",%progbits
  20              		.align	2
  21              		.p2align 4,,15
  22              		.global	GPIO_DeInit
  23              		.thumb
  24              		.thumb_func
  25              		.type	GPIO_DeInit, %function
  26              	GPIO_DeInit:
  27              	.LFB111:
  28              		.file 1 "../../../../ext/stm32lib/src/stm32f30x_gpio.c"
  29              		.loc 1 122 0
  30              		.cfi_startproc
  31              		@ args = 0, pretend = 0, frame = 0
  32              		@ frame_needed = 0, uses_anonymous_args = 0
  33              	.LVL0:
  34              		.loc 1 126 0
  35 0000 B0F1904F 		cmp	r0, #1207959552
  36              		.loc 1 122 0
  37 0004 08B5     		push	{r3, lr}
  38              		.cfi_def_cfa_offset 8
  39              		.cfi_offset 3, -8
  40              		.cfi_offset 14, -4
  41              		.loc 1 126 0
  42 0006 1BD0     		beq	.L9
  43              		.loc 1 131 0
  44 0008 2B4B     		ldr	r3, .L15
  45 000a 9842     		cmp	r0, r3
  46 000c 24D0     		beq	.L10
  47              		.loc 1 136 0
  48 000e 2B4B     		ldr	r3, .L15+4
  49 0010 9842     		cmp	r0, r3
  50 0012 2DD0     		beq	.L11
  51              		.loc 1 141 0
  52 0014 2A4B     		ldr	r3, .L15+8
  53 0016 9842     		cmp	r0, r3
  54 0018 36D0     		beq	.L12
  55              		.loc 1 146 0
  56 001a 2A4B     		ldr	r3, .L15+12
  57 001c 9842     		cmp	r0, r3
ARM GAS  /tmp/ccqu6znr.s 			page 2


  58 001e 3FD0     		beq	.L13
  59              		.loc 1 153 0
  60 0020 294B     		ldr	r3, .L15+16
  61 0022 9842     		cmp	r0, r3
  62 0024 00D0     		beq	.L14
  63 0026 08BD     		pop	{r3, pc}
  64              	.L14:
  65              		.loc 1 155 0
  66 0028 4FF48000 		mov	r0, #4194304
  67              	.LVL1:
  68 002c 0121     		movs	r1, #1
  69 002e FFF7FEFF 		bl	RCC_AHBPeriphResetCmd
  70              	.LVL2:
  71              		.loc 1 156 0
  72 0032 4FF48000 		mov	r0, #4194304
  73 0036 0021     		movs	r1, #0
  74              		.loc 1 159 0
  75 0038 BDE80840 		pop	{r3, lr}
  76              		.loc 1 156 0
  77 003c FFF7FEBF 		b	RCC_AHBPeriphResetCmd
  78              	.LVL3:
  79              	.L9:
  80              		.loc 1 128 0
  81 0040 4FF40030 		mov	r0, #131072
  82              	.LVL4:
  83 0044 0121     		movs	r1, #1
  84 0046 FFF7FEFF 		bl	RCC_AHBPeriphResetCmd
  85              	.LVL5:
  86              		.loc 1 129 0
  87 004a 4FF40030 		mov	r0, #131072
  88 004e 0021     		movs	r1, #0
  89              		.loc 1 159 0
  90 0050 BDE80840 		pop	{r3, lr}
  91              		.loc 1 129 0
  92 0054 FFF7FEBF 		b	RCC_AHBPeriphResetCmd
  93              	.LVL6:
  94              	.L10:
  95              		.loc 1 133 0
  96 0058 4FF48020 		mov	r0, #262144
  97              	.LVL7:
  98 005c 0121     		movs	r1, #1
  99 005e FFF7FEFF 		bl	RCC_AHBPeriphResetCmd
 100              	.LVL8:
 101              		.loc 1 134 0
 102 0062 4FF48020 		mov	r0, #262144
 103 0066 0021     		movs	r1, #0
 104              		.loc 1 159 0
 105 0068 BDE80840 		pop	{r3, lr}
 106              		.loc 1 134 0
 107 006c FFF7FEBF 		b	RCC_AHBPeriphResetCmd
 108              	.LVL9:
 109              	.L11:
 110              		.loc 1 138 0
 111 0070 4FF40020 		mov	r0, #524288
 112              	.LVL10:
 113 0074 0121     		movs	r1, #1
 114 0076 FFF7FEFF 		bl	RCC_AHBPeriphResetCmd
ARM GAS  /tmp/ccqu6znr.s 			page 3


 115              	.LVL11:
 116              		.loc 1 139 0
 117 007a 4FF40020 		mov	r0, #524288
 118 007e 0021     		movs	r1, #0
 119              		.loc 1 159 0
 120 0080 BDE80840 		pop	{r3, lr}
 121              		.loc 1 139 0
 122 0084 FFF7FEBF 		b	RCC_AHBPeriphResetCmd
 123              	.LVL12:
 124              	.L12:
 125              		.loc 1 143 0
 126 0088 4FF48010 		mov	r0, #1048576
 127              	.LVL13:
 128 008c 0121     		movs	r1, #1
 129 008e FFF7FEFF 		bl	RCC_AHBPeriphResetCmd
 130              	.LVL14:
 131              		.loc 1 144 0
 132 0092 4FF48010 		mov	r0, #1048576
 133 0096 0021     		movs	r1, #0
 134              		.loc 1 159 0
 135 0098 BDE80840 		pop	{r3, lr}
 136              		.loc 1 144 0
 137 009c FFF7FEBF 		b	RCC_AHBPeriphResetCmd
 138              	.LVL15:
 139              	.L13:
 140              		.loc 1 148 0
 141 00a0 4FF40010 		mov	r0, #2097152
 142              	.LVL16:
 143 00a4 0121     		movs	r1, #1
 144 00a6 FFF7FEFF 		bl	RCC_AHBPeriphResetCmd
 145              	.LVL17:
 146              		.loc 1 149 0
 147 00aa 4FF40010 		mov	r0, #2097152
 148 00ae 0021     		movs	r1, #0
 149              		.loc 1 159 0
 150 00b0 BDE80840 		pop	{r3, lr}
 151              		.loc 1 149 0
 152 00b4 FFF7FEBF 		b	RCC_AHBPeriphResetCmd
 153              	.LVL18:
 154              	.L16:
 155              		.align	2
 156              	.L15:
 157 00b8 00040048 		.word	1207960576
 158 00bc 00080048 		.word	1207961600
 159 00c0 000C0048 		.word	1207962624
 160 00c4 00100048 		.word	1207963648
 161 00c8 00140048 		.word	1207964672
 162              		.cfi_endproc
 163              	.LFE111:
 164              		.size	GPIO_DeInit, .-GPIO_DeInit
 165 00cc AFF30080 		.section	.text.GPIO_Init,"ax",%progbits
 166              		.align	2
 167              		.p2align 4,,15
 168              		.global	GPIO_Init
 169              		.thumb
 170              		.thumb_func
 171              		.type	GPIO_Init, %function
ARM GAS  /tmp/ccqu6znr.s 			page 4


 172              	GPIO_Init:
 173              	.LFB112:
 174              		.loc 1 175 0
 175              		.cfi_startproc
 176              		@ args = 0, pretend = 0, frame = 0
 177              		@ frame_needed = 0, uses_anonymous_args = 0
 178              		@ link register save eliminated.
 179              	.LVL19:
 180 0000 0022     		movs	r2, #0
 181 0002 2DE9F00F 		push	{r4, r5, r6, r7, r8, r9, r10, fp}
 182              		.cfi_def_cfa_offset 32
 183              		.cfi_offset 4, -32
 184              		.cfi_offset 5, -28
 185              		.cfi_offset 6, -24
 186              		.cfi_offset 7, -20
 187              		.cfi_offset 8, -16
 188              		.cfi_offset 9, -12
 189              		.cfi_offset 10, -8
 190              		.cfi_offset 11, -4
 191              		.loc 1 186 0
 192 0006 1346     		mov	r3, r2
 193 0008 0E68     		ldr	r6, [r1]
 194              		.loc 1 188 0
 195 000a 0127     		movs	r7, #1
 196              		.loc 1 217 0
 197 000c 4FF00308 		mov	r8, #3
 198 0010 04E0     		b	.L22
 199              	.LVL20:
 200              	.L18:
 201              		.loc 1 186 0
 202 0012 0133     		adds	r3, r3, #1
 203              	.LVL21:
 204 0014 102B     		cmp	r3, #16
 205 0016 02F10202 		add	r2, r2, #2
 206 001a 29D0     		beq	.L24
 207              	.LVL22:
 208              	.L22:
 209              		.loc 1 188 0
 210 001c 07FA03F4 		lsl	r4, r7, r3
 211              	.LVL23:
 212              		.loc 1 191 0
 213 0020 04EA0605 		and	r5, r4, r6
 214              	.LVL24:
 215              		.loc 1 193 0
 216 0024 A542     		cmp	r5, r4
 217 0026 F4D1     		bne	.L18
 218              		.loc 1 195 0
 219 0028 0C79     		ldrb	r4, [r1, #4]	@ zero_extendqisi2
 220              	.LVL25:
 221 002a 04F1FF3C 		add	ip, r4, #-1
 222 002e BCF1010F 		cmp	ip, #1
 223              		.loc 1 201 0
 224 0032 08FA02FC 		lsl	ip, r8, r2
 225              		.loc 1 195 0
 226 0036 1ED9     		bls	.L19
 227 0038 6FEA0C0C 		mvn	ip, ip
 228              	.LVL26:
ARM GAS  /tmp/ccqu6znr.s 			page 5


 229              	.L20:
 230              		.loc 1 212 0
 231 003c 0568     		ldr	r5, [r0]
 232              		.loc 1 218 0
 233 003e 91F80790 		ldrb	r9, [r1, #7]	@ zero_extendqisi2
 234              		.loc 1 212 0
 235 0042 0CEA0505 		and	r5, ip, r5
 236 0046 0560     		str	r5, [r0]
 237              		.loc 1 214 0
 238 0048 0568     		ldr	r5, [r0]
 239 004a 9440     		lsls	r4, r4, r2
 240 004c 2C43     		orrs	r4, r4, r5
 241 004e 0460     		str	r4, [r0]
 242              		.loc 1 217 0
 243 0050 C468     		ldr	r4, [r0, #12]
 244 0052 08FA02F5 		lsl	r5, r8, r2
 245 0056 24EA0504 		bic	r4, r4, r5
 246 005a C460     		str	r4, [r0, #12]
 247              		.loc 1 218 0
 248 005c C568     		ldr	r5, [r0, #12]
 249 005e 09FA02F4 		lsl	r4, r9, r2
 250              		.loc 1 186 0
 251 0062 0133     		adds	r3, r3, #1
 252              	.LVL27:
 253              		.loc 1 218 0
 254 0064 2C43     		orrs	r4, r4, r5
 255              		.loc 1 186 0
 256 0066 102B     		cmp	r3, #16
 257              		.loc 1 218 0
 258 0068 C460     		str	r4, [r0, #12]
 259 006a 02F10202 		add	r2, r2, #2
 260              		.loc 1 186 0
 261 006e D5D1     		bne	.L22
 262              	.LVL28:
 263              	.L24:
 264              		.loc 1 221 0
 265 0070 BDE8F00F 		pop	{r4, r5, r6, r7, r8, r9, r10, fp}
 266 0074 7047     		bx	lr
 267              	.LVL29:
 268              	.L19:
 269              		.loc 1 201 0
 270 0076 D0F808B0 		ldr	fp, [r0, #8]
 271              		.loc 1 202 0
 272 007a 91F80590 		ldrb	r9, [r1, #5]	@ zero_extendqisi2
 273              		.loc 1 209 0
 274 007e 91F806A0 		ldrb	r10, [r1, #6]	@ zero_extendqisi2
 275              		.loc 1 201 0
 276 0082 6FEA0C0C 		mvn	ip, ip
 277 0086 0CEA0B0B 		and	fp, ip, fp
 278 008a C0F808B0 		str	fp, [r0, #8]
 279              		.loc 1 202 0
 280 008e D0F808B0 		ldr	fp, [r0, #8]
 281 0092 09FA02F9 		lsl	r9, r9, r2
 282 0096 49EA0B09 		orr	r9, r9, fp
 283 009a C0F80890 		str	r9, [r0, #8]
 284              		.loc 1 208 0
 285 009e B0F80490 		ldrh	r9, [r0, #4]
ARM GAS  /tmp/ccqu6znr.s 			page 6


 286 00a2 1FFA89F9 		uxth	r9, r9
 287 00a6 29EA0505 		bic	r5, r9, r5
 288              	.LVL30:
 289 00aa 8580     		strh	r5, [r0, #4]	@ movhi
 290              		.loc 1 209 0
 291 00ac B0F80490 		ldrh	r9, [r0, #4]
 292 00b0 0AFA03F5 		lsl	r5, r10, r3
 293 00b4 45EA0905 		orr	r5, r5, r9
 294 00b8 ADB2     		uxth	r5, r5
 295 00ba 8580     		strh	r5, [r0, #4]	@ movhi
 296 00bc BEE7     		b	.L20
 297              		.cfi_endproc
 298              	.LFE112:
 299              		.size	GPIO_Init, .-GPIO_Init
 300 00be 00BF     		.section	.text.GPIO_StructInit,"ax",%progbits
 301              		.align	2
 302              		.p2align 4,,15
 303              		.global	GPIO_StructInit
 304              		.thumb
 305              		.thumb_func
 306              		.type	GPIO_StructInit, %function
 307              	GPIO_StructInit:
 308              	.LFB113:
 309              		.loc 1 230 0
 310              		.cfi_startproc
 311              		@ args = 0, pretend = 0, frame = 0
 312              		@ frame_needed = 0, uses_anonymous_args = 0
 313              		@ link register save eliminated.
 314              	.LVL31:
 315              		.loc 1 233 0
 316 0000 0023     		movs	r3, #0
 317              		.loc 1 232 0
 318 0002 4FF6FF71 		movw	r1, #65535
 319              		.loc 1 234 0
 320 0006 0122     		movs	r2, #1
 321              		.loc 1 232 0
 322 0008 0160     		str	r1, [r0]
 323              		.loc 1 234 0
 324 000a 4271     		strb	r2, [r0, #5]
 325              		.loc 1 233 0
 326 000c 0371     		strb	r3, [r0, #4]
 327              		.loc 1 235 0
 328 000e 8371     		strb	r3, [r0, #6]
 329              		.loc 1 236 0
 330 0010 C371     		strb	r3, [r0, #7]
 331 0012 7047     		bx	lr
 332              		.cfi_endproc
 333              	.LFE113:
 334              		.size	GPIO_StructInit, .-GPIO_StructInit
 335 0014 AFF30080 		.section	.text.GPIO_PinLockConfig,"ax",%progbits
 335      AFF30080 
 335      AFF30080 
 336              		.align	2
 337              		.p2align 4,,15
 338              		.global	GPIO_PinLockConfig
 339              		.thumb
 340              		.thumb_func
ARM GAS  /tmp/ccqu6znr.s 			page 7


 341              		.type	GPIO_PinLockConfig, %function
 342              	GPIO_PinLockConfig:
 343              	.LFB114:
 344              		.loc 1 251 0
 345              		.cfi_startproc
 346              		@ args = 0, pretend = 0, frame = 0
 347              		@ frame_needed = 0, uses_anonymous_args = 0
 348              		@ link register save eliminated.
 349              	.LVL32:
 350              		.loc 1 258 0
 351 0000 41F48033 		orr	r3, r1, #65536
 352              	.LVL33:
 353              		.loc 1 260 0
 354 0004 C361     		str	r3, [r0, #28]
 355              		.loc 1 262 0
 356 0006 C161     		str	r1, [r0, #28]
 357              		.loc 1 264 0
 358 0008 C361     		str	r3, [r0, #28]
 359              		.loc 1 266 0
 360 000a C369     		ldr	r3, [r0, #28]
 361              	.LVL34:
 362              		.loc 1 268 0
 363 000c C369     		ldr	r3, [r0, #28]
 364 000e 7047     		bx	lr
 365              		.cfi_endproc
 366              	.LFE114:
 367              		.size	GPIO_PinLockConfig, .-GPIO_PinLockConfig
 368              		.section	.text.GPIO_ReadInputDataBit,"ax",%progbits
 369              		.align	2
 370              		.p2align 4,,15
 371              		.global	GPIO_ReadInputDataBit
 372              		.thumb
 373              		.thumb_func
 374              		.type	GPIO_ReadInputDataBit, %function
 375              	GPIO_ReadInputDataBit:
 376              	.LFB115:
 377              		.loc 1 297 0
 378              		.cfi_startproc
 379              		@ args = 0, pretend = 0, frame = 0
 380              		@ frame_needed = 0, uses_anonymous_args = 0
 381              		@ link register save eliminated.
 382              	.LVL35:
 383              		.loc 1 304 0
 384 0000 038A     		ldrh	r3, [r0, #16]
 385              	.LVL36:
 386 0002 1942     		tst	r1, r3
 387              		.loc 1 313 0
 388 0004 0CBF     		ite	eq
 389 0006 0020     		moveq	r0, #0
 390 0008 0120     		movne	r0, #1
 391              	.LVL37:
 392 000a 7047     		bx	lr
 393              		.cfi_endproc
 394              	.LFE115:
 395              		.size	GPIO_ReadInputDataBit, .-GPIO_ReadInputDataBit
 396 000c AFF30080 		.section	.text.GPIO_ReadInputData,"ax",%progbits
 397              		.align	2
ARM GAS  /tmp/ccqu6znr.s 			page 8


 398              		.p2align 4,,15
 399              		.global	GPIO_ReadInputData
 400              		.thumb
 401              		.thumb_func
 402              		.type	GPIO_ReadInputData, %function
 403              	GPIO_ReadInputData:
 404              	.LFB116:
 405              		.loc 1 321 0
 406              		.cfi_startproc
 407              		@ args = 0, pretend = 0, frame = 0
 408              		@ frame_needed = 0, uses_anonymous_args = 0
 409              		@ link register save eliminated.
 410              	.LVL38:
 411              		.loc 1 325 0
 412 0000 008A     		ldrh	r0, [r0, #16]
 413              	.LVL39:
 414              		.loc 1 326 0
 415 0002 80B2     		uxth	r0, r0
 416 0004 7047     		bx	lr
 417              		.cfi_endproc
 418              	.LFE116:
 419              		.size	GPIO_ReadInputData, .-GPIO_ReadInputData
 420 0006 00BFAFF3 		.section	.text.GPIO_ReadOutputDataBit,"ax",%progbits
 420      0080AFF3 
 420      0080
 421              		.align	2
 422              		.p2align 4,,15
 423              		.global	GPIO_ReadOutputDataBit
 424              		.thumb
 425              		.thumb_func
 426              		.type	GPIO_ReadOutputDataBit, %function
 427              	GPIO_ReadOutputDataBit:
 428              	.LFB117:
 429              		.loc 1 338 0
 430              		.cfi_startproc
 431              		@ args = 0, pretend = 0, frame = 0
 432              		@ frame_needed = 0, uses_anonymous_args = 0
 433              		@ link register save eliminated.
 434              	.LVL40:
 435              		.loc 1 345 0
 436 0000 838A     		ldrh	r3, [r0, #20]
 437              	.LVL41:
 438 0002 1942     		tst	r1, r3
 439              		.loc 1 354 0
 440 0004 0CBF     		ite	eq
 441 0006 0020     		moveq	r0, #0
 442 0008 0120     		movne	r0, #1
 443              	.LVL42:
 444 000a 7047     		bx	lr
 445              		.cfi_endproc
 446              	.LFE117:
 447              		.size	GPIO_ReadOutputDataBit, .-GPIO_ReadOutputDataBit
 448 000c AFF30080 		.section	.text.GPIO_ReadOutputData,"ax",%progbits
 449              		.align	2
 450              		.p2align 4,,15
 451              		.global	GPIO_ReadOutputData
 452              		.thumb
ARM GAS  /tmp/ccqu6znr.s 			page 9


 453              		.thumb_func
 454              		.type	GPIO_ReadOutputData, %function
 455              	GPIO_ReadOutputData:
 456              	.LFB118:
 457              		.loc 1 362 0
 458              		.cfi_startproc
 459              		@ args = 0, pretend = 0, frame = 0
 460              		@ frame_needed = 0, uses_anonymous_args = 0
 461              		@ link register save eliminated.
 462              	.LVL43:
 463              		.loc 1 366 0
 464 0000 808A     		ldrh	r0, [r0, #20]
 465              	.LVL44:
 466              		.loc 1 367 0
 467 0002 80B2     		uxth	r0, r0
 468 0004 7047     		bx	lr
 469              		.cfi_endproc
 470              	.LFE118:
 471              		.size	GPIO_ReadOutputData, .-GPIO_ReadOutputData
 472 0006 00BFAFF3 		.section	.text.GPIO_SetBits,"ax",%progbits
 472      0080AFF3 
 472      0080
 473              		.align	2
 474              		.p2align 4,,15
 475              		.global	GPIO_SetBits
 476              		.thumb
 477              		.thumb_func
 478              		.type	GPIO_SetBits, %function
 479              	GPIO_SetBits:
 480              	.LFB119:
 481              		.loc 1 379 0
 482              		.cfi_startproc
 483              		@ args = 0, pretend = 0, frame = 0
 484              		@ frame_needed = 0, uses_anonymous_args = 0
 485              		@ link register save eliminated.
 486              	.LVL45:
 487              		.loc 1 384 0
 488 0000 8161     		str	r1, [r0, #24]
 489 0002 7047     		bx	lr
 490              		.cfi_endproc
 491              	.LFE119:
 492              		.size	GPIO_SetBits, .-GPIO_SetBits
 493 0004 AFF30080 		.section	.text.GPIO_ResetBits,"ax",%progbits
 493      AFF30080 
 493      AFF30080 
 494              		.align	2
 495              		.p2align 4,,15
 496              		.global	GPIO_ResetBits
 497              		.thumb
 498              		.thumb_func
 499              		.type	GPIO_ResetBits, %function
 500              	GPIO_ResetBits:
 501              	.LFB120:
 502              		.loc 1 397 0
 503              		.cfi_startproc
 504              		@ args = 0, pretend = 0, frame = 0
 505              		@ frame_needed = 0, uses_anonymous_args = 0
ARM GAS  /tmp/ccqu6znr.s 			page 10


 506              		@ link register save eliminated.
 507              	.LVL46:
 508              		.loc 1 402 0
 509 0000 0185     		strh	r1, [r0, #40]	@ movhi
 510 0002 7047     		bx	lr
 511              		.cfi_endproc
 512              	.LFE120:
 513              		.size	GPIO_ResetBits, .-GPIO_ResetBits
 514 0004 AFF30080 		.section	.text.GPIO_WriteBit,"ax",%progbits
 514      AFF30080 
 514      AFF30080 
 515              		.align	2
 516              		.p2align 4,,15
 517              		.global	GPIO_WriteBit
 518              		.thumb
 519              		.thumb_func
 520              		.type	GPIO_WriteBit, %function
 521              	GPIO_WriteBit:
 522              	.LFB121:
 523              		.loc 1 419 0
 524              		.cfi_startproc
 525              		@ args = 0, pretend = 0, frame = 0
 526              		@ frame_needed = 0, uses_anonymous_args = 0
 527              		@ link register save eliminated.
 528              	.LVL47:
 529              		.loc 1 425 0
 530 0000 0AB9     		cbnz	r2, .L36
 531              		.loc 1 431 0
 532 0002 0185     		strh	r1, [r0, #40]	@ movhi
 533 0004 7047     		bx	lr
 534              	.L36:
 535              		.loc 1 427 0
 536 0006 8161     		str	r1, [r0, #24]
 537 0008 7047     		bx	lr
 538              		.cfi_endproc
 539              	.LFE121:
 540              		.size	GPIO_WriteBit, .-GPIO_WriteBit
 541 000a 00BFAFF3 		.section	.text.GPIO_Write,"ax",%progbits
 541      0080
 542              		.align	2
 543              		.p2align 4,,15
 544              		.global	GPIO_Write
 545              		.thumb
 546              		.thumb_func
 547              		.type	GPIO_Write, %function
 548              	GPIO_Write:
 549              	.LFB122:
 550              		.loc 1 443 0
 551              		.cfi_startproc
 552              		@ args = 0, pretend = 0, frame = 0
 553              		@ frame_needed = 0, uses_anonymous_args = 0
 554              		@ link register save eliminated.
 555              	.LVL48:
 556              		.loc 1 447 0
 557 0000 8182     		strh	r1, [r0, #20]	@ movhi
 558 0002 7047     		bx	lr
 559              		.cfi_endproc
ARM GAS  /tmp/ccqu6znr.s 			page 11


 560              	.LFE122:
 561              		.size	GPIO_Write, .-GPIO_Write
 562 0004 AFF30080 		.section	.text.GPIO_PinAFConfig,"ax",%progbits
 562      AFF30080 
 562      AFF30080 
 563              		.align	2
 564              		.p2align 4,,15
 565              		.global	GPIO_PinAFConfig
 566              		.thumb
 567              		.thumb_func
 568              		.type	GPIO_PinAFConfig, %function
 569              	GPIO_PinAFConfig:
 570              	.LFB123:
 571              		.loc 1 499 0
 572              		.cfi_startproc
 573              		@ args = 0, pretend = 0, frame = 0
 574              		@ frame_needed = 0, uses_anonymous_args = 0
 575              		@ link register save eliminated.
 576              	.LVL49:
 577 0000 CB08     		lsrs	r3, r1, #3
 578 0002 00EB8300 		add	r0, r0, r3, lsl #2
 579              	.LVL50:
 580              		.loc 1 508 0
 581 0006 01F00701 		and	r1, r1, #7
 582              	.LVL51:
 583              		.loc 1 499 0
 584 000a 10B4     		push	{r4}
 585              		.cfi_def_cfa_offset 4
 586              		.cfi_offset 4, -4
 587              		.loc 1 508 0
 588 000c 8900     		lsls	r1, r1, #2
 589              	.LVL52:
 590              		.loc 1 509 0
 591 000e 046A     		ldr	r4, [r0, #32]
 592 0010 0F23     		movs	r3, #15
 593 0012 8B40     		lsls	r3, r3, r1
 594 0014 24EA0303 		bic	r3, r4, r3
 595 0018 0362     		str	r3, [r0, #32]
 596              		.loc 1 510 0
 597 001a 036A     		ldr	r3, [r0, #32]
 598              		.loc 1 512 0
 599 001c 5DF8044B 		ldr	r4, [sp], #4
 600              		.loc 1 508 0
 601 0020 8A40     		lsls	r2, r2, r1
 602              	.LVL53:
 603              		.loc 1 510 0
 604 0022 1343     		orrs	r3, r3, r2
 605              	.LVL54:
 606              		.loc 1 511 0
 607 0024 0362     		str	r3, [r0, #32]
 608              		.loc 1 512 0
 609 0026 7047     		bx	lr
 610              		.cfi_endproc
 611              	.LFE123:
 612              		.size	GPIO_PinAFConfig, .-GPIO_PinAFConfig
 613 0028 AFF30080 		.text
 613      AFF30080 
ARM GAS  /tmp/ccqu6znr.s 			page 12


 614              	.Letext0:
 615              		.file 2 "/usr/include/newlib/machine/_default_types.h"
 616              		.file 3 "/usr/include/newlib/stdint.h"
 617              		.file 4 "../../../../os/hal/platforms/STM32F30x/stm32f30x.h"
 618              		.file 5 "../../../../ext/stm32lib/inc/stm32f30x_gpio.h"
 619              		.file 6 "../../../../os/ports/common/ARMCMx/CMSIS/include/core_cm4.h"
 620              		.file 7 "../../../../ext/stm32lib/inc/stm32f30x_rcc.h"