ARM GAS  /tmp/cc9COLsi.s 			page 1


   1              		.syntax unified
   2              		.cpu cortex-m4
   3              		.eabi_attribute 27, 3
   4              		.fpu fpv4-sp-d16
   5              		.eabi_attribute 20, 1
   6              		.eabi_attribute 21, 1
   7              		.eabi_attribute 23, 3
   8              		.eabi_attribute 24, 1
   9              		.eabi_attribute 25, 1
  10              		.eabi_attribute 26, 1
  11              		.eabi_attribute 30, 2
  12              		.eabi_attribute 34, 1
  13              		.eabi_attribute 18, 4
  14              		.thumb
  15              		.file	"usb_lld.c"
  16              		.text
  17              	.Ltext0:
  18              		.cfi_sections	.debug_frame
  19              		.section	.text.usb_packet_write_from_queue,"ax",%progbits
  20              		.align	2
  21              		.p2align 4,,15
  22              		.thumb
  23              		.thumb_func
  24              		.type	usb_packet_write_from_queue, %function
  25              	usb_packet_write_from_queue:
  26              	.LFB123:
  27              		.file 1 "../../../../os/hal/platforms/STM32/USBv1/usb_lld.c"
  28              		.loc 1 223 0
  29              		.cfi_startproc
  30              		@ args = 0, pretend = 0, frame = 0
  31              		@ frame_needed = 0, uses_anonymous_args = 0
  32              	.LVL0:
  33              		.loc 1 225 0
  34 0000 0368     		ldr	r3, [r0]
  35 0002 03F1005C 		add	ip, r3, #536870912
  36              		.loc 1 223 0
  37 0006 2DE9F041 		push	{r4, r5, r6, r7, r8, lr}
  38              		.cfi_def_cfa_offset 24
  39              		.cfi_offset 4, -24
  40              		.cfi_offset 5, -20
  41              		.cfi_offset 6, -16
  42              		.cfi_offset 7, -12
  43              		.cfi_offset 8, -8
  44              		.cfi_offset 14, -4
  45              		.loc 1 225 0
  46 000a 0CF5405C 		add	ip, ip, #12288
  47              		.loc 1 227 0
  48 000e 93B2     		uxth	r3, r2
  49              		.loc 1 229 0
  50 0010 5FEA5208 		lsrs	r8, r2, #1
  51              		.loc 1 223 0
  52 0014 0C46     		mov	r4, r1
  53              		.loc 1 225 0
  54 0016 4FEA4C0C 		lsl	ip, ip, #1
  55              	.LVL1:
  56              		.loc 1 227 0
  57 001a 8380     		strh	r3, [r0, #4]	@ movhi
ARM GAS  /tmp/cc9COLsi.s 			page 2


  58              		.loc 1 229 0
  59 001c 18D0     		beq	.L2
  60 001e 0E69     		ldr	r6, [r1, #16]
  61              		.loc 1 225 0
  62 0020 6546     		mov	r5, ip
  63              		.loc 1 229 0
  64 0022 4146     		mov	r1, r8
  65              	.LVL2:
  66              	.L6:
  67              	.LBB34:
  68              		.loc 1 232 0
  69 0024 A069     		ldr	r0, [r4, #24]
  70 0026 431C     		adds	r3, r0, #1
  71              		.loc 1 233 0
  72 0028 9E42     		cmp	r6, r3
  73              		.loc 1 232 0
  74 002a A361     		str	r3, [r4, #24]
  75              		.loc 1 234 0
  76 002c 98BF     		it	ls
  77 002e E368     		ldrls	r3, [r4, #12]
  78              		.loc 1 232 0
  79 0030 0778     		ldrb	r7, [r0]	@ zero_extendqisi2
  80              	.LVL3:
  81              		.loc 1 235 0
  82 0032 581C     		adds	r0, r3, #1
  83 0034 A061     		str	r0, [r4, #24]
  84 0036 1B78     		ldrb	r3, [r3]	@ zero_extendqisi2
  85              		.loc 1 236 0
  86 0038 8642     		cmp	r6, r0
  87              		.loc 1 237 0
  88 003a 9CBF     		itt	ls
  89 003c E068     		ldrls	r0, [r4, #12]
  90 003e A061     		strls	r0, [r4, #24]
  91              		.loc 1 235 0
  92 0040 47EA0323 		orr	r3, r7, r3, lsl #8
  93              	.LVL4:
  94              	.LBE34:
  95              		.loc 1 229 0
  96 0044 0139     		subs	r1, r1, #1
  97              	.LVL5:
  98              	.LBB35:
  99              		.loc 1 238 0
 100 0046 45F8043B 		str	r3, [r5], #4
 101              	.LVL6:
 102              	.LBE35:
 103              		.loc 1 229 0
 104 004a EBD1     		bne	.L6
 105 004c 0CEB880C 		add	ip, ip, r8, lsl #2
 106              	.LVL7:
 107              	.L2:
 108              		.loc 1 243 0
 109 0050 D307     		lsls	r3, r2, #31
 110 0052 0BD5     		bpl	.L8
 111              		.loc 1 244 0
 112 0054 A169     		ldr	r1, [r4, #24]
 113              		.loc 1 245 0
 114 0056 2069     		ldr	r0, [r4, #16]
ARM GAS  /tmp/cc9COLsi.s 			page 3


 115              		.loc 1 244 0
 116 0058 4B1C     		adds	r3, r1, #1
 117 005a A361     		str	r3, [r4, #24]
 118              		.loc 1 245 0
 119 005c 8342     		cmp	r3, r0
 120              		.loc 1 244 0
 121 005e 0978     		ldrb	r1, [r1]	@ zero_extendqisi2
 122              		.loc 1 246 0
 123 0060 28BF     		it	cs
 124 0062 E368     		ldrcs	r3, [r4, #12]
 125              		.loc 1 244 0
 126 0064 CCF80010 		str	r1, [ip]
 127              		.loc 1 246 0
 128 0068 28BF     		it	cs
 129 006a A361     		strcs	r3, [r4, #24]
 130              	.L8:
 131              	.LBB36:
 132              		.loc 1 252 0
 133 006c 2023     		movs	r3, #32
 134              	@ 252 "../../../../os/hal/platforms/STM32/USBv1/usb_lld.c" 1
 135 006e 83F31188 		msr     BASEPRI, r3
 136              	@ 0 "" 2
 137              		.thumb
 138              	.LBE36:
 139              		.loc 1 255 0
 140 0072 A368     		ldr	r3, [r4, #8]
 141              		.loc 1 256 0
 142 0074 2068     		ldr	r0, [r4]
 143              		.loc 1 253 0
 144 0076 0C4E     		ldr	r6, .L19
 145              		.loc 1 255 0
 146 0078 1A44     		add	r2, r2, r3
 147              	.LVL8:
 148              		.loc 1 253 0
 149 007a 0121     		movs	r1, #1
 150              		.loc 1 256 0
 151 007c A042     		cmp	r0, r4
 152              		.loc 1 255 0
 153 007e A260     		str	r2, [r4, #8]
 154              		.loc 1 253 0
 155 0080 3160     		str	r1, [r6]
 156              		.loc 1 257 0
 157 0082 18BF     		it	ne
 158 0084 0025     		movne	r5, #0
 159              		.loc 1 256 0
 160 0086 08D0     		beq	.L11
 161              	.L12:
 162              	.LVL9:
 163              	.LBB37:
 164              	.LBB38:
 165              		.file 2 "../../../../os/kernel/include/chinline.h"
 166              		.loc 2 55 0
 167 0088 0368     		ldr	r3, [r0]
 168 008a 2360     		str	r3, [r4]
 169 008c 5C60     		str	r4, [r3, #4]
 170              	.LBE38:
 171              	.LBE37:
ARM GAS  /tmp/cc9COLsi.s 			page 4


 172              		.loc 1 257 0
 173 008e FFF7FEFF 		bl	chSchReadyI
 174              	.LVL10:
 175 0092 8562     		str	r5, [r0, #40]
 176              		.loc 1 256 0
 177 0094 2068     		ldr	r0, [r4]
 178 0096 A042     		cmp	r0, r4
 179 0098 F6D1     		bne	.L12
 180              	.LVL11:
 181              	.L11:
 182              		.loc 1 259 0
 183 009a 0023     		movs	r3, #0
 184 009c 3360     		str	r3, [r6]
 185              	.LBB39:
 186              		.loc 1 260 0
 187              	@ 260 "../../../../os/hal/platforms/STM32/USBv1/usb_lld.c" 1
 188 009e 83F31188 		msr     BASEPRI, r3
 189              	@ 0 "" 2
 190              		.thumb
 191 00a2 BDE8F081 		pop	{r4, r5, r6, r7, r8, pc}
 192              	.LVL12:
 193              	.L20:
 194 00a6 00BF     		.align	2
 195              	.L19:
 196 00a8 00000000 		.word	dbg_lock_cnt
 197              	.LBE39:
 198              		.cfi_endproc
 199              	.LFE123:
 200              		.size	usb_packet_write_from_queue, .-usb_packet_write_from_queue
 201 00ac AFF30080 		.section	.text.Vector168,"ax",%progbits
 202              		.align	2
 203              		.p2align 4,,15
 204              		.global	Vector168
 205              		.thumb
 206              		.thumb_func
 207              		.type	Vector168, %function
 208              	Vector168:
 209              	.LFB124:
 210              		.loc 1 276 0
 211              		.cfi_startproc
 212              		@ args = 0, pretend = 0, frame = 0
 213              		@ frame_needed = 0, uses_anonymous_args = 0
 214 0000 08B5     		push	{r3, lr}
 215              		.cfi_def_cfa_offset 8
 216              		.cfi_offset 3, -8
 217              		.cfi_offset 14, -4
 218              		.loc 1 278 0
 219 0002 FFF7FEFF 		bl	dbg_check_enter_isr
 220              	.LVL13:
 221              		.loc 1 280 0
 222 0006 FFF7FEFF 		bl	dbg_check_leave_isr
 223              	.LVL14:
 224              		.loc 1 281 0
 225 000a BDE80840 		pop	{r3, lr}
 226              		.loc 1 280 0
 227 000e FFF7FEBF 		b	_port_irq_epilogue
 228              	.LVL15:
ARM GAS  /tmp/cc9COLsi.s 			page 5


 229              		.cfi_endproc
 230              	.LFE124:
 231              		.size	Vector168, .-Vector168
 232 0012 00BFAFF3 		.section	.text.Vector16C,"ax",%progbits
 232      0080AFF3 
 232      0080AFF3 
 232      0080
 233              		.align	2
 234              		.p2align 4,,15
 235              		.global	Vector16C
 236              		.thumb
 237              		.thumb_func
 238              		.type	Vector16C, %function
 239              	Vector16C:
 240              	.LFB125:
 241              		.loc 1 291 0
 242              		.cfi_startproc
 243              		@ args = 0, pretend = 0, frame = 8
 244              		@ frame_needed = 0, uses_anonymous_args = 0
 245              	.LVL16:
 246 0000 2DE9F04F 		push	{r4, r5, r6, r7, r8, r9, r10, fp, lr}
 247              		.cfi_def_cfa_offset 36
 248              		.cfi_offset 4, -36
 249              		.cfi_offset 5, -32
 250              		.cfi_offset 6, -28
 251              		.cfi_offset 7, -24
 252              		.cfi_offset 8, -20
 253              		.cfi_offset 9, -16
 254              		.cfi_offset 10, -12
 255              		.cfi_offset 11, -8
 256              		.cfi_offset 14, -4
 257 0004 83B0     		sub	sp, sp, #12
 258              		.cfi_def_cfa_offset 48
 259              		.loc 1 295 0
 260 0006 FFF7FEFF 		bl	dbg_check_enter_isr
 261              	.LVL17:
 262              		.loc 1 297 0
 263 000a 924B     		ldr	r3, .L111
 264 000c 5E6C     		ldr	r6, [r3, #68]
 265              	.LVL18:
 266              		.loc 1 300 0
 267 000e 7105     		lsls	r1, r6, #21
 268 0010 00F19F81 		bmi	.L106
 269              	.L23:
 270              		.loc 1 307 0
 271 0014 3205     		lsls	r2, r6, #20
 272 0016 11D5     		bpl	.L25
 273              		.loc 1 309 0
 274 0018 DFF83CB2 		ldr	fp, .L111+4
 275              		.loc 1 308 0
 276 001c 8D4B     		ldr	r3, .L111
 277              		.loc 1 309 0
 278 001e DBF80420 		ldr	r2, [fp, #4]
 279              		.loc 1 308 0
 280 0022 196C     		ldr	r1, [r3, #64]
 281              		.loc 1 309 0
 282 0024 1268     		ldr	r2, [r2]
ARM GAS  /tmp/cc9COLsi.s 			page 6


 283              		.loc 1 308 0
 284 0026 41F00801 		orr	r1, r1, #8
 285 002a 1964     		str	r1, [r3, #64]
 286              		.loc 1 309 0
 287 002c 12B1     		cbz	r2, .L26
 288              		.loc 1 309 0 is_stmt 0 discriminator 1
 289 002e 5846     		mov	r0, fp
 290 0030 0321     		movs	r1, #3
 291 0032 9047     		blx	r2
 292              	.LVL19:
 293              	.L26:
 294              		.loc 1 313 0 is_stmt 1
 295 0034 874B     		ldr	r3, .L111
 296 0036 6FF40062 		mvn	r2, #2048
 297 003a 5A64     		str	r2, [r3, #68]
 298              	.L25:
 299              		.loc 1 317 0
 300 003c F304     		lsls	r3, r6, #19
 301 003e 08D5     		bpl	.L27
 302              	.LBB59:
 303              		.loc 1 318 0
 304 0040 844B     		ldr	r3, .L111
 305 0042 9A6C     		ldr	r2, [r3, #72]
 306              	.LVL20:
 307              		.loc 1 319 0
 308 0044 1704     		lsls	r7, r2, #16
 309 0046 40F17481 		bpl	.L107
 310              	.LVL21:
 311              	.L29:
 312              		.loc 1 330 0
 313 004a 824B     		ldr	r3, .L111
 314 004c 6FF48052 		mvn	r2, #4096
 315 0050 5A64     		str	r2, [r3, #68]
 316              	.L27:
 317              	.LBE59:
 318              		.loc 1 334 0
 319 0052 B505     		lsls	r5, r6, #22
 320 0054 0BD5     		bpl	.L31
 321              		.loc 1 335 0
 322 0056 DFF800B2 		ldr	fp, .L111+4
 323 005a DBF80430 		ldr	r3, [fp, #4]
 324 005e DB68     		ldr	r3, [r3, #12]
 325 0060 0BB1     		cbz	r3, .L32
 326              		.loc 1 335 0 is_stmt 0 discriminator 1
 327 0062 5846     		mov	r0, fp
 328 0064 9847     		blx	r3
 329              	.LVL22:
 330              	.L32:
 331              		.loc 1 336 0 is_stmt 1
 332 0066 7B4B     		ldr	r3, .L111
 333 0068 6FF40072 		mvn	r2, #512
 334 006c 5A64     		str	r2, [r3, #68]
 335              	.L31:
 336              		.loc 1 340 0 discriminator 1
 337 006e 3404     		lsls	r4, r6, #16
 338 0070 40F1BF80 		bpl	.L61
 339 0074 DFF8E0B1 		ldr	fp, .L111+4
ARM GAS  /tmp/cc9COLsi.s 			page 7


 340              	.L62:
 341              	.LBB60:
 342              		.loc 1 343 0
 343 0078 06F00F06 		and	r6, r6, #15
 344              	.LVL23:
 345 007c 4FEA8609 		lsl	r9, r6, #2
 346 0080 09F18045 		add	r5, r9, #1073741824
 347 0084 05F5B845 		add	r5, r5, #23552
 348              		.loc 1 344 0
 349 0088 06F10208 		add	r8, r6, #2
 350              		.loc 1 343 0
 351 008c 2C68     		ldr	r4, [r5]
 352              	.LVL24:
 353              		.loc 1 344 0
 354 008e 0BEB8803 		add	r3, fp, r8, lsl #2
 355              		.loc 1 346 0
 356 0092 2006     		lsls	r0, r4, #24
 357              		.loc 1 344 0
 358 0094 5F68     		ldr	r7, [r3, #4]
 359              	.LVL25:
 360              		.loc 1 346 0
 361 0096 5BD5     		bpl	.L34
 362              	.LBB61:
 363              		.loc 1 349 0
 364 0098 2B68     		ldr	r3, [r5]
 365              		.loc 1 351 0
 366 009a 6E48     		ldr	r0, .L111
 367              		.loc 1 352 0
 368 009c 7969     		ldr	r1, [r7, #20]
 369              		.loc 1 349 0
 370 009e 23F4F143 		bic	r3, r3, #30848
 371 00a2 23F07003 		bic	r3, r3, #112
 372 00a6 2B60     		str	r3, [r5]
 373              		.loc 1 351 0
 374 00a8 026D     		ldr	r2, [r0, #80]
 375              		.loc 1 352 0
 376 00aa 8B68     		ldr	r3, [r1, #8]
 377              		.loc 1 353 0
 378 00ac 4868     		ldr	r0, [r1, #4]
 379              		.loc 1 351 0
 380 00ae 02F10052 		add	r2, r2, #536870912
 381 00b2 02F54052 		add	r2, r2, #12288
 382 00b6 4FEAC60E 		lsl	lr, r6, #3
 383 00ba 7244     		add	r2, r2, lr
 384 00bc 5200     		lsls	r2, r2, #1
 385 00be B2F804C0 		ldrh	ip, [r2, #4]
 386 00c2 1FFA8CFC 		uxth	ip, ip
 387              	.LVL26:
 388              		.loc 1 352 0
 389 00c6 6344     		add	r3, r3, ip
 390              	.LVL27:
 391 00c8 8B60     		str	r3, [r1, #8]
 392              		.loc 1 354 0
 393 00ca C31A     		subs	r3, r0, r3
 394              	.LVL28:
 395 00cc 00F0B380 		beq	.L35
 396              		.loc 1 356 0
ARM GAS  /tmp/cc9COLsi.s 			page 8


 397 00d0 3A8A     		ldrh	r2, [r7, #16]
 398              		.loc 1 359 0
 399 00d2 0878     		ldrb	r0, [r1]	@ zero_extendqisi2
 400 00d4 9342     		cmp	r3, r2
 401 00d6 38BF     		it	cc
 402 00d8 1A46     		movcc	r2, r3
 403              	.LVL29:
 404 00da 0028     		cmp	r0, #0
 405 00dc 40F01C81 		bne	.L108
 406              		.loc 1 364 0
 407 00e0 C868     		ldr	r0, [r1, #12]
 408 00e2 6044     		add	r0, r0, ip
 409 00e4 C860     		str	r0, [r1, #12]
 410              		.loc 1 365 0
 411 00e6 5B49     		ldr	r1, .L111
 412 00e8 0B6D     		ldr	r3, [r1, #80]
 413 00ea 03F10053 		add	r3, r3, #536870912
 414 00ee 03F54053 		add	r3, r3, #12288
 415 00f2 7344     		add	r3, r3, lr
 416 00f4 5B00     		lsls	r3, r3, #1
 417              	.LVL30:
 418              	.LBB62:
 419              	.LBB63:
 420              		.loc 1 201 0
 421 00f6 1FFA82FE 		uxth	lr, r2
 422              		.loc 1 199 0
 423 00fa 1968     		ldr	r1, [r3]
 424              		.loc 1 201 0
 425 00fc A3F804E0 		strh	lr, [r3, #4]	@ movhi
 426              		.loc 1 199 0
 427 0100 01F10051 		add	r1, r1, #536870912
 428              		.loc 1 202 0
 429 0104 531C     		adds	r3, r2, #1
 430              	.LVL31:
 431              		.loc 1 199 0
 432 0106 01F54051 		add	r1, r1, #12288
 433              		.loc 1 203 0
 434 010a 5B08     		lsrs	r3, r3, #1
 435              		.loc 1 199 0
 436 010c 4FEA4101 		lsl	r1, r1, #1
 437              	.LVL32:
 438              		.loc 1 203 0
 439 0110 06D0     		beq	.L37
 440 0112 821E     		subs	r2, r0, #2
 441              	.LVL33:
 442              	.L40:
 443              		.loc 1 206 0
 444 0114 32F8020F 		ldrh	r0, [r2, #2]!
 445              	.LVL34:
 446 0118 41F8040B 		str	r0, [r1], #4
 447              	.LVL35:
 448              		.loc 1 203 0
 449 011c 013B     		subs	r3, r3, #1
 450              	.LVL36:
 451 011e F9D1     		bne	.L40
 452              	.LVL37:
 453              	.L37:
ARM GAS  /tmp/cc9COLsi.s 			page 9


 454              	.LBE63:
 455              	.LBE62:
 456              	.LBB64:
 457              		.loc 1 369 0 discriminator 1
 458 0120 2023     		movs	r3, #32
 459              	@ 369 "../../../../os/hal/platforms/STM32/USBv1/usb_lld.c" 1
 460 0122 83F31188 		msr     BASEPRI, r3
 461              	@ 0 "" 2
 462              		.thumb
 463 0126 09F18049 		add	r9, r9, #1073741824
 464 012a 09F5B849 		add	r9, r9, #23552
 465              	.LBE64:
 466 012e FFF7FEFF 		bl	dbg_check_lock_from_isr
 467              	.LVL38:
 468              	.LBB65:
 469              	.LBB66:
 470              		.loc 1 759 0 discriminator 1
 471 0132 D9F80030 		ldr	r3, [r9]
 472 0136 23F4F043 		bic	r3, r3, #30720
 473 013a 23F04003 		bic	r3, r3, #64
 474 013e 83F03003 		eor	r3, r3, #48
 475 0142 C9F80030 		str	r3, [r9]
 476              	.LBE66:
 477              	.LBE65:
 478              		.loc 1 371 0 discriminator 1
 479 0146 FFF7FEFF 		bl	dbg_check_unlock_from_isr
 480              	.LVL39:
 481              	.LBB67:
 482 014a 0023     		movs	r3, #0
 483              	@ 371 "../../../../os/hal/platforms/STM32/USBv1/usb_lld.c" 1
 484 014c 83F31188 		msr     BASEPRI, r3
 485              	@ 0 "" 2
 486              	.LVL40:
 487              		.thumb
 488              	.L34:
 489              	.LBE67:
 490              	.LBE61:
 491              		.loc 1 378 0
 492 0150 2104     		lsls	r1, r4, #16
 493 0152 47D5     		bpl	.L41
 494              		.loc 1 379 0
 495 0154 2B68     		ldr	r3, [r5]
 496 0156 23F47843 		bic	r3, r3, #63488
 497 015a 23F07003 		bic	r3, r3, #112
 498              		.loc 1 381 0
 499 015e 2205     		lsls	r2, r4, #20
 500              		.loc 1 379 0
 501 0160 2B60     		str	r3, [r5]
 502              		.loc 1 381 0
 503 0162 5FD4     		bmi	.L109
 504              	.LBB68:
 505              		.loc 1 387 0
 506 0164 3B48     		ldr	r0, .L111
 507              		.loc 1 391 0
 508 0166 BC69     		ldr	r4, [r7, #24]
 509              	.LVL41:
 510              		.loc 1 387 0
ARM GAS  /tmp/cc9COLsi.s 			page 10


 511 0168 036D     		ldr	r3, [r0, #80]
 512              		.loc 1 391 0
 513 016a 2278     		ldrb	r2, [r4]	@ zero_extendqisi2
 514              		.loc 1 387 0
 515 016c 03F10053 		add	r3, r3, #536870912
 516 0170 03F54053 		add	r3, r3, #12288
 517 0174 03EBC603 		add	r3, r3, r6, lsl #3
 518 0178 5B00     		lsls	r3, r3, #1
 519              	.LVL42:
 520              		.loc 1 388 0
 521 017a B3F80CE0 		ldrh	lr, [r3, #12]
 522 017e 1FFA8EFE 		uxth	lr, lr
 523 0182 CEF30909 		ubfx	r9, lr, #0, #10
 524              	.LVL43:
 525              		.loc 1 391 0
 526 0186 002A     		cmp	r2, #0
 527 0188 68D1     		bne	.L110
 528              	.LBB69:
 529              	.LBB70:
 530              		.loc 1 131 0
 531 018a 9968     		ldr	r1, [r3, #8]
 532              	.LBE70:
 533              	.LBE69:
 534              		.loc 1 396 0
 535 018c E268     		ldr	r2, [r4, #12]
 536              	.LVL44:
 537              	.LBB72:
 538              	.LBB71:
 539              		.loc 1 131 0
 540 018e 01F10051 		add	r1, r1, #536870912
 541              		.loc 1 133 0
 542 0192 09F10103 		add	r3, r9, #1
 543              	.LVL45:
 544              		.loc 1 131 0
 545 0196 01F54051 		add	r1, r1, #12288
 546              		.loc 1 134 0
 547 019a 5B08     		lsrs	r3, r3, #1
 548              		.loc 1 131 0
 549 019c 4FEA4101 		lsl	r1, r1, #1
 550              	.LVL46:
 551              		.loc 1 134 0
 552 01a0 06D0     		beq	.L56
 553              	.L58:
 554              	.LVL47:
 555              		.loc 1 137 0
 556 01a2 51F8040B 		ldr	r0, [r1], #4
 557              	.LVL48:
 558 01a6 22F8020B 		strh	r0, [r2], #2	@ movhi
 559              	.LVL49:
 560              		.loc 1 134 0
 561 01aa 013B     		subs	r3, r3, #1
 562              	.LVL50:
 563 01ac F9D1     		bne	.L58
 564 01ae E268     		ldr	r2, [r4, #12]
 565              	.LVL51:
 566              	.L56:
 567              	.LBE71:
ARM GAS  /tmp/cc9COLsi.s 			page 11


 568              	.LBE72:
 569              		.loc 1 399 0
 570 01b0 4A44     		add	r2, r2, r9
 571 01b2 E260     		str	r2, [r4, #12]
 572 01b4 2346     		mov	r3, r4
 573              	.LVL52:
 574              	.L53:
 575              		.loc 1 404 0
 576 01b6 1A8A     		ldrh	r2, [r3, #16]
 577              		.loc 1 408 0
 578 01b8 7C8A     		ldrh	r4, [r7, #18]
 579              		.loc 1 402 0
 580 01ba 9868     		ldr	r0, [r3, #8]
 581              		.loc 1 403 0
 582 01bc 5968     		ldr	r1, [r3, #4]
 583              		.loc 1 404 0
 584 01be 013A     		subs	r2, r2, #1
 585 01c0 92B2     		uxth	r2, r2
 586              		.loc 1 402 0
 587 01c2 4844     		add	r0, r0, r9
 588              		.loc 1 403 0
 589 01c4 C9EB0101 		rsb	r1, r9, r1
 590              		.loc 1 408 0
 591 01c8 A145     		cmp	r9, r4
 592              		.loc 1 404 0
 593 01ca 1A82     		strh	r2, [r3, #16]	@ movhi
 594              		.loc 1 402 0
 595 01cc 9860     		str	r0, [r3, #8]
 596              		.loc 1 403 0
 597 01ce 5960     		str	r1, [r3, #4]
 598              		.loc 1 408 0
 599 01d0 16D3     		bcc	.L59
 600              		.loc 1 408 0 is_stmt 0 discriminator 1
 601 01d2 AAB1     		cbz	r2, .L59
 602              		.loc 1 414 0 is_stmt 1
 603 01d4 2B68     		ldr	r3, [r5]
 604 01d6 23F49043 		bic	r3, r3, #18432
 605 01da 23F07003 		bic	r3, r3, #112
 606 01de 83F44053 		eor	r3, r3, #12288
 607 01e2 2B60     		str	r3, [r5]
 608              	.LVL53:
 609              	.L41:
 610              	.LBE68:
 611              		.loc 1 418 0
 612 01e4 DFF86CE0 		ldr	lr, .L111
 613 01e8 DEF84460 		ldr	r6, [lr, #68]
 614              	.LVL54:
 615              	.LBE60:
 616              		.loc 1 340 0
 617 01ec 3304     		lsls	r3, r6, #16
 618 01ee 3FF543AF 		bmi	.L62
 619              	.LVL55:
 620              	.L61:
 621              		.loc 1 421 0
 622 01f2 FFF7FEFF 		bl	dbg_check_leave_isr
 623              	.LVL56:
 624              		.loc 1 422 0
ARM GAS  /tmp/cc9COLsi.s 			page 12


 625 01f6 03B0     		add	sp, sp, #12
 626              		@ sp needed
 627 01f8 BDE8F04F 		pop	{r4, r5, r6, r7, r8, r9, r10, fp, lr}
 628              	.LVL57:
 629              		.loc 1 421 0
 630 01fc FFF7FEBF 		b	_port_irq_epilogue
 631              	.LVL58:
 632              	.L59:
 633              	.LBB86:
 634              	.LBB82:
 635              		.loc 1 410 0
 636 0200 0BEB8808 		add	r8, fp, r8, lsl #2
 637 0204 BBF80A20 		ldrh	r2, [fp, #10]
 638 0208 D8F80430 		ldr	r3, [r8, #4]
 639 020c 1248     		ldr	r0, .L111+4
 640 020e DB68     		ldr	r3, [r3, #12]
 641 0210 0124     		movs	r4, #1
 642 0212 04FA06F1 		lsl	r1, r4, r6
 643 0216 22EA0102 		bic	r2, r2, r1
 644 021a ABF80A20 		strh	r2, [fp, #10]	@ movhi
 645 021e 3146     		mov	r1, r6
 646 0220 9847     		blx	r3
 647              	.LVL59:
 648 0222 DFE7     		b	.L41
 649              	.LVL60:
 650              	.L109:
 651              	.LBE82:
 652              		.loc 1 384 0
 653 0224 0BEB8808 		add	r8, fp, r8, lsl #2
 654 0228 3146     		mov	r1, r6
 655 022a D8F80430 		ldr	r3, [r8, #4]
 656 022e 0A48     		ldr	r0, .L111+4
 657 0230 5B68     		ldr	r3, [r3, #4]
 658 0232 9847     		blx	r3
 659              	.LVL61:
 660 0234 D6E7     		b	.L41
 661              	.LVL62:
 662              	.L35:
 663              	.LBB83:
 664              		.loc 1 375 0
 665 0236 084B     		ldr	r3, .L111+4
 666              	.LVL63:
 667 0238 0748     		ldr	r0, .L111+4
 668              	.LVL64:
 669 023a 1A89     		ldrh	r2, [r3, #8]
 670 023c BB68     		ldr	r3, [r7, #8]
 671 023e 4FF0010E 		mov	lr, #1
 672 0242 0EFA06F1 		lsl	r1, lr, r6
 673              	.LVL65:
 674 0246 22EA0102 		bic	r2, r2, r1
 675 024a 0281     		strh	r2, [r0, #8]	@ movhi
 676 024c 3146     		mov	r1, r6
 677 024e 9847     		blx	r3
 678              	.LVL66:
 679 0250 7EE7     		b	.L34
 680              	.L112:
 681 0252 00BF     		.align	2
ARM GAS  /tmp/cc9COLsi.s 			page 13


 682              	.L111:
 683 0254 005C0040 		.word	1073765376
 684 0258 00000000 		.word	.LANCHOR0
 685              	.LVL67:
 686              	.L110:
 687              	.LBE83:
 688              	.LBB84:
 689              	.LBB73:
 690              	.LBB74:
 691              		.loc 1 156 0
 692 025c 9B68     		ldr	r3, [r3, #8]
 693              	.LVL68:
 694              	.LBE74:
 695              	.LBE73:
 696              		.loc 1 392 0
 697 025e E468     		ldr	r4, [r4, #12]
 698              	.LVL69:
 699              	.LBB81:
 700              	.LBB80:
 701              		.loc 1 156 0
 702 0260 03F10053 		add	r3, r3, #536870912
 703 0264 03F54053 		add	r3, r3, #12288
 704 0268 5B00     		lsls	r3, r3, #1
 705              		.loc 1 159 0
 706 026a 5FEA5901 		lsrs	r1, r9, #1
 707              		.loc 1 156 0
 708 026e 0093     		str	r3, [sp]
 709              	.LVL70:
 710              		.loc 1 159 0
 711 0270 0191     		str	r1, [sp, #4]
 712 0272 21D0     		beq	.L44
 713              		.loc 1 156 0
 714 0274 0098     		ldr	r0, [sp]
 715              		.loc 1 159 0
 716 0276 0B46     		mov	r3, r1
 717              	.LVL71:
 718              	.L48:
 719              	.LBB75:
 720              		.loc 1 163 0
 721 0278 6269     		ldr	r2, [r4, #20]
 722              		.loc 1 162 0
 723 027a 50F8041B 		ldr	r1, [r0], #4
 724              	.LVL72:
 725              		.loc 1 163 0
 726 027e 02F1010A 		add	r10, r2, #1
 727 0282 C4F814A0 		str	r10, [r4, #20]
 728 0286 1170     		strb	r1, [r2]
 729              		.loc 1 164 0
 730 0288 2269     		ldr	r2, [r4, #16]
 731              		.loc 1 166 0
 732 028a 4FEA112C 		lsr	ip, r1, #8
 733              		.loc 1 164 0
 734 028e 6169     		ldr	r1, [r4, #20]
 735              	.LVL73:
 736 0290 9142     		cmp	r1, r2
 737              		.loc 1 165 0
 738 0292 28BF     		it	cs
ARM GAS  /tmp/cc9COLsi.s 			page 14


 739 0294 E168     		ldrcs	r1, [r4, #12]
 740              		.loc 1 166 0
 741 0296 4A1C     		adds	r2, r1, #1
 742 0298 6261     		str	r2, [r4, #20]
 743 029a 81F800C0 		strb	ip, [r1]
 744              		.loc 1 167 0
 745 029e 2269     		ldr	r2, [r4, #16]
 746 02a0 6169     		ldr	r1, [r4, #20]
 747 02a2 9142     		cmp	r1, r2
 748              		.loc 1 168 0
 749 02a4 24BF     		itt	cs
 750 02a6 E268     		ldrcs	r2, [r4, #12]
 751 02a8 6261     		strcs	r2, [r4, #20]
 752              	.LBE75:
 753              		.loc 1 159 0
 754 02aa 013B     		subs	r3, r3, #1
 755              	.LVL74:
 756 02ac E4D1     		bne	.L48
 757 02ae 9DE80C00 		ldmia	sp, {r2, r3}
 758              	.LVL75:
 759 02b2 02EB8302 		add	r2, r2, r3, lsl #2
 760 02b6 0092     		str	r2, [sp]
 761              	.LVL76:
 762              	.L44:
 763              		.loc 1 172 0
 764 02b8 1EF0010F 		tst	lr, #1
 765 02bc 0DD0     		beq	.L50
 766              		.loc 1 173 0
 767 02be 6369     		ldr	r3, [r4, #20]
 768 02c0 DDF800E0 		ldr	lr, [sp]
 769 02c4 591C     		adds	r1, r3, #1
 770 02c6 DEF80020 		ldr	r2, [lr]
 771 02ca 6161     		str	r1, [r4, #20]
 772 02cc 1A70     		strb	r2, [r3]
 773              		.loc 1 174 0
 774 02ce 2369     		ldr	r3, [r4, #16]
 775 02d0 6269     		ldr	r2, [r4, #20]
 776 02d2 9A42     		cmp	r2, r3
 777              		.loc 1 175 0
 778 02d4 24BF     		itt	cs
 779 02d6 E368     		ldrcs	r3, [r4, #12]
 780 02d8 6361     		strcs	r3, [r4, #20]
 781              	.L50:
 782              	.LBB76:
 783              		.loc 1 179 0
 784 02da 2023     		movs	r3, #32
 785              	@ 179 "../../../../os/hal/platforms/STM32/USBv1/usb_lld.c" 1
 786 02dc 83F31188 		msr     BASEPRI, r3
 787              	@ 0 "" 2
 788              		.thumb
 789              	.LBE76:
 790 02e0 FFF7FEFF 		bl	dbg_check_lock_from_isr
 791              	.LVL77:
 792              		.loc 1 180 0
 793 02e4 A368     		ldr	r3, [r4, #8]
 794              		.loc 1 181 0
 795 02e6 2068     		ldr	r0, [r4]
ARM GAS  /tmp/cc9COLsi.s 			page 15


 796              		.loc 1 180 0
 797 02e8 4B44     		add	r3, r3, r9
 798              		.loc 1 181 0
 799 02ea A042     		cmp	r0, r4
 800              		.loc 1 180 0
 801 02ec A360     		str	r3, [r4, #8]
 802              		.loc 1 182 0
 803 02ee 18BF     		it	ne
 804 02f0 4FF0000A 		movne	r10, #0
 805              		.loc 1 181 0
 806 02f4 09D0     		beq	.L54
 807              	.L55:
 808              	.LVL78:
 809              	.LBB77:
 810              	.LBB78:
 811              		.loc 2 55 0
 812 02f6 0368     		ldr	r3, [r0]
 813 02f8 2360     		str	r3, [r4]
 814 02fa 5C60     		str	r4, [r3, #4]
 815              	.LBE78:
 816              	.LBE77:
 817              		.loc 1 182 0
 818 02fc FFF7FEFF 		bl	chSchReadyI
 819              	.LVL79:
 820 0300 C0F828A0 		str	r10, [r0, #40]
 821              		.loc 1 181 0
 822 0304 2068     		ldr	r0, [r4]
 823 0306 A042     		cmp	r0, r4
 824 0308 F5D1     		bne	.L55
 825              	.LVL80:
 826              	.L54:
 827              		.loc 1 183 0
 828 030a FFF7FEFF 		bl	dbg_check_unlock_from_isr
 829              	.LVL81:
 830              	.LBB79:
 831 030e 0023     		movs	r3, #0
 832              	@ 183 "../../../../os/hal/platforms/STM32/USBv1/usb_lld.c" 1
 833 0310 83F31188 		msr     BASEPRI, r3
 834              	@ 0 "" 2
 835              		.thumb
 836 0314 BB69     		ldr	r3, [r7, #24]
 837 0316 4EE7     		b	.L53
 838              	.LVL82:
 839              	.L108:
 840              	.LBE79:
 841              	.LBE80:
 842              	.LBE81:
 843              	.LBE84:
 844              	.LBB85:
 845              		.loc 1 360 0
 846 0318 1648     		ldr	r0, .L113
 847 031a C968     		ldr	r1, [r1, #12]
 848 031c 036D     		ldr	r3, [r0, #80]
 849 031e 03F10053 		add	r3, r3, #536870912
 850 0322 03F54053 		add	r3, r3, #12288
 851 0326 03EB0E00 		add	r0, r3, lr
 852 032a 4000     		lsls	r0, r0, #1
ARM GAS  /tmp/cc9COLsi.s 			page 16


 853 032c FFF7FEFF 		bl	usb_packet_write_from_queue
 854              	.LVL83:
 855 0330 F6E6     		b	.L37
 856              	.LVL84:
 857              	.L107:
 858              	.LBE85:
 859              	.LBE86:
 860              	.LBB87:
 861              		.loc 1 321 0
 862 0332 DFF844B0 		ldr	fp, .L113+4
 863              		.loc 1 320 0
 864 0336 196C     		ldr	r1, [r3, #64]
 865              		.loc 1 321 0
 866 0338 DBF80420 		ldr	r2, [fp, #4]
 867              	.LVL85:
 868 033c 1268     		ldr	r2, [r2]
 869              		.loc 1 320 0
 870 033e 21F00801 		bic	r1, r1, #8
 871 0342 1964     		str	r1, [r3, #64]
 872              		.loc 1 321 0
 873 0344 002A     		cmp	r2, #0
 874 0346 3FF480AE 		beq	.L29
 875              		.loc 1 321 0 is_stmt 0 discriminator 1
 876 034a 5846     		mov	r0, fp
 877 034c 0421     		movs	r1, #4
 878 034e 9047     		blx	r2
 879              	.LVL86:
 880 0350 7BE6     		b	.L29
 881              	.L106:
 882              	.LBE87:
 883              		.loc 1 301 0 is_stmt 1
 884 0352 DFF824B0 		ldr	fp, .L113+4
 885 0356 5846     		mov	r0, fp
 886 0358 FFF7FEFF 		bl	_usb_reset
 887              	.LVL87:
 888              		.loc 1 302 0
 889 035c DBF80430 		ldr	r3, [fp, #4]
 890 0360 1B68     		ldr	r3, [r3]
 891 0362 13B1     		cbz	r3, .L24
 892              		.loc 1 302 0 is_stmt 0 discriminator 1
 893 0364 5846     		mov	r0, fp
 894 0366 0021     		movs	r1, #0
 895 0368 9847     		blx	r3
 896              	.LVL88:
 897              	.L24:
 898              		.loc 1 303 0 is_stmt 1
 899 036a 024B     		ldr	r3, .L113
 900 036c 6FF48062 		mvn	r2, #1024
 901 0370 5A64     		str	r2, [r3, #68]
 902 0372 4FE6     		b	.L23
 903              	.L114:
 904              		.align	2
 905              	.L113:
 906 0374 005C0040 		.word	1073765376
 907 0378 00000000 		.word	.LANCHOR0
 908              		.cfi_endproc
 909              	.LFE125:
ARM GAS  /tmp/cc9COLsi.s 			page 17


 910              		.size	Vector16C, .-Vector16C
 911 037c AFF30080 		.section	.text.usb_lld_init,"ax",%progbits
 912              		.align	2
 913              		.p2align 4,,15
 914              		.global	usb_lld_init
 915              		.thumb
 916              		.thumb_func
 917              		.type	usb_lld_init, %function
 918              	usb_lld_init:
 919              	.LFB126:
 920              		.loc 1 434 0
 921              		.cfi_startproc
 922              		@ args = 0, pretend = 0, frame = 0
 923              		@ frame_needed = 0, uses_anonymous_args = 0
 924              		@ link register save eliminated.
 925              		.loc 1 437 0
 926 0000 0148     		ldr	r0, .L116
 927 0002 FFF7FEBF 		b	usbObjectInit
 928              	.LVL89:
 929              	.L117:
 930 0006 00BF     		.align	2
 931              	.L116:
 932 0008 00000000 		.word	.LANCHOR0
 933              		.cfi_endproc
 934              	.LFE126:
 935              		.size	usb_lld_init, .-usb_lld_init
 936 000c AFF30080 		.section	.text.usb_lld_start,"ax",%progbits
 937              		.align	2
 938              		.p2align 4,,15
 939              		.global	usb_lld_start
 940              		.thumb
 941              		.thumb_func
 942              		.type	usb_lld_start, %function
 943              	usb_lld_start:
 944              	.LFB127:
 945              		.loc 1 447 0
 946              		.cfi_startproc
 947              		@ args = 0, pretend = 0, frame = 0
 948              		@ frame_needed = 0, uses_anonymous_args = 0
 949              	.LVL90:
 950 0000 38B5     		push	{r3, r4, r5, lr}
 951              		.cfi_def_cfa_offset 16
 952              		.cfi_offset 3, -16
 953              		.cfi_offset 4, -12
 954              		.cfi_offset 5, -8
 955              		.cfi_offset 14, -4
 956              		.loc 1 449 0
 957 0002 0378     		ldrb	r3, [r0]	@ zero_extendqisi2
 958 0004 012B     		cmp	r3, #1
 959              		.loc 1 447 0
 960 0006 0446     		mov	r4, r0
 961              		.loc 1 449 0
 962 0008 00D0     		beq	.L121
 963 000a 38BD     		pop	{r3, r4, r5, pc}
 964              	.L121:
 965              		.loc 1 452 0
 966 000c 0C4A     		ldr	r2, .L123
ARM GAS  /tmp/cc9COLsi.s 			page 18


 967 000e 9042     		cmp	r0, r2
 968 0010 04D0     		beq	.L122
 969              	.LVL91:
 970              	.L120:
 971              		.loc 1 468 0
 972 0012 2046     		mov	r0, r4
 973              		.loc 1 471 0
 974 0014 BDE83840 		pop	{r3, r4, r5, lr}
 975              	.LVL92:
 976              		.loc 1 468 0
 977 0018 FFF7FEBF 		b	_usb_reset
 978              	.LVL93:
 979              	.L122:
 980              		.loc 1 454 0
 981 001c 094A     		ldr	r2, .L123+4
 982              		.loc 1 456 0
 983 001e 0A4D     		ldr	r5, .L123+8
 984              		.loc 1 454 0
 985 0020 D169     		ldr	r1, [r2, #28]
 986 0022 41F40001 		orr	r1, r1, #8388608
 987 0026 D161     		str	r1, [r2, #28]
 988              		.loc 1 459 0
 989 0028 4A20     		movs	r0, #74
 990              	.LVL94:
 991              		.loc 1 456 0
 992 002a 2B64     		str	r3, [r5, #64]
 993              		.loc 1 459 0
 994 002c D021     		movs	r1, #208
 995 002e FFF7FEFF 		bl	nvicEnableVector
 996              	.LVL95:
 997              		.loc 1 461 0
 998 0032 4B20     		movs	r0, #75
 999 0034 E021     		movs	r1, #224
 1000 0036 FFF7FEFF 		bl	nvicEnableVector
 1001              	.LVL96:
 1002              		.loc 1 464 0
 1003 003a 0023     		movs	r3, #0
 1004 003c 2B64     		str	r3, [r5, #64]
 1005 003e E8E7     		b	.L120
 1006              	.L124:
 1007              		.align	2
 1008              	.L123:
 1009 0040 00000000 		.word	.LANCHOR0
 1010 0044 00100240 		.word	1073876992
 1011 0048 005C0040 		.word	1073765376
 1012              		.cfi_endproc
 1013              	.LFE127:
 1014              		.size	usb_lld_start, .-usb_lld_start
 1015 004c AFF30080 		.section	.text.usb_lld_stop,"ax",%progbits
 1016              		.align	2
 1017              		.p2align 4,,15
 1018              		.global	usb_lld_stop
 1019              		.thumb
 1020              		.thumb_func
 1021              		.type	usb_lld_stop, %function
 1022              	usb_lld_stop:
 1023              	.LFB128:
ARM GAS  /tmp/cc9COLsi.s 			page 19


 1024              		.loc 1 480 0
 1025              		.cfi_startproc
 1026              		@ args = 0, pretend = 0, frame = 0
 1027              		@ frame_needed = 0, uses_anonymous_args = 0
 1028              	.LVL97:
 1029 0000 08B5     		push	{r3, lr}
 1030              		.cfi_def_cfa_offset 8
 1031              		.cfi_offset 3, -8
 1032              		.cfi_offset 14, -4
 1033              		.loc 1 483 0
 1034 0002 0378     		ldrb	r3, [r0]	@ zero_extendqisi2
 1035 0004 012B     		cmp	r3, #1
 1036 0006 00D0     		beq	.L127
 1037              	.LVL98:
 1038              	.L125:
 1039 0008 08BD     		pop	{r3, pc}
 1040              	.LVL99:
 1041              	.L127:
 1042              		.loc 1 485 0
 1043 000a 094B     		ldr	r3, .L128
 1044 000c 9842     		cmp	r0, r3
 1045 000e FBD1     		bne	.L125
 1046              		.loc 1 486 0
 1047 0010 4A20     		movs	r0, #74
 1048              	.LVL100:
 1049 0012 FFF7FEFF 		bl	nvicDisableVector
 1050              	.LVL101:
 1051              		.loc 1 487 0
 1052 0016 4B20     		movs	r0, #75
 1053 0018 FFF7FEFF 		bl	nvicDisableVector
 1054              	.LVL102:
 1055              		.loc 1 488 0
 1056 001c 054A     		ldr	r2, .L128+4
 1057              		.loc 1 489 0
 1058 001e 064B     		ldr	r3, .L128+8
 1059              		.loc 1 488 0
 1060 0020 0321     		movs	r1, #3
 1061 0022 1164     		str	r1, [r2, #64]
 1062              		.loc 1 489 0
 1063 0024 DA69     		ldr	r2, [r3, #28]
 1064 0026 22F40002 		bic	r2, r2, #8388608
 1065 002a DA61     		str	r2, [r3, #28]
 1066 002c ECE7     		b	.L125
 1067              	.L129:
 1068 002e 00BF     		.align	2
 1069              	.L128:
 1070 0030 00000000 		.word	.LANCHOR0
 1071 0034 005C0040 		.word	1073765376
 1072 0038 00100240 		.word	1073876992
 1073              		.cfi_endproc
 1074              	.LFE128:
 1075              		.size	usb_lld_stop, .-usb_lld_stop
 1076 003c AFF30080 		.section	.text.usb_lld_set_address,"ax",%progbits
 1077              		.align	2
 1078              		.p2align 4,,15
 1079              		.global	usb_lld_set_address
 1080              		.thumb
ARM GAS  /tmp/cc9COLsi.s 			page 20


 1081              		.thumb_func
 1082              		.type	usb_lld_set_address, %function
 1083              	usb_lld_set_address:
 1084              	.LFB130:
 1085              		.loc 1 532 0
 1086              		.cfi_startproc
 1087              		@ args = 0, pretend = 0, frame = 0
 1088              		@ frame_needed = 0, uses_anonymous_args = 0
 1089              		@ link register save eliminated.
 1090              	.LVL103:
 1091              		.loc 1 534 0
 1092 0000 90F87E20 		ldrb	r2, [r0, #126]	@ zero_extendqisi2
 1093 0004 024B     		ldr	r3, .L131
 1094 0006 42F08002 		orr	r2, r2, #128
 1095 000a DA64     		str	r2, [r3, #76]
 1096 000c 7047     		bx	lr
 1097              	.L132:
 1098 000e 00BF     		.align	2
 1099              	.L131:
 1100 0010 005C0040 		.word	1073765376
 1101              		.cfi_endproc
 1102              	.LFE130:
 1103              		.size	usb_lld_set_address, .-usb_lld_set_address
 1104 0014 AFF30080 		.section	.text.usb_lld_init_endpoint,"ax",%progbits
 1104      AFF30080 
 1104      AFF30080 
 1105              		.align	2
 1106              		.p2align 4,,15
 1107              		.global	usb_lld_init_endpoint
 1108              		.thumb
 1109              		.thumb_func
 1110              		.type	usb_lld_init_endpoint, %function
 1111              	usb_lld_init_endpoint:
 1112              	.LFB131:
 1113              		.loc 1 545 0
 1114              		.cfi_startproc
 1115              		@ args = 0, pretend = 0, frame = 0
 1116              		@ frame_needed = 0, uses_anonymous_args = 0
 1117              	.LVL104:
 1118              		.loc 1 548 0
 1119 0000 00EB8103 		add	r3, r0, r1, lsl #2
 1120              		.loc 1 545 0
 1121 0004 2DE9F041 		push	{r4, r5, r6, r7, r8, lr}
 1122              		.cfi_def_cfa_offset 24
 1123              		.cfi_offset 4, -24
 1124              		.cfi_offset 5, -20
 1125              		.cfi_offset 6, -16
 1126              		.cfi_offset 7, -12
 1127              		.cfi_offset 8, -8
 1128              		.cfi_offset 14, -4
 1129              		.loc 1 548 0
 1130 0008 DC68     		ldr	r4, [r3, #12]
 1131              	.LVL105:
 1132              		.loc 1 551 0
 1133 000a 2368     		ldr	r3, [r4]
 1134 000c 03F00303 		and	r3, r3, #3
 1135 0010 013B     		subs	r3, r3, #1
ARM GAS  /tmp/cc9COLsi.s 			page 21


 1136 0012 022B     		cmp	r3, #2
 1137 0014 9CBF     		itt	ls
 1138 0016 314A     		ldrls	r2, .L150
 1139 0018 32F81330 		ldrhls	r3, [r2, r3, lsl #1]
 1140              		.loc 1 566 0
 1141 001c A268     		ldr	r2, [r4, #8]
 1142              		.loc 1 545 0
 1143 001e 0546     		mov	r5, r0
 1144              		.loc 1 551 0
 1145 0020 88BF     		it	hi
 1146 0022 4FF40073 		movhi	r3, #512
 1147              	.LVL106:
 1148              		.loc 1 566 0
 1149 0026 0AB1     		cbz	r2, .L135
 1150              		.loc 1 567 0
 1151 0028 43F02003 		orr	r3, r3, #32
 1152              	.LVL107:
 1153              	.L135:
 1154              		.loc 1 570 0
 1155 002c E268     		ldr	r2, [r4, #12]
 1156 002e 0AB1     		cbz	r2, .L136
 1157              		.loc 1 571 0
 1158 0030 43F40053 		orr	r3, r3, #8192
 1159              	.LVL108:
 1160              	.L136:
 1161 0034 8A00     		lsls	r2, r1, #2
 1162 0036 02F18042 		add	r2, r2, #1073741824
 1163              		.loc 1 574 0
 1164 003a 43EA0100 		orr	r0, r3, r1
 1165              	.LVL109:
 1166 003e 02F5B842 		add	r2, r2, #23552
 1167 0042 20F4F040 		bic	r0, r0, #30720
 1168 0046 20F07000 		bic	r0, r0, #112
 1169 004a 1060     		str	r0, [r2]
 1170              		.loc 1 575 0
 1171 004c 1668     		ldr	r6, [r2]
 1172              		.loc 1 578 0
 1173 004e 678A     		ldrh	r7, [r4, #18]
 1174              		.loc 1 575 0
 1175 0050 47F67000 		movw	r0, #30832
 1176 0054 1840     		ands	r0, r0, r3
 1177 0056 7040     		eors	r0, r0, r6
 1178              		.loc 1 578 0
 1179 0058 3E2F     		cmp	r7, #62
 1180              		.loc 1 575 0
 1181 005a 1060     		str	r0, [r2]
 1182              		.loc 1 579 0
 1183 005c 07F1FF32 		add	r2, r7, #-1
 1184              		.loc 1 578 0
 1185 0060 2DD9     		bls	.L137
 1186              		.loc 1 579 0
 1187 0062 42F01F02 		orr	r2, r2, #31
 1188 0066 0132     		adds	r2, r2, #1
 1189 0068 5211     		asrs	r2, r2, #5
 1190 006a 6FEAC262 		mvn	r2, r2, lsl #27
 1191 006e 6FEA5242 		mvn	r2, r2, lsr #17
 1192 0072 92B2     		uxth	r2, r2
ARM GAS  /tmp/cc9COLsi.s 			page 22


 1193              	.LVL110:
 1194              	.L138:
 1195              		.loc 1 583 0
 1196 0074 1A4B     		ldr	r3, .L150+4
 1197              	.LVL111:
 1198              	.LBB88:
 1199              	.LBB89:
 1200              		.loc 1 113 0
 1201 0076 D5F88080 		ldr	r8, [r5, #128]
 1202              	.LBE89:
 1203              	.LBE88:
 1204              		.loc 1 583 0
 1205 007a 1E6D     		ldr	r6, [r3, #80]
 1206              		.loc 1 586 0
 1207 007c 238A     		ldrh	r3, [r4, #16]
 1208              		.loc 1 583 0
 1209 007e 06F10056 		add	r6, r6, #536870912
 1210 0082 06F54056 		add	r6, r6, #12288
 1211 0086 06EBC106 		add	r6, r6, r1, lsl #3
 1212 008a 7600     		lsls	r6, r6, #1
 1213              	.LVL112:
 1214              	.LBB94:
 1215              	.LBB90:
 1216              		.loc 1 114 0
 1217 008c 4344     		add	r3, r3, r8
 1218              	.LBE90:
 1219              	.LBE94:
 1220              		.loc 1 584 0
 1221 008e 0021     		movs	r1, #0
 1222              	.LVL113:
 1223              	.LBB95:
 1224              	.LBB91:
 1225              		.loc 1 115 0
 1226 0090 B3F5007F 		cmp	r3, #512
 1227              	.LBE91:
 1228              	.LBE95:
 1229              		.loc 1 584 0
 1230 0094 B180     		strh	r1, [r6, #4]	@ movhi
 1231              		.loc 1 585 0
 1232 0096 B281     		strh	r2, [r6, #12]	@ movhi
 1233              	.LVL114:
 1234              	.LBB96:
 1235              	.LBB92:
 1236              		.loc 1 114 0
 1237 0098 C5F88030 		str	r3, [r5, #128]
 1238              	.LVL115:
 1239              		.loc 1 115 0
 1240 009c 18D8     		bhi	.L149
 1241              	.LVL116:
 1242              	.L139:
 1243              	.LBE92:
 1244              	.LBE96:
 1245              		.loc 1 586 0
 1246 009e C6F80080 		str	r8, [r6]
 1247              	.LVL117:
 1248              	.LBB97:
 1249              	.LBB98:
ARM GAS  /tmp/cc9COLsi.s 			page 23


 1250              		.loc 1 113 0
 1251 00a2 D5F88040 		ldr	r4, [r5, #128]
 1252              	.LVL118:
 1253              		.loc 1 114 0
 1254 00a6 2744     		add	r7, r7, r4
 1255              	.LVL119:
 1256              		.loc 1 115 0
 1257 00a8 B7F5007F 		cmp	r7, #512
 1258              		.loc 1 114 0
 1259 00ac C5F88070 		str	r7, [r5, #128]
 1260              		.loc 1 115 0
 1261 00b0 02D9     		bls	.L140
 1262 00b2 0C48     		ldr	r0, .L150+8
 1263 00b4 FFF7FEFF 		bl	chDbgPanic
 1264              	.LVL120:
 1265              	.L140:
 1266              	.LBE98:
 1267              	.LBE97:
 1268              		.loc 1 587 0
 1269 00b8 B460     		str	r4, [r6, #8]
 1270 00ba BDE8F081 		pop	{r4, r5, r6, r7, r8, pc}
 1271              	.LVL121:
 1272              	.L137:
 1273              		.loc 1 582 0
 1274 00be 42F00102 		orr	r2, r2, #1
 1275 00c2 0132     		adds	r2, r2, #1
 1276 00c4 02EBD272 		add	r2, r2, r2, lsr #31
 1277 00c8 5202     		lsls	r2, r2, #9
 1278 00ca 02F47C42 		and	r2, r2, #64512
 1279              	.LVL122:
 1280 00ce D1E7     		b	.L138
 1281              	.LVL123:
 1282              	.L149:
 1283              	.LBB99:
 1284              	.LBB93:
 1285              		.loc 1 115 0
 1286 00d0 0448     		ldr	r0, .L150+8
 1287 00d2 FFF7FEFF 		bl	chDbgPanic
 1288              	.LVL124:
 1289 00d6 678A     		ldrh	r7, [r4, #18]
 1290 00d8 E1E7     		b	.L139
 1291              	.L151:
 1292 00da 00BF     		.align	2
 1293              	.L150:
 1294 00dc 00000000 		.word	.LANCHOR1
 1295 00e0 005C0040 		.word	1073765376
 1296 00e4 00000000 		.word	.LC0
 1297              	.LBE93:
 1298              	.LBE99:
 1299              		.cfi_endproc
 1300              	.LFE131:
 1301              		.size	usb_lld_init_endpoint, .-usb_lld_init_endpoint
 1302 00e8 AFF30080 		.section	.text.usb_lld_reset,"ax",%progbits
 1302      AFF30080 
 1303              		.align	2
 1304              		.p2align 4,,15
 1305              		.global	usb_lld_reset
ARM GAS  /tmp/cc9COLsi.s 			page 24


 1306              		.thumb
 1307              		.thumb_func
 1308              		.type	usb_lld_reset, %function
 1309              	usb_lld_reset:
 1310              	.LFB129:
 1311              		.loc 1 502 0
 1312              		.cfi_startproc
 1313              		@ args = 0, pretend = 0, frame = 0
 1314              		@ frame_needed = 0, uses_anonymous_args = 0
 1315              		@ link register save eliminated.
 1316              	.LVL125:
 1317              		.loc 1 513 0
 1318 0000 4168     		ldr	r1, [r0, #4]
 1319              		.loc 1 506 0
 1320 0002 0D4B     		ldr	r3, .L155
 1321              		.loc 1 513 0
 1322 0004 C968     		ldr	r1, [r1, #12]
 1323              		.loc 1 502 0
 1324 0006 F0B4     		push	{r4, r5, r6, r7}
 1325              		.cfi_def_cfa_offset 16
 1326              		.cfi_offset 4, -16
 1327              		.cfi_offset 5, -12
 1328              		.cfi_offset 6, -8
 1329              		.cfi_offset 7, -4
 1330              		.loc 1 513 0
 1331 0008 0029     		cmp	r1, #0
 1332              		.loc 1 506 0
 1333 000a 4FF00004 		mov	r4, #0
 1334              		.loc 1 521 0
 1335 000e 0B4D     		ldr	r5, .L155+4
 1336              		.loc 1 506 0
 1337 0010 1C65     		str	r4, [r3, #80]
 1338              		.loc 1 509 0
 1339 0012 14BF     		ite	ne
 1340 0014 4FF41E47 		movne	r7, #40448
 1341 0018 4FF41C47 		moveq	r7, #39936
 1342              	.LBB100:
 1343              	.LBB101:
 1344              		.loc 1 101 0
 1345 001c 4026     		movs	r6, #64
 1346              	.LBE101:
 1347              	.LBE100:
 1348              		.loc 1 508 0
 1349 001e 4FF0800C 		mov	ip, #128
 1350              		.loc 1 507 0
 1351 0022 5C64     		str	r4, [r3, #68]
 1352              		.loc 1 522 0
 1353 0024 2146     		mov	r1, r4
 1354              		.loc 1 508 0
 1355 0026 C3F84CC0 		str	ip, [r3, #76]
 1356              	.LVL126:
 1357              		.loc 1 515 0
 1358 002a 1F64     		str	r7, [r3, #64]
 1359              	.LVL127:
 1360              	.LBB103:
 1361              	.LBB102:
 1362              		.loc 1 101 0
ARM GAS  /tmp/cc9COLsi.s 			page 25


 1363 002c C0F88060 		str	r6, [r0, #128]
 1364              	.LBE102:
 1365              	.LBE103:
 1366              		.loc 1 521 0
 1367 0030 C560     		str	r5, [r0, #12]
 1368              		.loc 1 523 0
 1369 0032 F0BC     		pop	{r4, r5, r6, r7}
 1370              	.LVL128:
 1371              		.loc 1 522 0
 1372 0034 FFF7FEBF 		b	usb_lld_init_endpoint
 1373              	.LVL129:
 1374              	.L156:
 1375              		.align	2
 1376              	.L155:
 1377 0038 005C0040 		.word	1073765376
 1378 003c 00000000 		.word	.LANCHOR2
 1379              		.cfi_endproc
 1380              	.LFE129:
 1381              		.size	usb_lld_reset, .-usb_lld_reset
 1382              		.section	.text.usb_lld_disable_endpoints,"ax",%progbits
 1383              		.align	2
 1384              		.p2align 4,,15
 1385              		.global	usb_lld_disable_endpoints
 1386              		.thumb
 1387              		.thumb_func
 1388              		.type	usb_lld_disable_endpoints, %function
 1389              	usb_lld_disable_endpoints:
 1390              	.LFB132:
 1391              		.loc 1 597 0
 1392              		.cfi_startproc
 1393              		@ args = 0, pretend = 0, frame = 0
 1394              		@ frame_needed = 0, uses_anonymous_args = 0
 1395              		@ link register save eliminated.
 1396              	.LVL130:
 1397              	.LBB104:
 1398              	.LBB105:
 1399              		.loc 1 101 0
 1400 0000 4023     		movs	r3, #64
 1401 0002 C0F88030 		str	r3, [r0, #128]
 1402              	.LVL131:
 1403              	.LBE105:
 1404              	.LBE104:
 1405              		.loc 1 604 0
 1406 0006 0122     		movs	r2, #1
 1407              		.loc 1 606 0
 1408 0008 0020     		movs	r0, #0
 1409              	.LVL132:
 1410              	.L159:
 1411 000a 9300     		lsls	r3, r2, #2
 1412 000c 03F18043 		add	r3, r3, #1073741824
 1413 0010 03F5B843 		add	r3, r3, #23552
 1414              		.loc 1 604 0 discriminator 2
 1415 0014 0132     		adds	r2, r2, #1
 1416              	.LVL133:
 1417              		.loc 1 605 0 discriminator 2
 1418 0016 1968     		ldr	r1, [r3]
 1419 0018 1960     		str	r1, [r3]
ARM GAS  /tmp/cc9COLsi.s 			page 26


 1420              		.loc 1 604 0 discriminator 2
 1421 001a 082A     		cmp	r2, #8
 1422              		.loc 1 606 0 discriminator 2
 1423 001c 1860     		str	r0, [r3]
 1424              		.loc 1 604 0 discriminator 2
 1425 001e F4D1     		bne	.L159
 1426              		.loc 1 608 0
 1427 0020 7047     		bx	lr
 1428              		.cfi_endproc
 1429              	.LFE132:
 1430              		.size	usb_lld_disable_endpoints, .-usb_lld_disable_endpoints
 1431 0022 00BFAFF3 		.section	.text.usb_lld_get_status_out,"ax",%progbits
 1431      0080AFF3 
 1431      0080AFF3 
 1431      0080
 1432              		.align	2
 1433              		.p2align 4,,15
 1434              		.global	usb_lld_get_status_out
 1435              		.thumb
 1436              		.thumb_func
 1437              		.type	usb_lld_get_status_out, %function
 1438              	usb_lld_get_status_out:
 1439              	.LFB133:
 1440              		.loc 1 622 0
 1441              		.cfi_startproc
 1442              		@ args = 0, pretend = 0, frame = 0
 1443              		@ frame_needed = 0, uses_anonymous_args = 0
 1444              		@ link register save eliminated.
 1445              	.LVL134:
 1446              		.loc 1 625 0
 1447 0000 054B     		ldr	r3, .L166
 1448 0002 53F82100 		ldr	r0, [r3, r1, lsl #2]
 1449              	.LVL135:
 1450 0006 10F44050 		ands	r0, r0, #12288
 1451 000a 04D0     		beq	.L164
 1452 000c B0F5805F 		cmp	r0, #4096
 1453              		.loc 1 631 0
 1454 0010 0CBF     		ite	eq
 1455 0012 0120     		moveq	r0, #1
 1456 0014 0220     		movne	r0, #2
 1457              	.L164:
 1458              		.loc 1 633 0
 1459 0016 7047     		bx	lr
 1460              	.L167:
 1461              		.align	2
 1462              	.L166:
 1463 0018 005C0040 		.word	1073765376
 1464              		.cfi_endproc
 1465              	.LFE133:
 1466              		.size	usb_lld_get_status_out, .-usb_lld_get_status_out
 1467 001c AFF30080 		.section	.text.usb_lld_get_status_in,"ax",%progbits
 1468              		.align	2
 1469              		.p2align 4,,15
 1470              		.global	usb_lld_get_status_in
 1471              		.thumb
 1472              		.thumb_func
 1473              		.type	usb_lld_get_status_in, %function
ARM GAS  /tmp/cc9COLsi.s 			page 27


 1474              	usb_lld_get_status_in:
 1475              	.LFB134:
 1476              		.loc 1 647 0
 1477              		.cfi_startproc
 1478              		@ args = 0, pretend = 0, frame = 0
 1479              		@ frame_needed = 0, uses_anonymous_args = 0
 1480              		@ link register save eliminated.
 1481              	.LVL136:
 1482              		.loc 1 650 0
 1483 0000 054B     		ldr	r3, .L173
 1484 0002 53F82100 		ldr	r0, [r3, r1, lsl #2]
 1485              	.LVL137:
 1486 0006 10F03000 		ands	r0, r0, #48
 1487 000a 03D0     		beq	.L171
 1488 000c 1028     		cmp	r0, #16
 1489              		.loc 1 656 0
 1490 000e 0CBF     		ite	eq
 1491 0010 0120     		moveq	r0, #1
 1492 0012 0220     		movne	r0, #2
 1493              	.L171:
 1494              		.loc 1 658 0
 1495 0014 7047     		bx	lr
 1496              	.L174:
 1497 0016 00BF     		.align	2
 1498              	.L173:
 1499 0018 005C0040 		.word	1073765376
 1500              		.cfi_endproc
 1501              	.LFE134:
 1502              		.size	usb_lld_get_status_in, .-usb_lld_get_status_in
 1503 001c AFF30080 		.section	.text.usb_lld_read_setup,"ax",%progbits
 1504              		.align	2
 1505              		.p2align 4,,15
 1506              		.global	usb_lld_read_setup
 1507              		.thumb
 1508              		.thumb_func
 1509              		.type	usb_lld_read_setup, %function
 1510              	usb_lld_read_setup:
 1511              	.LFB135:
 1512              		.loc 1 674 0
 1513              		.cfi_startproc
 1514              		@ args = 0, pretend = 0, frame = 0
 1515              		@ frame_needed = 0, uses_anonymous_args = 0
 1516              		@ link register save eliminated.
 1517              	.LVL138:
 1518              		.loc 1 680 0
 1519 0000 0B4B     		ldr	r3, .L179
 1520 0002 1B6D     		ldr	r3, [r3, #80]
 1521 0004 03F10053 		add	r3, r3, #536870912
 1522 0008 03F54053 		add	r3, r3, #12288
 1523 000c 03EBC101 		add	r1, r3, r1, lsl #3
 1524              	.LVL139:
 1525 0010 4B00     		lsls	r3, r1, #1
 1526              	.LVL140:
 1527 0012 02F10800 		add	r0, r2, #8
 1528              	.LVL141:
 1529              		.loc 1 681 0
 1530 0016 9B68     		ldr	r3, [r3, #8]
ARM GAS  /tmp/cc9COLsi.s 			page 28


 1531              	.LVL142:
 1532 0018 03F10053 		add	r3, r3, #536870912
 1533 001c 03F54053 		add	r3, r3, #12288
 1534 0020 5B00     		lsls	r3, r3, #1
 1535              	.LVL143:
 1536              	.L177:
 1537              		.loc 1 683 0 discriminator 2
 1538 0022 53F8041B 		ldr	r1, [r3], #4
 1539              	.LVL144:
 1540 0026 22F8021B 		strh	r1, [r2], #2	@ movhi
 1541              	.LVL145:
 1542              		.loc 1 682 0 discriminator 2
 1543 002a 8242     		cmp	r2, r0
 1544 002c F9D1     		bne	.L177
 1545              		.loc 1 686 0
 1546 002e 7047     		bx	lr
 1547              	.L180:
 1548              		.align	2
 1549              	.L179:
 1550 0030 005C0040 		.word	1073765376
 1551              		.cfi_endproc
 1552              	.LFE135:
 1553              		.size	usb_lld_read_setup, .-usb_lld_read_setup
 1554 0034 AFF30080 		.section	.text.usb_lld_prepare_receive,"ax",%progbits
 1554      AFF30080 
 1554      AFF30080 
 1555              		.align	2
 1556              		.p2align 4,,15
 1557              		.global	usb_lld_prepare_receive
 1558              		.thumb
 1559              		.thumb_func
 1560              		.type	usb_lld_prepare_receive, %function
 1561              	usb_lld_prepare_receive:
 1562              	.LFB136:
 1563              		.loc 1 696 0
 1564              		.cfi_startproc
 1565              		@ args = 0, pretend = 0, frame = 0
 1566              		@ frame_needed = 0, uses_anonymous_args = 0
 1567              		@ link register save eliminated.
 1568              	.LVL146:
 1569              		.loc 1 697 0
 1570 0000 00EB8101 		add	r1, r0, r1, lsl #2
 1571              	.LVL147:
 1572 0004 C968     		ldr	r1, [r1, #12]
 1573 0006 8B69     		ldr	r3, [r1, #24]
 1574              	.LVL148:
 1575              		.loc 1 700 0
 1576 0008 5A68     		ldr	r2, [r3, #4]
 1577 000a 32B1     		cbz	r2, .L184
 1578              		.loc 1 703 0
 1579 000c 498A     		ldrh	r1, [r1, #18]
 1580 000e 013A     		subs	r2, r2, #1
 1581 0010 0A44     		add	r2, r2, r1
 1582 0012 B2FBF1F1 		udiv	r1, r2, r1
 1583 0016 1982     		strh	r1, [r3, #16]	@ movhi
 1584 0018 7047     		bx	lr
 1585              	.L184:
ARM GAS  /tmp/cc9COLsi.s 			page 29


 1586              		.loc 1 701 0
 1587 001a 0122     		movs	r2, #1
 1588 001c 1A82     		strh	r2, [r3, #16]	@ movhi
 1589 001e 7047     		bx	lr
 1590              		.cfi_endproc
 1591              	.LFE136:
 1592              		.size	usb_lld_prepare_receive, .-usb_lld_prepare_receive
 1593              		.section	.text.usb_lld_prepare_transmit,"ax",%progbits
 1594              		.align	2
 1595              		.p2align 4,,15
 1596              		.global	usb_lld_prepare_transmit
 1597              		.thumb
 1598              		.thumb_func
 1599              		.type	usb_lld_prepare_transmit, %function
 1600              	usb_lld_prepare_transmit:
 1601              	.LFB137:
 1602              		.loc 1 715 0
 1603              		.cfi_startproc
 1604              		@ args = 0, pretend = 0, frame = 0
 1605              		@ frame_needed = 0, uses_anonymous_args = 0
 1606              		@ link register save eliminated.
 1607              	.LVL149:
 1608              		.loc 1 717 0
 1609 0000 00EB8100 		add	r0, r0, r1, lsl #2
 1610              	.LVL150:
 1611              		.loc 1 715 0
 1612 0004 10B4     		push	{r4}
 1613              		.cfi_def_cfa_offset 4
 1614              		.cfi_offset 4, -4
 1615              		.loc 1 717 0
 1616 0006 C368     		ldr	r3, [r0, #12]
 1617 0008 5869     		ldr	r0, [r3, #20]
 1618              	.LVL151:
 1619              		.loc 1 721 0
 1620 000a 1A8A     		ldrh	r2, [r3, #16]
 1621              		.loc 1 720 0
 1622 000c 4368     		ldr	r3, [r0, #4]
 1623              	.LVL152:
 1624              		.loc 1 715 0
 1625 000e 0C46     		mov	r4, r1
 1626              		.loc 1 724 0
 1627 0010 0178     		ldrb	r1, [r0]	@ zero_extendqisi2
 1628              	.LVL153:
 1629 0012 9A42     		cmp	r2, r3
 1630 0014 28BF     		it	cs
 1631 0016 1A46     		movcs	r2, r3
 1632              	.LVL154:
 1633              		.loc 1 725 0
 1634 0018 164B     		ldr	r3, .L196
 1635              		.loc 1 724 0
 1636 001a F1B9     		cbnz	r1, .L195
 1637              		.loc 1 728 0
 1638 001c C168     		ldr	r1, [r0, #12]
 1639 001e 186D     		ldr	r0, [r3, #80]
 1640              	.LVL155:
 1641 0020 00F10050 		add	r0, r0, #536870912
 1642 0024 00F54050 		add	r0, r0, #12288
ARM GAS  /tmp/cc9COLsi.s 			page 30


 1643 0028 00EBC404 		add	r4, r0, r4, lsl #3
 1644              	.LVL156:
 1645 002c 6400     		lsls	r4, r4, #1
 1646              	.LVL157:
 1647              	.LBB106:
 1648              	.LBB107:
 1649              		.loc 1 201 0
 1650 002e 93B2     		uxth	r3, r2
 1651              		.loc 1 199 0
 1652 0030 2068     		ldr	r0, [r4]
 1653              		.loc 1 201 0
 1654 0032 A380     		strh	r3, [r4, #4]	@ movhi
 1655              		.loc 1 199 0
 1656 0034 00F10050 		add	r0, r0, #536870912
 1657              		.loc 1 202 0
 1658 0038 531C     		adds	r3, r2, #1
 1659              		.loc 1 199 0
 1660 003a 00F54050 		add	r0, r0, #12288
 1661              		.loc 1 203 0
 1662 003e 5B08     		lsrs	r3, r3, #1
 1663              		.loc 1 199 0
 1664 0040 4FEA4002 		lsl	r2, r0, #1
 1665              	.LVL158:
 1666              		.loc 1 203 0
 1667 0044 06D0     		beq	.L185
 1668 0046 0239     		subs	r1, r1, #2
 1669              	.LVL159:
 1670              	.L190:
 1671              		.loc 1 206 0
 1672 0048 31F8020F 		ldrh	r0, [r1, #2]!
 1673              	.LVL160:
 1674 004c 42F8040B 		str	r0, [r2], #4
 1675              	.LVL161:
 1676              		.loc 1 203 0
 1677 0050 013B     		subs	r3, r3, #1
 1678              	.LVL162:
 1679 0052 F9D1     		bne	.L190
 1680              	.LVL163:
 1681              	.L185:
 1682              	.LBE107:
 1683              	.LBE106:
 1684              		.loc 1 730 0
 1685 0054 5DF8044B 		ldr	r4, [sp], #4
 1686              	.LVL164:
 1687 0058 7047     		bx	lr
 1688              	.LVL165:
 1689              	.L195:
 1690              		.loc 1 725 0
 1691 005a 1B6D     		ldr	r3, [r3, #80]
 1692 005c C168     		ldr	r1, [r0, #12]
 1693 005e 03F10053 		add	r3, r3, #536870912
 1694 0062 03F54053 		add	r3, r3, #12288
 1695 0066 03EBC400 		add	r0, r3, r4, lsl #3
 1696              	.LVL166:
 1697 006a 4000     		lsls	r0, r0, #1
 1698              		.loc 1 730 0
 1699 006c 5DF8044B 		ldr	r4, [sp], #4
ARM GAS  /tmp/cc9COLsi.s 			page 31


 1700              	.LVL167:
 1701              		.loc 1 725 0
 1702 0070 FFF7FEBF 		b	usb_packet_write_from_queue
 1703              	.LVL168:
 1704              	.L197:
 1705              		.align	2
 1706              	.L196:
 1707 0074 005C0040 		.word	1073765376
 1708              		.cfi_endproc
 1709              	.LFE137:
 1710              		.size	usb_lld_prepare_transmit, .-usb_lld_prepare_transmit
 1711 0078 AFF30080 		.section	.text.usb_lld_start_out,"ax",%progbits
 1711      AFF30080 
 1712              		.align	2
 1713              		.p2align 4,,15
 1714              		.global	usb_lld_start_out
 1715              		.thumb
 1716              		.thumb_func
 1717              		.type	usb_lld_start_out, %function
 1718              	usb_lld_start_out:
 1719              	.LFB138:
 1720              		.loc 1 740 0
 1721              		.cfi_startproc
 1722              		@ args = 0, pretend = 0, frame = 0
 1723              		@ frame_needed = 0, uses_anonymous_args = 0
 1724              		@ link register save eliminated.
 1725              	.LVL169:
 1726 0000 8900     		lsls	r1, r1, #2
 1727              	.LVL170:
 1728 0002 01F18041 		add	r1, r1, #1073741824
 1729 0006 01F5B841 		add	r1, r1, #23552
 1730              		.loc 1 744 0
 1731 000a 0B68     		ldr	r3, [r1]
 1732 000c 23F49043 		bic	r3, r3, #18432
 1733 0010 23F07003 		bic	r3, r3, #112
 1734 0014 83F44053 		eor	r3, r3, #12288
 1735 0018 0B60     		str	r3, [r1]
 1736 001a 7047     		bx	lr
 1737              		.cfi_endproc
 1738              	.LFE138:
 1739              		.size	usb_lld_start_out, .-usb_lld_start_out
 1740 001c AFF30080 		.section	.text.usb_lld_start_in,"ax",%progbits
 1741              		.align	2
 1742              		.p2align 4,,15
 1743              		.global	usb_lld_start_in
 1744              		.thumb
 1745              		.thumb_func
 1746              		.type	usb_lld_start_in, %function
 1747              	usb_lld_start_in:
 1748              	.LFB139:
 1749              		.loc 1 755 0
 1750              		.cfi_startproc
 1751              		@ args = 0, pretend = 0, frame = 0
 1752              		@ frame_needed = 0, uses_anonymous_args = 0
 1753              		@ link register save eliminated.
 1754              	.LVL171:
 1755 0000 8900     		lsls	r1, r1, #2
ARM GAS  /tmp/cc9COLsi.s 			page 32


 1756              	.LVL172:
 1757 0002 01F18041 		add	r1, r1, #1073741824
 1758 0006 01F5B841 		add	r1, r1, #23552
 1759              		.loc 1 759 0
 1760 000a 0B68     		ldr	r3, [r1]
 1761 000c 23F4F043 		bic	r3, r3, #30720
 1762 0010 23F04003 		bic	r3, r3, #64
 1763 0014 83F03003 		eor	r3, r3, #48
 1764 0018 0B60     		str	r3, [r1]
 1765 001a 7047     		bx	lr
 1766              		.cfi_endproc
 1767              	.LFE139:
 1768              		.size	usb_lld_start_in, .-usb_lld_start_in
 1769 001c AFF30080 		.section	.text.usb_lld_stall_out,"ax",%progbits
 1770              		.align	2
 1771              		.p2align 4,,15
 1772              		.global	usb_lld_stall_out
 1773              		.thumb
 1774              		.thumb_func
 1775              		.type	usb_lld_stall_out, %function
 1776              	usb_lld_stall_out:
 1777              	.LFB140:
 1778              		.loc 1 770 0
 1779              		.cfi_startproc
 1780              		@ args = 0, pretend = 0, frame = 0
 1781              		@ frame_needed = 0, uses_anonymous_args = 0
 1782              		@ link register save eliminated.
 1783              	.LVL173:
 1784 0000 8900     		lsls	r1, r1, #2
 1785              	.LVL174:
 1786 0002 01F18041 		add	r1, r1, #1073741824
 1787 0006 01F5B841 		add	r1, r1, #23552
 1788              		.loc 1 774 0
 1789 000a 0B68     		ldr	r3, [r1]
 1790 000c 23F49043 		bic	r3, r3, #18432
 1791 0010 23F07003 		bic	r3, r3, #112
 1792 0014 83F48053 		eor	r3, r3, #4096
 1793 0018 0B60     		str	r3, [r1]
 1794 001a 7047     		bx	lr
 1795              		.cfi_endproc
 1796              	.LFE140:
 1797              		.size	usb_lld_stall_out, .-usb_lld_stall_out
 1798 001c AFF30080 		.section	.text.usb_lld_stall_in,"ax",%progbits
 1799              		.align	2
 1800              		.p2align 4,,15
 1801              		.global	usb_lld_stall_in
 1802              		.thumb
 1803              		.thumb_func
 1804              		.type	usb_lld_stall_in, %function
 1805              	usb_lld_stall_in:
 1806              	.LFB141:
 1807              		.loc 1 785 0
 1808              		.cfi_startproc
 1809              		@ args = 0, pretend = 0, frame = 0
 1810              		@ frame_needed = 0, uses_anonymous_args = 0
 1811              		@ link register save eliminated.
 1812              	.LVL175:
ARM GAS  /tmp/cc9COLsi.s 			page 33


 1813 0000 8900     		lsls	r1, r1, #2
 1814              	.LVL176:
 1815 0002 01F18041 		add	r1, r1, #1073741824
 1816 0006 01F5B841 		add	r1, r1, #23552
 1817              		.loc 1 789 0
 1818 000a 0B68     		ldr	r3, [r1]
 1819 000c 23F4F043 		bic	r3, r3, #30720
 1820 0010 23F04003 		bic	r3, r3, #64
 1821 0014 83F01003 		eor	r3, r3, #16
 1822 0018 0B60     		str	r3, [r1]
 1823 001a 7047     		bx	lr
 1824              		.cfi_endproc
 1825              	.LFE141:
 1826              		.size	usb_lld_stall_in, .-usb_lld_stall_in
 1827 001c AFF30080 		.section	.text.usb_lld_clear_out,"ax",%progbits
 1828              		.align	2
 1829              		.p2align 4,,15
 1830              		.global	usb_lld_clear_out
 1831              		.thumb
 1832              		.thumb_func
 1833              		.type	usb_lld_clear_out, %function
 1834              	usb_lld_clear_out:
 1835              	.LFB142:
 1836              		.loc 1 800 0
 1837              		.cfi_startproc
 1838              		@ args = 0, pretend = 0, frame = 0
 1839              		@ frame_needed = 0, uses_anonymous_args = 0
 1840              		@ link register save eliminated.
 1841              	.LVL177:
 1842 0000 8900     		lsls	r1, r1, #2
 1843              	.LVL178:
 1844 0002 01F18041 		add	r1, r1, #1073741824
 1845 0006 01F5B841 		add	r1, r1, #23552
 1846              		.loc 1 806 0
 1847 000a 0B68     		ldr	r3, [r1]
 1848 000c 03F44053 		and	r3, r3, #12288
 1849 0010 B3F5405F 		cmp	r3, #12288
 1850 0014 07D0     		beq	.L202
 1851              		.loc 1 807 0
 1852 0016 0B68     		ldr	r3, [r1]
 1853 0018 23F4F043 		bic	r3, r3, #30720
 1854 001c 23F04003 		bic	r3, r3, #64
 1855 0020 83F40053 		eor	r3, r3, #8192
 1856 0024 0B60     		str	r3, [r1]
 1857              	.L202:
 1858 0026 7047     		bx	lr
 1859              		.cfi_endproc
 1860              	.LFE142:
 1861              		.size	usb_lld_clear_out, .-usb_lld_clear_out
 1862 0028 AFF30080 		.section	.text.usb_lld_clear_in,"ax",%progbits
 1862      AFF30080 
 1863              		.align	2
 1864              		.p2align 4,,15
 1865              		.global	usb_lld_clear_in
 1866              		.thumb
 1867              		.thumb_func
 1868              		.type	usb_lld_clear_in, %function
ARM GAS  /tmp/cc9COLsi.s 			page 34


 1869              	usb_lld_clear_in:
 1870              	.LFB143:
 1871              		.loc 1 818 0
 1872              		.cfi_startproc
 1873              		@ args = 0, pretend = 0, frame = 0
 1874              		@ frame_needed = 0, uses_anonymous_args = 0
 1875              		@ link register save eliminated.
 1876              	.LVL179:
 1877 0000 8900     		lsls	r1, r1, #2
 1878              	.LVL180:
 1879 0002 01F18041 		add	r1, r1, #1073741824
 1880 0006 01F5B841 		add	r1, r1, #23552
 1881              		.loc 1 824 0
 1882 000a 0B68     		ldr	r3, [r1]
 1883 000c 03F03003 		and	r3, r3, #48
 1884 0010 302B     		cmp	r3, #48
 1885 0012 07D0     		beq	.L207
 1886              		.loc 1 825 0
 1887 0014 0B68     		ldr	r3, [r1]
 1888 0016 23F4F043 		bic	r3, r3, #30720
 1889 001a 23F04003 		bic	r3, r3, #64
 1890 001e 83F02003 		eor	r3, r3, #32
 1891 0022 0B60     		str	r3, [r1]
 1892              	.L207:
 1893 0024 7047     		bx	lr
 1894              		.cfi_endproc
 1895              	.LFE143:
 1896              		.size	usb_lld_clear_in, .-usb_lld_clear_in
 1897              		.global	USBD1
 1898 0026 00BFAFF3 		.section	.bss.USBD1,"aw",%nobits
 1898      0080AFF3 
 1898      0080
 1899              		.align	2
 1900              		.set	.LANCHOR0,. + 0
 1901              		.type	USBD1, %object
 1902              		.size	USBD1, 132
 1903              	USBD1:
 1904 0000 00000000 		.space	132
 1904      00000000 
 1904      00000000 
 1904      00000000 
 1904      00000000 
 1905              		.section	.rodata.str1.4,"aMS",%progbits,1
 1906              		.align	2
 1907              	.LC0:
 1908 0000 7573625F 		.ascii	"usb_pm_alloc(), #1\000"
 1908      706D5F61 
 1908      6C6C6F63 
 1908      28292C20 
 1908      233100
 1909 0013 00       		.section	.rodata.CSWTCH.21,"a",%progbits
 1910              		.align	2
 1911              		.set	.LANCHOR1,. + 0
 1912              		.type	CSWTCH.21, %object
 1913              		.size	CSWTCH.21, 6
 1914              	CSWTCH.21:
 1915 0000 0004     		.short	1024
ARM GAS  /tmp/cc9COLsi.s 			page 35


 1916 0002 0000     		.short	0
 1917 0004 0006     		.short	1536
 1918 0006 0000     		.section	.bss.ep0_state,"aw",%nobits
 1919              		.align	2
 1920              		.type	ep0_state, %object
 1921              		.size	ep0_state, 20
 1922              	ep0_state:
 1923 0000 00000000 		.space	20
 1923      00000000 
 1923      00000000 
 1923      00000000 
 1923      00000000 
 1924              		.section	.bss.ep0setup_buffer,"aw",%nobits
 1925              		.align	2
 1926              		.type	ep0setup_buffer, %object
 1927              		.size	ep0setup_buffer, 8
 1928              	ep0setup_buffer:
 1929 0000 00000000 		.space	8
 1929      00000000 
 1930              		.section	.rodata.ep0config,"a",%progbits
 1931              		.align	2
 1932              		.set	.LANCHOR2,. + 0
 1933              		.type	ep0config, %object
 1934              		.size	ep0config, 36
 1935              	ep0config:
 1936 0000 00000000 		.word	0
 1937 0004 00000000 		.word	_usb_ep0setup
 1938 0008 00000000 		.word	_usb_ep0in
 1939 000c 00000000 		.word	_usb_ep0out
 1940 0010 4000     		.short	64
 1941 0012 4000     		.short	64
 1942 0014 00000000 		.word	ep0_state
 1943 0018 00000000 		.word	ep0_state
 1944 001c 0100     		.short	1
 1945 001e 0000     		.space	2
 1946 0020 00000000 		.word	ep0setup_buffer
 1947              		.text
 1948              	.Letext0:
 1949              		.file 3 "/usr/lib/gcc/arm-none-eabi/4.8/include/stddef.h"
 1950              		.file 4 "/usr/include/newlib/machine/_default_types.h"
 1951              		.file 5 "/usr/include/newlib/stdint.h"
 1952              		.file 6 "../../../../os/ports/GCC/ARMCMx/chtypes.h"
 1953              		.file 7 "../../../../os/kernel/include/chlists.h"
 1954              		.file 8 "../../../../os/kernel/include/chthreads.h"
 1955              		.file 9 "../../../../os/ports/GCC/ARMCMx/chcore_v7m.h"
 1956              		.file 10 "../../../../os/kernel/include/chmtx.h"
 1957              		.file 11 "../../../../os/kernel/include/chqueues.h"
 1958              		.file 12 "../../../../os/hal/platforms/STM32F30x/stm32f30x.h"
 1959              		.file 13 "../../../../os/hal/include/usb.h"
 1960              		.file 14 "../../../../os/hal/platforms/STM32/USBv1/usb_lld.h"
 1961              		.file 15 "../../../../os/hal/platforms/STM32/USBv1/stm32_usb.h"
 1962              		.file 16 "../../../../os/kernel/include/chdebug.h"
 1963              		.file 17 "../../../../os/ports/common/ARMCMx/CMSIS/include/core_cm4.h"
 1964              		.file 18 "../../../../os/ports/common/ARMCMx/nvic.h"
 1965              		.file 19 "../../../../os/kernel/include/chschd.h"