ARM GAS  /tmp/ccO6dp2g.s 			page 1


   1              		.syntax unified
   2              		.cpu cortex-m4
   3              		.eabi_attribute 27, 3
   4              		.fpu fpv4-sp-d16
   5              		.eabi_attribute 20, 1
   6              		.eabi_attribute 21, 1
   7              		.eabi_attribute 23, 3
   8              		.eabi_attribute 24, 1
   9              		.eabi_attribute 25, 1
  10              		.eabi_attribute 26, 1
  11              		.eabi_attribute 30, 2
  12              		.eabi_attribute 34, 1
  13              		.eabi_attribute 18, 4
  14              		.thumb
  15              		.file	"adc_lld.c"
  16              		.text
  17              	.Ltext0:
  18              		.cfi_sections	.debug_frame
  19              		.section	.text.adc_lld_init,"ax",%progbits
  20              		.align	2
  21              		.p2align 4,,15
  22              		.global	adc_lld_init
  23              		.thumb
  24              		.thumb_func
  25              		.type	adc_lld_init, %function
  26              	adc_lld_init:
  27              	.LFB127:
  28              		.file 1 "../../../../os/hal/platforms/STM32F30x/adc_lld.c"
  29              		.loc 1 323 0
  30              		.cfi_startproc
  31              		@ args = 0, pretend = 0, frame = 0
  32              		@ frame_needed = 0, uses_anonymous_args = 0
  33 0000 38B5     		push	{r3, r4, r5, lr}
  34              		.cfi_def_cfa_offset 16
  35              		.cfi_offset 3, -16
  36              		.cfi_offset 4, -12
  37              		.cfi_offset 5, -8
  38              		.cfi_offset 14, -4
  39              		.loc 1 327 0
  40 0002 0A4C     		ldr	r4, .L2
  41 0004 2046     		mov	r0, r4
  42 0006 FFF7FEFF 		bl	adcObjectInit
  43              	.LVL0:
  44              		.loc 1 328 0
  45 000a 094B     		ldr	r3, .L2+4
  46 000c A362     		str	r3, [r4, #40]
  47              		.loc 1 329 0
  48 000e 4FF0A045 		mov	r5, #1342177280
  49              		.loc 1 334 0
  50 0012 42F28A53 		movw	r3, #9610
  51              		.loc 1 333 0
  52 0016 074A     		ldr	r2, .L2+8
  53              		.loc 1 329 0
  54 0018 E562     		str	r5, [r4, #44]
  55              		.loc 1 333 0
  56 001a 2263     		str	r2, [r4, #48]
  57              		.loc 1 334 0
ARM GAS  /tmp/ccO6dp2g.s 			page 2


  58 001c 6363     		str	r3, [r4, #52]
  59              		.loc 1 339 0
  60 001e 1220     		movs	r0, #18
  61 0020 5021     		movs	r1, #80
  62              		.loc 1 364 0
  63 0022 BDE83840 		pop	{r3, r4, r5, lr}
  64              		.loc 1 339 0
  65 0026 FFF7FEBF 		b	nvicEnableVector
  66              	.LVL1:
  67              	.L3:
  68 002a 00BF     		.align	2
  69              	.L2:
  70 002c 00000000 		.word	.LANCHOR0
  71 0030 00030050 		.word	1342178048
  72 0034 00000000 		.word	_stm32_dma_streams
  73              		.cfi_endproc
  74              	.LFE127:
  75              		.size	adc_lld_init, .-adc_lld_init
  76 0038 AFF30080 		.section	.text.adc_lld_start,"ax",%progbits
  76      AFF30080 
  77              		.align	2
  78              		.p2align 4,,15
  79              		.global	adc_lld_start
  80              		.thumb
  81              		.thumb_func
  82              		.type	adc_lld_start, %function
  83              	adc_lld_start:
  84              	.LFB128:
  85              		.loc 1 373 0
  86              		.cfi_startproc
  87              		@ args = 0, pretend = 0, frame = 0
  88              		@ frame_needed = 0, uses_anonymous_args = 0
  89              	.LVL2:
  90 0000 F8B5     		push	{r3, r4, r5, r6, r7, lr}
  91              		.cfi_def_cfa_offset 24
  92              		.cfi_offset 3, -24
  93              		.cfi_offset 4, -20
  94              		.cfi_offset 5, -16
  95              		.cfi_offset 6, -12
  96              		.cfi_offset 7, -8
  97              		.cfi_offset 14, -4
  98              		.loc 1 376 0
  99 0002 0378     		ldrb	r3, [r0]	@ zero_extendqisi2
 100 0004 012B     		cmp	r3, #1
 101              		.loc 1 373 0
 102 0006 0446     		mov	r4, r0
 103              		.loc 1 376 0
 104 0008 00D0     		beq	.L20
 105 000a F8BD     		pop	{r3, r4, r5, r6, r7, pc}
 106              	.L20:
 107              		.loc 1 378 0
 108 000c 1F4B     		ldr	r3, .L23
 109 000e 9842     		cmp	r0, r3
 110 0010 2AD0     		beq	.L21
 111              	.LVL3:
 112              	.L6:
 113              		.loc 1 405 0
ARM GAS  /tmp/ccO6dp2g.s 			page 3


 114 0012 226B     		ldr	r2, [r4, #48]
 115 0014 E36A     		ldr	r3, [r4, #44]
 116 0016 1068     		ldr	r0, [r2]
 117              		.loc 1 409 0
 118 0018 A56A     		ldr	r5, [r4, #40]
 119              		.loc 1 405 0
 120 001a 03F14007 		add	r7, r3, #64
 121              	.LBB34:
 122              	.LBB35:
 123              		.loc 1 89 0
 124 001e 4FF08052 		mov	r2, #268435456
 125              		.loc 1 88 0
 126 0022 0021     		movs	r1, #0
 127              	.LBE35:
 128              	.LBE34:
 129              		.loc 1 409 0
 130 0024 4FF48036 		mov	r6, #65536
 131              		.loc 1 405 0
 132 0028 8760     		str	r7, [r0, #8]
 133              		.loc 1 409 0
 134 002a AE60     		str	r6, [r5, #8]
 135              	.LVL4:
 136              	.LBB37:
 137              	.LBB36:
 138              		.loc 1 93 0
 139 002c 4FF43470 		mov	r0, #720
 140              		.loc 1 88 0
 141 0030 9960     		str	r1, [r3, #8]
 142              		.loc 1 89 0
 143 0032 9A60     		str	r2, [r3, #8]
 144              		.loc 1 93 0
 145 0034 FFF7FEFF 		bl	halPolledDelay
 146              	.LVL5:
 147              	.LBE36:
 148              	.LBE37:
 149              	.LBB38:
 150              	.LBB39:
 151              		.loc 1 151 0
 152 0038 E26A     		ldr	r2, [r4, #44]
 153 003a 9368     		ldr	r3, [r2, #8]
 154 003c B3F1805F 		cmp	r3, #268435456
 155 0040 03D0     		beq	.L8
 156 0042 1348     		ldr	r0, .L23+4
 157 0044 FFF7FEFF 		bl	chDbgPanic
 158              	.LVL6:
 159 0048 E26A     		ldr	r2, [r4, #44]
 160              	.L8:
 161              		.loc 1 153 0
 162 004a 9368     		ldr	r3, [r2, #8]
 163 004c 43F00043 		orr	r3, r3, #-2147483648
 164 0050 9360     		str	r3, [r2, #8]
 165              	.L10:
 166              		.loc 1 154 0
 167 0052 9368     		ldr	r3, [r2, #8]
 168 0054 002B     		cmp	r3, #0
 169 0056 FCDB     		blt	.L10
 170              	.LVL7:
ARM GAS  /tmp/ccO6dp2g.s 			page 4


 171              	.LBE39:
 172              	.LBE38:
 173              	.LBB40:
 174              	.LBB41:
 175              		.loc 1 117 0
 176 0058 9368     		ldr	r3, [r2, #8]
 177 005a 43F00103 		orr	r3, r3, #1
 178 005e 9360     		str	r3, [r2, #8]
 179              	.L12:
 180              		.loc 1 118 0
 181 0060 1368     		ldr	r3, [r2]
 182 0062 DB07     		lsls	r3, r3, #31
 183 0064 FCD5     		bpl	.L12
 184 0066 F8BD     		pop	{r3, r4, r5, r6, r7, pc}
 185              	.LVL8:
 186              	.L21:
 187              	.LBE41:
 188              	.LBE40:
 189              	.LBB42:
 190              		.loc 1 380 0
 191 0068 006B     		ldr	r0, [r0, #48]
 192              	.LVL9:
 193 006a 0A4A     		ldr	r2, .L23+8
 194 006c 0521     		movs	r1, #5
 195 006e 2346     		mov	r3, r4
 196 0070 FFF7FEFF 		bl	dmaStreamAllocate
 197              	.LVL10:
 198              		.loc 1 384 0
 199 0074 28B9     		cbnz	r0, .L22
 200              	.LVL11:
 201              	.L7:
 202              		.loc 1 385 0
 203 0076 084B     		ldr	r3, .L23+12
 204 0078 5A69     		ldr	r2, [r3, #20]
 205 007a 42F08052 		orr	r2, r2, #268435456
 206 007e 5A61     		str	r2, [r3, #20]
 207 0080 C7E7     		b	.L6
 208              	.LVL12:
 209              	.L22:
 210              		.loc 1 384 0 discriminator 1
 211 0082 0648     		ldr	r0, .L23+16
 212              	.LVL13:
 213 0084 FFF7FEFF 		bl	chDbgPanic
 214              	.LVL14:
 215 0088 F5E7     		b	.L7
 216              	.L24:
 217 008a 00BF     		.align	2
 218              	.L23:
 219 008c 00000000 		.word	.LANCHOR0
 220 0090 14000000 		.word	.LC1
 221 0094 00000000 		.word	adc_lld_serve_dma_interrupt
 222 0098 00100240 		.word	1073876992
 223 009c 00000000 		.word	.LC0
 224              	.LBE42:
 225              		.cfi_endproc
 226              	.LFE128:
 227              		.size	adc_lld_start, .-adc_lld_start
ARM GAS  /tmp/ccO6dp2g.s 			page 5


 228              		.section	.text.adc_lld_stop,"ax",%progbits
 229              		.align	2
 230              		.p2align 4,,15
 231              		.global	adc_lld_stop
 232              		.thumb
 233              		.thumb_func
 234              		.type	adc_lld_stop, %function
 235              	adc_lld_stop:
 236              	.LFB129:
 237              		.loc 1 427 0
 238              		.cfi_startproc
 239              		@ args = 0, pretend = 0, frame = 0
 240              		@ frame_needed = 0, uses_anonymous_args = 0
 241              	.LVL15:
 242              		.loc 1 430 0
 243 0000 0378     		ldrb	r3, [r0]	@ zero_extendqisi2
 244 0002 022B     		cmp	r3, #2
 245              		.loc 1 427 0
 246 0004 10B5     		push	{r4, lr}
 247              		.cfi_def_cfa_offset 8
 248              		.cfi_offset 4, -8
 249              		.cfi_offset 14, -4
 250              		.loc 1 427 0
 251 0006 0446     		mov	r4, r0
 252              		.loc 1 430 0
 253 0008 00D0     		beq	.L37
 254              	.LVL16:
 255              	.L25:
 256 000a 10BD     		pop	{r4, pc}
 257              	.LVL17:
 258              	.L37:
 259              		.loc 1 433 0
 260 000c 006B     		ldr	r0, [r0, #48]
 261              	.LVL18:
 262 000e FFF7FEFF 		bl	dmaStreamRelease
 263              	.LVL19:
 264              		.loc 1 427 0
 265 0012 E26A     		ldr	r2, [r4, #44]
 266              	.LVL20:
 267              	.LBB43:
 268              	.LBB44:
 269              		.loc 1 172 0
 270 0014 9368     		ldr	r3, [r2, #8]
 271 0016 5907     		lsls	r1, r3, #29
 272 0018 06D5     		bpl	.L30
 273              		.loc 1 173 0
 274 001a 9368     		ldr	r3, [r2, #8]
 275 001c 43F01003 		orr	r3, r3, #16
 276 0020 9360     		str	r3, [r2, #8]
 277              	.L31:
 278              		.loc 1 174 0
 279 0022 9368     		ldr	r3, [r2, #8]
 280 0024 DB06     		lsls	r3, r3, #27
 281 0026 FCD4     		bmi	.L31
 282              	.L30:
 283              	.LVL21:
 284              	.LBE44:
ARM GAS  /tmp/ccO6dp2g.s 			page 6


 285              	.LBE43:
 286              	.LBB45:
 287              	.LBB46:
 288              		.loc 1 134 0
 289 0028 9368     		ldr	r3, [r2, #8]
 290 002a 43F00203 		orr	r3, r3, #2
 291 002e 9360     		str	r3, [r2, #8]
 292              	.L29:
 293              		.loc 1 135 0
 294 0030 9368     		ldr	r3, [r2, #8]
 295 0032 13F00203 		ands	r3, r3, #2
 296 0036 FBD1     		bne	.L29
 297              	.LVL22:
 298              	.LBE46:
 299              	.LBE45:
 300              		.loc 1 443 0
 301 0038 0749     		ldr	r1, .L38
 302              	.LBB47:
 303              	.LBB48:
 304              		.loc 1 103 0
 305 003a 9360     		str	r3, [r2, #8]
 306              	.LBE48:
 307              	.LBE47:
 308              		.loc 1 443 0
 309 003c 8C42     		cmp	r4, r1
 310              	.LBB50:
 311              	.LBB49:
 312              		.loc 1 104 0
 313 003e 4FF00053 		mov	r3, #536870912
 314 0042 9360     		str	r3, [r2, #8]
 315              	.LBE49:
 316              	.LBE50:
 317              		.loc 1 443 0
 318 0044 E1D1     		bne	.L25
 319              		.loc 1 444 0
 320 0046 03F10053 		add	r3, r3, #536870912
 321 004a 03F50433 		add	r3, r3, #135168
 322 004e 5A69     		ldr	r2, [r3, #20]
 323 0050 22F08052 		bic	r2, r2, #268435456
 324 0054 5A61     		str	r2, [r3, #20]
 325 0056 D8E7     		b	.L25
 326              	.L39:
 327              		.align	2
 328              	.L38:
 329 0058 00000000 		.word	.LANCHOR0
 330              		.cfi_endproc
 331              	.LFE129:
 332              		.size	adc_lld_stop, .-adc_lld_stop
 333 005c AFF30080 		.section	.text.adc_lld_start_conversion,"ax",%progbits
 334              		.align	2
 335              		.p2align 4,,15
 336              		.global	adc_lld_start_conversion
 337              		.thumb
 338              		.thumb_func
 339              		.type	adc_lld_start_conversion, %function
 340              	adc_lld_start_conversion:
 341              	.LFB130:
ARM GAS  /tmp/ccO6dp2g.s 			page 7


 342              		.loc 1 461 0
 343              		.cfi_startproc
 344              		@ args = 0, pretend = 0, frame = 8
 345              		@ frame_needed = 0, uses_anonymous_args = 0
 346              		@ link register save eliminated.
 347              	.LVL23:
 348 0000 2DE9F00F 		push	{r4, r5, r6, r7, r8, r9, r10, fp}
 349              		.cfi_def_cfa_offset 32
 350              		.cfi_offset 4, -32
 351              		.cfi_offset 5, -28
 352              		.cfi_offset 6, -24
 353              		.cfi_offset 7, -20
 354              		.cfi_offset 8, -16
 355              		.cfi_offset 9, -12
 356              		.cfi_offset 10, -8
 357              		.cfi_offset 11, -4
 358              		.loc 1 471 0
 359 0004 816A     		ldr	r1, [r0, #40]
 360              		.loc 1 463 0
 361 0006 0269     		ldr	r2, [r0, #16]
 362              	.LVL24:
 363              		.loc 1 471 0
 364 0008 8F68     		ldr	r7, [r1, #8]
 365              		.loc 1 473 0
 366 000a D468     		ldr	r4, [r2, #12]
 367              		.loc 1 474 0
 368 000c 1678     		ldrb	r6, [r2]	@ zero_extendqisi2
 369              		.loc 1 470 0
 370 000e 436B     		ldr	r3, [r0, #52]
 371              	.LVL25:
 372              		.loc 1 461 0
 373 0010 82B0     		sub	sp, sp, #8
 374              		.cfi_def_cfa_offset 40
 375              		.loc 1 471 0
 376 0012 07F47038 		and	r8, r7, #245760
 377 0016 0191     		str	r1, [sp, #4]
 378 0018 5169     		ldr	r1, [r2, #20]
 379              		.loc 1 479 0
 380 001a 44F40054 		orr	r4, r4, #8192
 381              		.loc 1 471 0
 382 001e 48EA0108 		orr	r8, r8, r1
 383              	.LVL26:
 384              		.loc 1 474 0
 385 0022 002E     		cmp	r6, #0
 386 0024 3CD1     		bne	.L41
 387              		.loc 1 473 0
 388 0026 44F00104 		orr	r4, r4, #1
 389              	.L42:
 390              	.LVL27:
 391              		.loc 1 484 0
 392 002a C768     		ldr	r7, [r0, #12]
 393              		.loc 1 489 0
 394 002c 016B     		ldr	r1, [r0, #48]
 395              		.loc 1 494 0
 396 002e 5688     		ldrh	r6, [r2, #2]
 397              		.loc 1 489 0
 398 0030 0968     		ldr	r1, [r1]
ARM GAS  /tmp/ccO6dp2g.s 			page 8


 399 0032 8568     		ldr	r5, [r0, #8]
 400 0034 CD60     		str	r5, [r1, #12]
 401              		.loc 1 484 0
 402 0036 012F     		cmp	r7, #1
 403              		.loc 1 487 0
 404 0038 88BF     		it	hi
 405 003a 43F00403 		orrhi	r3, r3, #4
 406              	.LVL28:
 407              		.loc 1 494 0
 408 003e 07FB06F7 		mul	r7, r7, r6
 409 0042 4F60     		str	r7, [r1, #4]
 410              		.loc 1 497 0
 411 0044 0B60     		str	r3, [r1]
 412              		.loc 1 498 0
 413 0046 D1F800A0 		ldr	r10, [r1]
 414              		.loc 1 507 0
 415 004a C36A     		ldr	r3, [r0, #44]
 416              	.LVL29:
 417              		.loc 1 527 0
 418 004c D2F820B0 		ldr	fp, [r2, #32]
 419              		.loc 1 509 0
 420 0050 D2F81090 		ldr	r9, [r2, #16]
 421              		.loc 1 525 0
 422 0054 D2F818C0 		ldr	ip, [r2, #24]
 423              		.loc 1 526 0
 424 0058 D769     		ldr	r7, [r2, #28]
 425              		.loc 1 528 0
 426 005a 506A     		ldr	r0, [r2, #36]
 427              	.LVL30:
 428              		.loc 1 498 0
 429 005c 4AF0010A 		orr	r10, r10, #1
 430 0060 C1F800A0 		str	r10, [r1]
 431              	.LVL31:
 432              		.loc 1 503 0
 433 0064 0199     		ldr	r1, [sp, #4]
 434 0066 C1F80880 		str	r8, [r1, #8]
 435              		.loc 1 507 0
 436 006a 1D68     		ldr	r5, [r3]
 437              		.loc 1 529 0
 438 006c 916A     		ldr	r1, [r2, #40]
 439              		.loc 1 530 0
 440 006e D26A     		ldr	r2, [r2, #44]
 441              	.LVL32:
 442              		.loc 1 507 0
 443 0070 1D60     		str	r5, [r3]
 444              		.loc 1 527 0
 445 0072 013E     		subs	r6, r6, #1
 446              		.loc 1 508 0
 447 0074 9025     		movs	r5, #144
 448              		.loc 1 527 0
 449 0076 46EA0B06 		orr	r6, r6, fp
 450              		.loc 1 508 0
 451 007a 5D60     		str	r5, [r3, #4]
 452              		.loc 1 509 0
 453 007c C3F82090 		str	r9, [r3, #32]
 454              		.loc 1 525 0
 455 0080 C3F814C0 		str	ip, [r3, #20]
ARM GAS  /tmp/ccO6dp2g.s 			page 9


 456              		.loc 1 526 0
 457 0084 9F61     		str	r7, [r3, #24]
 458              		.loc 1 527 0
 459 0086 1E63     		str	r6, [r3, #48]
 460              		.loc 1 528 0
 461 0088 5863     		str	r0, [r3, #52]
 462              		.loc 1 529 0
 463 008a 9963     		str	r1, [r3, #56]
 464              		.loc 1 530 0
 465 008c DA63     		str	r2, [r3, #60]
 466              		.loc 1 534 0
 467 008e DC60     		str	r4, [r3, #12]
 468              		.loc 1 537 0
 469 0090 9A68     		ldr	r2, [r3, #8]
 470 0092 42F00402 		orr	r2, r2, #4
 471 0096 9A60     		str	r2, [r3, #8]
 472              		.loc 1 538 0
 473 0098 02B0     		add	sp, sp, #8
 474              		@ sp needed
 475 009a BDE8F00F 		pop	{r4, r5, r6, r7, r8, r9, r10, fp}
 476              	.LVL33:
 477 009e 7047     		bx	lr
 478              	.LVL34:
 479              	.L41:
 480              		.loc 1 479 0
 481 00a0 44F00304 		orr	r4, r4, #3
 482              		.loc 1 475 0
 483 00a4 43F02003 		orr	r3, r3, #32
 484              	.LVL35:
 485 00a8 BFE7     		b	.L42
 486              		.cfi_endproc
 487              	.LFE130:
 488              		.size	adc_lld_start_conversion, .-adc_lld_start_conversion
 489 00aa 00BFAFF3 		.section	.text.adc_lld_stop_conversion,"ax",%progbits
 489      0080
 490              		.align	2
 491              		.p2align 4,,15
 492              		.global	adc_lld_stop_conversion
 493              		.thumb
 494              		.thumb_func
 495              		.type	adc_lld_stop_conversion, %function
 496              	adc_lld_stop_conversion:
 497              	.LFB131:
 498              		.loc 1 547 0
 499              		.cfi_startproc
 500              		@ args = 0, pretend = 0, frame = 0
 501              		@ frame_needed = 0, uses_anonymous_args = 0
 502              		@ link register save eliminated.
 503              	.LVL36:
 504              		.loc 1 549 0
 505 0000 036B     		ldr	r3, [r0, #48]
 506 0002 1A68     		ldr	r2, [r3]
 507 0004 5968     		ldr	r1, [r3, #4]
 508              		.loc 1 547 0
 509 0006 30B4     		push	{r4, r5}
 510              		.cfi_def_cfa_offset 8
 511              		.cfi_offset 4, -8
ARM GAS  /tmp/ccO6dp2g.s 			page 10


 512              		.cfi_offset 5, -4
 513              		.loc 1 549 0
 514 0008 1568     		ldr	r5, [r2]
 515 000a 25F00F05 		bic	r5, r5, #15
 516 000e 1560     		str	r5, [r2]
 517 0010 1B7A     		ldrb	r3, [r3, #8]	@ zero_extendqisi2
 518 0012 0F24     		movs	r4, #15
 519 0014 04FA03F3 		lsl	r3, r4, r3
 520 0018 0B60     		str	r3, [r1]
 521              		.loc 1 547 0
 522 001a C26A     		ldr	r2, [r0, #44]
 523              	.LVL37:
 524              	.LBB51:
 525              	.LBB52:
 526              		.loc 1 172 0
 527 001c 9368     		ldr	r3, [r2, #8]
 528 001e 5907     		lsls	r1, r3, #29
 529 0020 06D5     		bpl	.L44
 530              		.loc 1 173 0
 531 0022 9368     		ldr	r3, [r2, #8]
 532 0024 43F01003 		orr	r3, r3, #16
 533 0028 9360     		str	r3, [r2, #8]
 534              	.L47:
 535              		.loc 1 174 0
 536 002a 9368     		ldr	r3, [r2, #8]
 537 002c DB06     		lsls	r3, r3, #27
 538 002e FCD4     		bmi	.L47
 539              	.L44:
 540              	.LBE52:
 541              	.LBE51:
 542              		.loc 1 551 0
 543 0030 30BC     		pop	{r4, r5}
 544 0032 7047     		bx	lr
 545              		.cfi_endproc
 546              	.LFE131:
 547              		.size	adc_lld_stop_conversion, .-adc_lld_stop_conversion
 548              		.section	.text.adc_lld_serve_dma_interrupt,"ax",%progbits
 549              		.align	2
 550              		.p2align 4,,15
 551              		.thumb
 552              		.thumb_func
 553              		.type	adc_lld_serve_dma_interrupt, %function
 554              	adc_lld_serve_dma_interrupt:
 555              	.LFB124:
 556              		.loc 1 185 0
 557              		.cfi_startproc
 558              		@ args = 0, pretend = 0, frame = 0
 559              		@ frame_needed = 0, uses_anonymous_args = 0
 560              	.LVL38:
 561 0000 38B5     		push	{r3, r4, r5, lr}
 562              		.cfi_def_cfa_offset 16
 563              		.cfi_offset 3, -16
 564              		.cfi_offset 4, -12
 565              		.cfi_offset 5, -8
 566              		.cfi_offset 14, -4
 567              		.loc 1 185 0
 568 0002 0D46     		mov	r5, r1
ARM GAS  /tmp/ccO6dp2g.s 			page 11


 569              		.loc 1 188 0
 570 0004 2907     		lsls	r1, r5, #28
 571              	.LVL39:
 572              		.loc 1 185 0
 573 0006 0446     		mov	r4, r0
 574              		.loc 1 188 0
 575 0008 20D4     		bmi	.L89
 576              		.loc 1 196 0
 577 000a 0369     		ldr	r3, [r0, #16]
 578 000c 002B     		cmp	r3, #0
 579 000e 41D0     		beq	.L51
 580              		.loc 1 197 0
 581 0010 6A07     		lsls	r2, r5, #29
 582 0012 05D5     		bpl	.L59
 583              		.loc 1 199 0
 584 0014 5B68     		ldr	r3, [r3, #4]
 585 0016 1BB1     		cbz	r3, .L59
 586              		.loc 1 199 0 is_stmt 0 discriminator 1
 587 0018 C268     		ldr	r2, [r0, #12]
 588 001a 8168     		ldr	r1, [r0, #8]
 589 001c 5208     		lsrs	r2, r2, #1
 590 001e 9847     		blx	r3
 591              	.LVL40:
 592              	.L59:
 593              		.loc 1 201 0 is_stmt 1
 594 0020 AB07     		lsls	r3, r5, #30
 595 0022 37D5     		bpl	.L51
 596              		.loc 1 203 0
 597 0024 2369     		ldr	r3, [r4, #16]
 598 0026 1A78     		ldrb	r2, [r3]	@ zero_extendqisi2
 599 0028 002A     		cmp	r2, #0
 600 002a 38D0     		beq	.L61
 601              		.loc 1 203 0 is_stmt 0 discriminator 1
 602 002c 5D68     		ldr	r5, [r3, #4]
 603              	.LVL41:
 604 002e 002D     		cmp	r5, #0
 605 0030 30D0     		beq	.L51
 606 0032 E268     		ldr	r2, [r4, #12]
 607 0034 012A     		cmp	r2, #1
 608 0036 2ED9     		bls	.L62
 609              	.LBB53:
 610 0038 5988     		ldrh	r1, [r3, #2]
 611 003a A368     		ldr	r3, [r4, #8]
 612 003c 5208     		lsrs	r2, r2, #1
 613              	.LVL42:
 614 003e 01FB02F1 		mul	r1, r1, r2
 615 0042 03EB4101 		add	r1, r3, r1, lsl #1
 616 0046 2046     		mov	r0, r4
 617 0048 A847     		blx	r5
 618              	.LVL43:
 619              	.LBE53:
 620 004a 38BD     		pop	{r3, r4, r5, pc}
 621              	.LVL44:
 622              	.L89:
 623              		.loc 1 191 0 is_stmt 1
 624 004c FFF7FEFF 		bl	adc_lld_stop_conversion
 625              	.LVL45:
ARM GAS  /tmp/ccO6dp2g.s 			page 12


 626 0050 2369     		ldr	r3, [r4, #16]
 627 0052 9B68     		ldr	r3, [r3, #8]
 628 0054 4BB1     		cbz	r3, .L54
 629              		.loc 1 191 0 is_stmt 0 discriminator 1
 630 0056 0522     		movs	r2, #5
 631 0058 2270     		strb	r2, [r4]
 632 005a 2046     		mov	r0, r4
 633 005c 0021     		movs	r1, #0
 634 005e 9847     		blx	r3
 635              	.LVL46:
 636 0060 2378     		ldrb	r3, [r4]	@ zero_extendqisi2
 637 0062 052B     		cmp	r3, #5
 638 0064 04BF     		itt	eq
 639 0066 0223     		moveq	r3, #2
 640 0068 2370     		strbeq	r3, [r4]
 641              	.L54:
 642              		.loc 1 191 0 discriminator 2
 643 006a 0025     		movs	r5, #0
 644              	.LVL47:
 645 006c 2561     		str	r5, [r4, #16]
 646              	.LBB54:
 647 006e 2023     		movs	r3, #32
 648              	@ 191 "../../../../os/hal/platforms/STM32F30x/adc_lld.c" 1
 649 0070 83F31188 		msr     BASEPRI, r3
 650              	@ 0 "" 2
 651              		.thumb
 652              	.LBE54:
 653 0074 FFF7FEFF 		bl	dbg_check_lock_from_isr
 654              	.LVL48:
 655 0078 6369     		ldr	r3, [r4, #20]
 656 007a 33B1     		cbz	r3, .L67
 657              	.LVL49:
 658              	.LBB55:
 659              		.loc 1 191 0 discriminator 1
 660 007c 4FF0FF32 		mov	r2, #-1
 661 0080 6561     		str	r5, [r4, #20]
 662 0082 1846     		mov	r0, r3
 663 0084 9A62     		str	r2, [r3, #40]
 664 0086 FFF7FEFF 		bl	chSchReadyI
 665              	.LVL50:
 666              	.L67:
 667              	.LBE55:
 668              		.loc 1 203 0 is_stmt 1 discriminator 2
 669 008a FFF7FEFF 		bl	dbg_check_unlock_from_isr
 670              	.LVL51:
 671              	.LBB56:
 672 008e 0023     		movs	r3, #0
 673              	@ 203 "../../../../os/hal/platforms/STM32F30x/adc_lld.c" 1
 674 0090 83F31188 		msr     BASEPRI, r3
 675              	@ 0 "" 2
 676              		.thumb
 677              	.L51:
 678 0094 38BD     		pop	{r3, r4, r5, pc}
 679              	.LVL52:
 680              	.L62:
 681              	.LBE56:
 682 0096 2046     		mov	r0, r4
ARM GAS  /tmp/ccO6dp2g.s 			page 13


 683 0098 A168     		ldr	r1, [r4, #8]
 684 009a A847     		blx	r5
 685              	.LVL53:
 686 009c 38BD     		pop	{r3, r4, r5, pc}
 687              	.LVL54:
 688              	.L61:
 689 009e 2046     		mov	r0, r4
 690 00a0 FFF7FEFF 		bl	adc_lld_stop_conversion
 691              	.LVL55:
 692 00a4 2169     		ldr	r1, [r4, #16]
 693 00a6 4B68     		ldr	r3, [r1, #4]
 694 00a8 FBB1     		cbz	r3, .L63
 695              		.loc 1 203 0 is_stmt 0 discriminator 1
 696 00aa E268     		ldr	r2, [r4, #12]
 697 00ac 0420     		movs	r0, #4
 698 00ae 012A     		cmp	r2, #1
 699 00b0 2070     		strb	r0, [r4]
 700 00b2 1FD9     		bls	.L64
 701              	.LBB57:
 702 00b4 4888     		ldrh	r0, [r1, #2]
 703 00b6 A168     		ldr	r1, [r4, #8]
 704 00b8 5208     		lsrs	r2, r2, #1
 705              	.LVL56:
 706 00ba 00FB02F0 		mul	r0, r0, r2
 707 00be 01EB4001 		add	r1, r1, r0, lsl #1
 708 00c2 2046     		mov	r0, r4
 709 00c4 9847     		blx	r3
 710              	.LVL57:
 711              	.L65:
 712              	.LBE57:
 713 00c6 2378     		ldrb	r3, [r4]	@ zero_extendqisi2
 714 00c8 042B     		cmp	r3, #4
 715 00ca 0ED0     		beq	.L63
 716              	.L66:
 717              	.LBB58:
 718 00cc 2023     		movs	r3, #32
 719              	@ 203 "../../../../os/hal/platforms/STM32F30x/adc_lld.c" 1
 720 00ce 83F31188 		msr     BASEPRI, r3
 721              	@ 0 "" 2
 722              		.thumb
 723              	.LBE58:
 724 00d2 FFF7FEFF 		bl	dbg_check_lock_from_isr
 725              	.LVL58:
 726 00d6 6369     		ldr	r3, [r4, #20]
 727 00d8 002B     		cmp	r3, #0
 728 00da D6D0     		beq	.L67
 729              	.LVL59:
 730              	.LBB59:
 731 00dc 0022     		movs	r2, #0
 732 00de 6261     		str	r2, [r4, #20]
 733 00e0 1846     		mov	r0, r3
 734 00e2 9A62     		str	r2, [r3, #40]
 735 00e4 FFF7FEFF 		bl	chSchReadyI
 736              	.LVL60:
 737 00e8 CFE7     		b	.L67
 738              	.L63:
 739              	.LBE59:
ARM GAS  /tmp/ccO6dp2g.s 			page 14


 740 00ea 0222     		movs	r2, #2
 741 00ec 0023     		movs	r3, #0
 742 00ee 2270     		strb	r2, [r4]
 743 00f0 2361     		str	r3, [r4, #16]
 744 00f2 EBE7     		b	.L66
 745              	.L64:
 746              		.loc 1 203 0 discriminator 2
 747 00f4 2046     		mov	r0, r4
 748 00f6 A168     		ldr	r1, [r4, #8]
 749 00f8 9847     		blx	r3
 750              	.LVL61:
 751 00fa E4E7     		b	.L65
 752              		.cfi_endproc
 753              	.LFE124:
 754              		.size	adc_lld_serve_dma_interrupt, .-adc_lld_serve_dma_interrupt
 755 00fc AFF30080 		.section	.text.Vector88,"ax",%progbits
 756              		.align	2
 757              		.p2align 4,,15
 758              		.global	Vector88
 759              		.thumb
 760              		.thumb_func
 761              		.type	Vector88, %function
 762              	Vector88:
 763              	.LFB126:
 764              		.loc 1 253 0 is_stmt 1
 765              		.cfi_startproc
 766              		@ args = 0, pretend = 0, frame = 0
 767              		@ frame_needed = 0, uses_anonymous_args = 0
 768 0000 F8B5     		push	{r3, r4, r5, r6, r7, lr}
 769              		.cfi_def_cfa_offset 24
 770              		.cfi_offset 3, -24
 771              		.cfi_offset 4, -20
 772              		.cfi_offset 5, -16
 773              		.cfi_offset 6, -12
 774              		.cfi_offset 7, -8
 775              		.cfi_offset 14, -4
 776              	.LBB74:
 777              	.LBB75:
 778              		.loc 1 219 0
 779 0002 604C     		ldr	r4, .L144
 780              	.LBE75:
 781              	.LBE74:
 782              		.loc 1 256 0
 783 0004 FFF7FEFF 		bl	dbg_check_enter_isr
 784              	.LVL62:
 785              		.loc 1 264 0
 786 0008 4FF0A043 		mov	r3, #1342177280
 787              	.LBB91:
 788              	.LBB88:
 789              		.loc 1 219 0
 790 000c 2269     		ldr	r2, [r4, #16]
 791              	.LBE88:
 792              	.LBE91:
 793              		.loc 1 264 0
 794 000e 1D68     		ldr	r5, [r3]
 795              	.LVL63:
 796              		.loc 1 265 0
ARM GAS  /tmp/ccO6dp2g.s 			page 15


 797 0010 1D60     		str	r5, [r3]
 798              	.LVL64:
 799              	.LBB92:
 800              	.LBB89:
 801              		.loc 1 219 0
 802 0012 42B1     		cbz	r2, .L92
 803              		.loc 1 222 0
 804 0014 E806     		lsls	r0, r5, #27
 805 0016 0CD4     		bmi	.L140
 806              	.L93:
 807              		.loc 1 228 0
 808 0018 2906     		lsls	r1, r5, #24
 809 001a 36D4     		bmi	.L141
 810              	.L98:
 811              		.loc 1 232 0
 812 001c EA05     		lsls	r2, r5, #23
 813 001e 5CD4     		bmi	.L142
 814              	.L103:
 815              		.loc 1 236 0
 816 0020 AB05     		lsls	r3, r5, #22
 817 0022 00F18380 		bmi	.L143
 818              	.L92:
 819              	.LBE89:
 820              	.LBE92:
 821              		.loc 1 270 0
 822 0026 FFF7FEFF 		bl	dbg_check_leave_isr
 823              	.LVL65:
 824              		.loc 1 271 0
 825 002a BDE8F840 		pop	{r3, r4, r5, r6, r7, lr}
 826              	.LVL66:
 827              		.loc 1 270 0
 828 002e FFF7FEBF 		b	_port_irq_epilogue
 829              	.LVL67:
 830              	.L140:
 831              	.LBB93:
 832              	.LBB90:
 833              		.loc 1 223 0
 834 0032 236B     		ldr	r3, [r4, #48]
 835 0034 1B68     		ldr	r3, [r3]
 836 0036 5B68     		ldr	r3, [r3, #4]
 837              		.loc 1 222 0
 838 0038 002B     		cmp	r3, #0
 839 003a EDD0     		beq	.L93
 840              		.loc 1 226 0
 841 003c 2046     		mov	r0, r4
 842 003e FFF7FEFF 		bl	adc_lld_stop_conversion
 843              	.LVL68:
 844 0042 2369     		ldr	r3, [r4, #16]
 845 0044 9B68     		ldr	r3, [r3, #8]
 846 0046 4BB1     		cbz	r3, .L95
 847 0048 0522     		movs	r2, #5
 848 004a 2270     		strb	r2, [r4]
 849 004c 2046     		mov	r0, r4
 850 004e 0121     		movs	r1, #1
 851 0050 9847     		blx	r3
 852              	.LVL69:
 853 0052 2378     		ldrb	r3, [r4]	@ zero_extendqisi2
ARM GAS  /tmp/ccO6dp2g.s 			page 16


 854 0054 052B     		cmp	r3, #5
 855 0056 04BF     		itt	eq
 856 0058 0223     		moveq	r3, #2
 857 005a 2370     		strbeq	r3, [r4]
 858              	.L95:
 859 005c 0026     		movs	r6, #0
 860 005e 2661     		str	r6, [r4, #16]
 861 0060 484F     		ldr	r7, .L144
 862              	.LBB76:
 863 0062 2023     		movs	r3, #32
 864              	@ 226 "../../../../os/hal/platforms/STM32F30x/adc_lld.c" 1
 865 0064 83F31188 		msr     BASEPRI, r3
 866              	@ 0 "" 2
 867              		.thumb
 868              	.LBE76:
 869 0068 FFF7FEFF 		bl	dbg_check_lock_from_isr
 870              	.LVL70:
 871 006c 6069     		ldr	r0, [r4, #20]
 872 006e 28B1     		cbz	r0, .L97
 873              	.LVL71:
 874              	.LBB77:
 875 0070 4FF0FF33 		mov	r3, #-1
 876 0074 8362     		str	r3, [r0, #40]
 877 0076 7E61     		str	r6, [r7, #20]
 878 0078 FFF7FEFF 		bl	chSchReadyI
 879              	.LVL72:
 880              	.L97:
 881              	.LBE77:
 882 007c FFF7FEFF 		bl	dbg_check_unlock_from_isr
 883              	.LVL73:
 884              	.LBB78:
 885 0080 0023     		movs	r3, #0
 886              	@ 226 "../../../../os/hal/platforms/STM32F30x/adc_lld.c" 1
 887 0082 83F31188 		msr     BASEPRI, r3
 888              	@ 0 "" 2
 889              		.thumb
 890              	.LBE78:
 891              		.loc 1 228 0
 892 0086 2906     		lsls	r1, r5, #24
 893 0088 C8D5     		bpl	.L98
 894              	.L141:
 895              		.loc 1 230 0
 896 008a 3E4E     		ldr	r6, .L144
 897 008c 3046     		mov	r0, r6
 898 008e FFF7FEFF 		bl	adc_lld_stop_conversion
 899              	.LVL74:
 900 0092 2369     		ldr	r3, [r4, #16]
 901 0094 9B68     		ldr	r3, [r3, #8]
 902 0096 4BB1     		cbz	r3, .L100
 903 0098 0522     		movs	r2, #5
 904 009a 3270     		strb	r2, [r6]
 905 009c 3046     		mov	r0, r6
 906 009e 0221     		movs	r1, #2
 907 00a0 9847     		blx	r3
 908              	.LVL75:
 909 00a2 3378     		ldrb	r3, [r6]	@ zero_extendqisi2
 910 00a4 052B     		cmp	r3, #5
ARM GAS  /tmp/ccO6dp2g.s 			page 17


 911 00a6 04BF     		itt	eq
 912 00a8 0223     		moveq	r3, #2
 913 00aa 3370     		strbeq	r3, [r6]
 914              	.L100:
 915 00ac 0026     		movs	r6, #0
 916 00ae 2661     		str	r6, [r4, #16]
 917 00b0 344F     		ldr	r7, .L144
 918              	.LBB79:
 919 00b2 2023     		movs	r3, #32
 920              	@ 230 "../../../../os/hal/platforms/STM32F30x/adc_lld.c" 1
 921 00b4 83F31188 		msr     BASEPRI, r3
 922              	@ 0 "" 2
 923              		.thumb
 924              	.LBE79:
 925 00b8 FFF7FEFF 		bl	dbg_check_lock_from_isr
 926              	.LVL76:
 927 00bc 6069     		ldr	r0, [r4, #20]
 928 00be 28B1     		cbz	r0, .L102
 929              	.LVL77:
 930              	.LBB80:
 931 00c0 4FF0FF33 		mov	r3, #-1
 932 00c4 8362     		str	r3, [r0, #40]
 933 00c6 7E61     		str	r6, [r7, #20]
 934 00c8 FFF7FEFF 		bl	chSchReadyI
 935              	.LVL78:
 936              	.L102:
 937              	.LBE80:
 938 00cc FFF7FEFF 		bl	dbg_check_unlock_from_isr
 939              	.LVL79:
 940              	.LBB81:
 941 00d0 0023     		movs	r3, #0
 942              	@ 230 "../../../../os/hal/platforms/STM32F30x/adc_lld.c" 1
 943 00d2 83F31188 		msr     BASEPRI, r3
 944              	@ 0 "" 2
 945              		.thumb
 946              	.LBE81:
 947              		.loc 1 232 0
 948 00d6 EA05     		lsls	r2, r5, #23
 949 00d8 A2D5     		bpl	.L103
 950              	.L142:
 951              		.loc 1 234 0
 952 00da 2A4E     		ldr	r6, .L144
 953 00dc 3046     		mov	r0, r6
 954 00de FFF7FEFF 		bl	adc_lld_stop_conversion
 955              	.LVL80:
 956 00e2 2369     		ldr	r3, [r4, #16]
 957 00e4 9B68     		ldr	r3, [r3, #8]
 958 00e6 4BB1     		cbz	r3, .L105
 959 00e8 0522     		movs	r2, #5
 960 00ea 3270     		strb	r2, [r6]
 961 00ec 3046     		mov	r0, r6
 962 00ee 0321     		movs	r1, #3
 963 00f0 9847     		blx	r3
 964              	.LVL81:
 965 00f2 3378     		ldrb	r3, [r6]	@ zero_extendqisi2
 966 00f4 052B     		cmp	r3, #5
 967 00f6 04BF     		itt	eq
ARM GAS  /tmp/ccO6dp2g.s 			page 18


 968 00f8 0223     		moveq	r3, #2
 969 00fa 3370     		strbeq	r3, [r6]
 970              	.L105:
 971 00fc 0026     		movs	r6, #0
 972 00fe 2661     		str	r6, [r4, #16]
 973 0100 204F     		ldr	r7, .L144
 974              	.LBB82:
 975 0102 2023     		movs	r3, #32
 976              	@ 234 "../../../../os/hal/platforms/STM32F30x/adc_lld.c" 1
 977 0104 83F31188 		msr     BASEPRI, r3
 978              	@ 0 "" 2
 979              		.thumb
 980              	.LBE82:
 981 0108 FFF7FEFF 		bl	dbg_check_lock_from_isr
 982              	.LVL82:
 983 010c 6069     		ldr	r0, [r4, #20]
 984 010e 28B1     		cbz	r0, .L107
 985              	.LVL83:
 986              	.LBB83:
 987 0110 4FF0FF33 		mov	r3, #-1
 988 0114 8362     		str	r3, [r0, #40]
 989 0116 7E61     		str	r6, [r7, #20]
 990 0118 FFF7FEFF 		bl	chSchReadyI
 991              	.LVL84:
 992              	.L107:
 993              	.LBE83:
 994 011c FFF7FEFF 		bl	dbg_check_unlock_from_isr
 995              	.LVL85:
 996              	.LBB84:
 997 0120 0023     		movs	r3, #0
 998              	@ 234 "../../../../os/hal/platforms/STM32F30x/adc_lld.c" 1
 999 0122 83F31188 		msr     BASEPRI, r3
 1000              	@ 0 "" 2
 1001              		.thumb
 1002              	.LBE84:
 1003              		.loc 1 236 0
 1004 0126 AB05     		lsls	r3, r5, #22
 1005 0128 7FF57DAF 		bpl	.L92
 1006              	.L143:
 1007              		.loc 1 238 0
 1008 012c 154D     		ldr	r5, .L144
 1009              	.LVL86:
 1010 012e 2846     		mov	r0, r5
 1011 0130 FFF7FEFF 		bl	adc_lld_stop_conversion
 1012              	.LVL87:
 1013 0134 2369     		ldr	r3, [r4, #16]
 1014 0136 9B68     		ldr	r3, [r3, #8]
 1015 0138 4BB1     		cbz	r3, .L110
 1016 013a 0522     		movs	r2, #5
 1017 013c 2A70     		strb	r2, [r5]
 1018 013e 2846     		mov	r0, r5
 1019 0140 0421     		movs	r1, #4
 1020 0142 9847     		blx	r3
 1021              	.LVL88:
 1022 0144 2B78     		ldrb	r3, [r5]	@ zero_extendqisi2
 1023 0146 052B     		cmp	r3, #5
 1024 0148 04BF     		itt	eq
ARM GAS  /tmp/ccO6dp2g.s 			page 19


 1025 014a 0223     		moveq	r3, #2
 1026 014c 2B70     		strbeq	r3, [r5]
 1027              	.L110:
 1028 014e 0025     		movs	r5, #0
 1029 0150 2561     		str	r5, [r4, #16]
 1030 0152 0C4E     		ldr	r6, .L144
 1031              	.LBB85:
 1032 0154 2023     		movs	r3, #32
 1033              	@ 238 "../../../../os/hal/platforms/STM32F30x/adc_lld.c" 1
 1034 0156 83F31188 		msr     BASEPRI, r3
 1035              	@ 0 "" 2
 1036              		.thumb
 1037              	.LBE85:
 1038 015a FFF7FEFF 		bl	dbg_check_lock_from_isr
 1039              	.LVL89:
 1040 015e 6069     		ldr	r0, [r4, #20]
 1041 0160 28B1     		cbz	r0, .L112
 1042              	.LVL90:
 1043              	.LBB86:
 1044 0162 4FF0FF33 		mov	r3, #-1
 1045 0166 8362     		str	r3, [r0, #40]
 1046 0168 7561     		str	r5, [r6, #20]
 1047 016a FFF7FEFF 		bl	chSchReadyI
 1048              	.LVL91:
 1049              	.L112:
 1050              	.LBE86:
 1051 016e FFF7FEFF 		bl	dbg_check_unlock_from_isr
 1052              	.LVL92:
 1053              	.LBB87:
 1054 0172 0023     		movs	r3, #0
 1055              	@ 238 "../../../../os/hal/platforms/STM32F30x/adc_lld.c" 1
 1056 0174 83F31188 		msr     BASEPRI, r3
 1057              	@ 0 "" 2
 1058              		.thumb
 1059              	.LBE87:
 1060              	.LBE90:
 1061              	.LBE93:
 1062              		.loc 1 270 0
 1063 0178 FFF7FEFF 		bl	dbg_check_leave_isr
 1064              	.LVL93:
 1065              		.loc 1 271 0
 1066 017c BDE8F840 		pop	{r3, r4, r5, r6, r7, lr}
 1067              		.loc 1 270 0
 1068 0180 FFF7FEBF 		b	_port_irq_epilogue
 1069              	.LVL94:
 1070              	.L145:
 1071              		.align	2
 1072              	.L144:
 1073 0184 00000000 		.word	.LANCHOR0
 1074              		.cfi_endproc
 1075              	.LFE126:
 1076              		.size	Vector88, .-Vector88
 1077              		.global	ADCD1
 1078 0188 AFF30080 		.section	.bss.ADCD1,"aw",%nobits
 1078      AFF30080 
 1079              		.align	2
 1080              		.set	.LANCHOR0,. + 0
ARM GAS  /tmp/ccO6dp2g.s 			page 20


 1081              		.type	ADCD1, %object
 1082              		.size	ADCD1, 56
 1083              	ADCD1:
 1084 0000 00000000 		.space	56
 1084      00000000 
 1084      00000000 
 1084      00000000 
 1084      00000000 
 1085              		.section	.rodata.str1.4,"aMS",%progbits,1
 1086              		.align	2
 1087              	.LC0:
 1088 0000 6164635F 		.ascii	"adc_lld_start(), #1\000"
 1088      6C6C645F 
 1088      73746172 
 1088      7428292C 
 1088      20233100 
 1089              	.LC1:
 1090 0014 6164635F 		.ascii	"adc_lld_calibrate(), #1\000"
 1090      6C6C645F 
 1090      63616C69 
 1090      62726174 
 1090      6528292C 
 1091              		.text
 1092              	.Letext0:
 1093              		.file 2 "/usr/lib/gcc/arm-none-eabi/4.8/include/stddef.h"
 1094              		.file 3 "/usr/include/newlib/machine/_default_types.h"
 1095              		.file 4 "/usr/include/newlib/stdint.h"
 1096              		.file 5 "../../../../os/ports/GCC/ARMCMx/chtypes.h"
 1097              		.file 6 "../../../../os/kernel/include/chlists.h"
 1098              		.file 7 "../../../../os/kernel/include/chthreads.h"
 1099              		.file 8 "../../../../os/ports/GCC/ARMCMx/chcore_v7m.h"
 1100              		.file 9 "../../../../os/kernel/include/chmtx.h"
 1101              		.file 10 "../../../../os/hal/platforms/STM32F30x/stm32f30x.h"
 1102              		.file 11 "../../../../os/hal/platforms/STM32F30x/hal_lld.h"
 1103              		.file 12 "../../../../os/hal/platforms/STM32F30x/stm32_dma.h"
 1104              		.file 13 "../../../../os/hal/include/adc.h"
 1105              		.file 14 "../../../../os/hal/platforms/STM32F30x/adc_lld.h"
 1106              		.file 15 "../../../../os/ports/common/ARMCMx/CMSIS/include/core_cm4.h"
 1107              		.file 16 "../../../../os/ports/common/ARMCMx/nvic.h"
 1108              		.file 17 "../../../../os/hal/include/hal.h"
 1109              		.file 18 "../../../../os/kernel/include/chdebug.h"
 1110              		.file 19 "../../../../os/kernel/include/chschd.h"