ARM GAS  /tmp/ccFfwfDD.s 			page 1


   1              		.syntax unified
   2              		.cpu cortex-m4
   3              		.eabi_attribute 27, 3
   4              		.fpu fpv4-sp-d16
   5              		.eabi_attribute 20, 1
   6              		.eabi_attribute 21, 1
   7              		.eabi_attribute 23, 3
   8              		.eabi_attribute 24, 1
   9              		.eabi_attribute 25, 1
  10              		.eabi_attribute 26, 1
  11              		.eabi_attribute 30, 2
  12              		.eabi_attribute 34, 1
  13              		.eabi_attribute 18, 4
  14              		.thumb
  15              		.file	"chcond.c"
  16              		.text
  17              	.Ltext0:
  18              		.cfi_sections	.debug_frame
  19              		.section	.text.chCondInit,"ax",%progbits
  20              		.align	2
  21              		.p2align 4,,15
  22              		.global	chCondInit
  23              		.thumb
  24              		.thumb_func
  25              		.type	chCondInit, %function
  26              	chCondInit:
  27              	.LFB7:
  28              		.file 1 "../../../../os/kernel/src/chcond.c"
  29              		.loc 1 52 0
  30              		.cfi_startproc
  31              		@ args = 0, pretend = 0, frame = 0
  32              		@ frame_needed = 0, uses_anonymous_args = 0
  33              	.LVL0:
  34 0000 10B5     		push	{r4, lr}
  35              		.cfi_def_cfa_offset 8
  36              		.cfi_offset 4, -8
  37              		.cfi_offset 14, -4
  38              		.loc 1 54 0
  39 0002 0446     		mov	r4, r0
  40 0004 10B1     		cbz	r0, .L4
  41              		.loc 1 56 0
  42 0006 6460     		str	r4, [r4, #4]
  43 0008 2460     		str	r4, [r4]
  44 000a 10BD     		pop	{r4, pc}
  45              	.L4:
  46              		.loc 1 54 0 discriminator 1
  47 000c 0248     		ldr	r0, .L5
  48              	.LVL1:
  49 000e FFF7FEFF 		bl	chDbgPanic
  50              	.LVL2:
  51              		.loc 1 56 0 discriminator 1
  52 0012 6460     		str	r4, [r4, #4]
  53 0014 2460     		str	r4, [r4]
  54 0016 10BD     		pop	{r4, pc}
  55              	.LVL3:
  56              	.L6:
  57              		.align	2
ARM GAS  /tmp/ccFfwfDD.s 			page 2


  58              	.L5:
  59 0018 00000000 		.word	.LC0
  60              		.cfi_endproc
  61              	.LFE7:
  62              		.size	chCondInit, .-chCondInit
  63 001c AFF30080 		.section	.text.chCondSignal,"ax",%progbits
  64              		.align	2
  65              		.p2align 4,,15
  66              		.global	chCondSignal
  67              		.thumb
  68              		.thumb_func
  69              		.type	chCondSignal, %function
  70              	chCondSignal:
  71              	.LFB8:
  72              		.loc 1 66 0
  73              		.cfi_startproc
  74              		@ args = 0, pretend = 0, frame = 0
  75              		@ frame_needed = 0, uses_anonymous_args = 0
  76              	.LVL4:
  77 0000 10B5     		push	{r4, lr}
  78              		.cfi_def_cfa_offset 8
  79              		.cfi_offset 4, -8
  80              		.cfi_offset 14, -4
  81              		.loc 1 68 0
  82 0002 0446     		mov	r4, r0
  83 0004 98B1     		cbz	r0, .L10
  84              	.LVL5:
  85              	.L8:
  86              	.LBB14:
  87              		.loc 1 70 0
  88 0006 2023     		movs	r3, #32
  89              	@ 70 "../../../../os/kernel/src/chcond.c" 1
  90 0008 83F31188 		msr     BASEPRI, r3
  91              	@ 0 "" 2
  92              		.thumb
  93              	.LBE14:
  94 000c FFF7FEFF 		bl	dbg_check_lock
  95              	.LVL6:
  96              		.loc 1 71 0
  97 0010 2068     		ldr	r0, [r4]
  98 0012 A042     		cmp	r0, r4
  99 0014 05D0     		beq	.L9
 100              	.LVL7:
 101              	.LBB15:
 102              	.LBB16:
 103              		.file 2 "../../../../os/kernel/include/chinline.h"
 104              		.loc 2 55 0
 105 0016 0368     		ldr	r3, [r0]
 106 0018 2360     		str	r3, [r4]
 107              	.LBE16:
 108              	.LBE15:
 109              		.loc 1 72 0
 110 001a 0021     		movs	r1, #0
 111              	.LBB18:
 112              	.LBB17:
 113              		.loc 2 55 0
 114 001c 5C60     		str	r4, [r3, #4]
ARM GAS  /tmp/ccFfwfDD.s 			page 3


 115              	.LBE17:
 116              	.LBE18:
 117              		.loc 1 72 0
 118 001e FFF7FEFF 		bl	chSchWakeupS
 119              	.LVL8:
 120              	.L9:
 121              		.loc 1 73 0
 122 0022 FFF7FEFF 		bl	dbg_check_unlock
 123              	.LVL9:
 124              	.LBB19:
 125 0026 0023     		movs	r3, #0
 126              	@ 73 "../../../../os/kernel/src/chcond.c" 1
 127 0028 83F31188 		msr     BASEPRI, r3
 128              	@ 0 "" 2
 129              		.thumb
 130 002c 10BD     		pop	{r4, pc}
 131              	.LVL10:
 132              	.L10:
 133              	.LBE19:
 134              		.loc 1 68 0 discriminator 1
 135 002e 0248     		ldr	r0, .L11
 136              	.LVL11:
 137 0030 FFF7FEFF 		bl	chDbgPanic
 138              	.LVL12:
 139 0034 E7E7     		b	.L8
 140              	.L12:
 141 0036 00BF     		.align	2
 142              	.L11:
 143 0038 10000000 		.word	.LC1
 144              		.cfi_endproc
 145              	.LFE8:
 146              		.size	chCondSignal, .-chCondSignal
 147 003c AFF30080 		.section	.text.chCondSignalI,"ax",%progbits
 148              		.align	2
 149              		.p2align 4,,15
 150              		.global	chCondSignalI
 151              		.thumb
 152              		.thumb_func
 153              		.type	chCondSignalI, %function
 154              	chCondSignalI:
 155              	.LFB9:
 156              		.loc 1 87 0
 157              		.cfi_startproc
 158              		@ args = 0, pretend = 0, frame = 0
 159              		@ frame_needed = 0, uses_anonymous_args = 0
 160              	.LVL13:
 161 0000 10B5     		push	{r4, lr}
 162              		.cfi_def_cfa_offset 8
 163              		.cfi_offset 4, -8
 164              		.cfi_offset 14, -4
 165              		.loc 1 87 0
 166 0002 0446     		mov	r4, r0
 167              		.loc 1 89 0
 168 0004 FFF7FEFF 		bl	chDbgCheckClassI
 169              	.LVL14:
 170              		.loc 1 90 0
 171 0008 54B1     		cbz	r4, .L16
ARM GAS  /tmp/ccFfwfDD.s 			page 4


 172              	.L14:
 173              		.loc 1 92 0
 174 000a 2068     		ldr	r0, [r4]
 175 000c A042     		cmp	r0, r4
 176 000e 06D0     		beq	.L13
 177              	.LVL15:
 178              	.LBB20:
 179              	.LBB21:
 180              		.loc 2 55 0
 181 0010 0368     		ldr	r3, [r0]
 182 0012 2360     		str	r3, [r4]
 183 0014 5C60     		str	r4, [r3, #4]
 184              	.LBE21:
 185              	.LBE20:
 186              		.loc 1 93 0
 187 0016 FFF7FEFF 		bl	chSchReadyI
 188              	.LVL16:
 189 001a 0023     		movs	r3, #0
 190 001c 8362     		str	r3, [r0, #40]
 191              	.LVL17:
 192              	.L13:
 193 001e 10BD     		pop	{r4, pc}
 194              	.LVL18:
 195              	.L16:
 196              		.loc 1 90 0 discriminator 1
 197 0020 0148     		ldr	r0, .L17
 198 0022 FFF7FEFF 		bl	chDbgPanic
 199              	.LVL19:
 200 0026 F0E7     		b	.L14
 201              	.L18:
 202              		.align	2
 203              	.L17:
 204 0028 24000000 		.word	.LC2
 205              		.cfi_endproc
 206              	.LFE9:
 207              		.size	chCondSignalI, .-chCondSignalI
 208 002c AFF30080 		.section	.text.chCondBroadcastI,"ax",%progbits
 209              		.align	2
 210              		.p2align 4,,15
 211              		.global	chCondBroadcastI
 212              		.thumb
 213              		.thumb_func
 214              		.type	chCondBroadcastI, %function
 215              	chCondBroadcastI:
 216              	.LFB11:
 217              		.loc 1 122 0
 218              		.cfi_startproc
 219              		@ args = 0, pretend = 0, frame = 0
 220              		@ frame_needed = 0, uses_anonymous_args = 0
 221              	.LVL20:
 222 0000 38B5     		push	{r3, r4, r5, lr}
 223              		.cfi_def_cfa_offset 16
 224              		.cfi_offset 3, -16
 225              		.cfi_offset 4, -12
 226              		.cfi_offset 5, -8
 227              		.cfi_offset 14, -4
 228              		.loc 1 122 0
ARM GAS  /tmp/ccFfwfDD.s 			page 5


 229 0002 0446     		mov	r4, r0
 230              		.loc 1 124 0
 231 0004 FFF7FEFF 		bl	chDbgCheckClassI
 232              	.LVL21:
 233              		.loc 1 125 0
 234 0008 74B1     		cbz	r4, .L24
 235              	.L20:
 236              		.loc 1 130 0 discriminator 1
 237 000a 2068     		ldr	r0, [r4]
 238 000c A042     		cmp	r0, r4
 239 000e 0AD0     		beq	.L19
 240              		.loc 1 131 0
 241 0010 6FF00105 		mvn	r5, #1
 242              	.L23:
 243              	.LVL22:
 244              	.LBB22:
 245              	.LBB23:
 246              		.loc 2 55 0
 247 0014 0368     		ldr	r3, [r0]
 248 0016 2360     		str	r3, [r4]
 249 0018 5C60     		str	r4, [r3, #4]
 250              	.LBE23:
 251              	.LBE22:
 252              		.loc 1 131 0
 253 001a FFF7FEFF 		bl	chSchReadyI
 254              	.LVL23:
 255 001e 8562     		str	r5, [r0, #40]
 256              		.loc 1 130 0
 257 0020 2068     		ldr	r0, [r4]
 258 0022 A042     		cmp	r0, r4
 259 0024 F6D1     		bne	.L23
 260              	.LVL24:
 261              	.L19:
 262 0026 38BD     		pop	{r3, r4, r5, pc}
 263              	.LVL25:
 264              	.L24:
 265              		.loc 1 125 0 discriminator 1
 266 0028 0148     		ldr	r0, .L25
 267 002a FFF7FEFF 		bl	chDbgPanic
 268              	.LVL26:
 269 002e ECE7     		b	.L20
 270              	.L26:
 271              		.align	2
 272              	.L25:
 273 0030 38000000 		.word	.LC3
 274              		.cfi_endproc
 275              	.LFE11:
 276              		.size	chCondBroadcastI, .-chCondBroadcastI
 277 0034 AFF30080 		.section	.text.chCondBroadcast,"ax",%progbits
 277      AFF30080 
 277      AFF30080 
 278              		.align	2
 279              		.p2align 4,,15
 280              		.global	chCondBroadcast
 281              		.thumb
 282              		.thumb_func
 283              		.type	chCondBroadcast, %function
ARM GAS  /tmp/ccFfwfDD.s 			page 6


 284              	chCondBroadcast:
 285              	.LFB10:
 286              		.loc 1 103 0
 287              		.cfi_startproc
 288              		@ args = 0, pretend = 0, frame = 0
 289              		@ frame_needed = 0, uses_anonymous_args = 0
 290              	.LVL27:
 291 0000 10B5     		push	{r4, lr}
 292              		.cfi_def_cfa_offset 8
 293              		.cfi_offset 4, -8
 294              		.cfi_offset 14, -4
 295              	.LBB24:
 296              		.loc 1 105 0
 297 0002 2023     		movs	r3, #32
 298              	.LBE24:
 299              		.loc 1 103 0
 300 0004 0446     		mov	r4, r0
 301              	.LBB25:
 302              		.loc 1 105 0
 303              	@ 105 "../../../../os/kernel/src/chcond.c" 1
 304 0006 83F31188 		msr     BASEPRI, r3
 305              	@ 0 "" 2
 306              		.thumb
 307              	.LBE25:
 308 000a FFF7FEFF 		bl	dbg_check_lock
 309              	.LVL28:
 310              		.loc 1 106 0
 311 000e 2046     		mov	r0, r4
 312 0010 FFF7FEFF 		bl	chCondBroadcastI
 313              	.LVL29:
 314              		.loc 1 107 0
 315 0014 FFF7FEFF 		bl	chSchRescheduleS
 316              	.LVL30:
 317              		.loc 1 108 0
 318 0018 FFF7FEFF 		bl	dbg_check_unlock
 319              	.LVL31:
 320              	.LBB26:
 321 001c 0023     		movs	r3, #0
 322              	@ 108 "../../../../os/kernel/src/chcond.c" 1
 323 001e 83F31188 		msr     BASEPRI, r3
 324              	@ 0 "" 2
 325              		.thumb
 326 0022 10BD     		pop	{r4, pc}
 327              	.LBE26:
 328              		.cfi_endproc
 329              	.LFE10:
 330              		.size	chCondBroadcast, .-chCondBroadcast
 331 0024 AFF30080 		.section	.text.chCondWaitS,"ax",%progbits
 331      AFF30080 
 331      AFF30080 
 332              		.align	2
 333              		.p2align 4,,15
 334              		.global	chCondWaitS
 335              		.thumb
 336              		.thumb_func
 337              		.type	chCondWaitS, %function
 338              	chCondWaitS:
ARM GAS  /tmp/ccFfwfDD.s 			page 7


 339              	.LFB13:
 340              		.loc 1 177 0
 341              		.cfi_startproc
 342              		@ args = 0, pretend = 0, frame = 0
 343              		@ frame_needed = 0, uses_anonymous_args = 0
 344              	.LVL32:
 345              		.loc 1 178 0
 346 0000 154B     		ldr	r3, .L38
 347              		.loc 1 177 0
 348 0002 70B5     		push	{r4, r5, r6, lr}
 349              		.cfi_def_cfa_offset 16
 350              		.cfi_offset 4, -16
 351              		.cfi_offset 5, -12
 352              		.cfi_offset 6, -8
 353              		.cfi_offset 14, -4
 354              		.loc 1 177 0
 355 0004 0546     		mov	r5, r0
 356              		.loc 1 178 0
 357 0006 9C69     		ldr	r4, [r3, #24]
 358              	.LVL33:
 359              		.loc 1 182 0
 360 0008 FFF7FEFF 		bl	chDbgCheckClassS
 361              	.LVL34:
 362              		.loc 1 183 0
 363 000c E5B1     		cbz	r5, .L35
 364              	.L29:
 365              		.loc 1 184 0
 366 000e 236C     		ldr	r3, [r4, #64]
 367 0010 F3B1     		cbz	r3, .L36
 368              	.L30:
 369              		.loc 1 188 0
 370 0012 FFF7FEFF 		bl	chMtxUnlockS
 371              	.LVL35:
 372              		.loc 1 189 0
 373 0016 A562     		str	r5, [r4, #40]
 374              		.loc 1 188 0
 375 0018 0646     		mov	r6, r0
 376              	.LVL36:
 377              	.LBB27:
 378              	.LBB28:
 379              		.loc 2 36 0
 380 001a 2B46     		mov	r3, r5
 381 001c 03E0     		b	.L33
 382              	.LVL37:
 383              	.L37:
 384              		.loc 2 39 0
 385 001e 9968     		ldr	r1, [r3, #8]
 386 0020 A268     		ldr	r2, [r4, #8]
 387 0022 9142     		cmp	r1, r2
 388 0024 02D3     		bcc	.L32
 389              	.L33:
 390              		.loc 2 38 0
 391 0026 1B68     		ldr	r3, [r3]
 392              	.LVL38:
 393              		.loc 2 39 0
 394 0028 9D42     		cmp	r5, r3
 395 002a F8D1     		bne	.L37
ARM GAS  /tmp/ccFfwfDD.s 			page 8


 396              	.L32:
 397              		.loc 2 41 0
 398 002c 5A68     		ldr	r2, [r3, #4]
 399 002e 6260     		str	r2, [r4, #4]
 400              		.loc 2 40 0
 401 0030 2360     		str	r3, [r4]
 402              	.LBE28:
 403              	.LBE27:
 404              		.loc 1 191 0
 405 0032 0520     		movs	r0, #5
 406              	.LVL39:
 407              	.LBB30:
 408              	.LBB29:
 409              		.loc 2 42 0
 410 0034 5C60     		str	r4, [r3, #4]
 411 0036 1460     		str	r4, [r2]
 412              	.LBE29:
 413              	.LBE30:
 414              		.loc 1 191 0
 415 0038 FFF7FEFF 		bl	chSchGoSleepS
 416              	.LVL40:
 417              		.loc 1 192 0
 418 003c A46A     		ldr	r4, [r4, #40]
 419              	.LVL41:
 420              		.loc 1 193 0
 421 003e 3046     		mov	r0, r6
 422 0040 FFF7FEFF 		bl	chMtxLockS
 423              	.LVL42:
 424              		.loc 1 195 0
 425 0044 2046     		mov	r0, r4
 426 0046 70BD     		pop	{r4, r5, r6, pc}
 427              	.LVL43:
 428              	.L35:
 429              		.loc 1 183 0 discriminator 1
 430 0048 0448     		ldr	r0, .L38+4
 431 004a FFF7FEFF 		bl	chDbgPanic
 432              	.LVL44:
 433 004e DEE7     		b	.L29
 434              	.L36:
 435              		.loc 1 184 0 discriminator 1
 436 0050 0348     		ldr	r0, .L38+8
 437 0052 FFF7FEFF 		bl	chDbgPanic
 438              	.LVL45:
 439 0056 DCE7     		b	.L30
 440              	.L39:
 441              		.align	2
 442              	.L38:
 443 0058 00000000 		.word	rlist
 444 005c 50000000 		.word	.LC4
 445 0060 60000000 		.word	.LC5
 446              		.cfi_endproc
 447              	.LFE13:
 448              		.size	chCondWaitS, .-chCondWaitS
 449 0064 AFF30080 		.section	.text.chCondWait,"ax",%progbits
 449      AFF30080 
 449      AFF30080 
 450              		.align	2
ARM GAS  /tmp/ccFfwfDD.s 			page 9


 451              		.p2align 4,,15
 452              		.global	chCondWait
 453              		.thumb
 454              		.thumb_func
 455              		.type	chCondWait, %function
 456              	chCondWait:
 457              	.LFB12:
 458              		.loc 1 151 0
 459              		.cfi_startproc
 460              		@ args = 0, pretend = 0, frame = 0
 461              		@ frame_needed = 0, uses_anonymous_args = 0
 462              	.LVL46:
 463 0000 10B5     		push	{r4, lr}
 464              		.cfi_def_cfa_offset 8
 465              		.cfi_offset 4, -8
 466              		.cfi_offset 14, -4
 467              	.LBB31:
 468              		.loc 1 154 0
 469 0002 2023     		movs	r3, #32
 470              	.LBE31:
 471              		.loc 1 151 0
 472 0004 0446     		mov	r4, r0
 473              	.LBB32:
 474              		.loc 1 154 0
 475              	@ 154 "../../../../os/kernel/src/chcond.c" 1
 476 0006 83F31188 		msr     BASEPRI, r3
 477              	@ 0 "" 2
 478              		.thumb
 479              	.LBE32:
 480 000a FFF7FEFF 		bl	dbg_check_lock
 481              	.LVL47:
 482              		.loc 1 155 0
 483 000e 2046     		mov	r0, r4
 484 0010 FFF7FEFF 		bl	chCondWaitS
 485              	.LVL48:
 486 0014 0446     		mov	r4, r0
 487              	.LVL49:
 488              		.loc 1 156 0
 489 0016 FFF7FEFF 		bl	dbg_check_unlock
 490              	.LVL50:
 491              	.LBB33:
 492 001a 0023     		movs	r3, #0
 493              	@ 156 "../../../../os/kernel/src/chcond.c" 1
 494 001c 83F31188 		msr     BASEPRI, r3
 495              	@ 0 "" 2
 496              		.thumb
 497              	.LBE33:
 498              		.loc 1 158 0
 499 0020 2046     		mov	r0, r4
 500 0022 10BD     		pop	{r4, pc}
 501              		.cfi_endproc
 502              	.LFE12:
 503              		.size	chCondWait, .-chCondWait
 504 0024 AFF30080 		.section	.text.chCondWaitTimeoutS,"ax",%progbits
 504      AFF30080 
 504      AFF30080 
 505              		.align	2
ARM GAS  /tmp/ccFfwfDD.s 			page 10


 506              		.p2align 4,,15
 507              		.global	chCondWaitTimeoutS
 508              		.thumb
 509              		.thumb_func
 510              		.type	chCondWaitTimeoutS, %function
 511              	chCondWaitTimeoutS:
 512              	.LFB15:
 513              		.loc 1 263 0
 514              		.cfi_startproc
 515              		@ args = 0, pretend = 0, frame = 0
 516              		@ frame_needed = 0, uses_anonymous_args = 0
 517              	.LVL51:
 518 0000 2DE9F041 		push	{r4, r5, r6, r7, r8, lr}
 519              		.cfi_def_cfa_offset 24
 520              		.cfi_offset 4, -24
 521              		.cfi_offset 5, -20
 522              		.cfi_offset 6, -16
 523              		.cfi_offset 7, -12
 524              		.cfi_offset 8, -8
 525              		.cfi_offset 14, -4
 526              		.loc 1 263 0
 527 0004 0646     		mov	r6, r0
 528 0006 8846     		mov	r8, r1
 529              		.loc 1 267 0
 530 0008 FFF7FEFF 		bl	chDbgCheckClassS
 531              	.LVL52:
 532              		.loc 1 268 0
 533 000c 36B3     		cbz	r6, .L42
 534              		.loc 1 268 0 is_stmt 0 discriminator 2
 535 000e B8F1000F 		cmp	r8, #0
 536 0012 23D0     		beq	.L42
 537              	.L43:
 538              		.loc 1 269 0 is_stmt 1
 539 0014 154C     		ldr	r4, .L54
 540 0016 A369     		ldr	r3, [r4, #24]
 541 0018 1B6C     		ldr	r3, [r3, #64]
 542 001a 1BB3     		cbz	r3, .L53
 543              	.L44:
 544              		.loc 1 273 0
 545 001c FFF7FEFF 		bl	chMtxUnlockS
 546              	.LVL53:
 547              		.loc 1 274 0
 548 0020 A569     		ldr	r5, [r4, #24]
 549              		.loc 1 273 0
 550 0022 0746     		mov	r7, r0
 551              	.LVL54:
 552              	.LBB34:
 553              	.LBB35:
 554              		.loc 2 36 0
 555 0024 3346     		mov	r3, r6
 556              	.LBE35:
 557              	.LBE34:
 558              		.loc 1 274 0
 559 0026 AE62     		str	r6, [r5, #40]
 560              	.LVL55:
 561 0028 03E0     		b	.L49
 562              	.LVL56:
ARM GAS  /tmp/ccFfwfDD.s 			page 11


 563              	.L45:
 564              	.LBB39:
 565              	.LBB36:
 566              		.loc 2 39 0
 567 002a 9C68     		ldr	r4, [r3, #8]
 568 002c AA68     		ldr	r2, [r5, #8]
 569 002e 9442     		cmp	r4, r2
 570 0030 02D3     		bcc	.L48
 571              	.L49:
 572              		.loc 2 38 0
 573 0032 1B68     		ldr	r3, [r3]
 574              	.LVL57:
 575              		.loc 2 39 0
 576 0034 9E42     		cmp	r6, r3
 577 0036 F8D1     		bne	.L45
 578              	.L48:
 579              		.loc 2 41 0
 580 0038 5A68     		ldr	r2, [r3, #4]
 581 003a 6A60     		str	r2, [r5, #4]
 582              		.loc 2 40 0
 583 003c 2B60     		str	r3, [r5]
 584              	.LBE36:
 585              	.LBE39:
 586              		.loc 1 276 0
 587 003e 4146     		mov	r1, r8
 588              	.LBB40:
 589              	.LBB37:
 590              		.loc 2 42 0
 591 0040 5D60     		str	r5, [r3, #4]
 592              	.LBE37:
 593              	.LBE40:
 594              		.loc 1 276 0
 595 0042 0520     		movs	r0, #5
 596              	.LVL58:
 597              	.LBB41:
 598              	.LBB38:
 599              		.loc 2 42 0
 600 0044 1560     		str	r5, [r2]
 601              	.LBE38:
 602              	.LBE41:
 603              		.loc 1 276 0
 604 0046 FFF7FEFF 		bl	chSchGoSleepTimeoutS
 605              	.LVL59:
 606              		.loc 1 277 0
 607 004a 431C     		adds	r3, r0, #1
 608              		.loc 1 276 0
 609 004c 0446     		mov	r4, r0
 610              	.LVL60:
 611              		.loc 1 277 0
 612 004e 02D0     		beq	.L47
 613              		.loc 1 278 0
 614 0050 3846     		mov	r0, r7
 615              	.LVL61:
 616 0052 FFF7FEFF 		bl	chMtxLockS
 617              	.LVL62:
 618              	.L47:
 619              		.loc 1 280 0
ARM GAS  /tmp/ccFfwfDD.s 			page 12


 620 0056 2046     		mov	r0, r4
 621 0058 BDE8F081 		pop	{r4, r5, r6, r7, r8, pc}
 622              	.LVL63:
 623              	.L42:
 624              		.loc 1 268 0 discriminator 1
 625 005c 0448     		ldr	r0, .L54+4
 626 005e FFF7FEFF 		bl	chDbgPanic
 627              	.LVL64:
 628 0062 D7E7     		b	.L43
 629              	.L53:
 630              		.loc 1 269 0 discriminator 1
 631 0064 0348     		ldr	r0, .L54+8
 632 0066 FFF7FEFF 		bl	chDbgPanic
 633              	.LVL65:
 634 006a D7E7     		b	.L44
 635              	.L55:
 636              		.align	2
 637              	.L54:
 638 006c 00000000 		.word	rlist
 639 0070 74000000 		.word	.LC6
 640 0074 8C000000 		.word	.LC7
 641              		.cfi_endproc
 642              	.LFE15:
 643              		.size	chCondWaitTimeoutS, .-chCondWaitTimeoutS
 644 0078 AFF30080 		.section	.text.chCondWaitTimeout,"ax",%progbits
 644      AFF30080 
 645              		.align	2
 646              		.p2align 4,,15
 647              		.global	chCondWaitTimeout
 648              		.thumb
 649              		.thumb_func
 650              		.type	chCondWaitTimeout, %function
 651              	chCondWaitTimeout:
 652              	.LFB14:
 653              		.loc 1 226 0
 654              		.cfi_startproc
 655              		@ args = 0, pretend = 0, frame = 0
 656              		@ frame_needed = 0, uses_anonymous_args = 0
 657              	.LVL66:
 658 0000 38B5     		push	{r3, r4, r5, lr}
 659              		.cfi_def_cfa_offset 16
 660              		.cfi_offset 3, -16
 661              		.cfi_offset 4, -12
 662              		.cfi_offset 5, -8
 663              		.cfi_offset 14, -4
 664              		.loc 1 226 0
 665 0002 0546     		mov	r5, r0
 666 0004 0C46     		mov	r4, r1
 667              	.LBB42:
 668              		.loc 1 229 0
 669 0006 2023     		movs	r3, #32
 670              	@ 229 "../../../../os/kernel/src/chcond.c" 1
 671 0008 83F31188 		msr     BASEPRI, r3
 672              	@ 0 "" 2
 673              		.thumb
 674              	.LBE42:
 675 000c FFF7FEFF 		bl	dbg_check_lock
ARM GAS  /tmp/ccFfwfDD.s 			page 13


 676              	.LVL67:
 677              		.loc 1 230 0
 678 0010 2146     		mov	r1, r4
 679 0012 2846     		mov	r0, r5
 680 0014 FFF7FEFF 		bl	chCondWaitTimeoutS
 681              	.LVL68:
 682 0018 0446     		mov	r4, r0
 683              	.LVL69:
 684              		.loc 1 231 0
 685 001a FFF7FEFF 		bl	dbg_check_unlock
 686              	.LVL70:
 687              	.LBB43:
 688 001e 0023     		movs	r3, #0
 689              	@ 231 "../../../../os/kernel/src/chcond.c" 1
 690 0020 83F31188 		msr     BASEPRI, r3
 691              	@ 0 "" 2
 692              		.thumb
 693              	.LBE43:
 694              		.loc 1 233 0
 695 0024 2046     		mov	r0, r4
 696 0026 38BD     		pop	{r3, r4, r5, pc}
 697              		.cfi_endproc
 698              	.LFE14:
 699              		.size	chCondWaitTimeout, .-chCondWaitTimeout
 700 0028 AFF30080 		.section	.rodata.str1.4,"aMS",%progbits,1
 700      AFF30080 
 701              		.align	2
 702              	.LC0:
 703 0000 22636843 		.ascii	"\"chCondInit\"()\000"
 703      6F6E6449 
 703      6E697422 
 703      282900
 704 000f 00       		.space	1
 705              	.LC1:
 706 0010 22636843 		.ascii	"\"chCondSignal\"()\000"
 706      6F6E6453 
 706      69676E61 
 706      6C222829 
 706      00
 707 0021 000000   		.space	3
 708              	.LC2:
 709 0024 22636843 		.ascii	"\"chCondSignalI\"()\000"
 709      6F6E6453 
 709      69676E61 
 709      6C492228 
 709      2900
 710 0036 0000     		.space	2
 711              	.LC3:
 712 0038 22636843 		.ascii	"\"chCondBroadcastI\"()\000"
 712      6F6E6442 
 712      726F6164 
 712      63617374 
 712      49222829 
 713 004d 000000   		.space	3
 714              	.LC4:
 715 0050 22636843 		.ascii	"\"chCondWaitS\"()\000"
 715      6F6E6457 
ARM GAS  /tmp/ccFfwfDD.s 			page 14


 715      61697453 
 715      22282900 
 716              	.LC5:
 717 0060 6368436F 		.ascii	"chCondWaitS(), #1\000"
 717      6E645761 
 717      69745328 
 717      292C2023 
 717      3100
 718 0072 0000     		.space	2
 719              	.LC6:
 720 0074 22636843 		.ascii	"\"chCondWaitTimeoutS\"()\000"
 720      6F6E6457 
 720      61697454 
 720      696D656F 
 720      75745322 
 721 008b 00       		.space	1
 722              	.LC7:
 723 008c 6368436F 		.ascii	"chCondWaitTimeoutS(), #1\000"
 723      6E645761 
 723      69745469 
 723      6D656F75 
 723      74532829 
 724 00a5 000000   		.text
 725              	.Letext0:
 726              		.file 3 "/usr/include/newlib/machine/_default_types.h"
 727              		.file 4 "/usr/include/newlib/stdint.h"
 728              		.file 5 "../../../../os/ports/GCC/ARMCMx/chtypes.h"
 729              		.file 6 "../../../../os/kernel/include/chlists.h"
 730              		.file 7 "../../../../os/kernel/include/chthreads.h"
 731              		.file 8 "../../../../os/ports/GCC/ARMCMx/chcore_v7m.h"
 732              		.file 9 "../../../../os/kernel/include/chschd.h"
 733              		.file 10 "../../../../os/kernel/include/chmtx.h"
 734              		.file 11 "../../../../os/kernel/include/chcond.h"
 735              		.file 12 "../../../../os/kernel/include/chdebug.h"
 736              		.section	.debug_info,"",%progbits
 737              	.Ldebug_info0:
 738 0000 BD0B0000 		.4byte	0xbbd
 739 0004 0400     		.2byte	0x4
 740 0006 00000000 		.4byte	.Ldebug_abbrev0
 741 000a 04       		.byte	0x4
 742 000b 01       		.uleb128 0x1
 743 000c 82030000 		.4byte	.LASF92
 744 0010 01       		.byte	0x1
 745 0011 8B010000 		.4byte	.LASF93
 746 0015 60040000 		.4byte	.LASF94
 747 0019 88000000 		.4byte	.Ldebug_ranges0+0x88
 748 001d 00000000 		.4byte	0
 749 0021 00000000 		.4byte	.Ldebug_line0
 750 0025 02       		.uleb128 0x2
 751 0026 04       		.byte	0x4
 752 0027 05       		.byte	0x5
 753 0028 696E7400 		.ascii	"int\000"
 754 002c 03       		.uleb128 0x3
 755 002d 04       		.byte	0x4
 756 002e 07       		.byte	0x7
 757 002f 0D010000 		.4byte	.LASF0
 758 0033 03       		.uleb128 0x3
ARM GAS  /tmp/ccFfwfDD.s 			page 15


 759 0034 01       		.byte	0x1
 760 0035 06       		.byte	0x6
 761 0036 7F000000 		.4byte	.LASF1
 762 003a 04       		.uleb128 0x4
 763 003b 38000000 		.4byte	.LASF5
 764 003f 03       		.byte	0x3
 765 0040 1D       		.byte	0x1d
 766 0041 45000000 		.4byte	0x45
 767 0045 03       		.uleb128 0x3
 768 0046 01       		.byte	0x1
 769 0047 08       		.byte	0x8
 770 0048 6C020000 		.4byte	.LASF2
 771 004c 03       		.uleb128 0x3
 772 004d 02       		.byte	0x2
 773 004e 05       		.byte	0x5
 774 004f 84020000 		.4byte	.LASF3
 775 0053 03       		.uleb128 0x3
 776 0054 02       		.byte	0x2
 777 0055 07       		.byte	0x7
 778 0056 34010000 		.4byte	.LASF4
 779 005a 04       		.uleb128 0x4
 780 005b 48030000 		.4byte	.LASF6
 781 005f 03       		.byte	0x3
 782 0060 3F       		.byte	0x3f
 783 0061 65000000 		.4byte	0x65
 784 0065 03       		.uleb128 0x3
 785 0066 04       		.byte	0x4
 786 0067 05       		.byte	0x5
 787 0068 AD000000 		.4byte	.LASF7
 788 006c 04       		.uleb128 0x4
 789 006d E1000000 		.4byte	.LASF8
 790 0071 03       		.byte	0x3
 791 0072 41       		.byte	0x41
 792 0073 77000000 		.4byte	0x77
 793 0077 03       		.uleb128 0x3
 794 0078 04       		.byte	0x4
 795 0079 07       		.byte	0x7
 796 007a 1A010000 		.4byte	.LASF9
 797 007e 03       		.uleb128 0x3
 798 007f 08       		.byte	0x8
 799 0080 05       		.byte	0x5
 800 0081 71000000 		.4byte	.LASF10
 801 0085 04       		.uleb128 0x4
 802 0086 2E020000 		.4byte	.LASF11
 803 008a 03       		.byte	0x3
 804 008b 5B       		.byte	0x5b
 805 008c 90000000 		.4byte	0x90
 806 0090 03       		.uleb128 0x3
 807 0091 08       		.byte	0x8
 808 0092 07       		.byte	0x7
 809 0093 42000000 		.4byte	.LASF12
 810 0097 04       		.uleb128 0x4
 811 0098 01050000 		.4byte	.LASF13
 812 009c 04       		.byte	0x4
 813 009d 2A       		.byte	0x2a
 814 009e 3A000000 		.4byte	0x3a
 815 00a2 04       		.uleb128 0x4
ARM GAS  /tmp/ccFfwfDD.s 			page 16


 816 00a3 64020000 		.4byte	.LASF14
 817 00a7 04       		.byte	0x4
 818 00a8 41       		.byte	0x41
 819 00a9 5A000000 		.4byte	0x5a
 820 00ad 04       		.uleb128 0x4
 821 00ae F2020000 		.4byte	.LASF15
 822 00b2 04       		.byte	0x4
 823 00b3 42       		.byte	0x42
 824 00b4 6C000000 		.4byte	0x6c
 825 00b8 04       		.uleb128 0x4
 826 00b9 23000000 		.4byte	.LASF16
 827 00bd 04       		.byte	0x4
 828 00be 4E       		.byte	0x4e
 829 00bf 85000000 		.4byte	0x85
 830 00c3 03       		.uleb128 0x3
 831 00c4 01       		.byte	0x1
 832 00c5 02       		.byte	0x2
 833 00c6 5E020000 		.4byte	.LASF17
 834 00ca 04       		.uleb128 0x4
 835 00cb 66010000 		.4byte	.LASF18
 836 00cf 05       		.byte	0x5
 837 00d0 25       		.byte	0x25
 838 00d1 97000000 		.4byte	0x97
 839 00d5 04       		.uleb128 0x4
 840 00d6 B6000000 		.4byte	.LASF19
 841 00da 05       		.byte	0x5
 842 00db 26       		.byte	0x26
 843 00dc 97000000 		.4byte	0x97
 844 00e0 04       		.uleb128 0x4
 845 00e1 39020000 		.4byte	.LASF20
 846 00e5 05       		.byte	0x5
 847 00e6 27       		.byte	0x27
 848 00e7 97000000 		.4byte	0x97
 849 00eb 04       		.uleb128 0x4
 850 00ec 9B000000 		.4byte	.LASF21
 851 00f0 05       		.byte	0x5
 852 00f1 28       		.byte	0x28
 853 00f2 97000000 		.4byte	0x97
 854 00f6 04       		.uleb128 0x4
 855 00f7 48020000 		.4byte	.LASF22
 856 00fb 05       		.byte	0x5
 857 00fc 29       		.byte	0x29
 858 00fd AD000000 		.4byte	0xad
 859 0101 04       		.uleb128 0x4
 860 0102 47010000 		.4byte	.LASF23
 861 0106 05       		.byte	0x5
 862 0107 2A       		.byte	0x2a
 863 0108 A2000000 		.4byte	0xa2
 864 010c 04       		.uleb128 0x4
 865 010d 2C000000 		.4byte	.LASF24
 866 0111 05       		.byte	0x5
 867 0112 2C       		.byte	0x2c
 868 0113 AD000000 		.4byte	0xad
 869 0117 04       		.uleb128 0x4
 870 0118 33030000 		.4byte	.LASF25
 871 011c 05       		.byte	0x5
 872 011d 2E       		.byte	0x2e
ARM GAS  /tmp/ccFfwfDD.s 			page 17


 873 011e AD000000 		.4byte	0xad
 874 0122 04       		.uleb128 0x4
 875 0123 CA020000 		.4byte	.LASF26
 876 0127 06       		.byte	0x6
 877 0128 23       		.byte	0x23
 878 0129 2D010000 		.4byte	0x12d
 879 012d 05       		.uleb128 0x5
 880 012e CA020000 		.4byte	.LASF26
 881 0132 4C       		.byte	0x4c
 882 0133 07       		.byte	0x7
 883 0134 57       		.byte	0x57
 884 0135 36020000 		.4byte	0x236
 885 0139 06       		.uleb128 0x6
 886 013a AE020000 		.4byte	.LASF27
 887 013e 07       		.byte	0x7
 888 013f 58       		.byte	0x58
 889 0140 57020000 		.4byte	0x257
 890 0144 00       		.byte	0
 891 0145 06       		.uleb128 0x6
 892 0146 41020000 		.4byte	.LASF28
 893 014a 07       		.byte	0x7
 894 014b 5A       		.byte	0x5a
 895 014c 57020000 		.4byte	0x257
 896 0150 04       		.byte	0x4
 897 0151 06       		.uleb128 0x6
 898 0152 6A000000 		.4byte	.LASF29
 899 0156 07       		.byte	0x7
 900 0157 5C       		.byte	0x5c
 901 0158 F6000000 		.4byte	0xf6
 902 015c 08       		.byte	0x8
 903 015d 06       		.uleb128 0x6
 904 015e 60050000 		.4byte	.LASF30
 905 0162 07       		.byte	0x7
 906 0163 5D       		.byte	0x5d
 907 0164 EC030000 		.4byte	0x3ec
 908 0168 0C       		.byte	0xc
 909 0169 06       		.uleb128 0x6
 910 016a BF000000 		.4byte	.LASF31
 911 016e 07       		.byte	0x7
 912 016f 5F       		.byte	0x5f
 913 0170 57020000 		.4byte	0x257
 914 0174 10       		.byte	0x10
 915 0175 06       		.uleb128 0x6
 916 0176 EC010000 		.4byte	.LASF32
 917 017a 07       		.byte	0x7
 918 017b 60       		.byte	0x60
 919 017c 57020000 		.4byte	0x257
 920 0180 14       		.byte	0x14
 921 0181 06       		.uleb128 0x6
 922 0182 10050000 		.4byte	.LASF33
 923 0186 07       		.byte	0x7
 924 0187 67       		.byte	0x67
 925 0188 10050000 		.4byte	0x510
 926 018c 18       		.byte	0x18
 927 018d 06       		.uleb128 0x6
 928 018e 02010000 		.4byte	.LASF34
 929 0192 07       		.byte	0x7
ARM GAS  /tmp/ccFfwfDD.s 			page 18


 930 0193 6D       		.byte	0x6d
 931 0194 22050000 		.4byte	0x522
 932 0198 1C       		.byte	0x1c
 933 0199 06       		.uleb128 0x6
 934 019a 8E020000 		.4byte	.LASF35
 935 019e 07       		.byte	0x7
 936 019f 72       		.byte	0x72
 937 01a0 D5000000 		.4byte	0xd5
 938 01a4 20       		.byte	0x20
 939 01a5 06       		.uleb128 0x6
 940 01a6 B5020000 		.4byte	.LASF36
 941 01aa 07       		.byte	0x7
 942 01ab 76       		.byte	0x76
 943 01ac CA000000 		.4byte	0xca
 944 01b0 21       		.byte	0x21
 945 01b1 06       		.uleb128 0x6
 946 01b2 EA040000 		.4byte	.LASF37
 947 01b6 07       		.byte	0x7
 948 01b7 7B       		.byte	0x7b
 949 01b8 E0000000 		.4byte	0xe0
 950 01bc 22       		.byte	0x22
 951 01bd 06       		.uleb128 0x6
 952 01be 96020000 		.4byte	.LASF38
 953 01c2 07       		.byte	0x7
 954 01c3 81       		.byte	0x81
 955 01c4 EB000000 		.4byte	0xeb
 956 01c8 23       		.byte	0x23
 957 01c9 06       		.uleb128 0x6
 958 01ca 69030000 		.4byte	.LASF39
 959 01ce 07       		.byte	0x7
 960 01cf 88       		.byte	0x88
 961 01d0 14040000 		.4byte	0x414
 962 01d4 24       		.byte	0x24
 963 01d5 07       		.uleb128 0x7
 964 01d6 705F7500 		.ascii	"p_u\000"
 965 01da 07       		.byte	0x7
 966 01db AD       		.byte	0xad
 967 01dc DB040000 		.4byte	0x4db
 968 01e0 28       		.byte	0x28
 969 01e1 06       		.uleb128 0x6
 970 01e2 66050000 		.4byte	.LASF40
 971 01e6 07       		.byte	0x7
 972 01e7 B2       		.byte	0xb2
 973 01e8 7D020000 		.4byte	0x27d
 974 01ec 2C       		.byte	0x2c
 975 01ed 06       		.uleb128 0x6
 976 01ee 77030000 		.4byte	.LASF41
 977 01f2 07       		.byte	0x7
 978 01f3 B8       		.byte	0xb8
 979 01f4 5D020000 		.4byte	0x25d
 980 01f8 30       		.byte	0x30
 981 01f9 06       		.uleb128 0x6
 982 01fa 00000000 		.4byte	.LASF42
 983 01fe 07       		.byte	0x7
 984 01ff BC       		.byte	0xbc
 985 0200 01010000 		.4byte	0x101
 986 0204 38       		.byte	0x38
ARM GAS  /tmp/ccFfwfDD.s 			page 19


 987 0205 06       		.uleb128 0x6
 988 0206 E7020000 		.4byte	.LASF43
 989 020a 07       		.byte	0x7
 990 020b C2       		.byte	0xc2
 991 020c 0C010000 		.4byte	0x10c
 992 0210 3C       		.byte	0x3c
 993 0211 06       		.uleb128 0x6
 994 0212 7A020000 		.4byte	.LASF44
 995 0216 07       		.byte	0x7
 996 0217 C9       		.byte	0xc9
 997 0218 28050000 		.4byte	0x528
 998 021c 40       		.byte	0x40
 999 021d 06       		.uleb128 0x6
 1000 021e 3D030000 		.4byte	.LASF45
 1001 0222 07       		.byte	0x7
 1002 0223 CD       		.byte	0xcd
 1003 0224 F6000000 		.4byte	0xf6
 1004 0228 44       		.byte	0x44
 1005 0229 06       		.uleb128 0x6
 1006 022a 8B000000 		.4byte	.LASF46
 1007 022e 07       		.byte	0x7
 1008 022f D3       		.byte	0xd3
 1009 0230 93020000 		.4byte	0x293
 1010 0234 48       		.byte	0x48
 1011 0235 00       		.byte	0
 1012 0236 08       		.uleb128 0x8
 1013 0237 08       		.byte	0x8
 1014 0238 06       		.byte	0x6
 1015 0239 5A       		.byte	0x5a
 1016 023a 57020000 		.4byte	0x257
 1017 023e 06       		.uleb128 0x6
 1018 023f AE020000 		.4byte	.LASF27
 1019 0243 06       		.byte	0x6
 1020 0244 5B       		.byte	0x5b
 1021 0245 57020000 		.4byte	0x257
 1022 0249 00       		.byte	0
 1023 024a 06       		.uleb128 0x6
 1024 024b 41020000 		.4byte	.LASF28
 1025 024f 06       		.byte	0x6
 1026 0250 5D       		.byte	0x5d
 1027 0251 57020000 		.4byte	0x257
 1028 0255 04       		.byte	0x4
 1029 0256 00       		.byte	0
 1030 0257 09       		.uleb128 0x9
 1031 0258 04       		.byte	0x4
 1032 0259 22010000 		.4byte	0x122
 1033 025d 04       		.uleb128 0x4
 1034 025e FA010000 		.4byte	.LASF47
 1035 0262 06       		.byte	0x6
 1036 0263 5F       		.byte	0x5f
 1037 0264 36020000 		.4byte	0x236
 1038 0268 08       		.uleb128 0x8
 1039 0269 04       		.byte	0x4
 1040 026a 06       		.byte	0x6
 1041 026b 64       		.byte	0x64
 1042 026c 7D020000 		.4byte	0x27d
 1043 0270 06       		.uleb128 0x6
ARM GAS  /tmp/ccFfwfDD.s 			page 20


 1044 0271 AE020000 		.4byte	.LASF27
 1045 0275 06       		.byte	0x6
 1046 0276 66       		.byte	0x66
 1047 0277 57020000 		.4byte	0x257
 1048 027b 00       		.byte	0
 1049 027c 00       		.byte	0
 1050 027d 04       		.uleb128 0x4
 1051 027e 7F010000 		.4byte	.LASF48
 1052 0282 06       		.byte	0x6
 1053 0283 69       		.byte	0x69
 1054 0284 68020000 		.4byte	0x268
 1055 0288 04       		.uleb128 0x4
 1056 0289 EC000000 		.4byte	.LASF49
 1057 028d 08       		.byte	0x8
 1058 028e DE       		.byte	0xde
 1059 028f 93020000 		.4byte	0x293
 1060 0293 0A       		.uleb128 0xa
 1061 0294 04       		.byte	0x4
 1062 0295 04       		.uleb128 0x4
 1063 0296 B4010000 		.4byte	.LASF50
 1064 029a 08       		.byte	0x8
 1065 029b E4       		.byte	0xe4
 1066 029c B8000000 		.4byte	0xb8
 1067 02a0 0B       		.uleb128 0xb
 1068 02a1 70030000 		.4byte	.LASF51
 1069 02a5 64       		.byte	0x64
 1070 02a6 08       		.byte	0x8
 1071 02a7 0501     		.2byte	0x105
 1072 02a9 EC030000 		.4byte	0x3ec
 1073 02ad 0C       		.uleb128 0xc
 1074 02ae 73313600 		.ascii	"s16\000"
 1075 02b2 08       		.byte	0x8
 1076 02b3 0701     		.2byte	0x107
 1077 02b5 88020000 		.4byte	0x288
 1078 02b9 00       		.byte	0
 1079 02ba 0C       		.uleb128 0xc
 1080 02bb 73313700 		.ascii	"s17\000"
 1081 02bf 08       		.byte	0x8
 1082 02c0 0801     		.2byte	0x108
 1083 02c2 88020000 		.4byte	0x288
 1084 02c6 04       		.byte	0x4
 1085 02c7 0C       		.uleb128 0xc
 1086 02c8 73313800 		.ascii	"s18\000"
 1087 02cc 08       		.byte	0x8
 1088 02cd 0901     		.2byte	0x109
 1089 02cf 88020000 		.4byte	0x288
 1090 02d3 08       		.byte	0x8
 1091 02d4 0C       		.uleb128 0xc
 1092 02d5 73313900 		.ascii	"s19\000"
 1093 02d9 08       		.byte	0x8
 1094 02da 0A01     		.2byte	0x10a
 1095 02dc 88020000 		.4byte	0x288
 1096 02e0 0C       		.byte	0xc
 1097 02e1 0C       		.uleb128 0xc
 1098 02e2 73323000 		.ascii	"s20\000"
 1099 02e6 08       		.byte	0x8
 1100 02e7 0B01     		.2byte	0x10b
ARM GAS  /tmp/ccFfwfDD.s 			page 21


 1101 02e9 88020000 		.4byte	0x288
 1102 02ed 10       		.byte	0x10
 1103 02ee 0C       		.uleb128 0xc
 1104 02ef 73323100 		.ascii	"s21\000"
 1105 02f3 08       		.byte	0x8
 1106 02f4 0C01     		.2byte	0x10c
 1107 02f6 88020000 		.4byte	0x288
 1108 02fa 14       		.byte	0x14
 1109 02fb 0C       		.uleb128 0xc
 1110 02fc 73323200 		.ascii	"s22\000"
 1111 0300 08       		.byte	0x8
 1112 0301 0D01     		.2byte	0x10d
 1113 0303 88020000 		.4byte	0x288
 1114 0307 18       		.byte	0x18
 1115 0308 0C       		.uleb128 0xc
 1116 0309 73323300 		.ascii	"s23\000"
 1117 030d 08       		.byte	0x8
 1118 030e 0E01     		.2byte	0x10e
 1119 0310 88020000 		.4byte	0x288
 1120 0314 1C       		.byte	0x1c
 1121 0315 0C       		.uleb128 0xc
 1122 0316 73323400 		.ascii	"s24\000"
 1123 031a 08       		.byte	0x8
 1124 031b 0F01     		.2byte	0x10f
 1125 031d 88020000 		.4byte	0x288
 1126 0321 20       		.byte	0x20
 1127 0322 0C       		.uleb128 0xc
 1128 0323 73323500 		.ascii	"s25\000"
 1129 0327 08       		.byte	0x8
 1130 0328 1001     		.2byte	0x110
 1131 032a 88020000 		.4byte	0x288
 1132 032e 24       		.byte	0x24
 1133 032f 0C       		.uleb128 0xc
 1134 0330 73323600 		.ascii	"s26\000"
 1135 0334 08       		.byte	0x8
 1136 0335 1101     		.2byte	0x111
 1137 0337 88020000 		.4byte	0x288
 1138 033b 28       		.byte	0x28
 1139 033c 0C       		.uleb128 0xc
 1140 033d 73323700 		.ascii	"s27\000"
 1141 0341 08       		.byte	0x8
 1142 0342 1201     		.2byte	0x112
 1143 0344 88020000 		.4byte	0x288
 1144 0348 2C       		.byte	0x2c
 1145 0349 0C       		.uleb128 0xc
 1146 034a 73323800 		.ascii	"s28\000"
 1147 034e 08       		.byte	0x8
 1148 034f 1301     		.2byte	0x113
 1149 0351 88020000 		.4byte	0x288
 1150 0355 30       		.byte	0x30
 1151 0356 0C       		.uleb128 0xc
 1152 0357 73323900 		.ascii	"s29\000"
 1153 035b 08       		.byte	0x8
 1154 035c 1401     		.2byte	0x114
 1155 035e 88020000 		.4byte	0x288
 1156 0362 34       		.byte	0x34
 1157 0363 0C       		.uleb128 0xc
ARM GAS  /tmp/ccFfwfDD.s 			page 22


 1158 0364 73333000 		.ascii	"s30\000"
 1159 0368 08       		.byte	0x8
 1160 0369 1501     		.2byte	0x115
 1161 036b 88020000 		.4byte	0x288
 1162 036f 38       		.byte	0x38
 1163 0370 0C       		.uleb128 0xc
 1164 0371 73333100 		.ascii	"s31\000"
 1165 0375 08       		.byte	0x8
 1166 0376 1601     		.2byte	0x116
 1167 0378 88020000 		.4byte	0x288
 1168 037c 3C       		.byte	0x3c
 1169 037d 0C       		.uleb128 0xc
 1170 037e 723400   		.ascii	"r4\000"
 1171 0381 08       		.byte	0x8
 1172 0382 1801     		.2byte	0x118
 1173 0384 88020000 		.4byte	0x288
 1174 0388 40       		.byte	0x40
 1175 0389 0C       		.uleb128 0xc
 1176 038a 723500   		.ascii	"r5\000"
 1177 038d 08       		.byte	0x8
 1178 038e 1901     		.2byte	0x119
 1179 0390 88020000 		.4byte	0x288
 1180 0394 44       		.byte	0x44
 1181 0395 0C       		.uleb128 0xc
 1182 0396 723600   		.ascii	"r6\000"
 1183 0399 08       		.byte	0x8
 1184 039a 1A01     		.2byte	0x11a
 1185 039c 88020000 		.4byte	0x288
 1186 03a0 48       		.byte	0x48
 1187 03a1 0C       		.uleb128 0xc
 1188 03a2 723700   		.ascii	"r7\000"
 1189 03a5 08       		.byte	0x8
 1190 03a6 1B01     		.2byte	0x11b
 1191 03a8 88020000 		.4byte	0x288
 1192 03ac 4C       		.byte	0x4c
 1193 03ad 0C       		.uleb128 0xc
 1194 03ae 723800   		.ascii	"r8\000"
 1195 03b1 08       		.byte	0x8
 1196 03b2 1C01     		.2byte	0x11c
 1197 03b4 88020000 		.4byte	0x288
 1198 03b8 50       		.byte	0x50
 1199 03b9 0C       		.uleb128 0xc
 1200 03ba 723900   		.ascii	"r9\000"
 1201 03bd 08       		.byte	0x8
 1202 03be 1D01     		.2byte	0x11d
 1203 03c0 88020000 		.4byte	0x288
 1204 03c4 54       		.byte	0x54
 1205 03c5 0C       		.uleb128 0xc
 1206 03c6 72313000 		.ascii	"r10\000"
 1207 03ca 08       		.byte	0x8
 1208 03cb 1E01     		.2byte	0x11e
 1209 03cd 88020000 		.4byte	0x288
 1210 03d1 58       		.byte	0x58
 1211 03d2 0C       		.uleb128 0xc
 1212 03d3 72313100 		.ascii	"r11\000"
 1213 03d7 08       		.byte	0x8
 1214 03d8 1F01     		.2byte	0x11f
ARM GAS  /tmp/ccFfwfDD.s 			page 23


 1215 03da 88020000 		.4byte	0x288
 1216 03de 5C       		.byte	0x5c
 1217 03df 0C       		.uleb128 0xc
 1218 03e0 6C7200   		.ascii	"lr\000"
 1219 03e3 08       		.byte	0x8
 1220 03e4 2001     		.2byte	0x120
 1221 03e6 88020000 		.4byte	0x288
 1222 03ea 60       		.byte	0x60
 1223 03eb 00       		.byte	0
 1224 03ec 0B       		.uleb128 0xb
 1225 03ed 2C010000 		.4byte	.LASF52
 1226 03f1 04       		.byte	0x4
 1227 03f2 08       		.byte	0x8
 1228 03f3 2A01     		.2byte	0x12a
 1229 03f5 07040000 		.4byte	0x407
 1230 03f9 0C       		.uleb128 0xc
 1231 03fa 72313300 		.ascii	"r13\000"
 1232 03fe 08       		.byte	0x8
 1233 03ff 2B01     		.2byte	0x12b
 1234 0401 07040000 		.4byte	0x407
 1235 0405 00       		.byte	0
 1236 0406 00       		.byte	0
 1237 0407 09       		.uleb128 0x9
 1238 0408 04       		.byte	0x4
 1239 0409 A0020000 		.4byte	0x2a0
 1240 040d 03       		.uleb128 0x3
 1241 040e 04       		.byte	0x4
 1242 040f 07       		.byte	0x7
 1243 0410 D0010000 		.4byte	.LASF53
 1244 0414 0D       		.uleb128 0xd
 1245 0415 17010000 		.4byte	0x117
 1246 0419 08       		.uleb128 0x8
 1247 041a 1C       		.byte	0x1c
 1248 041b 09       		.byte	0x9
 1249 041c 57       		.byte	0x57
 1250 041d 6A040000 		.4byte	0x46a
 1251 0421 06       		.uleb128 0x6
 1252 0422 FB020000 		.4byte	.LASF54
 1253 0426 09       		.byte	0x9
 1254 0427 58       		.byte	0x58
 1255 0428 5D020000 		.4byte	0x25d
 1256 042c 00       		.byte	0
 1257 042d 06       		.uleb128 0x6
 1258 042e A0020000 		.4byte	.LASF55
 1259 0432 09       		.byte	0x9
 1260 0433 59       		.byte	0x59
 1261 0434 F6000000 		.4byte	0xf6
 1262 0438 08       		.byte	0x8
 1263 0439 06       		.uleb128 0x6
 1264 043a F4010000 		.4byte	.LASF56
 1265 043e 09       		.byte	0x9
 1266 043f 5B       		.byte	0x5b
 1267 0440 EC030000 		.4byte	0x3ec
 1268 0444 0C       		.byte	0xc
 1269 0445 06       		.uleb128 0x6
 1270 0446 4D010000 		.4byte	.LASF57
 1271 044a 09       		.byte	0x9
ARM GAS  /tmp/ccFfwfDD.s 			page 24


 1272 044b 5E       		.byte	0x5e
 1273 044c 57020000 		.4byte	0x257
 1274 0450 10       		.byte	0x10
 1275 0451 06       		.uleb128 0x6
 1276 0452 16020000 		.4byte	.LASF58
 1277 0456 09       		.byte	0x9
 1278 0457 5F       		.byte	0x5f
 1279 0458 57020000 		.4byte	0x257
 1280 045c 14       		.byte	0x14
 1281 045d 06       		.uleb128 0x6
 1282 045e 0C020000 		.4byte	.LASF59
 1283 0462 09       		.byte	0x9
 1284 0463 62       		.byte	0x62
 1285 0464 57020000 		.4byte	0x257
 1286 0468 18       		.byte	0x18
 1287 0469 00       		.byte	0
 1288 046a 04       		.uleb128 0x4
 1289 046b F1040000 		.4byte	.LASF60
 1290 046f 09       		.byte	0x9
 1291 0470 64       		.byte	0x64
 1292 0471 19040000 		.4byte	0x419
 1293 0475 05       		.uleb128 0x5
 1294 0476 AE010000 		.4byte	.LASF61
 1295 047a 10       		.byte	0x10
 1296 047b 0A       		.byte	0xa
 1297 047c 25       		.byte	0x25
 1298 047d A6040000 		.4byte	0x4a6
 1299 0481 06       		.uleb128 0x6
 1300 0482 93000000 		.4byte	.LASF62
 1301 0486 0A       		.byte	0xa
 1302 0487 26       		.byte	0x26
 1303 0488 5D020000 		.4byte	0x25d
 1304 048c 00       		.byte	0
 1305 048d 06       		.uleb128 0x6
 1306 048e 49050000 		.4byte	.LASF63
 1307 0492 0A       		.byte	0xa
 1308 0493 28       		.byte	0x28
 1309 0494 57020000 		.4byte	0x257
 1310 0498 08       		.byte	0x8
 1311 0499 06       		.uleb128 0x6
 1312 049a 2C030000 		.4byte	.LASF64
 1313 049e 0A       		.byte	0xa
 1314 049f 2A       		.byte	0x2a
 1315 04a0 A6040000 		.4byte	0x4a6
 1316 04a4 0C       		.byte	0xc
 1317 04a5 00       		.byte	0
 1318 04a6 09       		.uleb128 0x9
 1319 04a7 04       		.byte	0x4
 1320 04a8 75040000 		.4byte	0x475
 1321 04ac 04       		.uleb128 0x4
 1322 04ad AE010000 		.4byte	.LASF61
 1323 04b1 0A       		.byte	0xa
 1324 04b2 2C       		.byte	0x2c
 1325 04b3 75040000 		.4byte	0x475
 1326 04b7 05       		.uleb128 0x5
 1327 04b8 A5000000 		.4byte	.LASF65
 1328 04bc 08       		.byte	0x8
ARM GAS  /tmp/ccFfwfDD.s 			page 25


 1329 04bd 0B       		.byte	0xb
 1330 04be 2F       		.byte	0x2f
 1331 04bf D0040000 		.4byte	0x4d0
 1332 04c3 06       		.uleb128 0x6
 1333 04c4 D1020000 		.4byte	.LASF66
 1334 04c8 0B       		.byte	0xb
 1335 04c9 30       		.byte	0x30
 1336 04ca 5D020000 		.4byte	0x25d
 1337 04ce 00       		.byte	0
 1338 04cf 00       		.byte	0
 1339 04d0 04       		.uleb128 0x4
 1340 04d1 A5000000 		.4byte	.LASF65
 1341 04d5 0B       		.byte	0xb
 1342 04d6 31       		.byte	0x31
 1343 04d7 B7040000 		.4byte	0x4b7
 1344 04db 0E       		.uleb128 0xe
 1345 04dc 04       		.byte	0x4
 1346 04dd 07       		.byte	0x7
 1347 04de 8F       		.byte	0x8f
 1348 04df 10050000 		.4byte	0x510
 1349 04e3 0F       		.uleb128 0xf
 1350 04e4 1C000000 		.4byte	.LASF67
 1351 04e8 07       		.byte	0x7
 1352 04e9 96       		.byte	0x96
 1353 04ea 01010000 		.4byte	0x101
 1354 04ee 0F       		.uleb128 0xf
 1355 04ef C7000000 		.4byte	.LASF68
 1356 04f3 07       		.byte	0x7
 1357 04f4 9D       		.byte	0x9d
 1358 04f5 01010000 		.4byte	0x101
 1359 04f9 0F       		.uleb128 0xf
 1360 04fa 09050000 		.4byte	.LASF69
 1361 04fe 07       		.byte	0x7
 1362 04ff A4       		.byte	0xa4
 1363 0500 93020000 		.4byte	0x293
 1364 0504 0F       		.uleb128 0xf
 1365 0505 A7020000 		.4byte	.LASF70
 1366 0509 07       		.byte	0x7
 1367 050a AB       		.byte	0xab
 1368 050b 0C010000 		.4byte	0x10c
 1369 050f 00       		.byte	0
 1370 0510 09       		.uleb128 0x9
 1371 0511 04       		.byte	0x4
 1372 0512 16050000 		.4byte	0x516
 1373 0516 10       		.uleb128 0x10
 1374 0517 1B050000 		.4byte	0x51b
 1375 051b 03       		.uleb128 0x3
 1376 051c 01       		.byte	0x1
 1377 051d 08       		.byte	0x8
 1378 051e 03030000 		.4byte	.LASF71
 1379 0522 09       		.uleb128 0x9
 1380 0523 04       		.byte	0x4
 1381 0524 95020000 		.4byte	0x295
 1382 0528 09       		.uleb128 0x9
 1383 0529 04       		.byte	0x4
 1384 052a AC040000 		.4byte	0x4ac
 1385 052e 11       		.uleb128 0x11
ARM GAS  /tmp/ccFfwfDD.s 			page 26


 1386 052f 08030000 		.4byte	.LASF95
 1387 0533 02       		.byte	0x2
 1388 0534 34       		.byte	0x34
 1389 0535 57020000 		.4byte	0x257
 1390 0539 03       		.byte	0x3
 1391 053a 54050000 		.4byte	0x554
 1392 053e 12       		.uleb128 0x12
 1393 053f 74717000 		.ascii	"tqp\000"
 1394 0543 02       		.byte	0x2
 1395 0544 34       		.byte	0x34
 1396 0545 54050000 		.4byte	0x554
 1397 0549 13       		.uleb128 0x13
 1398 054a 747000   		.ascii	"tp\000"
 1399 054d 02       		.byte	0x2
 1400 054e 35       		.byte	0x35
 1401 054f 57020000 		.4byte	0x257
 1402 0553 00       		.byte	0
 1403 0554 09       		.uleb128 0x9
 1404 0555 04       		.byte	0x4
 1405 0556 5D020000 		.4byte	0x25d
 1406 055a 14       		.uleb128 0x14
 1407 055b 52030000 		.4byte	.LASF96
 1408 055f 02       		.byte	0x2
 1409 0560 22       		.byte	0x22
 1410 0561 03       		.byte	0x3
 1411 0562 86050000 		.4byte	0x586
 1412 0566 12       		.uleb128 0x12
 1413 0567 747000   		.ascii	"tp\000"
 1414 056a 02       		.byte	0x2
 1415 056b 22       		.byte	0x22
 1416 056c 57020000 		.4byte	0x257
 1417 0570 12       		.uleb128 0x12
 1418 0571 74717000 		.ascii	"tqp\000"
 1419 0575 02       		.byte	0x2
 1420 0576 22       		.byte	0x22
 1421 0577 54050000 		.4byte	0x554
 1422 057b 13       		.uleb128 0x13
 1423 057c 637000   		.ascii	"cp\000"
 1424 057f 02       		.byte	0x2
 1425 0580 24       		.byte	0x24
 1426 0581 57020000 		.4byte	0x257
 1427 0585 00       		.byte	0
 1428 0586 15       		.uleb128 0x15
 1429 0587 11000000 		.4byte	.LASF72
 1430 058b 01       		.byte	0x1
 1431 058c 34       		.byte	0x34
 1432 058d 00000000 		.4byte	.LFB7
 1433 0591 1C000000 		.4byte	.LFE7-.LFB7
 1434 0595 01       		.uleb128 0x1
 1435 0596 9C       		.byte	0x9c
 1436 0597 BD050000 		.4byte	0x5bd
 1437 059b 16       		.uleb128 0x16
 1438 059c 637000   		.ascii	"cp\000"
 1439 059f 01       		.byte	0x1
 1440 05a0 34       		.byte	0x34
 1441 05a1 BD050000 		.4byte	0x5bd
 1442 05a5 00000000 		.4byte	.LLST0
ARM GAS  /tmp/ccFfwfDD.s 			page 27


 1443 05a9 17       		.uleb128 0x17
 1444 05aa 12000000 		.4byte	.LVL2
 1445 05ae 1E0B0000 		.4byte	0xb1e
 1446 05b2 18       		.uleb128 0x18
 1447 05b3 01       		.uleb128 0x1
 1448 05b4 50       		.byte	0x50
 1449 05b5 05       		.uleb128 0x5
 1450 05b6 03       		.byte	0x3
 1451 05b7 00000000 		.4byte	.LC0
 1452 05bb 00       		.byte	0
 1453 05bc 00       		.byte	0
 1454 05bd 09       		.uleb128 0x9
 1455 05be 04       		.byte	0x4
 1456 05bf D0040000 		.4byte	0x4d0
 1457 05c3 15       		.uleb128 0x15
 1458 05c4 F5000000 		.4byte	.LASF73
 1459 05c8 01       		.byte	0x1
 1460 05c9 42       		.byte	0x42
 1461 05ca 00000000 		.4byte	.LFB8
 1462 05ce 3C000000 		.4byte	.LFE8-.LFB8
 1463 05d2 01       		.uleb128 0x1
 1464 05d3 9C       		.byte	0x9c
 1465 05d4 81060000 		.4byte	0x681
 1466 05d8 16       		.uleb128 0x16
 1467 05d9 637000   		.ascii	"cp\000"
 1468 05dc 01       		.byte	0x1
 1469 05dd 42       		.byte	0x42
 1470 05de BD050000 		.4byte	0x5bd
 1471 05e2 2C000000 		.4byte	.LLST1
 1472 05e6 19       		.uleb128 0x19
 1473 05e7 06000000 		.4byte	.LBB14
 1474 05eb 06000000 		.4byte	.LBE14-.LBB14
 1475 05ef 01060000 		.4byte	0x601
 1476 05f3 1A       		.uleb128 0x1a
 1477 05f4 746D7000 		.ascii	"tmp\000"
 1478 05f8 01       		.byte	0x1
 1479 05f9 46       		.byte	0x46
 1480 05fa AD000000 		.4byte	0xad
 1481 05fe 01       		.uleb128 0x1
 1482 05ff 53       		.byte	0x53
 1483 0600 00       		.byte	0
 1484 0601 1B       		.uleb128 0x1b
 1485 0602 2E050000 		.4byte	0x52e
 1486 0606 16000000 		.4byte	.LBB15
 1487 060a 00000000 		.4byte	.Ldebug_ranges0+0
 1488 060e 01       		.byte	0x1
 1489 060f 48       		.byte	0x48
 1490 0610 2D060000 		.4byte	0x62d
 1491 0614 1C       		.uleb128 0x1c
 1492 0615 3E050000 		.4byte	0x53e
 1493 0619 60000000 		.4byte	.LLST2
 1494 061d 1D       		.uleb128 0x1d
 1495 061e 00000000 		.4byte	.Ldebug_ranges0+0
 1496 0622 1E       		.uleb128 0x1e
 1497 0623 49050000 		.4byte	0x549
 1498 0627 73000000 		.4byte	.LLST3
 1499 062b 00       		.byte	0
ARM GAS  /tmp/ccFfwfDD.s 			page 28


 1500 062c 00       		.byte	0
 1501 062d 19       		.uleb128 0x19
 1502 062e 26000000 		.4byte	.LBB19
 1503 0632 08000000 		.4byte	.LBE19-.LBB19
 1504 0636 48060000 		.4byte	0x648
 1505 063a 1A       		.uleb128 0x1a
 1506 063b 746D7000 		.ascii	"tmp\000"
 1507 063f 01       		.byte	0x1
 1508 0640 49       		.byte	0x49
 1509 0641 AD000000 		.4byte	0xad
 1510 0645 01       		.uleb128 0x1
 1511 0646 53       		.byte	0x53
 1512 0647 00       		.byte	0
 1513 0648 1F       		.uleb128 0x1f
 1514 0649 10000000 		.4byte	.LVL6
 1515 064d 2F0B0000 		.4byte	0xb2f
 1516 0651 20       		.uleb128 0x20
 1517 0652 22000000 		.4byte	.LVL8
 1518 0656 360B0000 		.4byte	0xb36
 1519 065a 64060000 		.4byte	0x664
 1520 065e 18       		.uleb128 0x18
 1521 065f 01       		.uleb128 0x1
 1522 0660 51       		.byte	0x51
 1523 0661 01       		.uleb128 0x1
 1524 0662 30       		.byte	0x30
 1525 0663 00       		.byte	0
 1526 0664 1F       		.uleb128 0x1f
 1527 0665 26000000 		.4byte	.LVL9
 1528 0669 4C0B0000 		.4byte	0xb4c
 1529 066d 17       		.uleb128 0x17
 1530 066e 34000000 		.4byte	.LVL12
 1531 0672 1E0B0000 		.4byte	0xb1e
 1532 0676 18       		.uleb128 0x18
 1533 0677 01       		.uleb128 0x1
 1534 0678 50       		.byte	0x50
 1535 0679 05       		.uleb128 0x5
 1536 067a 03       		.byte	0x3
 1537 067b 10000000 		.4byte	.LC1
 1538 067f 00       		.byte	0
 1539 0680 00       		.byte	0
 1540 0681 15       		.uleb128 0x15
 1541 0682 50020000 		.4byte	.LASF74
 1542 0686 01       		.byte	0x1
 1543 0687 57       		.byte	0x57
 1544 0688 00000000 		.4byte	.LFB9
 1545 068c 2C000000 		.4byte	.LFE9-.LFB9
 1546 0690 01       		.uleb128 0x1
 1547 0691 9C       		.byte	0x9c
 1548 0692 FA060000 		.4byte	0x6fa
 1549 0696 16       		.uleb128 0x16
 1550 0697 637000   		.ascii	"cp\000"
 1551 069a 01       		.byte	0x1
 1552 069b 57       		.byte	0x57
 1553 069c BD050000 		.4byte	0x5bd
 1554 06a0 86000000 		.4byte	.LLST4
 1555 06a4 21       		.uleb128 0x21
 1556 06a5 2E050000 		.4byte	0x52e
ARM GAS  /tmp/ccFfwfDD.s 			page 29


 1557 06a9 10000000 		.4byte	.LBB20
 1558 06ad 06000000 		.4byte	.LBE20-.LBB20
 1559 06b1 01       		.byte	0x1
 1560 06b2 5D       		.byte	0x5d
 1561 06b3 D4060000 		.4byte	0x6d4
 1562 06b7 1C       		.uleb128 0x1c
 1563 06b8 3E050000 		.4byte	0x53e
 1564 06bc A4000000 		.4byte	.LLST5
 1565 06c0 22       		.uleb128 0x22
 1566 06c1 10000000 		.4byte	.LBB21
 1567 06c5 06000000 		.4byte	.LBE21-.LBB21
 1568 06c9 1E       		.uleb128 0x1e
 1569 06ca 49050000 		.4byte	0x549
 1570 06ce B7000000 		.4byte	.LLST6
 1571 06d2 00       		.byte	0
 1572 06d3 00       		.byte	0
 1573 06d4 1F       		.uleb128 0x1f
 1574 06d5 08000000 		.4byte	.LVL14
 1575 06d9 530B0000 		.4byte	0xb53
 1576 06dd 1F       		.uleb128 0x1f
 1577 06de 1A000000 		.4byte	.LVL16
 1578 06e2 5A0B0000 		.4byte	0xb5a
 1579 06e6 17       		.uleb128 0x17
 1580 06e7 26000000 		.4byte	.LVL19
 1581 06eb 1E0B0000 		.4byte	0xb1e
 1582 06ef 18       		.uleb128 0x18
 1583 06f0 01       		.uleb128 0x1
 1584 06f1 50       		.byte	0x50
 1585 06f2 05       		.uleb128 0x5
 1586 06f3 03       		.byte	0x3
 1587 06f4 24000000 		.4byte	.LC2
 1588 06f8 00       		.byte	0
 1589 06f9 00       		.byte	0
 1590 06fa 15       		.uleb128 0x15
 1591 06fb 59000000 		.4byte	.LASF75
 1592 06ff 01       		.byte	0x1
 1593 0700 7A       		.byte	0x7a
 1594 0701 00000000 		.4byte	.LFB11
 1595 0705 34000000 		.4byte	.LFE11-.LFB11
 1596 0709 01       		.uleb128 0x1
 1597 070a 9C       		.byte	0x9c
 1598 070b 73070000 		.4byte	0x773
 1599 070f 16       		.uleb128 0x16
 1600 0710 637000   		.ascii	"cp\000"
 1601 0713 01       		.byte	0x1
 1602 0714 7A       		.byte	0x7a
 1603 0715 BD050000 		.4byte	0x5bd
 1604 0719 CA000000 		.4byte	.LLST7
 1605 071d 21       		.uleb128 0x21
 1606 071e 2E050000 		.4byte	0x52e
 1607 0722 14000000 		.4byte	.LBB22
 1608 0726 06000000 		.4byte	.LBE22-.LBB22
 1609 072a 01       		.byte	0x1
 1610 072b 83       		.byte	0x83
 1611 072c 4D070000 		.4byte	0x74d
 1612 0730 1C       		.uleb128 0x1c
 1613 0731 3E050000 		.4byte	0x53e
ARM GAS  /tmp/ccFfwfDD.s 			page 30


 1614 0735 E8000000 		.4byte	.LLST8
 1615 0739 22       		.uleb128 0x22
 1616 073a 14000000 		.4byte	.LBB23
 1617 073e 06000000 		.4byte	.LBE23-.LBB23
 1618 0742 1E       		.uleb128 0x1e
 1619 0743 49050000 		.4byte	0x549
 1620 0747 FB000000 		.4byte	.LLST9
 1621 074b 00       		.byte	0
 1622 074c 00       		.byte	0
 1623 074d 1F       		.uleb128 0x1f
 1624 074e 08000000 		.4byte	.LVL21
 1625 0752 530B0000 		.4byte	0xb53
 1626 0756 1F       		.uleb128 0x1f
 1627 0757 1E000000 		.4byte	.LVL23
 1628 075b 5A0B0000 		.4byte	0xb5a
 1629 075f 17       		.uleb128 0x17
 1630 0760 2E000000 		.4byte	.LVL26
 1631 0764 1E0B0000 		.4byte	0xb1e
 1632 0768 18       		.uleb128 0x18
 1633 0769 01       		.uleb128 0x1
 1634 076a 50       		.byte	0x50
 1635 076b 05       		.uleb128 0x5
 1636 076c 03       		.byte	0x3
 1637 076d 38000000 		.4byte	.LC3
 1638 0771 00       		.byte	0
 1639 0772 00       		.byte	0
 1640 0773 15       		.uleb128 0x15
 1641 0774 1E020000 		.4byte	.LASF76
 1642 0778 01       		.byte	0x1
 1643 0779 67       		.byte	0x67
 1644 077a 00000000 		.4byte	.LFB10
 1645 077e 24000000 		.4byte	.LFE10-.LFB10
 1646 0782 01       		.uleb128 0x1
 1647 0783 9C       		.byte	0x9c
 1648 0784 F8070000 		.4byte	0x7f8
 1649 0788 16       		.uleb128 0x16
 1650 0789 637000   		.ascii	"cp\000"
 1651 078c 01       		.byte	0x1
 1652 078d 67       		.byte	0x67
 1653 078e BD050000 		.4byte	0x5bd
 1654 0792 0E010000 		.4byte	.LLST10
 1655 0796 23       		.uleb128 0x23
 1656 0797 18000000 		.4byte	.Ldebug_ranges0+0x18
 1657 079b AD070000 		.4byte	0x7ad
 1658 079f 1A       		.uleb128 0x1a
 1659 07a0 746D7000 		.ascii	"tmp\000"
 1660 07a4 01       		.byte	0x1
 1661 07a5 69       		.byte	0x69
 1662 07a6 AD000000 		.4byte	0xad
 1663 07aa 01       		.uleb128 0x1
 1664 07ab 53       		.byte	0x53
 1665 07ac 00       		.byte	0
 1666 07ad 19       		.uleb128 0x19
 1667 07ae 1C000000 		.4byte	.LBB26
 1668 07b2 08000000 		.4byte	.LBE26-.LBB26
 1669 07b6 C8070000 		.4byte	0x7c8
 1670 07ba 1A       		.uleb128 0x1a
ARM GAS  /tmp/ccFfwfDD.s 			page 31


 1671 07bb 746D7000 		.ascii	"tmp\000"
 1672 07bf 01       		.byte	0x1
 1673 07c0 6C       		.byte	0x6c
 1674 07c1 AD000000 		.4byte	0xad
 1675 07c5 01       		.uleb128 0x1
 1676 07c6 53       		.byte	0x53
 1677 07c7 00       		.byte	0
 1678 07c8 1F       		.uleb128 0x1f
 1679 07c9 0E000000 		.4byte	.LVL28
 1680 07cd 2F0B0000 		.4byte	0xb2f
 1681 07d1 20       		.uleb128 0x20
 1682 07d2 14000000 		.4byte	.LVL29
 1683 07d6 FA060000 		.4byte	0x6fa
 1684 07da E5070000 		.4byte	0x7e5
 1685 07de 18       		.uleb128 0x18
 1686 07df 01       		.uleb128 0x1
 1687 07e0 50       		.byte	0x50
 1688 07e1 02       		.uleb128 0x2
 1689 07e2 74       		.byte	0x74
 1690 07e3 00       		.sleb128 0
 1691 07e4 00       		.byte	0
 1692 07e5 1F       		.uleb128 0x1f
 1693 07e6 18000000 		.4byte	.LVL30
 1694 07ea 6F0B0000 		.4byte	0xb6f
 1695 07ee 1F       		.uleb128 0x1f
 1696 07ef 1C000000 		.4byte	.LVL31
 1697 07f3 4C0B0000 		.4byte	0xb4c
 1698 07f7 00       		.byte	0
 1699 07f8 24       		.uleb128 0x24
 1700 07f9 14030000 		.4byte	.LASF77
 1701 07fd 01       		.byte	0x1
 1702 07fe B1       		.byte	0xb1
 1703 07ff 01010000 		.4byte	0x101
 1704 0803 00000000 		.4byte	.LFB13
 1705 0807 64000000 		.4byte	.LFE13-.LFB13
 1706 080b 01       		.uleb128 0x1
 1707 080c 9C       		.byte	0x9c
 1708 080d E4080000 		.4byte	0x8e4
 1709 0811 16       		.uleb128 0x16
 1710 0812 637000   		.ascii	"cp\000"
 1711 0815 01       		.byte	0x1
 1712 0816 B1       		.byte	0xb1
 1713 0817 BD050000 		.4byte	0x5bd
 1714 081b 2C010000 		.4byte	.LLST11
 1715 081f 25       		.uleb128 0x25
 1716 0820 63747000 		.ascii	"ctp\000"
 1717 0824 01       		.byte	0x1
 1718 0825 B2       		.byte	0xb2
 1719 0826 57020000 		.4byte	0x257
 1720 082a 4A010000 		.4byte	.LLST12
 1721 082e 25       		.uleb128 0x25
 1722 082f 6D7000   		.ascii	"mp\000"
 1723 0832 01       		.byte	0x1
 1724 0833 B3       		.byte	0xb3
 1725 0834 28050000 		.4byte	0x528
 1726 0838 68010000 		.4byte	.LLST13
 1727 083c 25       		.uleb128 0x25
ARM GAS  /tmp/ccFfwfDD.s 			page 32


 1728 083d 6D736700 		.ascii	"msg\000"
 1729 0841 01       		.byte	0x1
 1730 0842 B4       		.byte	0xb4
 1731 0843 01010000 		.4byte	0x101
 1732 0847 86010000 		.4byte	.LLST14
 1733 084b 1B       		.uleb128 0x1b
 1734 084c 5A050000 		.4byte	0x55a
 1735 0850 1A000000 		.4byte	.LBB27
 1736 0854 30000000 		.4byte	.Ldebug_ranges0+0x30
 1737 0858 01       		.byte	0x1
 1738 0859 BE       		.byte	0xbe
 1739 085a 80080000 		.4byte	0x880
 1740 085e 1C       		.uleb128 0x1c
 1741 085f 70050000 		.4byte	0x570
 1742 0863 99010000 		.4byte	.LLST15
 1743 0867 1C       		.uleb128 0x1c
 1744 0868 66050000 		.4byte	0x566
 1745 086c B8010000 		.4byte	.LLST16
 1746 0870 1D       		.uleb128 0x1d
 1747 0871 30000000 		.4byte	.Ldebug_ranges0+0x30
 1748 0875 1E       		.uleb128 0x1e
 1749 0876 7B050000 		.4byte	0x57b
 1750 087a CB010000 		.4byte	.LLST17
 1751 087e 00       		.byte	0
 1752 087f 00       		.byte	0
 1753 0880 1F       		.uleb128 0x1f
 1754 0881 0C000000 		.4byte	.LVL34
 1755 0885 760B0000 		.4byte	0xb76
 1756 0889 1F       		.uleb128 0x1f
 1757 088a 16000000 		.4byte	.LVL35
 1758 088e 7D0B0000 		.4byte	0xb7d
 1759 0892 20       		.uleb128 0x20
 1760 0893 3C000000 		.4byte	.LVL40
 1761 0897 880B0000 		.4byte	0xb88
 1762 089b A5080000 		.4byte	0x8a5
 1763 089f 18       		.uleb128 0x18
 1764 08a0 01       		.uleb128 0x1
 1765 08a1 50       		.byte	0x50
 1766 08a2 01       		.uleb128 0x1
 1767 08a3 35       		.byte	0x35
 1768 08a4 00       		.byte	0
 1769 08a5 20       		.uleb128 0x20
 1770 08a6 44000000 		.4byte	.LVL42
 1771 08aa 990B0000 		.4byte	0xb99
 1772 08ae B9080000 		.4byte	0x8b9
 1773 08b2 18       		.uleb128 0x18
 1774 08b3 01       		.uleb128 0x1
 1775 08b4 50       		.byte	0x50
 1776 08b5 02       		.uleb128 0x2
 1777 08b6 76       		.byte	0x76
 1778 08b7 00       		.sleb128 0
 1779 08b8 00       		.byte	0
 1780 08b9 20       		.uleb128 0x20
 1781 08ba 4E000000 		.4byte	.LVL44
 1782 08be 1E0B0000 		.4byte	0xb1e
 1783 08c2 D0080000 		.4byte	0x8d0
 1784 08c6 18       		.uleb128 0x18
ARM GAS  /tmp/ccFfwfDD.s 			page 33


 1785 08c7 01       		.uleb128 0x1
 1786 08c8 50       		.byte	0x50
 1787 08c9 05       		.uleb128 0x5
 1788 08ca 03       		.byte	0x3
 1789 08cb 50000000 		.4byte	.LC4
 1790 08cf 00       		.byte	0
 1791 08d0 17       		.uleb128 0x17
 1792 08d1 56000000 		.4byte	.LVL45
 1793 08d5 1E0B0000 		.4byte	0xb1e
 1794 08d9 18       		.uleb128 0x18
 1795 08da 01       		.uleb128 0x1
 1796 08db 50       		.byte	0x50
 1797 08dc 05       		.uleb128 0x5
 1798 08dd 03       		.byte	0x3
 1799 08de 60000000 		.4byte	.LC5
 1800 08e2 00       		.byte	0
 1801 08e3 00       		.byte	0
 1802 08e4 24       		.uleb128 0x24
 1803 08e5 5E030000 		.4byte	.LASF78
 1804 08e9 01       		.byte	0x1
 1805 08ea 97       		.byte	0x97
 1806 08eb 01010000 		.4byte	0x101
 1807 08ef 00000000 		.4byte	.LFB12
 1808 08f3 24000000 		.4byte	.LFE12-.LFB12
 1809 08f7 01       		.uleb128 0x1
 1810 08f8 9C       		.byte	0x9c
 1811 08f9 73090000 		.4byte	0x973
 1812 08fd 16       		.uleb128 0x16
 1813 08fe 637000   		.ascii	"cp\000"
 1814 0901 01       		.byte	0x1
 1815 0902 97       		.byte	0x97
 1816 0903 BD050000 		.4byte	0x5bd
 1817 0907 EA010000 		.4byte	.LLST18
 1818 090b 25       		.uleb128 0x25
 1819 090c 6D736700 		.ascii	"msg\000"
 1820 0910 01       		.byte	0x1
 1821 0911 98       		.byte	0x98
 1822 0912 01010000 		.4byte	0x101
 1823 0916 16020000 		.4byte	.LLST19
 1824 091a 23       		.uleb128 0x23
 1825 091b 48000000 		.4byte	.Ldebug_ranges0+0x48
 1826 091f 31090000 		.4byte	0x931
 1827 0923 1A       		.uleb128 0x1a
 1828 0924 746D7000 		.ascii	"tmp\000"
 1829 0928 01       		.byte	0x1
 1830 0929 9A       		.byte	0x9a
 1831 092a AD000000 		.4byte	0xad
 1832 092e 01       		.uleb128 0x1
 1833 092f 53       		.byte	0x53
 1834 0930 00       		.byte	0
 1835 0931 19       		.uleb128 0x19
 1836 0932 1A000000 		.4byte	.LBB33
 1837 0936 06000000 		.4byte	.LBE33-.LBB33
 1838 093a 4C090000 		.4byte	0x94c
 1839 093e 1A       		.uleb128 0x1a
 1840 093f 746D7000 		.ascii	"tmp\000"
 1841 0943 01       		.byte	0x1
ARM GAS  /tmp/ccFfwfDD.s 			page 34


 1842 0944 9C       		.byte	0x9c
 1843 0945 AD000000 		.4byte	0xad
 1844 0949 01       		.uleb128 0x1
 1845 094a 53       		.byte	0x53
 1846 094b 00       		.byte	0
 1847 094c 1F       		.uleb128 0x1f
 1848 094d 0E000000 		.4byte	.LVL47
 1849 0951 2F0B0000 		.4byte	0xb2f
 1850 0955 20       		.uleb128 0x20
 1851 0956 14000000 		.4byte	.LVL48
 1852 095a F8070000 		.4byte	0x7f8
 1853 095e 69090000 		.4byte	0x969
 1854 0962 18       		.uleb128 0x18
 1855 0963 01       		.uleb128 0x1
 1856 0964 50       		.byte	0x50
 1857 0965 02       		.uleb128 0x2
 1858 0966 74       		.byte	0x74
 1859 0967 00       		.sleb128 0
 1860 0968 00       		.byte	0
 1861 0969 1F       		.uleb128 0x1f
 1862 096a 1A000000 		.4byte	.LVL50
 1863 096e 4C0B0000 		.4byte	0xb4c
 1864 0972 00       		.byte	0
 1865 0973 26       		.uleb128 0x26
 1866 0974 D9010000 		.4byte	.LASF79
 1867 0978 01       		.byte	0x1
 1868 0979 0701     		.2byte	0x107
 1869 097b 01010000 		.4byte	0x101
 1870 097f 00000000 		.4byte	.LFB15
 1871 0983 78000000 		.4byte	.LFE15-.LFB15
 1872 0987 01       		.uleb128 0x1
 1873 0988 9C       		.byte	0x9c
 1874 0989 6B0A0000 		.4byte	0xa6b
 1875 098d 27       		.uleb128 0x27
 1876 098e 637000   		.ascii	"cp\000"
 1877 0991 01       		.byte	0x1
 1878 0992 0701     		.2byte	0x107
 1879 0994 BD050000 		.4byte	0x5bd
 1880 0998 34020000 		.4byte	.LLST20
 1881 099c 28       		.uleb128 0x28
 1882 099d 07020000 		.4byte	.LASF80
 1883 09a1 01       		.byte	0x1
 1884 09a2 0701     		.2byte	0x107
 1885 09a4 17010000 		.4byte	0x117
 1886 09a8 52020000 		.4byte	.LLST21
 1887 09ac 29       		.uleb128 0x29
 1888 09ad 6D7000   		.ascii	"mp\000"
 1889 09b0 01       		.byte	0x1
 1890 09b1 0801     		.2byte	0x108
 1891 09b3 28050000 		.4byte	0x528
 1892 09b7 70020000 		.4byte	.LLST22
 1893 09bb 29       		.uleb128 0x29
 1894 09bc 6D736700 		.ascii	"msg\000"
 1895 09c0 01       		.byte	0x1
 1896 09c1 0901     		.2byte	0x109
 1897 09c3 01010000 		.4byte	0x101
 1898 09c7 8E020000 		.4byte	.LLST23
ARM GAS  /tmp/ccFfwfDD.s 			page 35


 1899 09cb 2A       		.uleb128 0x2a
 1900 09cc 5A050000 		.4byte	0x55a
 1901 09d0 24000000 		.4byte	.LBB34
 1902 09d4 60000000 		.4byte	.Ldebug_ranges0+0x60
 1903 09d8 01       		.byte	0x1
 1904 09d9 1301     		.2byte	0x113
 1905 09db 010A0000 		.4byte	0xa01
 1906 09df 1C       		.uleb128 0x1c
 1907 09e0 70050000 		.4byte	0x570
 1908 09e4 AC020000 		.4byte	.LLST24
 1909 09e8 1C       		.uleb128 0x1c
 1910 09e9 66050000 		.4byte	0x566
 1911 09ed CA020000 		.4byte	.LLST25
 1912 09f1 1D       		.uleb128 0x1d
 1913 09f2 60000000 		.4byte	.Ldebug_ranges0+0x60
 1914 09f6 1E       		.uleb128 0x1e
 1915 09f7 7B050000 		.4byte	0x57b
 1916 09fb DD020000 		.4byte	.LLST26
 1917 09ff 00       		.byte	0
 1918 0a00 00       		.byte	0
 1919 0a01 1F       		.uleb128 0x1f
 1920 0a02 0C000000 		.4byte	.LVL52
 1921 0a06 760B0000 		.4byte	0xb76
 1922 0a0a 1F       		.uleb128 0x1f
 1923 0a0b 20000000 		.4byte	.LVL53
 1924 0a0f 7D0B0000 		.4byte	0xb7d
 1925 0a13 20       		.uleb128 0x20
 1926 0a14 4A000000 		.4byte	.LVL59
 1927 0a18 AA0B0000 		.4byte	0xbaa
 1928 0a1c 2C0A0000 		.4byte	0xa2c
 1929 0a20 18       		.uleb128 0x18
 1930 0a21 01       		.uleb128 0x1
 1931 0a22 51       		.byte	0x51
 1932 0a23 02       		.uleb128 0x2
 1933 0a24 78       		.byte	0x78
 1934 0a25 00       		.sleb128 0
 1935 0a26 18       		.uleb128 0x18
 1936 0a27 01       		.uleb128 0x1
 1937 0a28 50       		.byte	0x50
 1938 0a29 01       		.uleb128 0x1
 1939 0a2a 35       		.byte	0x35
 1940 0a2b 00       		.byte	0
 1941 0a2c 20       		.uleb128 0x20
 1942 0a2d 56000000 		.4byte	.LVL62
 1943 0a31 990B0000 		.4byte	0xb99
 1944 0a35 400A0000 		.4byte	0xa40
 1945 0a39 18       		.uleb128 0x18
 1946 0a3a 01       		.uleb128 0x1
 1947 0a3b 50       		.byte	0x50
 1948 0a3c 02       		.uleb128 0x2
 1949 0a3d 77       		.byte	0x77
 1950 0a3e 00       		.sleb128 0
 1951 0a3f 00       		.byte	0
 1952 0a40 20       		.uleb128 0x20
 1953 0a41 62000000 		.4byte	.LVL64
 1954 0a45 1E0B0000 		.4byte	0xb1e
 1955 0a49 570A0000 		.4byte	0xa57
ARM GAS  /tmp/ccFfwfDD.s 			page 36


 1956 0a4d 18       		.uleb128 0x18
 1957 0a4e 01       		.uleb128 0x1
 1958 0a4f 50       		.byte	0x50
 1959 0a50 05       		.uleb128 0x5
 1960 0a51 03       		.byte	0x3
 1961 0a52 74000000 		.4byte	.LC6
 1962 0a56 00       		.byte	0
 1963 0a57 17       		.uleb128 0x17
 1964 0a58 6A000000 		.4byte	.LVL65
 1965 0a5c 1E0B0000 		.4byte	0xb1e
 1966 0a60 18       		.uleb128 0x18
 1967 0a61 01       		.uleb128 0x1
 1968 0a62 50       		.byte	0x50
 1969 0a63 05       		.uleb128 0x5
 1970 0a64 03       		.byte	0x3
 1971 0a65 8C000000 		.4byte	.LC7
 1972 0a69 00       		.byte	0
 1973 0a6a 00       		.byte	0
 1974 0a6b 24       		.uleb128 0x24
 1975 0a6c 17050000 		.4byte	.LASF81
 1976 0a70 01       		.byte	0x1
 1977 0a71 E2       		.byte	0xe2
 1978 0a72 01010000 		.4byte	0x101
 1979 0a76 00000000 		.4byte	.LFB14
 1980 0a7a 28000000 		.4byte	.LFE14-.LFB14
 1981 0a7e 01       		.uleb128 0x1
 1982 0a7f 9C       		.byte	0x9c
 1983 0a80 130B0000 		.4byte	0xb13
 1984 0a84 16       		.uleb128 0x16
 1985 0a85 637000   		.ascii	"cp\000"
 1986 0a88 01       		.byte	0x1
 1987 0a89 E2       		.byte	0xe2
 1988 0a8a BD050000 		.4byte	0x5bd
 1989 0a8e F0020000 		.4byte	.LLST27
 1990 0a92 2B       		.uleb128 0x2b
 1991 0a93 07020000 		.4byte	.LASF80
 1992 0a97 01       		.byte	0x1
 1993 0a98 E2       		.byte	0xe2
 1994 0a99 17010000 		.4byte	0x117
 1995 0a9d 0E030000 		.4byte	.LLST28
 1996 0aa1 25       		.uleb128 0x25
 1997 0aa2 6D736700 		.ascii	"msg\000"
 1998 0aa6 01       		.byte	0x1
 1999 0aa7 E3       		.byte	0xe3
 2000 0aa8 01010000 		.4byte	0x101
 2001 0aac 3A030000 		.4byte	.LLST29
 2002 0ab0 19       		.uleb128 0x19
 2003 0ab1 06000000 		.4byte	.LBB42
 2004 0ab5 06000000 		.4byte	.LBE42-.LBB42
 2005 0ab9 CB0A0000 		.4byte	0xacb
 2006 0abd 1A       		.uleb128 0x1a
 2007 0abe 746D7000 		.ascii	"tmp\000"
 2008 0ac2 01       		.byte	0x1
 2009 0ac3 E5       		.byte	0xe5
 2010 0ac4 AD000000 		.4byte	0xad
 2011 0ac8 01       		.uleb128 0x1
 2012 0ac9 53       		.byte	0x53
ARM GAS  /tmp/ccFfwfDD.s 			page 37


 2013 0aca 00       		.byte	0
 2014 0acb 19       		.uleb128 0x19
 2015 0acc 1E000000 		.4byte	.LBB43
 2016 0ad0 06000000 		.4byte	.LBE43-.LBB43
 2017 0ad4 E60A0000 		.4byte	0xae6
 2018 0ad8 1A       		.uleb128 0x1a
 2019 0ad9 746D7000 		.ascii	"tmp\000"
 2020 0add 01       		.byte	0x1
 2021 0ade E7       		.byte	0xe7
 2022 0adf AD000000 		.4byte	0xad
 2023 0ae3 01       		.uleb128 0x1
 2024 0ae4 53       		.byte	0x53
 2025 0ae5 00       		.byte	0
 2026 0ae6 1F       		.uleb128 0x1f
 2027 0ae7 10000000 		.4byte	.LVL67
 2028 0aeb 2F0B0000 		.4byte	0xb2f
 2029 0aef 20       		.uleb128 0x20
 2030 0af0 18000000 		.4byte	.LVL68
 2031 0af4 73090000 		.4byte	0x973
 2032 0af8 090B0000 		.4byte	0xb09
 2033 0afc 18       		.uleb128 0x18
 2034 0afd 01       		.uleb128 0x1
 2035 0afe 51       		.byte	0x51
 2036 0aff 02       		.uleb128 0x2
 2037 0b00 74       		.byte	0x74
 2038 0b01 00       		.sleb128 0
 2039 0b02 18       		.uleb128 0x18
 2040 0b03 01       		.uleb128 0x1
 2041 0b04 50       		.byte	0x50
 2042 0b05 02       		.uleb128 0x2
 2043 0b06 75       		.byte	0x75
 2044 0b07 00       		.sleb128 0
 2045 0b08 00       		.byte	0
 2046 0b09 1F       		.uleb128 0x1f
 2047 0b0a 1E000000 		.4byte	.LVL70
 2048 0b0e 4C0B0000 		.4byte	0xb4c
 2049 0b12 00       		.byte	0
 2050 0b13 2C       		.uleb128 0x2c
 2051 0b14 FB040000 		.4byte	.LASF97
 2052 0b18 09       		.byte	0x9
 2053 0b19 68       		.byte	0x68
 2054 0b1a 6A040000 		.4byte	0x46a
 2055 0b1e 2D       		.uleb128 0x2d
 2056 0b1f 06000000 		.4byte	.LASF82
 2057 0b23 0C       		.byte	0xc
 2058 0b24 EF       		.byte	0xef
 2059 0b25 2F0B0000 		.4byte	0xb2f
 2060 0b29 2E       		.uleb128 0x2e
 2061 0b2a 10050000 		.4byte	0x510
 2062 0b2e 00       		.byte	0
 2063 0b2f 2F       		.uleb128 0x2f
 2064 0b30 51050000 		.4byte	.LASF84
 2065 0b34 0C       		.byte	0xc
 2066 0b35 E0       		.byte	0xe0
 2067 0b36 2D       		.uleb128 0x2d
 2068 0b37 DD040000 		.4byte	.LASF83
 2069 0b3b 09       		.byte	0x9
ARM GAS  /tmp/ccFfwfDD.s 			page 38


 2070 0b3c 92       		.byte	0x92
 2071 0b3d 4C0B0000 		.4byte	0xb4c
 2072 0b41 2E       		.uleb128 0x2e
 2073 0b42 57020000 		.4byte	0x257
 2074 0b46 2E       		.uleb128 0x2e
 2075 0b47 01010000 		.4byte	0x101
 2076 0b4b 00       		.byte	0
 2077 0b4c 2F       		.uleb128 0x2f
 2078 0b4d BF010000 		.4byte	.LASF85
 2079 0b51 0C       		.byte	0xc
 2080 0b52 E1       		.byte	0xe1
 2081 0b53 2F       		.uleb128 0x2f
 2082 0b54 55010000 		.4byte	.LASF86
 2083 0b58 0C       		.byte	0xc
 2084 0b59 E6       		.byte	0xe6
 2085 0b5a 30       		.uleb128 0x30
 2086 0b5b 20030000 		.4byte	.LASF98
 2087 0b5f 09       		.byte	0x9
 2088 0b60 89       		.byte	0x89
 2089 0b61 57020000 		.4byte	0x257
 2090 0b65 6F0B0000 		.4byte	0xb6f
 2091 0b69 2E       		.uleb128 0x2e
 2092 0b6a 57020000 		.4byte	0x257
 2093 0b6e 00       		.byte	0
 2094 0b6f 2F       		.uleb128 0x2f
 2095 0b70 D0000000 		.4byte	.LASF87
 2096 0b74 09       		.byte	0x9
 2097 0b75 95       		.byte	0x95
 2098 0b76 2F       		.uleb128 0x2f
 2099 0b77 6E010000 		.4byte	.LASF88
 2100 0b7b 0C       		.byte	0xc
 2101 0b7c E7       		.byte	0xe7
 2102 0b7d 31       		.uleb128 0x31
 2103 0b7e BD020000 		.4byte	.LASF99
 2104 0b82 0A       		.byte	0xa
 2105 0b83 37       		.byte	0x37
 2106 0b84 28050000 		.4byte	0x528
 2107 0b88 2D       		.uleb128 0x2d
 2108 0b89 D9020000 		.4byte	.LASF89
 2109 0b8d 09       		.byte	0x9
 2110 0b8e 8C       		.byte	0x8c
 2111 0b8f 990B0000 		.4byte	0xb99
 2112 0b93 2E       		.uleb128 0x2e
 2113 0b94 D5000000 		.4byte	0xd5
 2114 0b98 00       		.byte	0
 2115 0b99 2D       		.uleb128 0x2d
 2116 0b9a 3E050000 		.4byte	.LASF90
 2117 0b9e 0A       		.byte	0xa
 2118 0b9f 33       		.byte	0x33
 2119 0ba0 AA0B0000 		.4byte	0xbaa
 2120 0ba4 2E       		.uleb128 0x2e
 2121 0ba5 28050000 		.4byte	0x528
 2122 0ba9 00       		.byte	0
 2123 0baa 32       		.uleb128 0x32
 2124 0bab 29050000 		.4byte	.LASF91
 2125 0baf 09       		.byte	0x9
 2126 0bb0 8F       		.byte	0x8f
ARM GAS  /tmp/ccFfwfDD.s 			page 39


 2127 0bb1 01010000 		.4byte	0x101
 2128 0bb5 2E       		.uleb128 0x2e
 2129 0bb6 D5000000 		.4byte	0xd5
 2130 0bba 2E       		.uleb128 0x2e
 2131 0bbb 17010000 		.4byte	0x117
 2132 0bbf 00       		.byte	0
 2133 0bc0 00       		.byte	0
 2134              		.section	.debug_abbrev,"",%progbits
 2135              	.Ldebug_abbrev0:
 2136 0000 01       		.uleb128 0x1
 2137 0001 11       		.uleb128 0x11
 2138 0002 01       		.byte	0x1
 2139 0003 25       		.uleb128 0x25
 2140 0004 0E       		.uleb128 0xe
 2141 0005 13       		.uleb128 0x13
 2142 0006 0B       		.uleb128 0xb
 2143 0007 03       		.uleb128 0x3
 2144 0008 0E       		.uleb128 0xe
 2145 0009 1B       		.uleb128 0x1b
 2146 000a 0E       		.uleb128 0xe
 2147 000b 55       		.uleb128 0x55
 2148 000c 17       		.uleb128 0x17
 2149 000d 11       		.uleb128 0x11
 2150 000e 01       		.uleb128 0x1
 2151 000f 10       		.uleb128 0x10
 2152 0010 17       		.uleb128 0x17
 2153 0011 00       		.byte	0
 2154 0012 00       		.byte	0
 2155 0013 02       		.uleb128 0x2
 2156 0014 24       		.uleb128 0x24
 2157 0015 00       		.byte	0
 2158 0016 0B       		.uleb128 0xb
 2159 0017 0B       		.uleb128 0xb
 2160 0018 3E       		.uleb128 0x3e
 2161 0019 0B       		.uleb128 0xb
 2162 001a 03       		.uleb128 0x3
 2163 001b 08       		.uleb128 0x8
 2164 001c 00       		.byte	0
 2165 001d 00       		.byte	0
 2166 001e 03       		.uleb128 0x3
 2167 001f 24       		.uleb128 0x24
 2168 0020 00       		.byte	0
 2169 0021 0B       		.uleb128 0xb
 2170 0022 0B       		.uleb128 0xb
 2171 0023 3E       		.uleb128 0x3e
 2172 0024 0B       		.uleb128 0xb
 2173 0025 03       		.uleb128 0x3
 2174 0026 0E       		.uleb128 0xe
 2175 0027 00       		.byte	0
 2176 0028 00       		.byte	0
 2177 0029 04       		.uleb128 0x4
 2178 002a 16       		.uleb128 0x16
 2179 002b 00       		.byte	0
 2180 002c 03       		.uleb128 0x3
 2181 002d 0E       		.uleb128 0xe
 2182 002e 3A       		.uleb128 0x3a
 2183 002f 0B       		.uleb128 0xb
ARM GAS  /tmp/ccFfwfDD.s 			page 40


 2184 0030 3B       		.uleb128 0x3b
 2185 0031 0B       		.uleb128 0xb
 2186 0032 49       		.uleb128 0x49
 2187 0033 13       		.uleb128 0x13
 2188 0034 00       		.byte	0
 2189 0035 00       		.byte	0
 2190 0036 05       		.uleb128 0x5
 2191 0037 13       		.uleb128 0x13
 2192 0038 01       		.byte	0x1
 2193 0039 03       		.uleb128 0x3
 2194 003a 0E       		.uleb128 0xe
 2195 003b 0B       		.uleb128 0xb
 2196 003c 0B       		.uleb128 0xb
 2197 003d 3A       		.uleb128 0x3a
 2198 003e 0B       		.uleb128 0xb
 2199 003f 3B       		.uleb128 0x3b
 2200 0040 0B       		.uleb128 0xb
 2201 0041 01       		.uleb128 0x1
 2202 0042 13       		.uleb128 0x13
 2203 0043 00       		.byte	0
 2204 0044 00       		.byte	0
 2205 0045 06       		.uleb128 0x6
 2206 0046 0D       		.uleb128 0xd
 2207 0047 00       		.byte	0
 2208 0048 03       		.uleb128 0x3
 2209 0049 0E       		.uleb128 0xe
 2210 004a 3A       		.uleb128 0x3a
 2211 004b 0B       		.uleb128 0xb
 2212 004c 3B       		.uleb128 0x3b
 2213 004d 0B       		.uleb128 0xb
 2214 004e 49       		.uleb128 0x49
 2215 004f 13       		.uleb128 0x13
 2216 0050 38       		.uleb128 0x38
 2217 0051 0B       		.uleb128 0xb
 2218 0052 00       		.byte	0
 2219 0053 00       		.byte	0
 2220 0054 07       		.uleb128 0x7
 2221 0055 0D       		.uleb128 0xd
 2222 0056 00       		.byte	0
 2223 0057 03       		.uleb128 0x3
 2224 0058 08       		.uleb128 0x8
 2225 0059 3A       		.uleb128 0x3a
 2226 005a 0B       		.uleb128 0xb
 2227 005b 3B       		.uleb128 0x3b
 2228 005c 0B       		.uleb128 0xb
 2229 005d 49       		.uleb128 0x49
 2230 005e 13       		.uleb128 0x13
 2231 005f 38       		.uleb128 0x38
 2232 0060 0B       		.uleb128 0xb
 2233 0061 00       		.byte	0
 2234 0062 00       		.byte	0
 2235 0063 08       		.uleb128 0x8
 2236 0064 13       		.uleb128 0x13
 2237 0065 01       		.byte	0x1
 2238 0066 0B       		.uleb128 0xb
 2239 0067 0B       		.uleb128 0xb
 2240 0068 3A       		.uleb128 0x3a
ARM GAS  /tmp/ccFfwfDD.s 			page 41


 2241 0069 0B       		.uleb128 0xb
 2242 006a 3B       		.uleb128 0x3b
 2243 006b 0B       		.uleb128 0xb
 2244 006c 01       		.uleb128 0x1
 2245 006d 13       		.uleb128 0x13
 2246 006e 00       		.byte	0
 2247 006f 00       		.byte	0
 2248 0070 09       		.uleb128 0x9
 2249 0071 0F       		.uleb128 0xf
 2250 0072 00       		.byte	0
 2251 0073 0B       		.uleb128 0xb
 2252 0074 0B       		.uleb128 0xb
 2253 0075 49       		.uleb128 0x49
 2254 0076 13       		.uleb128 0x13
 2255 0077 00       		.byte	0
 2256 0078 00       		.byte	0
 2257 0079 0A       		.uleb128 0xa
 2258 007a 0F       		.uleb128 0xf
 2259 007b 00       		.byte	0
 2260 007c 0B       		.uleb128 0xb
 2261 007d 0B       		.uleb128 0xb
 2262 007e 00       		.byte	0
 2263 007f 00       		.byte	0
 2264 0080 0B       		.uleb128 0xb
 2265 0081 13       		.uleb128 0x13
 2266 0082 01       		.byte	0x1
 2267 0083 03       		.uleb128 0x3
 2268 0084 0E       		.uleb128 0xe
 2269 0085 0B       		.uleb128 0xb
 2270 0086 0B       		.uleb128 0xb
 2271 0087 3A       		.uleb128 0x3a
 2272 0088 0B       		.uleb128 0xb
 2273 0089 3B       		.uleb128 0x3b
 2274 008a 05       		.uleb128 0x5
 2275 008b 01       		.uleb128 0x1
 2276 008c 13       		.uleb128 0x13
 2277 008d 00       		.byte	0
 2278 008e 00       		.byte	0
 2279 008f 0C       		.uleb128 0xc
 2280 0090 0D       		.uleb128 0xd
 2281 0091 00       		.byte	0
 2282 0092 03       		.uleb128 0x3
 2283 0093 08       		.uleb128 0x8
 2284 0094 3A       		.uleb128 0x3a
 2285 0095 0B       		.uleb128 0xb
 2286 0096 3B       		.uleb128 0x3b
 2287 0097 05       		.uleb128 0x5
 2288 0098 49       		.uleb128 0x49
 2289 0099 13       		.uleb128 0x13
 2290 009a 38       		.uleb128 0x38
 2291 009b 0B       		.uleb128 0xb
 2292 009c 00       		.byte	0
 2293 009d 00       		.byte	0
 2294 009e 0D       		.uleb128 0xd
 2295 009f 35       		.uleb128 0x35
 2296 00a0 00       		.byte	0
 2297 00a1 49       		.uleb128 0x49
ARM GAS  /tmp/ccFfwfDD.s 			page 42


 2298 00a2 13       		.uleb128 0x13
 2299 00a3 00       		.byte	0
 2300 00a4 00       		.byte	0
 2301 00a5 0E       		.uleb128 0xe
 2302 00a6 17       		.uleb128 0x17
 2303 00a7 01       		.byte	0x1
 2304 00a8 0B       		.uleb128 0xb
 2305 00a9 0B       		.uleb128 0xb
 2306 00aa 3A       		.uleb128 0x3a
 2307 00ab 0B       		.uleb128 0xb
 2308 00ac 3B       		.uleb128 0x3b
 2309 00ad 0B       		.uleb128 0xb
 2310 00ae 01       		.uleb128 0x1
 2311 00af 13       		.uleb128 0x13
 2312 00b0 00       		.byte	0
 2313 00b1 00       		.byte	0
 2314 00b2 0F       		.uleb128 0xf
 2315 00b3 0D       		.uleb128 0xd
 2316 00b4 00       		.byte	0
 2317 00b5 03       		.uleb128 0x3
 2318 00b6 0E       		.uleb128 0xe
 2319 00b7 3A       		.uleb128 0x3a
 2320 00b8 0B       		.uleb128 0xb
 2321 00b9 3B       		.uleb128 0x3b
 2322 00ba 0B       		.uleb128 0xb
 2323 00bb 49       		.uleb128 0x49
 2324 00bc 13       		.uleb128 0x13
 2325 00bd 00       		.byte	0
 2326 00be 00       		.byte	0
 2327 00bf 10       		.uleb128 0x10
 2328 00c0 26       		.uleb128 0x26
 2329 00c1 00       		.byte	0
 2330 00c2 49       		.uleb128 0x49
 2331 00c3 13       		.uleb128 0x13
 2332 00c4 00       		.byte	0
 2333 00c5 00       		.byte	0
 2334 00c6 11       		.uleb128 0x11
 2335 00c7 2E       		.uleb128 0x2e
 2336 00c8 01       		.byte	0x1
 2337 00c9 03       		.uleb128 0x3
 2338 00ca 0E       		.uleb128 0xe
 2339 00cb 3A       		.uleb128 0x3a
 2340 00cc 0B       		.uleb128 0xb
 2341 00cd 3B       		.uleb128 0x3b
 2342 00ce 0B       		.uleb128 0xb
 2343 00cf 27       		.uleb128 0x27
 2344 00d0 19       		.uleb128 0x19
 2345 00d1 49       		.uleb128 0x49
 2346 00d2 13       		.uleb128 0x13
 2347 00d3 20       		.uleb128 0x20
 2348 00d4 0B       		.uleb128 0xb
 2349 00d5 01       		.uleb128 0x1
 2350 00d6 13       		.uleb128 0x13
 2351 00d7 00       		.byte	0
 2352 00d8 00       		.byte	0
 2353 00d9 12       		.uleb128 0x12
 2354 00da 05       		.uleb128 0x5
ARM GAS  /tmp/ccFfwfDD.s 			page 43


 2355 00db 00       		.byte	0
 2356 00dc 03       		.uleb128 0x3
 2357 00dd 08       		.uleb128 0x8
 2358 00de 3A       		.uleb128 0x3a
 2359 00df 0B       		.uleb128 0xb
 2360 00e0 3B       		.uleb128 0x3b
 2361 00e1 0B       		.uleb128 0xb
 2362 00e2 49       		.uleb128 0x49
 2363 00e3 13       		.uleb128 0x13
 2364 00e4 00       		.byte	0
 2365 00e5 00       		.byte	0
 2366 00e6 13       		.uleb128 0x13
 2367 00e7 34       		.uleb128 0x34
 2368 00e8 00       		.byte	0
 2369 00e9 03       		.uleb128 0x3
 2370 00ea 08       		.uleb128 0x8
 2371 00eb 3A       		.uleb128 0x3a
 2372 00ec 0B       		.uleb128 0xb
 2373 00ed 3B       		.uleb128 0x3b
 2374 00ee 0B       		.uleb128 0xb
 2375 00ef 49       		.uleb128 0x49
 2376 00f0 13       		.uleb128 0x13
 2377 00f1 00       		.byte	0
 2378 00f2 00       		.byte	0
 2379 00f3 14       		.uleb128 0x14
 2380 00f4 2E       		.uleb128 0x2e
 2381 00f5 01       		.byte	0x1
 2382 00f6 03       		.uleb128 0x3
 2383 00f7 0E       		.uleb128 0xe
 2384 00f8 3A       		.uleb128 0x3a
 2385 00f9 0B       		.uleb128 0xb
 2386 00fa 3B       		.uleb128 0x3b
 2387 00fb 0B       		.uleb128 0xb
 2388 00fc 27       		.uleb128 0x27
 2389 00fd 19       		.uleb128 0x19
 2390 00fe 20       		.uleb128 0x20
 2391 00ff 0B       		.uleb128 0xb
 2392 0100 01       		.uleb128 0x1
 2393 0101 13       		.uleb128 0x13
 2394 0102 00       		.byte	0
 2395 0103 00       		.byte	0
 2396 0104 15       		.uleb128 0x15
 2397 0105 2E       		.uleb128 0x2e
 2398 0106 01       		.byte	0x1
 2399 0107 3F       		.uleb128 0x3f
 2400 0108 19       		.uleb128 0x19
 2401 0109 03       		.uleb128 0x3
 2402 010a 0E       		.uleb128 0xe
 2403 010b 3A       		.uleb128 0x3a
 2404 010c 0B       		.uleb128 0xb
 2405 010d 3B       		.uleb128 0x3b
 2406 010e 0B       		.uleb128 0xb
 2407 010f 27       		.uleb128 0x27
 2408 0110 19       		.uleb128 0x19
 2409 0111 11       		.uleb128 0x11
 2410 0112 01       		.uleb128 0x1
 2411 0113 12       		.uleb128 0x12
ARM GAS  /tmp/ccFfwfDD.s 			page 44


 2412 0114 06       		.uleb128 0x6
 2413 0115 40       		.uleb128 0x40
 2414 0116 18       		.uleb128 0x18
 2415 0117 9742     		.uleb128 0x2117
 2416 0119 19       		.uleb128 0x19
 2417 011a 01       		.uleb128 0x1
 2418 011b 13       		.uleb128 0x13
 2419 011c 00       		.byte	0
 2420 011d 00       		.byte	0
 2421 011e 16       		.uleb128 0x16
 2422 011f 05       		.uleb128 0x5
 2423 0120 00       		.byte	0
 2424 0121 03       		.uleb128 0x3
 2425 0122 08       		.uleb128 0x8
 2426 0123 3A       		.uleb128 0x3a
 2427 0124 0B       		.uleb128 0xb
 2428 0125 3B       		.uleb128 0x3b
 2429 0126 0B       		.uleb128 0xb
 2430 0127 49       		.uleb128 0x49
 2431 0128 13       		.uleb128 0x13
 2432 0129 02       		.uleb128 0x2
 2433 012a 17       		.uleb128 0x17
 2434 012b 00       		.byte	0
 2435 012c 00       		.byte	0
 2436 012d 17       		.uleb128 0x17
 2437 012e 898201   		.uleb128 0x4109
 2438 0131 01       		.byte	0x1
 2439 0132 11       		.uleb128 0x11
 2440 0133 01       		.uleb128 0x1
 2441 0134 31       		.uleb128 0x31
 2442 0135 13       		.uleb128 0x13
 2443 0136 00       		.byte	0
 2444 0137 00       		.byte	0
 2445 0138 18       		.uleb128 0x18
 2446 0139 8A8201   		.uleb128 0x410a
 2447 013c 00       		.byte	0
 2448 013d 02       		.uleb128 0x2
 2449 013e 18       		.uleb128 0x18
 2450 013f 9142     		.uleb128 0x2111
 2451 0141 18       		.uleb128 0x18
 2452 0142 00       		.byte	0
 2453 0143 00       		.byte	0
 2454 0144 19       		.uleb128 0x19
 2455 0145 0B       		.uleb128 0xb
 2456 0146 01       		.byte	0x1
 2457 0147 11       		.uleb128 0x11
 2458 0148 01       		.uleb128 0x1
 2459 0149 12       		.uleb128 0x12
 2460 014a 06       		.uleb128 0x6
 2461 014b 01       		.uleb128 0x1
 2462 014c 13       		.uleb128 0x13
 2463 014d 00       		.byte	0
 2464 014e 00       		.byte	0
 2465 014f 1A       		.uleb128 0x1a
 2466 0150 34       		.uleb128 0x34
 2467 0151 00       		.byte	0
 2468 0152 03       		.uleb128 0x3
ARM GAS  /tmp/ccFfwfDD.s 			page 45


 2469 0153 08       		.uleb128 0x8
 2470 0154 3A       		.uleb128 0x3a
 2471 0155 0B       		.uleb128 0xb
 2472 0156 3B       		.uleb128 0x3b
 2473 0157 0B       		.uleb128 0xb
 2474 0158 49       		.uleb128 0x49
 2475 0159 13       		.uleb128 0x13
 2476 015a 02       		.uleb128 0x2
 2477 015b 18       		.uleb128 0x18
 2478 015c 00       		.byte	0
 2479 015d 00       		.byte	0
 2480 015e 1B       		.uleb128 0x1b
 2481 015f 1D       		.uleb128 0x1d
 2482 0160 01       		.byte	0x1
 2483 0161 31       		.uleb128 0x31
 2484 0162 13       		.uleb128 0x13
 2485 0163 52       		.uleb128 0x52
 2486 0164 01       		.uleb128 0x1
 2487 0165 55       		.uleb128 0x55
 2488 0166 17       		.uleb128 0x17
 2489 0167 58       		.uleb128 0x58
 2490 0168 0B       		.uleb128 0xb
 2491 0169 59       		.uleb128 0x59
 2492 016a 0B       		.uleb128 0xb
 2493 016b 01       		.uleb128 0x1
 2494 016c 13       		.uleb128 0x13
 2495 016d 00       		.byte	0
 2496 016e 00       		.byte	0
 2497 016f 1C       		.uleb128 0x1c
 2498 0170 05       		.uleb128 0x5
 2499 0171 00       		.byte	0
 2500 0172 31       		.uleb128 0x31
 2501 0173 13       		.uleb128 0x13
 2502 0174 02       		.uleb128 0x2
 2503 0175 17       		.uleb128 0x17
 2504 0176 00       		.byte	0
 2505 0177 00       		.byte	0
 2506 0178 1D       		.uleb128 0x1d
 2507 0179 0B       		.uleb128 0xb
 2508 017a 01       		.byte	0x1
 2509 017b 55       		.uleb128 0x55
 2510 017c 17       		.uleb128 0x17
 2511 017d 00       		.byte	0
 2512 017e 00       		.byte	0
 2513 017f 1E       		.uleb128 0x1e
 2514 0180 34       		.uleb128 0x34
 2515 0181 00       		.byte	0
 2516 0182 31       		.uleb128 0x31
 2517 0183 13       		.uleb128 0x13
 2518 0184 02       		.uleb128 0x2
 2519 0185 17       		.uleb128 0x17
 2520 0186 00       		.byte	0
 2521 0187 00       		.byte	0
 2522 0188 1F       		.uleb128 0x1f
 2523 0189 898201   		.uleb128 0x4109
 2524 018c 00       		.byte	0
 2525 018d 11       		.uleb128 0x11
ARM GAS  /tmp/ccFfwfDD.s 			page 46


 2526 018e 01       		.uleb128 0x1
 2527 018f 31       		.uleb128 0x31
 2528 0190 13       		.uleb128 0x13
 2529 0191 00       		.byte	0
 2530 0192 00       		.byte	0
 2531 0193 20       		.uleb128 0x20
 2532 0194 898201   		.uleb128 0x4109
 2533 0197 01       		.byte	0x1
 2534 0198 11       		.uleb128 0x11
 2535 0199 01       		.uleb128 0x1
 2536 019a 31       		.uleb128 0x31
 2537 019b 13       		.uleb128 0x13
 2538 019c 01       		.uleb128 0x1
 2539 019d 13       		.uleb128 0x13
 2540 019e 00       		.byte	0
 2541 019f 00       		.byte	0
 2542 01a0 21       		.uleb128 0x21
 2543 01a1 1D       		.uleb128 0x1d
 2544 01a2 01       		.byte	0x1
 2545 01a3 31       		.uleb128 0x31
 2546 01a4 13       		.uleb128 0x13
 2547 01a5 11       		.uleb128 0x11
 2548 01a6 01       		.uleb128 0x1
 2549 01a7 12       		.uleb128 0x12
 2550 01a8 06       		.uleb128 0x6
 2551 01a9 58       		.uleb128 0x58
 2552 01aa 0B       		.uleb128 0xb
 2553 01ab 59       		.uleb128 0x59
 2554 01ac 0B       		.uleb128 0xb
 2555 01ad 01       		.uleb128 0x1
 2556 01ae 13       		.uleb128 0x13
 2557 01af 00       		.byte	0
 2558 01b0 00       		.byte	0
 2559 01b1 22       		.uleb128 0x22
 2560 01b2 0B       		.uleb128 0xb
 2561 01b3 01       		.byte	0x1
 2562 01b4 11       		.uleb128 0x11
 2563 01b5 01       		.uleb128 0x1
 2564 01b6 12       		.uleb128 0x12
 2565 01b7 06       		.uleb128 0x6
 2566 01b8 00       		.byte	0
 2567 01b9 00       		.byte	0
 2568 01ba 23       		.uleb128 0x23
 2569 01bb 0B       		.uleb128 0xb
 2570 01bc 01       		.byte	0x1
 2571 01bd 55       		.uleb128 0x55
 2572 01be 17       		.uleb128 0x17
 2573 01bf 01       		.uleb128 0x1
 2574 01c0 13       		.uleb128 0x13
 2575 01c1 00       		.byte	0
 2576 01c2 00       		.byte	0
 2577 01c3 24       		.uleb128 0x24
 2578 01c4 2E       		.uleb128 0x2e
 2579 01c5 01       		.byte	0x1
 2580 01c6 3F       		.uleb128 0x3f
 2581 01c7 19       		.uleb128 0x19
 2582 01c8 03       		.uleb128 0x3
ARM GAS  /tmp/ccFfwfDD.s 			page 47


 2583 01c9 0E       		.uleb128 0xe
 2584 01ca 3A       		.uleb128 0x3a
 2585 01cb 0B       		.uleb128 0xb
 2586 01cc 3B       		.uleb128 0x3b
 2587 01cd 0B       		.uleb128 0xb
 2588 01ce 27       		.uleb128 0x27
 2589 01cf 19       		.uleb128 0x19
 2590 01d0 49       		.uleb128 0x49
 2591 01d1 13       		.uleb128 0x13
 2592 01d2 11       		.uleb128 0x11
 2593 01d3 01       		.uleb128 0x1
 2594 01d4 12       		.uleb128 0x12
 2595 01d5 06       		.uleb128 0x6
 2596 01d6 40       		.uleb128 0x40
 2597 01d7 18       		.uleb128 0x18
 2598 01d8 9742     		.uleb128 0x2117
 2599 01da 19       		.uleb128 0x19
 2600 01db 01       		.uleb128 0x1
 2601 01dc 13       		.uleb128 0x13
 2602 01dd 00       		.byte	0
 2603 01de 00       		.byte	0
 2604 01df 25       		.uleb128 0x25
 2605 01e0 34       		.uleb128 0x34
 2606 01e1 00       		.byte	0
 2607 01e2 03       		.uleb128 0x3
 2608 01e3 08       		.uleb128 0x8
 2609 01e4 3A       		.uleb128 0x3a
 2610 01e5 0B       		.uleb128 0xb
 2611 01e6 3B       		.uleb128 0x3b
 2612 01e7 0B       		.uleb128 0xb
 2613 01e8 49       		.uleb128 0x49
 2614 01e9 13       		.uleb128 0x13
 2615 01ea 02       		.uleb128 0x2
 2616 01eb 17       		.uleb128 0x17
 2617 01ec 00       		.byte	0
 2618 01ed 00       		.byte	0
 2619 01ee 26       		.uleb128 0x26
 2620 01ef 2E       		.uleb128 0x2e
 2621 01f0 01       		.byte	0x1
 2622 01f1 3F       		.uleb128 0x3f
 2623 01f2 19       		.uleb128 0x19
 2624 01f3 03       		.uleb128 0x3
 2625 01f4 0E       		.uleb128 0xe
 2626 01f5 3A       		.uleb128 0x3a
 2627 01f6 0B       		.uleb128 0xb
 2628 01f7 3B       		.uleb128 0x3b
 2629 01f8 05       		.uleb128 0x5
 2630 01f9 27       		.uleb128 0x27
 2631 01fa 19       		.uleb128 0x19
 2632 01fb 49       		.uleb128 0x49
 2633 01fc 13       		.uleb128 0x13
 2634 01fd 11       		.uleb128 0x11
 2635 01fe 01       		.uleb128 0x1
 2636 01ff 12       		.uleb128 0x12
 2637 0200 06       		.uleb128 0x6
 2638 0201 40       		.uleb128 0x40
 2639 0202 18       		.uleb128 0x18
ARM GAS  /tmp/ccFfwfDD.s 			page 48


 2640 0203 9742     		.uleb128 0x2117
 2641 0205 19       		.uleb128 0x19
 2642 0206 01       		.uleb128 0x1
 2643 0207 13       		.uleb128 0x13
 2644 0208 00       		.byte	0
 2645 0209 00       		.byte	0
 2646 020a 27       		.uleb128 0x27
 2647 020b 05       		.uleb128 0x5
 2648 020c 00       		.byte	0
 2649 020d 03       		.uleb128 0x3
 2650 020e 08       		.uleb128 0x8
 2651 020f 3A       		.uleb128 0x3a
 2652 0210 0B       		.uleb128 0xb
 2653 0211 3B       		.uleb128 0x3b
 2654 0212 05       		.uleb128 0x5
 2655 0213 49       		.uleb128 0x49
 2656 0214 13       		.uleb128 0x13
 2657 0215 02       		.uleb128 0x2
 2658 0216 17       		.uleb128 0x17
 2659 0217 00       		.byte	0
 2660 0218 00       		.byte	0
 2661 0219 28       		.uleb128 0x28
 2662 021a 05       		.uleb128 0x5
 2663 021b 00       		.byte	0
 2664 021c 03       		.uleb128 0x3
 2665 021d 0E       		.uleb128 0xe
 2666 021e 3A       		.uleb128 0x3a
 2667 021f 0B       		.uleb128 0xb
 2668 0220 3B       		.uleb128 0x3b
 2669 0221 05       		.uleb128 0x5
 2670 0222 49       		.uleb128 0x49
 2671 0223 13       		.uleb128 0x13
 2672 0224 02       		.uleb128 0x2
 2673 0225 17       		.uleb128 0x17
 2674 0226 00       		.byte	0
 2675 0227 00       		.byte	0
 2676 0228 29       		.uleb128 0x29
 2677 0229 34       		.uleb128 0x34
 2678 022a 00       		.byte	0
 2679 022b 03       		.uleb128 0x3
 2680 022c 08       		.uleb128 0x8
 2681 022d 3A       		.uleb128 0x3a
 2682 022e 0B       		.uleb128 0xb
 2683 022f 3B       		.uleb128 0x3b
 2684 0230 05       		.uleb128 0x5
 2685 0231 49       		.uleb128 0x49
 2686 0232 13       		.uleb128 0x13
 2687 0233 02       		.uleb128 0x2
 2688 0234 17       		.uleb128 0x17
 2689 0235 00       		.byte	0
 2690 0236 00       		.byte	0
 2691 0237 2A       		.uleb128 0x2a
 2692 0238 1D       		.uleb128 0x1d
 2693 0239 01       		.byte	0x1
 2694 023a 31       		.uleb128 0x31
 2695 023b 13       		.uleb128 0x13
 2696 023c 52       		.uleb128 0x52
ARM GAS  /tmp/ccFfwfDD.s 			page 49


 2697 023d 01       		.uleb128 0x1
 2698 023e 55       		.uleb128 0x55
 2699 023f 17       		.uleb128 0x17
 2700 0240 58       		.uleb128 0x58
 2701 0241 0B       		.uleb128 0xb
 2702 0242 59       		.uleb128 0x59
 2703 0243 05       		.uleb128 0x5
 2704 0244 01       		.uleb128 0x1
 2705 0245 13       		.uleb128 0x13
 2706 0246 00       		.byte	0
 2707 0247 00       		.byte	0
 2708 0248 2B       		.uleb128 0x2b
 2709 0249 05       		.uleb128 0x5
 2710 024a 00       		.byte	0
 2711 024b 03       		.uleb128 0x3
 2712 024c 0E       		.uleb128 0xe
 2713 024d 3A       		.uleb128 0x3a
 2714 024e 0B       		.uleb128 0xb
 2715 024f 3B       		.uleb128 0x3b
 2716 0250 0B       		.uleb128 0xb
 2717 0251 49       		.uleb128 0x49
 2718 0252 13       		.uleb128 0x13
 2719 0253 02       		.uleb128 0x2
 2720 0254 17       		.uleb128 0x17
 2721 0255 00       		.byte	0
 2722 0256 00       		.byte	0
 2723 0257 2C       		.uleb128 0x2c
 2724 0258 34       		.uleb128 0x34
 2725 0259 00       		.byte	0
 2726 025a 03       		.uleb128 0x3
 2727 025b 0E       		.uleb128 0xe
 2728 025c 3A       		.uleb128 0x3a
 2729 025d 0B       		.uleb128 0xb
 2730 025e 3B       		.uleb128 0x3b
 2731 025f 0B       		.uleb128 0xb
 2732 0260 49       		.uleb128 0x49
 2733 0261 13       		.uleb128 0x13
 2734 0262 3F       		.uleb128 0x3f
 2735 0263 19       		.uleb128 0x19
 2736 0264 3C       		.uleb128 0x3c
 2737 0265 19       		.uleb128 0x19
 2738 0266 00       		.byte	0
 2739 0267 00       		.byte	0
 2740 0268 2D       		.uleb128 0x2d
 2741 0269 2E       		.uleb128 0x2e
 2742 026a 01       		.byte	0x1
 2743 026b 3F       		.uleb128 0x3f
 2744 026c 19       		.uleb128 0x19
 2745 026d 03       		.uleb128 0x3
 2746 026e 0E       		.uleb128 0xe
 2747 026f 3A       		.uleb128 0x3a
 2748 0270 0B       		.uleb128 0xb
 2749 0271 3B       		.uleb128 0x3b
 2750 0272 0B       		.uleb128 0xb
 2751 0273 27       		.uleb128 0x27
 2752 0274 19       		.uleb128 0x19
 2753 0275 3C       		.uleb128 0x3c
ARM GAS  /tmp/ccFfwfDD.s 			page 50


 2754 0276 19       		.uleb128 0x19
 2755 0277 01       		.uleb128 0x1
 2756 0278 13       		.uleb128 0x13
 2757 0279 00       		.byte	0
 2758 027a 00       		.byte	0
 2759 027b 2E       		.uleb128 0x2e
 2760 027c 05       		.uleb128 0x5
 2761 027d 00       		.byte	0
 2762 027e 49       		.uleb128 0x49
 2763 027f 13       		.uleb128 0x13
 2764 0280 00       		.byte	0
 2765 0281 00       		.byte	0
 2766 0282 2F       		.uleb128 0x2f
 2767 0283 2E       		.uleb128 0x2e
 2768 0284 00       		.byte	0
 2769 0285 3F       		.uleb128 0x3f
 2770 0286 19       		.uleb128 0x19
 2771 0287 03       		.uleb128 0x3
 2772 0288 0E       		.uleb128 0xe
 2773 0289 3A       		.uleb128 0x3a
 2774 028a 0B       		.uleb128 0xb
 2775 028b 3B       		.uleb128 0x3b
 2776 028c 0B       		.uleb128 0xb
 2777 028d 27       		.uleb128 0x27
 2778 028e 19       		.uleb128 0x19
 2779 028f 3C       		.uleb128 0x3c
 2780 0290 19       		.uleb128 0x19
 2781 0291 00       		.byte	0
 2782 0292 00       		.byte	0
 2783 0293 30       		.uleb128 0x30
 2784 0294 2E       		.uleb128 0x2e
 2785 0295 01       		.byte	0x1
 2786 0296 3F       		.uleb128 0x3f
 2787 0297 19       		.uleb128 0x19
 2788 0298 03       		.uleb128 0x3
 2789 0299 0E       		.uleb128 0xe
 2790 029a 3A       		.uleb128 0x3a
 2791 029b 0B       		.uleb128 0xb
 2792 029c 3B       		.uleb128 0x3b
 2793 029d 0B       		.uleb128 0xb
 2794 029e 27       		.uleb128 0x27
 2795 029f 19       		.uleb128 0x19
 2796 02a0 49       		.uleb128 0x49
 2797 02a1 13       		.uleb128 0x13
 2798 02a2 3C       		.uleb128 0x3c
 2799 02a3 19       		.uleb128 0x19
 2800 02a4 01       		.uleb128 0x1
 2801 02a5 13       		.uleb128 0x13
 2802 02a6 00       		.byte	0
 2803 02a7 00       		.byte	0
 2804 02a8 31       		.uleb128 0x31
 2805 02a9 2E       		.uleb128 0x2e
 2806 02aa 00       		.byte	0
 2807 02ab 3F       		.uleb128 0x3f
 2808 02ac 19       		.uleb128 0x19
 2809 02ad 03       		.uleb128 0x3
 2810 02ae 0E       		.uleb128 0xe
ARM GAS  /tmp/ccFfwfDD.s 			page 51


 2811 02af 3A       		.uleb128 0x3a
 2812 02b0 0B       		.uleb128 0xb
 2813 02b1 3B       		.uleb128 0x3b
 2814 02b2 0B       		.uleb128 0xb
 2815 02b3 27       		.uleb128 0x27
 2816 02b4 19       		.uleb128 0x19
 2817 02b5 49       		.uleb128 0x49
 2818 02b6 13       		.uleb128 0x13
 2819 02b7 3C       		.uleb128 0x3c
 2820 02b8 19       		.uleb128 0x19
 2821 02b9 00       		.byte	0
 2822 02ba 00       		.byte	0
 2823 02bb 32       		.uleb128 0x32
 2824 02bc 2E       		.uleb128 0x2e
 2825 02bd 01       		.byte	0x1
 2826 02be 3F       		.uleb128 0x3f
 2827 02bf 19       		.uleb128 0x19
 2828 02c0 03       		.uleb128 0x3
 2829 02c1 0E       		.uleb128 0xe
 2830 02c2 3A       		.uleb128 0x3a
 2831 02c3 0B       		.uleb128 0xb
 2832 02c4 3B       		.uleb128 0x3b
 2833 02c5 0B       		.uleb128 0xb
 2834 02c6 27       		.uleb128 0x27
 2835 02c7 19       		.uleb128 0x19
 2836 02c8 49       		.uleb128 0x49
 2837 02c9 13       		.uleb128 0x13
 2838 02ca 3C       		.uleb128 0x3c
 2839 02cb 19       		.uleb128 0x19
 2840 02cc 00       		.byte	0
 2841 02cd 00       		.byte	0
 2842 02ce 00       		.byte	0
 2843              		.section	.debug_loc,"",%progbits
 2844              	.Ldebug_loc0:
 2845              	.LLST0:
 2846 0000 00000000 		.4byte	.LVL0
 2847 0004 0E000000 		.4byte	.LVL1
 2848 0008 0100     		.2byte	0x1
 2849 000a 50       		.byte	0x50
 2850 000b 0E000000 		.4byte	.LVL1
 2851 000f 18000000 		.4byte	.LVL3
 2852 0013 0100     		.2byte	0x1
 2853 0015 54       		.byte	0x54
 2854 0016 18000000 		.4byte	.LVL3
 2855 001a 1C000000 		.4byte	.LFE7
 2856 001e 0400     		.2byte	0x4
 2857 0020 F3       		.byte	0xf3
 2858 0021 01       		.uleb128 0x1
 2859 0022 50       		.byte	0x50
 2860 0023 9F       		.byte	0x9f
 2861 0024 00000000 		.4byte	0
 2862 0028 00000000 		.4byte	0
 2863              	.LLST1:
 2864 002c 00000000 		.4byte	.LVL4
 2865 0030 06000000 		.4byte	.LVL5
 2866 0034 0100     		.2byte	0x1
 2867 0036 50       		.byte	0x50
ARM GAS  /tmp/ccFfwfDD.s 			page 52


 2868 0037 06000000 		.4byte	.LVL5
 2869 003b 2E000000 		.4byte	.LVL10
 2870 003f 0100     		.2byte	0x1
 2871 0041 54       		.byte	0x54
 2872 0042 2E000000 		.4byte	.LVL10
 2873 0046 30000000 		.4byte	.LVL11
 2874 004a 0100     		.2byte	0x1
 2875 004c 50       		.byte	0x50
 2876 004d 30000000 		.4byte	.LVL11
 2877 0051 3C000000 		.4byte	.LFE8
 2878 0055 0100     		.2byte	0x1
 2879 0057 54       		.byte	0x54
 2880 0058 00000000 		.4byte	0
 2881 005c 00000000 		.4byte	0
 2882              	.LLST2:
 2883 0060 16000000 		.4byte	.LVL7
 2884 0064 22000000 		.4byte	.LVL8
 2885 0068 0100     		.2byte	0x1
 2886 006a 54       		.byte	0x54
 2887 006b 00000000 		.4byte	0
 2888 006f 00000000 		.4byte	0
 2889              	.LLST3:
 2890 0073 16000000 		.4byte	.LVL7
 2891 0077 21000000 		.4byte	.LVL8-1
 2892 007b 0100     		.2byte	0x1
 2893 007d 50       		.byte	0x50
 2894 007e 00000000 		.4byte	0
 2895 0082 00000000 		.4byte	0
 2896              	.LLST4:
 2897 0086 00000000 		.4byte	.LVL13
 2898 008a 07000000 		.4byte	.LVL14-1
 2899 008e 0100     		.2byte	0x1
 2900 0090 50       		.byte	0x50
 2901 0091 07000000 		.4byte	.LVL14-1
 2902 0095 2C000000 		.4byte	.LFE9
 2903 0099 0100     		.2byte	0x1
 2904 009b 54       		.byte	0x54
 2905 009c 00000000 		.4byte	0
 2906 00a0 00000000 		.4byte	0
 2907              	.LLST5:
 2908 00a4 10000000 		.4byte	.LVL15
 2909 00a8 1E000000 		.4byte	.LVL17
 2910 00ac 0100     		.2byte	0x1
 2911 00ae 54       		.byte	0x54
 2912 00af 00000000 		.4byte	0
 2913 00b3 00000000 		.4byte	0
 2914              	.LLST6:
 2915 00b7 10000000 		.4byte	.LVL15
 2916 00bb 19000000 		.4byte	.LVL16-1
 2917 00bf 0100     		.2byte	0x1
 2918 00c1 50       		.byte	0x50
 2919 00c2 00000000 		.4byte	0
 2920 00c6 00000000 		.4byte	0
 2921              	.LLST7:
 2922 00ca 00000000 		.4byte	.LVL20
 2923 00ce 07000000 		.4byte	.LVL21-1
 2924 00d2 0100     		.2byte	0x1
ARM GAS  /tmp/ccFfwfDD.s 			page 53


 2925 00d4 50       		.byte	0x50
 2926 00d5 07000000 		.4byte	.LVL21-1
 2927 00d9 34000000 		.4byte	.LFE11
 2928 00dd 0100     		.2byte	0x1
 2929 00df 54       		.byte	0x54
 2930 00e0 00000000 		.4byte	0
 2931 00e4 00000000 		.4byte	0
 2932              	.LLST8:
 2933 00e8 14000000 		.4byte	.LVL22
 2934 00ec 26000000 		.4byte	.LVL24
 2935 00f0 0100     		.2byte	0x1
 2936 00f2 54       		.byte	0x54
 2937 00f3 00000000 		.4byte	0
 2938 00f7 00000000 		.4byte	0
 2939              	.LLST9:
 2940 00fb 14000000 		.4byte	.LVL22
 2941 00ff 1D000000 		.4byte	.LVL23-1
 2942 0103 0100     		.2byte	0x1
 2943 0105 50       		.byte	0x50
 2944 0106 00000000 		.4byte	0
 2945 010a 00000000 		.4byte	0
 2946              	.LLST10:
 2947 010e 00000000 		.4byte	.LVL27
 2948 0112 0D000000 		.4byte	.LVL28-1
 2949 0116 0100     		.2byte	0x1
 2950 0118 50       		.byte	0x50
 2951 0119 0D000000 		.4byte	.LVL28-1
 2952 011d 24000000 		.4byte	.LFE10
 2953 0121 0100     		.2byte	0x1
 2954 0123 54       		.byte	0x54
 2955 0124 00000000 		.4byte	0
 2956 0128 00000000 		.4byte	0
 2957              	.LLST11:
 2958 012c 00000000 		.4byte	.LVL32
 2959 0130 0B000000 		.4byte	.LVL34-1
 2960 0134 0100     		.2byte	0x1
 2961 0136 50       		.byte	0x50
 2962 0137 0B000000 		.4byte	.LVL34-1
 2963 013b 64000000 		.4byte	.LFE13
 2964 013f 0100     		.2byte	0x1
 2965 0141 55       		.byte	0x55
 2966 0142 00000000 		.4byte	0
 2967 0146 00000000 		.4byte	0
 2968              	.LLST12:
 2969 014a 08000000 		.4byte	.LVL33
 2970 014e 3E000000 		.4byte	.LVL41
 2971 0152 0100     		.2byte	0x1
 2972 0154 54       		.byte	0x54
 2973 0155 48000000 		.4byte	.LVL43
 2974 0159 64000000 		.4byte	.LFE13
 2975 015d 0100     		.2byte	0x1
 2976 015f 54       		.byte	0x54
 2977 0160 00000000 		.4byte	0
 2978 0164 00000000 		.4byte	0
 2979              	.LLST13:
 2980 0168 1A000000 		.4byte	.LVL36
 2981 016c 34000000 		.4byte	.LVL39
ARM GAS  /tmp/ccFfwfDD.s 			page 54


 2982 0170 0100     		.2byte	0x1
 2983 0172 50       		.byte	0x50
 2984 0173 34000000 		.4byte	.LVL39
 2985 0177 48000000 		.4byte	.LVL43
 2986 017b 0100     		.2byte	0x1
 2987 017d 56       		.byte	0x56
 2988 017e 00000000 		.4byte	0
 2989 0182 00000000 		.4byte	0
 2990              	.LLST14:
 2991 0186 3E000000 		.4byte	.LVL41
 2992 018a 48000000 		.4byte	.LVL43
 2993 018e 0100     		.2byte	0x1
 2994 0190 54       		.byte	0x54
 2995 0191 00000000 		.4byte	0
 2996 0195 00000000 		.4byte	0
 2997              	.LLST15:
 2998 0199 1A000000 		.4byte	.LVL36
 2999 019d 1E000000 		.4byte	.LVL37
 3000 01a1 0200     		.2byte	0x2
 3001 01a3 74       		.byte	0x74
 3002 01a4 28       		.sleb128 40
 3003 01a5 1E000000 		.4byte	.LVL37
 3004 01a9 48000000 		.4byte	.LVL43
 3005 01ad 0100     		.2byte	0x1
 3006 01af 55       		.byte	0x55
 3007 01b0 00000000 		.4byte	0
 3008 01b4 00000000 		.4byte	0
 3009              	.LLST16:
 3010 01b8 1A000000 		.4byte	.LVL36
 3011 01bc 3E000000 		.4byte	.LVL41
 3012 01c0 0100     		.2byte	0x1
 3013 01c2 54       		.byte	0x54
 3014 01c3 00000000 		.4byte	0
 3015 01c7 00000000 		.4byte	0
 3016              	.LLST17:
 3017 01cb 1A000000 		.4byte	.LVL36
 3018 01cf 1E000000 		.4byte	.LVL37
 3019 01d3 0200     		.2byte	0x2
 3020 01d5 74       		.byte	0x74
 3021 01d6 28       		.sleb128 40
 3022 01d7 1E000000 		.4byte	.LVL37
 3023 01db 3B000000 		.4byte	.LVL40-1
 3024 01df 0100     		.2byte	0x1
 3025 01e1 53       		.byte	0x53
 3026 01e2 00000000 		.4byte	0
 3027 01e6 00000000 		.4byte	0
 3028              	.LLST18:
 3029 01ea 00000000 		.4byte	.LVL46
 3030 01ee 0D000000 		.4byte	.LVL47-1
 3031 01f2 0100     		.2byte	0x1
 3032 01f4 50       		.byte	0x50
 3033 01f5 0D000000 		.4byte	.LVL47-1
 3034 01f9 16000000 		.4byte	.LVL49
 3035 01fd 0100     		.2byte	0x1
 3036 01ff 54       		.byte	0x54
 3037 0200 16000000 		.4byte	.LVL49
 3038 0204 24000000 		.4byte	.LFE12
ARM GAS  /tmp/ccFfwfDD.s 			page 55


 3039 0208 0400     		.2byte	0x4
 3040 020a F3       		.byte	0xf3
 3041 020b 01       		.uleb128 0x1
 3042 020c 50       		.byte	0x50
 3043 020d 9F       		.byte	0x9f
 3044 020e 00000000 		.4byte	0
 3045 0212 00000000 		.4byte	0
 3046              	.LLST19:
 3047 0216 16000000 		.4byte	.LVL49
 3048 021a 19000000 		.4byte	.LVL50-1
 3049 021e 0100     		.2byte	0x1
 3050 0220 50       		.byte	0x50
 3051 0221 19000000 		.4byte	.LVL50-1
 3052 0225 24000000 		.4byte	.LFE12
 3053 0229 0100     		.2byte	0x1
 3054 022b 54       		.byte	0x54
 3055 022c 00000000 		.4byte	0
 3056 0230 00000000 		.4byte	0
 3057              	.LLST20:
 3058 0234 00000000 		.4byte	.LVL51
 3059 0238 0B000000 		.4byte	.LVL52-1
 3060 023c 0100     		.2byte	0x1
 3061 023e 50       		.byte	0x50
 3062 023f 0B000000 		.4byte	.LVL52-1
 3063 0243 78000000 		.4byte	.LFE15
 3064 0247 0100     		.2byte	0x1
 3065 0249 56       		.byte	0x56
 3066 024a 00000000 		.4byte	0
 3067 024e 00000000 		.4byte	0
 3068              	.LLST21:
 3069 0252 00000000 		.4byte	.LVL51
 3070 0256 0B000000 		.4byte	.LVL52-1
 3071 025a 0100     		.2byte	0x1
 3072 025c 51       		.byte	0x51
 3073 025d 0B000000 		.4byte	.LVL52-1
 3074 0261 78000000 		.4byte	.LFE15
 3075 0265 0100     		.2byte	0x1
 3076 0267 58       		.byte	0x58
 3077 0268 00000000 		.4byte	0
 3078 026c 00000000 		.4byte	0
 3079              	.LLST22:
 3080 0270 24000000 		.4byte	.LVL54
 3081 0274 44000000 		.4byte	.LVL58
 3082 0278 0100     		.2byte	0x1
 3083 027a 50       		.byte	0x50
 3084 027b 44000000 		.4byte	.LVL58
 3085 027f 5C000000 		.4byte	.LVL63
 3086 0283 0100     		.2byte	0x1
 3087 0285 57       		.byte	0x57
 3088 0286 00000000 		.4byte	0
 3089 028a 00000000 		.4byte	0
 3090              	.LLST23:
 3091 028e 4E000000 		.4byte	.LVL60
 3092 0292 52000000 		.4byte	.LVL61
 3093 0296 0100     		.2byte	0x1
 3094 0298 50       		.byte	0x50
 3095 0299 52000000 		.4byte	.LVL61
ARM GAS  /tmp/ccFfwfDD.s 			page 56


 3096 029d 5C000000 		.4byte	.LVL63
 3097 02a1 0100     		.2byte	0x1
 3098 02a3 54       		.byte	0x54
 3099 02a4 00000000 		.4byte	0
 3100 02a8 00000000 		.4byte	0
 3101              	.LLST24:
 3102 02ac 28000000 		.4byte	.LVL55
 3103 02b0 2A000000 		.4byte	.LVL56
 3104 02b4 0100     		.2byte	0x1
 3105 02b6 53       		.byte	0x53
 3106 02b7 2A000000 		.4byte	.LVL56
 3107 02bb 5C000000 		.4byte	.LVL63
 3108 02bf 0100     		.2byte	0x1
 3109 02c1 56       		.byte	0x56
 3110 02c2 00000000 		.4byte	0
 3111 02c6 00000000 		.4byte	0
 3112              	.LLST25:
 3113 02ca 28000000 		.4byte	.LVL55
 3114 02ce 5C000000 		.4byte	.LVL63
 3115 02d2 0100     		.2byte	0x1
 3116 02d4 55       		.byte	0x55
 3117 02d5 00000000 		.4byte	0
 3118 02d9 00000000 		.4byte	0
 3119              	.LLST26:
 3120 02dd 28000000 		.4byte	.LVL55
 3121 02e1 49000000 		.4byte	.LVL59-1
 3122 02e5 0100     		.2byte	0x1
 3123 02e7 53       		.byte	0x53
 3124 02e8 00000000 		.4byte	0
 3125 02ec 00000000 		.4byte	0
 3126              	.LLST27:
 3127 02f0 00000000 		.4byte	.LVL66
 3128 02f4 0F000000 		.4byte	.LVL67-1
 3129 02f8 0100     		.2byte	0x1
 3130 02fa 50       		.byte	0x50
 3131 02fb 0F000000 		.4byte	.LVL67-1
 3132 02ff 28000000 		.4byte	.LFE14
 3133 0303 0100     		.2byte	0x1
 3134 0305 55       		.byte	0x55
 3135 0306 00000000 		.4byte	0
 3136 030a 00000000 		.4byte	0
 3137              	.LLST28:
 3138 030e 00000000 		.4byte	.LVL66
 3139 0312 0F000000 		.4byte	.LVL67-1
 3140 0316 0100     		.2byte	0x1
 3141 0318 51       		.byte	0x51
 3142 0319 0F000000 		.4byte	.LVL67-1
 3143 031d 1A000000 		.4byte	.LVL69
 3144 0321 0100     		.2byte	0x1
 3145 0323 54       		.byte	0x54
 3146 0324 1A000000 		.4byte	.LVL69
 3147 0328 28000000 		.4byte	.LFE14
 3148 032c 0400     		.2byte	0x4
 3149 032e F3       		.byte	0xf3
 3150 032f 01       		.uleb128 0x1
 3151 0330 51       		.byte	0x51
 3152 0331 9F       		.byte	0x9f
ARM GAS  /tmp/ccFfwfDD.s 			page 57


 3153 0332 00000000 		.4byte	0
 3154 0336 00000000 		.4byte	0
 3155              	.LLST29:
 3156 033a 1A000000 		.4byte	.LVL69
 3157 033e 1D000000 		.4byte	.LVL70-1
 3158 0342 0100     		.2byte	0x1
 3159 0344 50       		.byte	0x50
 3160 0345 1D000000 		.4byte	.LVL70-1
 3161 0349 28000000 		.4byte	.LFE14
 3162 034d 0100     		.2byte	0x1
 3163 034f 54       		.byte	0x54
 3164 0350 00000000 		.4byte	0
 3165 0354 00000000 		.4byte	0
 3166              		.section	.debug_aranges,"",%progbits
 3167 0000 5C000000 		.4byte	0x5c
 3168 0004 0200     		.2byte	0x2
 3169 0006 00000000 		.4byte	.Ldebug_info0
 3170 000a 04       		.byte	0x4
 3171 000b 00       		.byte	0
 3172 000c 0000     		.2byte	0
 3173 000e 0000     		.2byte	0
 3174 0010 00000000 		.4byte	.LFB7
 3175 0014 1C000000 		.4byte	.LFE7-.LFB7
 3176 0018 00000000 		.4byte	.LFB8
 3177 001c 3C000000 		.4byte	.LFE8-.LFB8
 3178 0020 00000000 		.4byte	.LFB9
 3179 0024 2C000000 		.4byte	.LFE9-.LFB9
 3180 0028 00000000 		.4byte	.LFB11
 3181 002c 34000000 		.4byte	.LFE11-.LFB11
 3182 0030 00000000 		.4byte	.LFB10
 3183 0034 24000000 		.4byte	.LFE10-.LFB10
 3184 0038 00000000 		.4byte	.LFB13
 3185 003c 64000000 		.4byte	.LFE13-.LFB13
 3186 0040 00000000 		.4byte	.LFB12
 3187 0044 24000000 		.4byte	.LFE12-.LFB12
 3188 0048 00000000 		.4byte	.LFB15
 3189 004c 78000000 		.4byte	.LFE15-.LFB15
 3190 0050 00000000 		.4byte	.LFB14
 3191 0054 28000000 		.4byte	.LFE14-.LFB14
 3192 0058 00000000 		.4byte	0
 3193 005c 00000000 		.4byte	0
 3194              		.section	.debug_ranges,"",%progbits
 3195              	.Ldebug_ranges0:
 3196 0000 16000000 		.4byte	.LBB15
 3197 0004 1A000000 		.4byte	.LBE15
 3198 0008 1C000000 		.4byte	.LBB18
 3199 000c 1E000000 		.4byte	.LBE18
 3200 0010 00000000 		.4byte	0
 3201 0014 00000000 		.4byte	0
 3202 0018 02000000 		.4byte	.LBB24
 3203 001c 04000000 		.4byte	.LBE24
 3204 0020 06000000 		.4byte	.LBB25
 3205 0024 0A000000 		.4byte	.LBE25
 3206 0028 00000000 		.4byte	0
 3207 002c 00000000 		.4byte	0
 3208 0030 1A000000 		.4byte	.LBB27
 3209 0034 32000000 		.4byte	.LBE27
ARM GAS  /tmp/ccFfwfDD.s 			page 58


 3210 0038 34000000 		.4byte	.LBB30
 3211 003c 38000000 		.4byte	.LBE30
 3212 0040 00000000 		.4byte	0
 3213 0044 00000000 		.4byte	0
 3214 0048 02000000 		.4byte	.LBB31
 3215 004c 04000000 		.4byte	.LBE31
 3216 0050 06000000 		.4byte	.LBB32
 3217 0054 0A000000 		.4byte	.LBE32
 3218 0058 00000000 		.4byte	0
 3219 005c 00000000 		.4byte	0
 3220 0060 24000000 		.4byte	.LBB34
 3221 0064 26000000 		.4byte	.LBE34
 3222 0068 2A000000 		.4byte	.LBB39
 3223 006c 3E000000 		.4byte	.LBE39
 3224 0070 40000000 		.4byte	.LBB40
 3225 0074 42000000 		.4byte	.LBE40
 3226 0078 44000000 		.4byte	.LBB41
 3227 007c 46000000 		.4byte	.LBE41
 3228 0080 00000000 		.4byte	0
 3229 0084 00000000 		.4byte	0
 3230 0088 00000000 		.4byte	.LFB7
 3231 008c 1C000000 		.4byte	.LFE7
 3232 0090 00000000 		.4byte	.LFB8
 3233 0094 3C000000 		.4byte	.LFE8
 3234 0098 00000000 		.4byte	.LFB9
 3235 009c 2C000000 		.4byte	.LFE9
 3236 00a0 00000000 		.4byte	.LFB11
 3237 00a4 34000000 		.4byte	.LFE11
 3238 00a8 00000000 		.4byte	.LFB10
 3239 00ac 24000000 		.4byte	.LFE10
 3240 00b0 00000000 		.4byte	.LFB13
 3241 00b4 64000000 		.4byte	.LFE13
 3242 00b8 00000000 		.4byte	.LFB12
 3243 00bc 24000000 		.4byte	.LFE12
 3244 00c0 00000000 		.4byte	.LFB15
 3245 00c4 78000000 		.4byte	.LFE15
 3246 00c8 00000000 		.4byte	.LFB14
 3247 00cc 28000000 		.4byte	.LFE14
 3248 00d0 00000000 		.4byte	0
 3249 00d4 00000000 		.4byte	0
 3250              		.section	.debug_line,"",%progbits
 3251              	.Ldebug_line0:
 3252 0000 C4020000 		.section	.debug_str,"MS",%progbits,1
 3252      02003E01 
 3252      00000201 
 3252      FB0E0D00 
 3252      01010101 
 3253              	.LASF42:
 3254 0000 705F6D73 		.ascii	"p_msg\000"
 3254      6700
 3255              	.LASF82:
 3256 0006 63684462 		.ascii	"chDbgPanic\000"
 3256      6750616E 
 3256      696300
 3257              	.LASF72:
 3258 0011 6368436F 		.ascii	"chCondInit\000"
 3258      6E64496E 
ARM GAS  /tmp/ccFfwfDD.s 			page 59


 3258      697400
 3259              	.LASF67:
 3260 001c 7264796D 		.ascii	"rdymsg\000"
 3260      736700
 3261              	.LASF16:
 3262 0023 75696E74 		.ascii	"uint64_t\000"
 3262      36345F74 
 3262      00
 3263              	.LASF24:
 3264 002c 6576656E 		.ascii	"eventmask_t\000"
 3264      746D6173 
 3264      6B5F7400 
 3265              	.LASF5:
 3266 0038 5F5F7569 		.ascii	"__uint8_t\000"
 3266      6E74385F 
 3266      7400
 3267              	.LASF12:
 3268 0042 6C6F6E67 		.ascii	"long long unsigned int\000"
 3268      206C6F6E 
 3268      6720756E 
 3268      7369676E 
 3268      65642069 
 3269              	.LASF75:
 3270 0059 6368436F 		.ascii	"chCondBroadcastI\000"
 3270      6E644272 
 3270      6F616463 
 3270      61737449 
 3270      00
 3271              	.LASF29:
 3272 006a 705F7072 		.ascii	"p_prio\000"
 3272      696F00
 3273              	.LASF10:
 3274 0071 6C6F6E67 		.ascii	"long long int\000"
 3274      206C6F6E 
 3274      6720696E 
 3274      7400
 3275              	.LASF1:
 3276 007f 7369676E 		.ascii	"signed char\000"
 3276      65642063 
 3276      68617200 
 3277              	.LASF46:
 3278 008b 705F6D70 		.ascii	"p_mpool\000"
 3278      6F6F6C00 
 3279              	.LASF62:
 3280 0093 6D5F7175 		.ascii	"m_queue\000"
 3280      65756500 
 3281              	.LASF21:
 3282 009b 74736C69 		.ascii	"tslices_t\000"
 3282      6365735F 
 3282      7400
 3283              	.LASF65:
 3284 00a5 436F6E64 		.ascii	"CondVar\000"
 3284      56617200 
 3285              	.LASF7:
 3286 00ad 6C6F6E67 		.ascii	"long int\000"
 3286      20696E74 
 3286      00
ARM GAS  /tmp/ccFfwfDD.s 			page 60


 3287              	.LASF19:
 3288 00b6 74737461 		.ascii	"tstate_t\000"
 3288      74655F74 
 3288      00
 3289              	.LASF31:
 3290 00bf 705F6E65 		.ascii	"p_newer\000"
 3290      77657200 
 3291              	.LASF68:
 3292 00c7 65786974 		.ascii	"exitcode\000"
 3292      636F6465 
 3292      00
 3293              	.LASF87:
 3294 00d0 63685363 		.ascii	"chSchRescheduleS\000"
 3294      68526573 
 3294      63686564 
 3294      756C6553 
 3294      00
 3295              	.LASF8:
 3296 00e1 5F5F7569 		.ascii	"__uint32_t\000"
 3296      6E743332 
 3296      5F7400
 3297              	.LASF49:
 3298 00ec 72656761 		.ascii	"regarm_t\000"
 3298      726D5F74 
 3298      00
 3299              	.LASF73:
 3300 00f5 6368436F 		.ascii	"chCondSignal\000"
 3300      6E645369 
 3300      676E616C 
 3300      00
 3301              	.LASF34:
 3302 0102 705F7374 		.ascii	"p_stklimit\000"
 3302      6B6C696D 
 3302      697400
 3303              	.LASF0:
 3304 010d 756E7369 		.ascii	"unsigned int\000"
 3304      676E6564 
 3304      20696E74 
 3304      00
 3305              	.LASF9:
 3306 011a 6C6F6E67 		.ascii	"long unsigned int\000"
 3306      20756E73 
 3306      69676E65 
 3306      6420696E 
 3306      7400
 3307              	.LASF52:
 3308 012c 636F6E74 		.ascii	"context\000"
 3308      65787400 
 3309              	.LASF4:
 3310 0134 73686F72 		.ascii	"short unsigned int\000"
 3310      7420756E 
 3310      7369676E 
 3310      65642069 
 3310      6E7400
 3311              	.LASF23:
 3312 0147 6D73675F 		.ascii	"msg_t\000"
 3312      7400
ARM GAS  /tmp/ccFfwfDD.s 			page 61


 3313              	.LASF57:
 3314 014d 725F6E65 		.ascii	"r_newer\000"
 3314      77657200 
 3315              	.LASF86:
 3316 0155 63684462 		.ascii	"chDbgCheckClassI\000"
 3316      67436865 
 3316      636B436C 
 3316      61737349 
 3316      00
 3317              	.LASF18:
 3318 0166 746D6F64 		.ascii	"tmode_t\000"
 3318      655F7400 
 3319              	.LASF88:
 3320 016e 63684462 		.ascii	"chDbgCheckClassS\000"
 3320      67436865 
 3320      636B436C 
 3320      61737353 
 3320      00
 3321              	.LASF48:
 3322 017f 54687265 		.ascii	"ThreadsList\000"
 3322      6164734C 
 3322      69737400 
 3323              	.LASF93:
 3324 018b 2E2E2F2E 		.ascii	"../../../../os/kernel/src/chcond.c\000"
 3324      2E2F2E2E 
 3324      2F2E2E2F 
 3324      6F732F6B 
 3324      65726E65 
 3325              	.LASF61:
 3326 01ae 4D757465 		.ascii	"Mutex\000"
 3326      7800
 3327              	.LASF50:
 3328 01b4 73746B61 		.ascii	"stkalign_t\000"
 3328      6C69676E 
 3328      5F7400
 3329              	.LASF85:
 3330 01bf 6462675F 		.ascii	"dbg_check_unlock\000"
 3330      63686563 
 3330      6B5F756E 
 3330      6C6F636B 
 3330      00
 3331              	.LASF53:
 3332 01d0 73697A65 		.ascii	"sizetype\000"
 3332      74797065 
 3332      00
 3333              	.LASF79:
 3334 01d9 6368436F 		.ascii	"chCondWaitTimeoutS\000"
 3334      6E645761 
 3334      69745469 
 3334      6D656F75 
 3334      745300
 3335              	.LASF32:
 3336 01ec 705F6F6C 		.ascii	"p_older\000"
 3336      64657200 
 3337              	.LASF56:
 3338 01f4 725F6374 		.ascii	"r_ctx\000"
 3338      7800
ARM GAS  /tmp/ccFfwfDD.s 			page 62


 3339              	.LASF47:
 3340 01fa 54687265 		.ascii	"ThreadsQueue\000"
 3340      61647351 
 3340      75657565 
 3340      00
 3341              	.LASF80:
 3342 0207 74696D65 		.ascii	"time\000"
 3342      00
 3343              	.LASF59:
 3344 020c 725F6375 		.ascii	"r_current\000"
 3344      7272656E 
 3344      7400
 3345              	.LASF58:
 3346 0216 725F6F6C 		.ascii	"r_older\000"
 3346      64657200 
 3347              	.LASF76:
 3348 021e 6368436F 		.ascii	"chCondBroadcast\000"
 3348      6E644272 
 3348      6F616463 
 3348      61737400 
 3349              	.LASF11:
 3350 022e 5F5F7569 		.ascii	"__uint64_t\000"
 3350      6E743634 
 3350      5F7400
 3351              	.LASF20:
 3352 0239 74726566 		.ascii	"trefs_t\000"
 3352      735F7400 
 3353              	.LASF28:
 3354 0241 705F7072 		.ascii	"p_prev\000"
 3354      657600
 3355              	.LASF22:
 3356 0248 74707269 		.ascii	"tprio_t\000"
 3356      6F5F7400 
 3357              	.LASF74:
 3358 0250 6368436F 		.ascii	"chCondSignalI\000"
 3358      6E645369 
 3358      676E616C 
 3358      4900
 3359              	.LASF17:
 3360 025e 5F426F6F 		.ascii	"_Bool\000"
 3360      6C00
 3361              	.LASF14:
 3362 0264 696E7433 		.ascii	"int32_t\000"
 3362      325F7400 
 3363              	.LASF2:
 3364 026c 756E7369 		.ascii	"unsigned char\000"
 3364      676E6564 
 3364      20636861 
 3364      7200
 3365              	.LASF44:
 3366 027a 705F6D74 		.ascii	"p_mtxlist\000"
 3366      786C6973 
 3366      7400
 3367              	.LASF3:
 3368 0284 73686F72 		.ascii	"short int\000"
 3368      7420696E 
 3368      7400
ARM GAS  /tmp/ccFfwfDD.s 			page 63


 3369              	.LASF35:
 3370 028e 705F7374 		.ascii	"p_state\000"
 3370      61746500 
 3371              	.LASF38:
 3372 0296 705F7072 		.ascii	"p_preempt\000"
 3372      65656D70 
 3372      7400
 3373              	.LASF55:
 3374 02a0 725F7072 		.ascii	"r_prio\000"
 3374      696F00
 3375              	.LASF70:
 3376 02a7 65776D61 		.ascii	"ewmask\000"
 3376      736B00
 3377              	.LASF27:
 3378 02ae 705F6E65 		.ascii	"p_next\000"
 3378      787400
 3379              	.LASF36:
 3380 02b5 705F666C 		.ascii	"p_flags\000"
 3380      61677300 
 3381              	.LASF99:
 3382 02bd 63684D74 		.ascii	"chMtxUnlockS\000"
 3382      78556E6C 
 3382      6F636B53 
 3382      00
 3383              	.LASF26:
 3384 02ca 54687265 		.ascii	"Thread\000"
 3384      616400
 3385              	.LASF66:
 3386 02d1 635F7175 		.ascii	"c_queue\000"
 3386      65756500 
 3387              	.LASF89:
 3388 02d9 63685363 		.ascii	"chSchGoSleepS\000"
 3388      68476F53 
 3388      6C656570 
 3388      5300
 3389              	.LASF43:
 3390 02e7 705F6570 		.ascii	"p_epending\000"
 3390      656E6469 
 3390      6E6700
 3391              	.LASF15:
 3392 02f2 75696E74 		.ascii	"uint32_t\000"
 3392      33325F74 
 3392      00
 3393              	.LASF54:
 3394 02fb 725F7175 		.ascii	"r_queue\000"
 3394      65756500 
 3395              	.LASF71:
 3396 0303 63686172 		.ascii	"char\000"
 3396      00
 3397              	.LASF95:
 3398 0308 6669666F 		.ascii	"fifo_remove\000"
 3398      5F72656D 
 3398      6F766500 
 3399              	.LASF77:
 3400 0314 6368436F 		.ascii	"chCondWaitS\000"
 3400      6E645761 
 3400      69745300 
ARM GAS  /tmp/ccFfwfDD.s 			page 64


 3401              	.LASF98:
 3402 0320 63685363 		.ascii	"chSchReadyI\000"
 3402      68526561 
 3402      64794900 
 3403              	.LASF64:
 3404 032c 6D5F6E65 		.ascii	"m_next\000"
 3404      787400
 3405              	.LASF25:
 3406 0333 73797374 		.ascii	"systime_t\000"
 3406      696D655F 
 3406      7400
 3407              	.LASF45:
 3408 033d 705F7265 		.ascii	"p_realprio\000"
 3408      616C7072 
 3408      696F00
 3409              	.LASF6:
 3410 0348 5F5F696E 		.ascii	"__int32_t\000"
 3410      7433325F 
 3410      7400
 3411              	.LASF96:
 3412 0352 7072696F 		.ascii	"prio_insert\000"
 3412      5F696E73 
 3412      65727400 
 3413              	.LASF78:
 3414 035e 6368436F 		.ascii	"chCondWait\000"
 3414      6E645761 
 3414      697400
 3415              	.LASF39:
 3416 0369 705F7469 		.ascii	"p_time\000"
 3416      6D6500
 3417              	.LASF51:
 3418 0370 696E7463 		.ascii	"intctx\000"
 3418      747800
 3419              	.LASF41:
 3420 0377 705F6D73 		.ascii	"p_msgqueue\000"
 3420      67717565 
 3420      756500
 3421              	.LASF92:
 3422 0382 474E5520 		.ascii	"GNU C 4.8.3 -mcpu=cortex-m4 -mfloat-abi=softfp -mfp"
 3422      4320342E 
 3422      382E3320 
 3422      2D6D6370 
 3422      753D636F 
 3423 03b5 753D6670 		.ascii	"u=fpv4-sp-d16 -mno-thumb-interwork -mthumb -ggdb -O"
 3423      76342D73 
 3423      702D6431 
 3423      36202D6D 
 3423      6E6F2D74 
 3424 03e8 32202D66 		.ascii	"2 -fomit-frame-pointer -falign-functions=16 -fsingl"
 3424      6F6D6974 
 3424      2D667261 
 3424      6D652D70 
 3424      6F696E74 
 3425 041b 652D7072 		.ascii	"e-precision-constant -ffunction-sections -fdata-sec"
 3425      65636973 
 3425      696F6E2D 
 3425      636F6E73 
ARM GAS  /tmp/ccFfwfDD.s 			page 65


 3425      74616E74 
 3426 044e 74696F6E 		.ascii	"tions -fno-common\000"
 3426      73202D66 
 3426      6E6F2D63 
 3426      6F6D6D6F 
 3426      6E00
 3427              	.LASF94:
 3428 0460 2F686F6D 		.ascii	"/home/jordyaw/Documents/referensi/coba/ChibiOS_2.5."
 3428      652F6A6F 
 3428      72647961 
 3428      772F446F 
 3428      63756D65 
 3429 0493 32782F74 		.ascii	"2x/testhal/STM32F30x/WSC Juara Bismillah/program sc"
 3429      65737468 
 3429      616C2F53 
 3429      544D3332 
 3429      46333078 
 3430 04c6 616E6E69 		.ascii	"anning data controller\000"
 3430      6E672064 
 3430      61746120 
 3430      636F6E74 
 3430      726F6C6C 
 3431              	.LASF83:
 3432 04dd 63685363 		.ascii	"chSchWakeupS\000"
 3432      6857616B 
 3432      65757053 
 3432      00
 3433              	.LASF37:
 3434 04ea 705F7265 		.ascii	"p_refs\000"
 3434      667300
 3435              	.LASF60:
 3436 04f1 52656164 		.ascii	"ReadyList\000"
 3436      794C6973 
 3436      7400
 3437              	.LASF97:
 3438 04fb 726C6973 		.ascii	"rlist\000"
 3438      7400
 3439              	.LASF13:
 3440 0501 75696E74 		.ascii	"uint8_t\000"
 3440      385F7400 
 3441              	.LASF69:
 3442 0509 77746F62 		.ascii	"wtobjp\000"
 3442      6A7000
 3443              	.LASF33:
 3444 0510 705F6E61 		.ascii	"p_name\000"
 3444      6D6500
 3445              	.LASF81:
 3446 0517 6368436F 		.ascii	"chCondWaitTimeout\000"
 3446      6E645761 
 3446      69745469 
 3446      6D656F75 
 3446      7400
 3447              	.LASF91:
 3448 0529 63685363 		.ascii	"chSchGoSleepTimeoutS\000"
 3448      68476F53 
 3448      6C656570 
 3448      54696D65 
ARM GAS  /tmp/ccFfwfDD.s 			page 66


 3448      6F757453 
 3449              	.LASF90:
 3450 053e 63684D74 		.ascii	"chMtxLockS\000"
 3450      784C6F63 
 3450      6B5300
 3451              	.LASF63:
 3452 0549 6D5F6F77 		.ascii	"m_owner\000"
 3452      6E657200 
 3453              	.LASF84:
 3454 0551 6462675F 		.ascii	"dbg_check_lock\000"
 3454      63686563 
 3454      6B5F6C6F 
 3454      636B00
 3455              	.LASF30:
 3456 0560 705F6374 		.ascii	"p_ctx\000"
 3456      7800
 3457              	.LASF40:
 3458 0566 705F7761 		.ascii	"p_waiting\000"
 3458      6974696E 
 3458      6700
 3459              		.ident	"GCC: (4.8.3-18ubuntu2+12) 4.8.3"
ARM GAS  /tmp/ccFfwfDD.s 			page 67


DEFINED SYMBOLS
                            *ABS*:0000000000000000 chcond.c
     /tmp/ccFfwfDD.s:20     .text.chCondInit:0000000000000000 $t
     /tmp/ccFfwfDD.s:26     .text.chCondInit:0000000000000000 chCondInit
     /tmp/ccFfwfDD.s:59     .text.chCondInit:0000000000000018 $d
     /tmp/ccFfwfDD.s:64     .text.chCondSignal:0000000000000000 $t
     /tmp/ccFfwfDD.s:70     .text.chCondSignal:0000000000000000 chCondSignal
     /tmp/ccFfwfDD.s:143    .text.chCondSignal:0000000000000038 $d
     /tmp/ccFfwfDD.s:148    .text.chCondSignalI:0000000000000000 $t
     /tmp/ccFfwfDD.s:154    .text.chCondSignalI:0000000000000000 chCondSignalI
     /tmp/ccFfwfDD.s:204    .text.chCondSignalI:0000000000000028 $d
     /tmp/ccFfwfDD.s:209    .text.chCondBroadcastI:0000000000000000 $t
     /tmp/ccFfwfDD.s:215    .text.chCondBroadcastI:0000000000000000 chCondBroadcastI
     /tmp/ccFfwfDD.s:273    .text.chCondBroadcastI:0000000000000030 $d
     /tmp/ccFfwfDD.s:278    .text.chCondBroadcast:0000000000000000 $t
     /tmp/ccFfwfDD.s:284    .text.chCondBroadcast:0000000000000000 chCondBroadcast
     /tmp/ccFfwfDD.s:332    .text.chCondWaitS:0000000000000000 $t
     /tmp/ccFfwfDD.s:338    .text.chCondWaitS:0000000000000000 chCondWaitS
     /tmp/ccFfwfDD.s:443    .text.chCondWaitS:0000000000000058 $d
     /tmp/ccFfwfDD.s:450    .text.chCondWait:0000000000000000 $t
     /tmp/ccFfwfDD.s:456    .text.chCondWait:0000000000000000 chCondWait
     /tmp/ccFfwfDD.s:505    .text.chCondWaitTimeoutS:0000000000000000 $t
     /tmp/ccFfwfDD.s:511    .text.chCondWaitTimeoutS:0000000000000000 chCondWaitTimeoutS
     /tmp/ccFfwfDD.s:638    .text.chCondWaitTimeoutS:000000000000006c $d
     /tmp/ccFfwfDD.s:645    .text.chCondWaitTimeout:0000000000000000 $t
     /tmp/ccFfwfDD.s:651    .text.chCondWaitTimeout:0000000000000000 chCondWaitTimeout
     /tmp/ccFfwfDD.s:701    .rodata.str1.4:0000000000000000 $d
                     .debug_frame:0000000000000010 $d
     /tmp/ccFfwfDD.s:63     .text.chCondInit:000000000000001c $t
     /tmp/ccFfwfDD.s:147    .text.chCondSignal:000000000000003c $t
     /tmp/ccFfwfDD.s:208    .text.chCondSignalI:000000000000002c $t
     /tmp/ccFfwfDD.s:277    .text.chCondBroadcastI:0000000000000034 $t
     /tmp/ccFfwfDD.s:449    .text.chCondWaitS:0000000000000064 $t
     /tmp/ccFfwfDD.s:644    .text.chCondWaitTimeoutS:0000000000000078 $t

UNDEFINED SYMBOLS
chDbgPanic
dbg_check_lock
chSchWakeupS
dbg_check_unlock
chDbgCheckClassI
chSchReadyI
chSchRescheduleS
chDbgCheckClassS
chMtxUnlockS
chSchGoSleepS
chMtxLockS
rlist
chSchGoSleepTimeoutS
