ARM GAS  /tmp/ccFfwfDD.s 			page 1


   1              		.syntax unified
   2              		.cpu cortex-m4
   3              		.eabi_attribute 27, 3
   4              		.fpu fpv4-sp-d16
   5              		.eabi_attribute 20, 1
   6              		.eabi_attribute 21, 1
   7              		.eabi_attribute 23, 3
   8              		.eabi_attribute 24, 1
   9              		.eabi_attribute 25, 1
  10              		.eabi_attribute 26, 1
  11              		.eabi_attribute 30, 2
  12              		.eabi_attribute 34, 1
  13              		.eabi_attribute 18, 4
  14              		.thumb
  15              		.file	"chcond.c"
  16              		.text
  17              	.Ltext0:
  18              		.cfi_sections	.debug_frame
  19              		.section	.text.chCondInit,"ax",%progbits
  20              		.align	2
  21              		.p2align 4,,15
  22              		.global	chCondInit
  23              		.thumb
  24              		.thumb_func
  25              		.type	chCondInit, %function
  26              	chCondInit:
  27              	.LFB7:
  28              		.file 1 "../../../../os/kernel/src/chcond.c"
  29              		.loc 1 52 0
  30              		.cfi_startproc
  31              		@ args = 0, pretend = 0, frame = 0
  32              		@ frame_needed = 0, uses_anonymous_args = 0
  33              	.LVL0:
  34 0000 10B5     		push	{r4, lr}
  35              		.cfi_def_cfa_offset 8
  36              		.cfi_offset 4, -8
  37              		.cfi_offset 14, -4
  38              		.loc 1 54 0
  39 0002 0446     		mov	r4, r0
  40 0004 10B1     		cbz	r0, .L4
  41              		.loc 1 56 0
  42 0006 6460     		str	r4, [r4, #4]
  43 0008 2460     		str	r4, [r4]
  44 000a 10BD     		pop	{r4, pc}
  45              	.L4:
  46              		.loc 1 54 0 discriminator 1
  47 000c 0248     		ldr	r0, .L5
  48              	.LVL1:
  49 000e FFF7FEFF 		bl	chDbgPanic
  50              	.LVL2:
  51              		.loc 1 56 0 discriminator 1
  52 0012 6460     		str	r4, [r4, #4]
  53 0014 2460     		str	r4, [r4]
  54 0016 10BD     		pop	{r4, pc}
  55              	.LVL3:
  56              	.L6:
  57              		.align	2
ARM GAS  /tmp/ccFfwfDD.s 			page 2


  58              	.L5:
  59 0018 00000000 		.word	.LC0
  60              		.cfi_endproc
  61              	.LFE7:
  62              		.size	chCondInit, .-chCondInit
  63 001c AFF30080 		.section	.text.chCondSignal,"ax",%progbits
  64              		.align	2
  65              		.p2align 4,,15
  66              		.global	chCondSignal
  67              		.thumb
  68              		.thumb_func
  69              		.type	chCondSignal, %function
  70              	chCondSignal:
  71              	.LFB8:
  72              		.loc 1 66 0
  73              		.cfi_startproc
  74              		@ args = 0, pretend = 0, frame = 0
  75              		@ frame_needed = 0, uses_anonymous_args = 0
  76              	.LVL4:
  77 0000 10B5     		push	{r4, lr}
  78              		.cfi_def_cfa_offset 8
  79              		.cfi_offset 4, -8
  80              		.cfi_offset 14, -4
  81              		.loc 1 68 0
  82 0002 0446     		mov	r4, r0
  83 0004 98B1     		cbz	r0, .L10
  84              	.LVL5:
  85              	.L8:
  86              	.LBB14:
  87              		.loc 1 70 0
  88 0006 2023     		movs	r3, #32
  89              	@ 70 "../../../../os/kernel/src/chcond.c" 1
  90 0008 83F31188 		msr     BASEPRI, r3
  91              	@ 0 "" 2
  92              		.thumb
  93              	.LBE14:
  94 000c FFF7FEFF 		bl	dbg_check_lock
  95              	.LVL6:
  96              		.loc 1 71 0
  97 0010 2068     		ldr	r0, [r4]
  98 0012 A042     		cmp	r0, r4
  99 0014 05D0     		beq	.L9
 100              	.LVL7:
 101              	.LBB15:
 102              	.LBB16:
 103              		.file 2 "../../../../os/kernel/include/chinline.h"
 104              		.loc 2 55 0
 105 0016 0368     		ldr	r3, [r0]
 106 0018 2360     		str	r3, [r4]
 107              	.LBE16:
 108              	.LBE15:
 109              		.loc 1 72 0
 110 001a 0021     		movs	r1, #0
 111              	.LBB18:
 112              	.LBB17:
 113              		.loc 2 55 0
 114 001c 5C60     		str	r4, [r3, #4]
ARM GAS  /tmp/ccFfwfDD.s 			page 3


 115              	.LBE17:
 116              	.LBE18:
 117              		.loc 1 72 0
 118 001e FFF7FEFF 		bl	chSchWakeupS
 119              	.LVL8:
 120              	.L9:
 121              		.loc 1 73 0
 122 0022 FFF7FEFF 		bl	dbg_check_unlock
 123              	.LVL9:
 124              	.LBB19:
 125 0026 0023     		movs	r3, #0
 126              	@ 73 "../../../../os/kernel/src/chcond.c" 1
 127 0028 83F31188 		msr     BASEPRI, r3
 128              	@ 0 "" 2
 129              		.thumb
 130 002c 10BD     		pop	{r4, pc}
 131              	.LVL10:
 132              	.L10:
 133              	.LBE19:
 134              		.loc 1 68 0 discriminator 1
 135 002e 0248     		ldr	r0, .L11
 136              	.LVL11:
 137 0030 FFF7FEFF 		bl	chDbgPanic
 138              	.LVL12:
 139 0034 E7E7     		b	.L8
 140              	.L12:
 141 0036 00BF     		.align	2
 142              	.L11:
 143 0038 10000000 		.word	.LC1
 144              		.cfi_endproc
 145              	.LFE8:
 146              		.size	chCondSignal, .-chCondSignal
 147 003c AFF30080 		.section	.text.chCondSignalI,"ax",%progbits
 148              		.align	2
 149              		.p2align 4,,15
 150              		.global	chCondSignalI
 151              		.thumb
 152              		.thumb_func
 153              		.type	chCondSignalI, %function
 154              	chCondSignalI:
 155              	.LFB9:
 156              		.loc 1 87 0
 157              		.cfi_startproc
 158              		@ args = 0, pretend = 0, frame = 0
 159              		@ frame_needed = 0, uses_anonymous_args = 0
 160              	.LVL13:
 161 0000 10B5     		push	{r4, lr}
 162              		.cfi_def_cfa_offset 8
 163              		.cfi_offset 4, -8
 164              		.cfi_offset 14, -4
 165              		.loc 1 87 0
 166 0002 0446     		mov	r4, r0
 167              		.loc 1 89 0
 168 0004 FFF7FEFF 		bl	chDbgCheckClassI
 169              	.LVL14:
 170              		.loc 1 90 0
 171 0008 54B1     		cbz	r4, .L16
ARM GAS  /tmp/ccFfwfDD.s 			page 4


 172              	.L14:
 173              		.loc 1 92 0
 174 000a 2068     		ldr	r0, [r4]
 175 000c A042     		cmp	r0, r4
 176 000e 06D0     		beq	.L13
 177              	.LVL15:
 178              	.LBB20:
 179              	.LBB21:
 180              		.loc 2 55 0
 181 0010 0368     		ldr	r3, [r0]
 182 0012 2360     		str	r3, [r4]
 183 0014 5C60     		str	r4, [r3, #4]
 184              	.LBE21:
 185              	.LBE20:
 186              		.loc 1 93 0
 187 0016 FFF7FEFF 		bl	chSchReadyI
 188              	.LVL16:
 189 001a 0023     		movs	r3, #0
 190 001c 8362     		str	r3, [r0, #40]
 191              	.LVL17:
 192              	.L13:
 193 001e 10BD     		pop	{r4, pc}
 194              	.LVL18:
 195              	.L16:
 196              		.loc 1 90 0 discriminator 1
 197 0020 0148     		ldr	r0, .L17
 198 0022 FFF7FEFF 		bl	chDbgPanic
 199              	.LVL19:
 200 0026 F0E7     		b	.L14
 201              	.L18:
 202              		.align	2
 203              	.L17:
 204 0028 24000000 		.word	.LC2
 205              		.cfi_endproc
 206              	.LFE9:
 207              		.size	chCondSignalI, .-chCondSignalI
 208 002c AFF30080 		.section	.text.chCondBroadcastI,"ax",%progbits
 209              		.align	2
 210              		.p2align 4,,15
 211              		.global	chCondBroadcastI
 212              		.thumb
 213              		.thumb_func
 214              		.type	chCondBroadcastI, %function
 215              	chCondBroadcastI:
 216              	.LFB11:
 217              		.loc 1 122 0
 218              		.cfi_startproc
 219              		@ args = 0, pretend = 0, frame = 0
 220              		@ frame_needed = 0, uses_anonymous_args = 0
 221              	.LVL20:
 222 0000 38B5     		push	{r3, r4, r5, lr}
 223              		.cfi_def_cfa_offset 16
 224              		.cfi_offset 3, -16
 225              		.cfi_offset 4, -12
 226              		.cfi_offset 5, -8
 227              		.cfi_offset 14, -4
 228              		.loc 1 122 0
ARM GAS  /tmp/ccFfwfDD.s 			page 5


 229 0002 0446     		mov	r4, r0
 230              		.loc 1 124 0
 231 0004 FFF7FEFF 		bl	chDbgCheckClassI
 232              	.LVL21:
 233              		.loc 1 125 0
 234 0008 74B1     		cbz	r4, .L24
 235              	.L20:
 236              		.loc 1 130 0 discriminator 1
 237 000a 2068     		ldr	r0, [r4]
 238 000c A042     		cmp	r0, r4
 239 000e 0AD0     		beq	.L19
 240              		.loc 1 131 0
 241 0010 6FF00105 		mvn	r5, #1
 242              	.L23:
 243              	.LVL22:
 244              	.LBB22:
 245              	.LBB23:
 246              		.loc 2 55 0
 247 0014 0368     		ldr	r3, [r0]
 248 0016 2360     		str	r3, [r4]
 249 0018 5C60     		str	r4, [r3, #4]
 250              	.LBE23:
 251              	.LBE22:
 252              		.loc 1 131 0
 253 001a FFF7FEFF 		bl	chSchReadyI
 254              	.LVL23:
 255 001e 8562     		str	r5, [r0, #40]
 256              		.loc 1 130 0
 257 0020 2068     		ldr	r0, [r4]
 258 0022 A042     		cmp	r0, r4
 259 0024 F6D1     		bne	.L23
 260              	.LVL24:
 261              	.L19:
 262 0026 38BD     		pop	{r3, r4, r5, pc}
 263              	.LVL25:
 264              	.L24:
 265              		.loc 1 125 0 discriminator 1
 266 0028 0148     		ldr	r0, .L25
 267 002a FFF7FEFF 		bl	chDbgPanic
 268              	.LVL26:
 269 002e ECE7     		b	.L20
 270              	.L26:
 271              		.align	2
 272              	.L25:
 273 0030 38000000 		.word	.LC3
 274              		.cfi_endproc
 275              	.LFE11:
 276              		.size	chCondBroadcastI, .-chCondBroadcastI
 277 0034 AFF30080 		.section	.text.chCondBroadcast,"ax",%progbits
 277      AFF30080 
 277      AFF30080 
 278              		.align	2
 279              		.p2align 4,,15
 280              		.global	chCondBroadcast
 281              		.thumb
 282              		.thumb_func
 283              		.type	chCondBroadcast, %function
ARM GAS  /tmp/ccFfwfDD.s 			page 6


 284              	chCondBroadcast:
 285              	.LFB10:
 286              		.loc 1 103 0
 287              		.cfi_startproc
 288              		@ args = 0, pretend = 0, frame = 0
 289              		@ frame_needed = 0, uses_anonymous_args = 0
 290              	.LVL27:
 291 0000 10B5     		push	{r4, lr}
 292              		.cfi_def_cfa_offset 8
 293              		.cfi_offset 4, -8
 294              		.cfi_offset 14, -4
 295              	.LBB24:
 296              		.loc 1 105 0
 297 0002 2023     		movs	r3, #32
 298              	.LBE24:
 299              		.loc 1 103 0
 300 0004 0446     		mov	r4, r0
 301              	.LBB25:
 302              		.loc 1 105 0
 303              	@ 105 "../../../../os/kernel/src/chcond.c" 1
 304 0006 83F31188 		msr     BASEPRI, r3
 305              	@ 0 "" 2
 306              		.thumb
 307              	.LBE25:
 308 000a FFF7FEFF 		bl	dbg_check_lock
 309              	.LVL28:
 310              		.loc 1 106 0
 311 000e 2046     		mov	r0, r4
 312 0010 FFF7FEFF 		bl	chCondBroadcastI
 313              	.LVL29:
 314              		.loc 1 107 0
 315 0014 FFF7FEFF 		bl	chSchRescheduleS
 316              	.LVL30:
 317              		.loc 1 108 0
 318 0018 FFF7FEFF 		bl	dbg_check_unlock
 319              	.LVL31:
 320              	.LBB26:
 321 001c 0023     		movs	r3, #0
 322              	@ 108 "../../../../os/kernel/src/chcond.c" 1
 323 001e 83F31188 		msr     BASEPRI, r3
 324              	@ 0 "" 2
 325              		.thumb
 326 0022 10BD     		pop	{r4, pc}
 327              	.LBE26:
 328              		.cfi_endproc
 329              	.LFE10:
 330              		.size	chCondBroadcast, .-chCondBroadcast
 331 0024 AFF30080 		.section	.text.chCondWaitS,"ax",%progbits
 331      AFF30080 
 331      AFF30080 
 332              		.align	2
 333              		.p2align 4,,15
 334              		.global	chCondWaitS
 335              		.thumb
 336              		.thumb_func
 337              		.type	chCondWaitS, %function
 338              	chCondWaitS:
ARM GAS  /tmp/ccFfwfDD.s 			page 7


 339              	.LFB13:
 340              		.loc 1 177 0
 341              		.cfi_startproc
 342              		@ args = 0, pretend = 0, frame = 0
 343              		@ frame_needed = 0, uses_anonymous_args = 0
 344              	.LVL32:
 345              		.loc 1 178 0
 346 0000 154B     		ldr	r3, .L38
 347              		.loc 1 177 0
 348 0002 70B5     		push	{r4, r5, r6, lr}
 349              		.cfi_def_cfa_offset 16
 350              		.cfi_offset 4, -16
 351              		.cfi_offset 5, -12
 352              		.cfi_offset 6, -8
 353              		.cfi_offset 14, -4
 354              		.loc 1 177 0
 355 0004 0546     		mov	r5, r0
 356              		.loc 1 178 0
 357 0006 9C69     		ldr	r4, [r3, #24]
 358              	.LVL33:
 359              		.loc 1 182 0
 360 0008 FFF7FEFF 		bl	chDbgCheckClassS
 361              	.LVL34:
 362              		.loc 1 183 0
 363 000c E5B1     		cbz	r5, .L35
 364              	.L29:
 365              		.loc 1 184 0
 366 000e 236C     		ldr	r3, [r4, #64]
 367 0010 F3B1     		cbz	r3, .L36
 368              	.L30:
 369              		.loc 1 188 0
 370 0012 FFF7FEFF 		bl	chMtxUnlockS
 371              	.LVL35:
 372              		.loc 1 189 0
 373 0016 A562     		str	r5, [r4, #40]
 374              		.loc 1 188 0
 375 0018 0646     		mov	r6, r0
 376              	.LVL36:
 377              	.LBB27:
 378              	.LBB28:
 379              		.loc 2 36 0
 380 001a 2B46     		mov	r3, r5
 381 001c 03E0     		b	.L33
 382              	.LVL37:
 383              	.L37:
 384              		.loc 2 39 0
 385 001e 9968     		ldr	r1, [r3, #8]
 386 0020 A268     		ldr	r2, [r4, #8]
 387 0022 9142     		cmp	r1, r2
 388 0024 02D3     		bcc	.L32
 389              	.L33:
 390              		.loc 2 38 0
 391 0026 1B68     		ldr	r3, [r3]
 392              	.LVL38:
 393              		.loc 2 39 0
 394 0028 9D42     		cmp	r5, r3
 395 002a F8D1     		bne	.L37
ARM GAS  /tmp/ccFfwfDD.s 			page 8


 396              	.L32:
 397              		.loc 2 41 0
 398 002c 5A68     		ldr	r2, [r3, #4]
 399 002e 6260     		str	r2, [r4, #4]
 400              		.loc 2 40 0
 401 0030 2360     		str	r3, [r4]
 402              	.LBE28:
 403              	.LBE27:
 404              		.loc 1 191 0
 405 0032 0520     		movs	r0, #5
 406              	.LVL39:
 407              	.LBB30:
 408              	.LBB29:
 409              		.loc 2 42 0
 410 0034 5C60     		str	r4, [r3, #4]
 411 0036 1460     		str	r4, [r2]
 412              	.LBE29:
 413              	.LBE30:
 414              		.loc 1 191 0
 415 0038 FFF7FEFF 		bl	chSchGoSleepS
 416              	.LVL40:
 417              		.loc 1 192 0
 418 003c A46A     		ldr	r4, [r4, #40]
 419              	.LVL41:
 420              		.loc 1 193 0
 421 003e 3046     		mov	r0, r6
 422 0040 FFF7FEFF 		bl	chMtxLockS
 423              	.LVL42:
 424              		.loc 1 195 0
 425 0044 2046     		mov	r0, r4
 426 0046 70BD     		pop	{r4, r5, r6, pc}
 427              	.LVL43:
 428              	.L35:
 429              		.loc 1 183 0 discriminator 1
 430 0048 0448     		ldr	r0, .L38+4
 431 004a FFF7FEFF 		bl	chDbgPanic
 432              	.LVL44:
 433 004e DEE7     		b	.L29
 434              	.L36:
 435              		.loc 1 184 0 discriminator 1
 436 0050 0348     		ldr	r0, .L38+8
 437 0052 FFF7FEFF 		bl	chDbgPanic
 438              	.LVL45:
 439 0056 DCE7     		b	.L30
 440              	.L39:
 441              		.align	2
 442              	.L38:
 443 0058 00000000 		.word	rlist
 444 005c 50000000 		.word	.LC4
 445 0060 60000000 		.word	.LC5
 446              		.cfi_endproc
 447              	.LFE13:
 448              		.size	chCondWaitS, .-chCondWaitS
 449 0064 AFF30080 		.section	.text.chCondWait,"ax",%progbits
 449      AFF30080 
 449      AFF30080 
 450              		.align	2
ARM GAS  /tmp/ccFfwfDD.s 			page 9


 451              		.p2align 4,,15
 452              		.global	chCondWait
 453              		.thumb
 454              		.thumb_func
 455              		.type	chCondWait, %function
 456              	chCondWait:
 457              	.LFB12:
 458              		.loc 1 151 0
 459              		.cfi_startproc
 460              		@ args = 0, pretend = 0, frame = 0
 461              		@ frame_needed = 0, uses_anonymous_args = 0
 462              	.LVL46:
 463 0000 10B5     		push	{r4, lr}
 464              		.cfi_def_cfa_offset 8
 465              		.cfi_offset 4, -8
 466              		.cfi_offset 14, -4
 467              	.LBB31:
 468              		.loc 1 154 0
 469 0002 2023     		movs	r3, #32
 470              	.LBE31:
 471              		.loc 1 151 0
 472 0004 0446     		mov	r4, r0
 473              	.LBB32:
 474              		.loc 1 154 0
 475              	@ 154 "../../../../os/kernel/src/chcond.c" 1
 476 0006 83F31188 		msr     BASEPRI, r3
 477              	@ 0 "" 2
 478              		.thumb
 479              	.LBE32:
 480 000a FFF7FEFF 		bl	dbg_check_lock
 481              	.LVL47:
 482              		.loc 1 155 0
 483 000e 2046     		mov	r0, r4
 484 0010 FFF7FEFF 		bl	chCondWaitS
 485              	.LVL48:
 486 0014 0446     		mov	r4, r0
 487              	.LVL49:
 488              		.loc 1 156 0
 489 0016 FFF7FEFF 		bl	dbg_check_unlock
 490              	.LVL50:
 491              	.LBB33:
 492 001a 0023     		movs	r3, #0
 493              	@ 156 "../../../../os/kernel/src/chcond.c" 1
 494 001c 83F31188 		msr     BASEPRI, r3
 495              	@ 0 "" 2
 496              		.thumb
 497              	.LBE33:
 498              		.loc 1 158 0
 499 0020 2046     		mov	r0, r4
 500 0022 10BD     		pop	{r4, pc}
 501              		.cfi_endproc
 502              	.LFE12:
 503              		.size	chCondWait, .-chCondWait
 504 0024 AFF30080 		.section	.text.chCondWaitTimeoutS,"ax",%progbits
 504      AFF30080 
 504      AFF30080 
 505              		.align	2
ARM GAS  /tmp/ccFfwfDD.s 			page 10


 506              		.p2align 4,,15
 507              		.global	chCondWaitTimeoutS
 508              		.thumb
 509              		.thumb_func
 510              		.type	chCondWaitTimeoutS, %function
 511              	chCondWaitTimeoutS:
 512              	.LFB15:
 513              		.loc 1 263 0
 514              		.cfi_startproc
 515              		@ args = 0, pretend = 0, frame = 0
 516              		@ frame_needed = 0, uses_anonymous_args = 0
 517              	.LVL51:
 518 0000 2DE9F041 		push	{r4, r5, r6, r7, r8, lr}
 519              		.cfi_def_cfa_offset 24
 520              		.cfi_offset 4, -24
 521              		.cfi_offset 5, -20
 522              		.cfi_offset 6, -16
 523              		.cfi_offset 7, -12
 524              		.cfi_offset 8, -8
 525              		.cfi_offset 14, -4
 526              		.loc 1 263 0
 527 0004 0646     		mov	r6, r0
 528 0006 8846     		mov	r8, r1
 529              		.loc 1 267 0
 530 0008 FFF7FEFF 		bl	chDbgCheckClassS
 531              	.LVL52:
 532              		.loc 1 268 0
 533 000c 36B3     		cbz	r6, .L42
 534              		.loc 1 268 0 is_stmt 0 discriminator 2
 535 000e B8F1000F 		cmp	r8, #0
 536 0012 23D0     		beq	.L42
 537              	.L43:
 538              		.loc 1 269 0 is_stmt 1
 539 0014 154C     		ldr	r4, .L54
 540 0016 A369     		ldr	r3, [r4, #24]
 541 0018 1B6C     		ldr	r3, [r3, #64]
 542 001a 1BB3     		cbz	r3, .L53
 543              	.L44:
 544              		.loc 1 273 0
 545 001c FFF7FEFF 		bl	chMtxUnlockS
 546              	.LVL53:
 547              		.loc 1 274 0
 548 0020 A569     		ldr	r5, [r4, #24]
 549              		.loc 1 273 0
 550 0022 0746     		mov	r7, r0
 551              	.LVL54:
 552              	.LBB34:
 553              	.LBB35:
 554              		.loc 2 36 0
 555 0024 3346     		mov	r3, r6
 556              	.LBE35:
 557              	.LBE34:
 558              		.loc 1 274 0
 559 0026 AE62     		str	r6, [r5, #40]
 560              	.LVL55:
 561 0028 03E0     		b	.L49
 562              	.LVL56:
ARM GAS  /tmp/ccFfwfDD.s 			page 11


 563              	.L45:
 564              	.LBB39:
 565              	.LBB36:
 566              		.loc 2 39 0
 567 002a 9C68     		ldr	r4, [r3, #8]
 568 002c AA68     		ldr	r2, [r5, #8]
 569 002e 9442     		cmp	r4, r2
 570 0030 02D3     		bcc	.L48
 571              	.L49:
 572              		.loc 2 38 0
 573 0032 1B68     		ldr	r3, [r3]
 574              	.LVL57:
 575              		.loc 2 39 0
 576 0034 9E42     		cmp	r6, r3
 577 0036 F8D1     		bne	.L45
 578              	.L48:
 579              		.loc 2 41 0
 580 0038 5A68     		ldr	r2, [r3, #4]
 581 003a 6A60     		str	r2, [r5, #4]
 582              		.loc 2 40 0
 583 003c 2B60     		str	r3, [r5]
 584              	.LBE36:
 585              	.LBE39:
 586              		.loc 1 276 0
 587 003e 4146     		mov	r1, r8
 588              	.LBB40:
 589              	.LBB37:
 590              		.loc 2 42 0
 591 0040 5D60     		str	r5, [r3, #4]
 592              	.LBE37:
 593              	.LBE40:
 594              		.loc 1 276 0
 595 0042 0520     		movs	r0, #5
 596              	.LVL58:
 597              	.LBB41:
 598              	.LBB38:
 599              		.loc 2 42 0
 600 0044 1560     		str	r5, [r2]
 601              	.LBE38:
 602              	.LBE41:
 603              		.loc 1 276 0
 604 0046 FFF7FEFF 		bl	chSchGoSleepTimeoutS
 605              	.LVL59:
 606              		.loc 1 277 0
 607 004a 431C     		adds	r3, r0, #1
 608              		.loc 1 276 0
 609 004c 0446     		mov	r4, r0
 610              	.LVL60:
 611              		.loc 1 277 0
 612 004e 02D0     		beq	.L47
 613              		.loc 1 278 0
 614 0050 3846     		mov	r0, r7
 615              	.LVL61:
 616 0052 FFF7FEFF 		bl	chMtxLockS
 617              	.LVL62:
 618              	.L47:
 619              		.loc 1 280 0
ARM GAS  /tmp/ccFfwfDD.s 			page 12


 620 0056 2046     		mov	r0, r4
 621 0058 BDE8F081 		pop	{r4, r5, r6, r7, r8, pc}
 622              	.LVL63:
 623              	.L42:
 624              		.loc 1 268 0 discriminator 1
 625 005c 0448     		ldr	r0, .L54+4
 626 005e FFF7FEFF 		bl	chDbgPanic
 627              	.LVL64:
 628 0062 D7E7     		b	.L43
 629              	.L53:
 630              		.loc 1 269 0 discriminator 1
 631 0064 0348     		ldr	r0, .L54+8
 632 0066 FFF7FEFF 		bl	chDbgPanic
 633              	.LVL65:
 634 006a D7E7     		b	.L44
 635              	.L55:
 636              		.align	2
 637              	.L54:
 638 006c 00000000 		.word	rlist
 639 0070 74000000 		.word	.LC6
 640 0074 8C000000 		.word	.LC7
 641              		.cfi_endproc
 642              	.LFE15:
 643              		.size	chCondWaitTimeoutS, .-chCondWaitTimeoutS
 644 0078 AFF30080 		.section	.text.chCondWaitTimeout,"ax",%progbits
 644      AFF30080 
 645              		.align	2
 646              		.p2align 4,,15
 647              		.global	chCondWaitTimeout
 648              		.thumb
 649              		.thumb_func
 650              		.type	chCondWaitTimeout, %function
 651              	chCondWaitTimeout:
 652              	.LFB14:
 653              		.loc 1 226 0
 654              		.cfi_startproc
 655              		@ args = 0, pretend = 0, frame = 0
 656              		@ frame_needed = 0, uses_anonymous_args = 0
 657              	.LVL66:
 658 0000 38B5     		push	{r3, r4, r5, lr}
 659              		.cfi_def_cfa_offset 16
 660              		.cfi_offset 3, -16
 661              		.cfi_offset 4, -12
 662              		.cfi_offset 5, -8
 663              		.cfi_offset 14, -4
 664              		.loc 1 226 0
 665 0002 0546     		mov	r5, r0
 666 0004 0C46     		mov	r4, r1
 667              	.LBB42:
 668              		.loc 1 229 0
 669 0006 2023     		movs	r3, #32
 670              	@ 229 "../../../../os/kernel/src/chcond.c" 1
 671 0008 83F31188 		msr     BASEPRI, r3
 672              	@ 0 "" 2
 673              		.thumb
 674              	.LBE42:
 675 000c FFF7FEFF 		bl	dbg_check_lock
ARM GAS  /tmp/ccFfwfDD.s 			page 13


 676              	.LVL67:
 677              		.loc 1 230 0
 678 0010 2146     		mov	r1, r4
 679 0012 2846     		mov	r0, r5
 680 0014 FFF7FEFF 		bl	chCondWaitTimeoutS
 681              	.LVL68:
 682 0018 0446     		mov	r4, r0
 683              	.LVL69:
 684              		.loc 1 231 0
 685 001a FFF7FEFF 		bl	dbg_check_unlock
 686              	.LVL70:
 687              	.LBB43:
 688 001e 0023     		movs	r3, #0
 689              	@ 231 "../../../../os/kernel/src/chcond.c" 1
 690 0020 83F31188 		msr     BASEPRI, r3
 691              	@ 0 "" 2
 692              		.thumb
 693              	.LBE43:
 694              		.loc 1 233 0
 695 0024 2046     		mov	r0, r4
 696 0026 38BD     		pop	{r3, r4, r5, pc}
 697              		.cfi_endproc
 698              	.LFE14:
 699              		.size	chCondWaitTimeout, .-chCondWaitTimeout
 700 0028 AFF30080 		.section	.rodata.str1.4,"aMS",%progbits,1
 700      AFF30080 
 701              		.align	2
 702              	.LC0:
 703 0000 22636843 		.ascii	"\"chCondInit\"()\000"
 703      6F6E6449 
 703      6E697422 
 703      282900
 704 000f 00       		.space	1
 705              	.LC1:
 706 0010 22636843 		.ascii	"\"chCondSignal\"()\000"
 706      6F6E6453 
 706      69676E61 
 706      6C222829 
 706      00
 707 0021 000000   		.space	3
 708              	.LC2:
 709 0024 22636843 		.ascii	"\"chCondSignalI\"()\000"
 709      6F6E6453 
 709      69676E61 
 709      6C492228 
 709      2900
 710 0036 0000     		.space	2
 711              	.LC3:
 712 0038 22636843 		.ascii	"\"chCondBroadcastI\"()\000"
 712      6F6E6442 
 712      726F6164 
 712      63617374 
 712      49222829 
 713 004d 000000   		.space	3
 714              	.LC4:
 715 0050 22636843 		.ascii	"\"chCondWaitS\"()\000"
 715      6F6E6457 
ARM GAS  /tmp/ccFfwfDD.s 			page 14


 715      61697453 
 715      22282900 
 716              	.LC5:
 717 0060 6368436F 		.ascii	"chCondWaitS(), #1\000"
 717      6E645761 
 717      69745328 
 717      292C2023 
 717      3100
 718 0072 0000     		.space	2
 719              	.LC6:
 720 0074 22636843 		.ascii	"\"chCondWaitTimeoutS\"()\000"
 720      6F6E6457 
 720      61697454 
 720      696D656F 
 720      75745322 
 721 008b 00       		.space	1
 722              	.LC7:
 723 008c 6368436F 		.ascii	"chCondWaitTimeoutS(), #1\000"
 723      6E645761 
 723      69745469 
 723      6D656F75 
 723      74532829 
 724 00a5 000000   		.text
 725              	.Letext0:
 726              		.file 3 "/usr/include/newlib/machine/_default_types.h"
 727              		.file 4 "/usr/include/newlib/stdint.h"
 728              		.file 5 "../../../../os/ports/GCC/ARMCMx/chtypes.h"
 729              		.file 6 "../../../../os/kernel/include/chlists.h"
 730              		.file 7 "../../../../os/kernel/include/chthreads.h"
 731              		.file 8 "../../../../os/ports/GCC/ARMCMx/chcore_v7m.h"
 732              		.file 9 "../../../../os/kernel/include/chschd.h"
 733              		.file 10 "../../../../os/kernel/include/chmtx.h"
 734              		.file 11 "../../../../os/kernel/include/chcond.h"
 735              		.file 12 "../../../../os/kernel/include/chdebug.h"