ARM GAS  /tmp/ccFcPkm3.s 			page 1


   1              		.syntax unified
   2              		.cpu cortex-m4
   3              		.eabi_attribute 27, 3
   4              		.fpu fpv4-sp-d16
   5              		.eabi_attribute 20, 1
   6              		.eabi_attribute 21, 1
   7              		.eabi_attribute 23, 3
   8              		.eabi_attribute 24, 1
   9              		.eabi_attribute 25, 1
  10              		.eabi_attribute 26, 1
  11              		.eabi_attribute 30, 2
  12              		.eabi_attribute 34, 1
  13              		.eabi_attribute 18, 4
  14              		.thumb
  15              		.file	"chdebug.c"
  16              		.text
  17              	.Ltext0:
  18              		.cfi_sections	.debug_frame
  19              		.section	.text.dbg_check_disable,"ax",%progbits
  20              		.align	2
  21              		.p2align 4,,15
  22              		.global	dbg_check_disable
  23              		.thumb
  24              		.thumb_func
  25              		.type	dbg_check_disable, %function
  26              	dbg_check_disable:
  27              	.LFB7:
  28              		.file 1 "../../../../os/kernel/src/chdebug.c"
  29              		.loc 1 74 0
  30              		.cfi_startproc
  31              		@ args = 0, pretend = 0, frame = 0
  32              		@ frame_needed = 0, uses_anonymous_args = 0
  33              		@ link register save eliminated.
  34              		.loc 1 76 0
  35 0000 054B     		ldr	r3, .L5
  36 0002 1B68     		ldr	r3, [r3]
  37 0004 13B9     		cbnz	r3, .L2
  38              		.loc 1 76 0 is_stmt 0 discriminator 1
  39 0006 054B     		ldr	r3, .L5+4
  40 0008 1B68     		ldr	r3, [r3]
  41 000a 23B1     		cbz	r3, .L1
  42              	.L2:
  43              	.LVL0:
  44              	.LBB28:
  45              	.LBB29:
  46              		.loc 1 266 0 is_stmt 1
  47 000c 044B     		ldr	r3, .L5+8
  48 000e 054A     		ldr	r2, .L5+12
  49 0010 1A60     		str	r2, [r3]
  50              		.loc 1 267 0
  51 0012 FFF7FEBF 		b	port_halt
  52              	.LVL1:
  53              	.L1:
  54 0016 7047     		bx	lr
  55              	.L6:
  56              		.align	2
  57              	.L5:
ARM GAS  /tmp/ccFcPkm3.s 			page 2


  58 0018 00000000 		.word	.LANCHOR0
  59 001c 00000000 		.word	.LANCHOR1
  60 0020 00000000 		.word	.LANCHOR2
  61 0024 00000000 		.word	.LC0
  62              	.LBE29:
  63              	.LBE28:
  64              		.cfi_endproc
  65              	.LFE7:
  66              		.size	dbg_check_disable, .-dbg_check_disable
  67 0028 AFF30080 		.section	.text.dbg_check_suspend,"ax",%progbits
  67      AFF30080 
  68              		.align	2
  69              		.p2align 4,,15
  70              		.global	dbg_check_suspend
  71              		.thumb
  72              		.thumb_func
  73              		.type	dbg_check_suspend, %function
  74              	dbg_check_suspend:
  75              	.LFB8:
  76              		.loc 1 85 0
  77              		.cfi_startproc
  78              		@ args = 0, pretend = 0, frame = 0
  79              		@ frame_needed = 0, uses_anonymous_args = 0
  80              		@ link register save eliminated.
  81              		.loc 1 87 0
  82 0000 054B     		ldr	r3, .L10
  83 0002 1B68     		ldr	r3, [r3]
  84 0004 13B9     		cbnz	r3, .L8
  85              		.loc 1 87 0 is_stmt 0 discriminator 1
  86 0006 054B     		ldr	r3, .L10+4
  87 0008 1B68     		ldr	r3, [r3]
  88 000a 23B1     		cbz	r3, .L7
  89              	.L8:
  90              	.LVL2:
  91              	.LBB30:
  92              	.LBB31:
  93              		.loc 1 266 0 is_stmt 1
  94 000c 044B     		ldr	r3, .L10+8
  95 000e 054A     		ldr	r2, .L10+12
  96 0010 1A60     		str	r2, [r3]
  97              		.loc 1 267 0
  98 0012 FFF7FEBF 		b	port_halt
  99              	.LVL3:
 100              	.L7:
 101 0016 7047     		bx	lr
 102              	.L11:
 103              		.align	2
 104              	.L10:
 105 0018 00000000 		.word	.LANCHOR0
 106 001c 00000000 		.word	.LANCHOR1
 107 0020 00000000 		.word	.LANCHOR2
 108 0024 08000000 		.word	.LC1
 109              	.LBE31:
 110              	.LBE30:
 111              		.cfi_endproc
 112              	.LFE8:
 113              		.size	dbg_check_suspend, .-dbg_check_suspend
ARM GAS  /tmp/ccFcPkm3.s 			page 3


 114 0028 AFF30080 		.section	.text.dbg_check_enable,"ax",%progbits
 114      AFF30080 
 115              		.align	2
 116              		.p2align 4,,15
 117              		.global	dbg_check_enable
 118              		.thumb
 119              		.thumb_func
 120              		.type	dbg_check_enable, %function
 121              	dbg_check_enable:
 122              	.LFB9:
 123              		.loc 1 96 0
 124              		.cfi_startproc
 125              		@ args = 0, pretend = 0, frame = 0
 126              		@ frame_needed = 0, uses_anonymous_args = 0
 127              		@ link register save eliminated.
 128              		.loc 1 98 0
 129 0000 054B     		ldr	r3, .L15
 130 0002 1B68     		ldr	r3, [r3]
 131 0004 13B9     		cbnz	r3, .L13
 132              		.loc 1 98 0 is_stmt 0 discriminator 1
 133 0006 054B     		ldr	r3, .L15+4
 134 0008 1B68     		ldr	r3, [r3]
 135 000a 23B1     		cbz	r3, .L12
 136              	.L13:
 137              	.LVL4:
 138              	.LBB32:
 139              	.LBB33:
 140              		.loc 1 266 0 is_stmt 1
 141 000c 044B     		ldr	r3, .L15+8
 142 000e 054A     		ldr	r2, .L15+12
 143 0010 1A60     		str	r2, [r3]
 144              		.loc 1 267 0
 145 0012 FFF7FEBF 		b	port_halt
 146              	.LVL5:
 147              	.L12:
 148 0016 7047     		bx	lr
 149              	.L16:
 150              		.align	2
 151              	.L15:
 152 0018 00000000 		.word	.LANCHOR0
 153 001c 00000000 		.word	.LANCHOR1
 154 0020 00000000 		.word	.LANCHOR2
 155 0024 10000000 		.word	.LC2
 156              	.LBE33:
 157              	.LBE32:
 158              		.cfi_endproc
 159              	.LFE9:
 160              		.size	dbg_check_enable, .-dbg_check_enable
 161 0028 AFF30080 		.section	.text.dbg_check_lock,"ax",%progbits
 161      AFF30080 
 162              		.align	2
 163              		.p2align 4,,15
 164              		.global	dbg_check_lock
 165              		.thumb
 166              		.thumb_func
 167              		.type	dbg_check_lock, %function
 168              	dbg_check_lock:
ARM GAS  /tmp/ccFcPkm3.s 			page 4


 169              	.LFB10:
 170              		.loc 1 107 0
 171              		.cfi_startproc
 172              		@ args = 0, pretend = 0, frame = 0
 173              		@ frame_needed = 0, uses_anonymous_args = 0
 174              		.loc 1 109 0
 175 0000 074B     		ldr	r3, .L25
 176 0002 1B68     		ldr	r3, [r3]
 177              		.loc 1 107 0
 178 0004 10B5     		push	{r4, lr}
 179              		.cfi_def_cfa_offset 8
 180              		.cfi_offset 4, -8
 181              		.cfi_offset 14, -4
 182 0006 074C     		ldr	r4, .L25+4
 183              		.loc 1 109 0
 184 0008 0BB9     		cbnz	r3, .L18
 185              		.loc 1 109 0 is_stmt 0 discriminator 1
 186 000a 2368     		ldr	r3, [r4]
 187 000c 23B1     		cbz	r3, .L19
 188              	.L18:
 189              	.LVL6:
 190              	.LBB34:
 191              	.LBB35:
 192              		.loc 1 266 0 is_stmt 1
 193 000e 064B     		ldr	r3, .L25+8
 194 0010 064A     		ldr	r2, .L25+12
 195 0012 1A60     		str	r2, [r3]
 196              		.loc 1 267 0
 197 0014 FFF7FEFF 		bl	port_halt
 198              	.LVL7:
 199              	.L19:
 200              	.LBE35:
 201              	.LBE34:
 202              		.loc 1 111 0
 203 0018 0123     		movs	r3, #1
 204 001a 2360     		str	r3, [r4]
 205 001c 10BD     		pop	{r4, pc}
 206              	.L26:
 207 001e 00BF     		.align	2
 208              	.L25:
 209 0020 00000000 		.word	.LANCHOR0
 210 0024 00000000 		.word	.LANCHOR1
 211 0028 00000000 		.word	.LANCHOR2
 212 002c 18000000 		.word	.LC3
 213              		.cfi_endproc
 214              	.LFE10:
 215              		.size	dbg_check_lock, .-dbg_check_lock
 216              		.section	.text.dbg_check_unlock,"ax",%progbits
 217              		.align	2
 218              		.p2align 4,,15
 219              		.global	dbg_check_unlock
 220              		.thumb
 221              		.thumb_func
 222              		.type	dbg_check_unlock, %function
 223              	dbg_check_unlock:
 224              	.LFB11:
 225              		.loc 1 119 0
ARM GAS  /tmp/ccFcPkm3.s 			page 5


 226              		.cfi_startproc
 227              		@ args = 0, pretend = 0, frame = 0
 228              		@ frame_needed = 0, uses_anonymous_args = 0
 229              		.loc 1 121 0
 230 0000 094B     		ldr	r3, .L32
 231 0002 1B68     		ldr	r3, [r3]
 232              		.loc 1 119 0
 233 0004 10B5     		push	{r4, lr}
 234              		.cfi_def_cfa_offset 8
 235              		.cfi_offset 4, -8
 236              		.cfi_offset 14, -4
 237 0006 094C     		ldr	r4, .L32+4
 238              		.loc 1 121 0
 239 0008 2BB9     		cbnz	r3, .L28
 240              		.loc 1 121 0 is_stmt 0 discriminator 1
 241 000a 2368     		ldr	r3, [r4]
 242 000c 002B     		cmp	r3, #0
 243 000e 02DD     		ble	.L28
 244              		.loc 1 123 0 is_stmt 1
 245 0010 0023     		movs	r3, #0
 246 0012 2360     		str	r3, [r4]
 247 0014 10BD     		pop	{r4, pc}
 248              	.L28:
 249              	.LVL8:
 250              	.LBB36:
 251              	.LBB37:
 252              		.loc 1 266 0
 253 0016 064B     		ldr	r3, .L32+8
 254 0018 064A     		ldr	r2, .L32+12
 255 001a 1A60     		str	r2, [r3]
 256              		.loc 1 267 0
 257 001c FFF7FEFF 		bl	port_halt
 258              	.LVL9:
 259              	.LBE37:
 260              	.LBE36:
 261              		.loc 1 123 0
 262 0020 0023     		movs	r3, #0
 263 0022 2360     		str	r3, [r4]
 264 0024 10BD     		pop	{r4, pc}
 265              	.L33:
 266 0026 00BF     		.align	2
 267              	.L32:
 268 0028 00000000 		.word	.LANCHOR0
 269 002c 00000000 		.word	.LANCHOR1
 270 0030 00000000 		.word	.LANCHOR2
 271 0034 20000000 		.word	.LC4
 272              		.cfi_endproc
 273              	.LFE11:
 274              		.size	dbg_check_unlock, .-dbg_check_unlock
 275 0038 AFF30080 		.section	.text.dbg_check_lock_from_isr,"ax",%progbits
 275      AFF30080 
 276              		.align	2
 277              		.p2align 4,,15
 278              		.global	dbg_check_lock_from_isr
 279              		.thumb
 280              		.thumb_func
 281              		.type	dbg_check_lock_from_isr, %function
ARM GAS  /tmp/ccFcPkm3.s 			page 6


 282              	dbg_check_lock_from_isr:
 283              	.LFB12:
 284              		.loc 1 131 0
 285              		.cfi_startproc
 286              		@ args = 0, pretend = 0, frame = 0
 287              		@ frame_needed = 0, uses_anonymous_args = 0
 288              		.loc 1 133 0
 289 0000 074B     		ldr	r3, .L42
 290 0002 1B68     		ldr	r3, [r3]
 291 0004 002B     		cmp	r3, #0
 292              		.loc 1 131 0
 293 0006 10B5     		push	{r4, lr}
 294              		.cfi_def_cfa_offset 8
 295              		.cfi_offset 4, -8
 296              		.cfi_offset 14, -4
 297 0008 064C     		ldr	r4, .L42+4
 298              		.loc 1 133 0
 299 000a 01DD     		ble	.L35
 300              		.loc 1 133 0 is_stmt 0 discriminator 1
 301 000c 2368     		ldr	r3, [r4]
 302 000e 23B1     		cbz	r3, .L36
 303              	.L35:
 304              	.LVL10:
 305              	.LBB38:
 306              	.LBB39:
 307              		.loc 1 266 0 is_stmt 1
 308 0010 054B     		ldr	r3, .L42+8
 309 0012 064A     		ldr	r2, .L42+12
 310 0014 1A60     		str	r2, [r3]
 311              		.loc 1 267 0
 312 0016 FFF7FEFF 		bl	port_halt
 313              	.LVL11:
 314              	.L36:
 315              	.LBE39:
 316              	.LBE38:
 317              		.loc 1 135 0
 318 001a 0123     		movs	r3, #1
 319 001c 2360     		str	r3, [r4]
 320 001e 10BD     		pop	{r4, pc}
 321              	.L43:
 322              		.align	2
 323              	.L42:
 324 0020 00000000 		.word	.LANCHOR0
 325 0024 00000000 		.word	.LANCHOR1
 326 0028 00000000 		.word	.LANCHOR2
 327 002c 28000000 		.word	.LC5
 328              		.cfi_endproc
 329              	.LFE12:
 330              		.size	dbg_check_lock_from_isr, .-dbg_check_lock_from_isr
 331              		.section	.text.dbg_check_unlock_from_isr,"ax",%progbits
 332              		.align	2
 333              		.p2align 4,,15
 334              		.global	dbg_check_unlock_from_isr
 335              		.thumb
 336              		.thumb_func
 337              		.type	dbg_check_unlock_from_isr, %function
 338              	dbg_check_unlock_from_isr:
ARM GAS  /tmp/ccFcPkm3.s 			page 7


 339              	.LFB13:
 340              		.loc 1 143 0
 341              		.cfi_startproc
 342              		@ args = 0, pretend = 0, frame = 0
 343              		@ frame_needed = 0, uses_anonymous_args = 0
 344              		.loc 1 145 0
 345 0000 094B     		ldr	r3, .L49
 346 0002 1B68     		ldr	r3, [r3]
 347 0004 002B     		cmp	r3, #0
 348              		.loc 1 143 0
 349 0006 10B5     		push	{r4, lr}
 350              		.cfi_def_cfa_offset 8
 351              		.cfi_offset 4, -8
 352              		.cfi_offset 14, -4
 353 0008 084C     		ldr	r4, .L49+4
 354              		.loc 1 145 0
 355 000a 05DD     		ble	.L45
 356              		.loc 1 145 0 is_stmt 0 discriminator 1
 357 000c 2368     		ldr	r3, [r4]
 358 000e 002B     		cmp	r3, #0
 359 0010 02DD     		ble	.L45
 360              		.loc 1 147 0 is_stmt 1
 361 0012 0023     		movs	r3, #0
 362 0014 2360     		str	r3, [r4]
 363 0016 10BD     		pop	{r4, pc}
 364              	.L45:
 365              	.LVL12:
 366              	.LBB40:
 367              	.LBB41:
 368              		.loc 1 266 0
 369 0018 054B     		ldr	r3, .L49+8
 370 001a 064A     		ldr	r2, .L49+12
 371 001c 1A60     		str	r2, [r3]
 372              		.loc 1 267 0
 373 001e FFF7FEFF 		bl	port_halt
 374              	.LVL13:
 375              	.LBE41:
 376              	.LBE40:
 377              		.loc 1 147 0
 378 0022 0023     		movs	r3, #0
 379 0024 2360     		str	r3, [r4]
 380 0026 10BD     		pop	{r4, pc}
 381              	.L50:
 382              		.align	2
 383              	.L49:
 384 0028 00000000 		.word	.LANCHOR0
 385 002c 00000000 		.word	.LANCHOR1
 386 0030 00000000 		.word	.LANCHOR2
 387 0034 30000000 		.word	.LC6
 388              		.cfi_endproc
 389              	.LFE13:
 390              		.size	dbg_check_unlock_from_isr, .-dbg_check_unlock_from_isr
 391 0038 AFF30080 		.section	.text.dbg_check_enter_isr,"ax",%progbits
 391      AFF30080 
 392              		.align	2
 393              		.p2align 4,,15
 394              		.global	dbg_check_enter_isr
ARM GAS  /tmp/ccFcPkm3.s 			page 8


 395              		.thumb
 396              		.thumb_func
 397              		.type	dbg_check_enter_isr, %function
 398              	dbg_check_enter_isr:
 399              	.LFB14:
 400              		.loc 1 155 0
 401              		.cfi_startproc
 402              		@ args = 0, pretend = 0, frame = 0
 403              		@ frame_needed = 0, uses_anonymous_args = 0
 404 0000 10B5     		push	{r4, lr}
 405              		.cfi_def_cfa_offset 8
 406              		.cfi_offset 4, -8
 407              		.cfi_offset 14, -4
 408              	.LBB42:
 409              		.loc 1 157 0
 410 0002 2023     		movs	r3, #32
 411              	@ 157 "../../../../os/kernel/src/chdebug.c" 1
 412 0004 83F31188 		msr     BASEPRI, r3
 413              	@ 0 "" 2
 414              		.thumb
 415              	.LBE42:
 416              		.loc 1 158 0
 417 0008 094C     		ldr	r4, .L55
 418 000a 2368     		ldr	r3, [r4]
 419 000c 002B     		cmp	r3, #0
 420 000e 02DB     		blt	.L52
 421              		.loc 1 158 0 is_stmt 0 discriminator 1
 422 0010 084A     		ldr	r2, .L55+4
 423 0012 1268     		ldr	r2, [r2]
 424 0014 2AB1     		cbz	r2, .L53
 425              	.L52:
 426              	.LVL14:
 427              	.LBB43:
 428              	.LBB44:
 429              		.loc 1 266 0 is_stmt 1
 430 0016 084B     		ldr	r3, .L55+8
 431 0018 084A     		ldr	r2, .L55+12
 432 001a 1A60     		str	r2, [r3]
 433              		.loc 1 267 0
 434 001c FFF7FEFF 		bl	port_halt
 435              	.LVL15:
 436 0020 2368     		ldr	r3, [r4]
 437              	.LVL16:
 438              	.L53:
 439              	.LBE44:
 440              	.LBE43:
 441              		.loc 1 160 0
 442 0022 0133     		adds	r3, r3, #1
 443 0024 2360     		str	r3, [r4]
 444              	.LBB45:
 445              		.loc 1 161 0
 446 0026 0023     		movs	r3, #0
 447              	@ 161 "../../../../os/kernel/src/chdebug.c" 1
 448 0028 83F31188 		msr     BASEPRI, r3
 449              	@ 0 "" 2
 450              		.thumb
 451 002c 10BD     		pop	{r4, pc}
ARM GAS  /tmp/ccFcPkm3.s 			page 9


 452              	.L56:
 453 002e 00BF     		.align	2
 454              	.L55:
 455 0030 00000000 		.word	.LANCHOR0
 456 0034 00000000 		.word	.LANCHOR1
 457 0038 00000000 		.word	.LANCHOR2
 458 003c 38000000 		.word	.LC7
 459              	.LBE45:
 460              		.cfi_endproc
 461              	.LFE14:
 462              		.size	dbg_check_enter_isr, .-dbg_check_enter_isr
 463              		.section	.text.dbg_check_leave_isr,"ax",%progbits
 464              		.align	2
 465              		.p2align 4,,15
 466              		.global	dbg_check_leave_isr
 467              		.thumb
 468              		.thumb_func
 469              		.type	dbg_check_leave_isr, %function
 470              	dbg_check_leave_isr:
 471              	.LFB15:
 472              		.loc 1 169 0
 473              		.cfi_startproc
 474              		@ args = 0, pretend = 0, frame = 0
 475              		@ frame_needed = 0, uses_anonymous_args = 0
 476 0000 10B5     		push	{r4, lr}
 477              		.cfi_def_cfa_offset 8
 478              		.cfi_offset 4, -8
 479              		.cfi_offset 14, -4
 480              	.LBB46:
 481              		.loc 1 171 0
 482 0002 2023     		movs	r3, #32
 483              	@ 171 "../../../../os/kernel/src/chdebug.c" 1
 484 0004 83F31188 		msr     BASEPRI, r3
 485              	@ 0 "" 2
 486              		.thumb
 487              	.LBE46:
 488              		.loc 1 172 0
 489 0008 094C     		ldr	r4, .L61
 490 000a 2368     		ldr	r3, [r4]
 491 000c 002B     		cmp	r3, #0
 492 000e 02DD     		ble	.L58
 493              		.loc 1 172 0 is_stmt 0 discriminator 1
 494 0010 084A     		ldr	r2, .L61+4
 495 0012 1268     		ldr	r2, [r2]
 496 0014 2AB1     		cbz	r2, .L59
 497              	.L58:
 498              	.LVL17:
 499              	.LBB47:
 500              	.LBB48:
 501              		.loc 1 266 0 is_stmt 1
 502 0016 084B     		ldr	r3, .L61+8
 503 0018 084A     		ldr	r2, .L61+12
 504 001a 1A60     		str	r2, [r3]
 505              		.loc 1 267 0
 506 001c FFF7FEFF 		bl	port_halt
 507              	.LVL18:
 508 0020 2368     		ldr	r3, [r4]
ARM GAS  /tmp/ccFcPkm3.s 			page 10


 509              	.LVL19:
 510              	.L59:
 511              	.LBE48:
 512              	.LBE47:
 513              		.loc 1 174 0
 514 0022 013B     		subs	r3, r3, #1
 515 0024 2360     		str	r3, [r4]
 516              	.LBB49:
 517              		.loc 1 175 0
 518 0026 0023     		movs	r3, #0
 519              	@ 175 "../../../../os/kernel/src/chdebug.c" 1
 520 0028 83F31188 		msr     BASEPRI, r3
 521              	@ 0 "" 2
 522              		.thumb
 523 002c 10BD     		pop	{r4, pc}
 524              	.L62:
 525 002e 00BF     		.align	2
 526              	.L61:
 527 0030 00000000 		.word	.LANCHOR0
 528 0034 00000000 		.word	.LANCHOR1
 529 0038 00000000 		.word	.LANCHOR2
 530 003c 40000000 		.word	.LC8
 531              	.LBE49:
 532              		.cfi_endproc
 533              	.LFE15:
 534              		.size	dbg_check_leave_isr, .-dbg_check_leave_isr
 535              		.section	.text.chDbgCheckClassI,"ax",%progbits
 536              		.align	2
 537              		.p2align 4,,15
 538              		.global	chDbgCheckClassI
 539              		.thumb
 540              		.thumb_func
 541              		.type	chDbgCheckClassI, %function
 542              	chDbgCheckClassI:
 543              	.LFB16:
 544              		.loc 1 186 0
 545              		.cfi_startproc
 546              		@ args = 0, pretend = 0, frame = 0
 547              		@ frame_needed = 0, uses_anonymous_args = 0
 548              		@ link register save eliminated.
 549              		.loc 1 188 0
 550 0000 064B     		ldr	r3, .L66
 551 0002 1B68     		ldr	r3, [r3]
 552 0004 002B     		cmp	r3, #0
 553 0006 04DB     		blt	.L64
 554              		.loc 1 188 0 is_stmt 0 discriminator 1
 555 0008 054B     		ldr	r3, .L66+4
 556 000a 1B68     		ldr	r3, [r3]
 557 000c 002B     		cmp	r3, #0
 558 000e 00DD     		ble	.L64
 559 0010 7047     		bx	lr
 560              	.L64:
 561              	.LVL20:
 562              	.LBB50:
 563              	.LBB51:
 564              		.loc 1 266 0 is_stmt 1
 565 0012 044B     		ldr	r3, .L66+8
ARM GAS  /tmp/ccFcPkm3.s 			page 11


 566 0014 044A     		ldr	r2, .L66+12
 567 0016 1A60     		str	r2, [r3]
 568              		.loc 1 267 0
 569 0018 FFF7FEBF 		b	port_halt
 570              	.LVL21:
 571              	.L67:
 572              		.align	2
 573              	.L66:
 574 001c 00000000 		.word	.LANCHOR0
 575 0020 00000000 		.word	.LANCHOR1
 576 0024 00000000 		.word	.LANCHOR2
 577 0028 48000000 		.word	.LC9
 578              	.LBE51:
 579              	.LBE50:
 580              		.cfi_endproc
 581              	.LFE16:
 582              		.size	chDbgCheckClassI, .-chDbgCheckClassI
 583 002c AFF30080 		.section	.text.chDbgCheckClassS,"ax",%progbits
 584              		.align	2
 585              		.p2align 4,,15
 586              		.global	chDbgCheckClassS
 587              		.thumb
 588              		.thumb_func
 589              		.type	chDbgCheckClassS, %function
 590              	chDbgCheckClassS:
 591              	.LFB17:
 592              		.loc 1 200 0
 593              		.cfi_startproc
 594              		@ args = 0, pretend = 0, frame = 0
 595              		@ frame_needed = 0, uses_anonymous_args = 0
 596              		@ link register save eliminated.
 597              		.loc 1 202 0
 598 0000 064B     		ldr	r3, .L71
 599 0002 1B68     		ldr	r3, [r3]
 600 0004 23B9     		cbnz	r3, .L69
 601              		.loc 1 202 0 is_stmt 0 discriminator 1
 602 0006 064B     		ldr	r3, .L71+4
 603 0008 1B68     		ldr	r3, [r3]
 604 000a 002B     		cmp	r3, #0
 605 000c 00DD     		ble	.L69
 606 000e 7047     		bx	lr
 607              	.L69:
 608              	.LVL22:
 609              	.LBB52:
 610              	.LBB53:
 611              		.loc 1 266 0 is_stmt 1
 612 0010 044B     		ldr	r3, .L71+8
 613 0012 054A     		ldr	r2, .L71+12
 614 0014 1A60     		str	r2, [r3]
 615              		.loc 1 267 0
 616 0016 FFF7FEBF 		b	port_halt
 617              	.LVL23:
 618              	.L72:
 619 001a 00BF     		.align	2
 620              	.L71:
 621 001c 00000000 		.word	.LANCHOR0
 622 0020 00000000 		.word	.LANCHOR1
ARM GAS  /tmp/ccFcPkm3.s 			page 12


 623 0024 00000000 		.word	.LANCHOR2
 624 0028 50000000 		.word	.LC10
 625              	.LBE53:
 626              	.LBE52:
 627              		.cfi_endproc
 628              	.LFE17:
 629              		.size	chDbgCheckClassS, .-chDbgCheckClassS
 630 002c AFF30080 		.section	.text._trace_init,"ax",%progbits
 631              		.align	2
 632              		.p2align 4,,15
 633              		.global	_trace_init
 634              		.thumb
 635              		.thumb_func
 636              		.type	_trace_init, %function
 637              	_trace_init:
 638              	.LFB18:
 639              		.loc 1 222 0
 640              		.cfi_startproc
 641              		@ args = 0, pretend = 0, frame = 0
 642              		@ frame_needed = 0, uses_anonymous_args = 0
 643              		@ link register save eliminated.
 644              		.loc 1 224 0
 645 0000 034A     		ldr	r2, .L74
 646 0002 1346     		mov	r3, r2
 647 0004 4021     		movs	r1, #64
 648 0006 43F8081B 		str	r1, [r3], #8
 649              		.loc 1 225 0
 650 000a 5360     		str	r3, [r2, #4]
 651 000c 7047     		bx	lr
 652              	.L75:
 653 000e 00BF     		.align	2
 654              	.L74:
 655 0010 00000000 		.word	.LANCHOR3
 656              		.cfi_endproc
 657              	.LFE18:
 658              		.size	_trace_init, .-_trace_init
 659 0014 AFF30080 		.section	.text.dbg_trace,"ax",%progbits
 659      AFF30080 
 659      AFF30080 
 660              		.align	2
 661              		.p2align 4,,15
 662              		.global	dbg_trace
 663              		.thumb
 664              		.thumb_func
 665              		.type	dbg_trace, %function
 666              	dbg_trace:
 667              	.LFB19:
 668              		.loc 1 235 0
 669              		.cfi_startproc
 670              		@ args = 0, pretend = 0, frame = 0
 671              		@ frame_needed = 0, uses_anonymous_args = 0
 672              		@ link register save eliminated.
 673              	.LVL24:
 674              		.loc 1 237 0
 675 0000 0C4A     		ldr	r2, .L80
 676              		.loc 1 238 0
 677 0002 0D49     		ldr	r1, .L80+4
ARM GAS  /tmp/ccFcPkm3.s 			page 13


 678              		.loc 1 237 0
 679 0004 5368     		ldr	r3, [r2, #4]
 680              		.loc 1 238 0
 681 0006 8969     		ldr	r1, [r1, #24]
 682              		.loc 1 235 0
 683 0008 10B4     		push	{r4}
 684              		.cfi_def_cfa_offset 4
 685              		.cfi_offset 4, -4
 686              		.loc 1 237 0
 687 000a 0C4C     		ldr	r4, .L80+8
 688 000c E468     		ldr	r4, [r4, #12]
 689 000e 1C60     		str	r4, [r3]
 690              		.loc 1 238 0
 691 0010 5960     		str	r1, [r3, #4]
 692              		.loc 1 239 0
 693 0012 816A     		ldr	r1, [r0, #40]
 694 0014 9960     		str	r1, [r3, #8]
 695              		.loc 1 240 0
 696 0016 90F82010 		ldrb	r1, [r0, #32]	@ zero_extendqisi2
 697 001a 1973     		strb	r1, [r3, #12]
 698              		.loc 1 241 0
 699 001c 1033     		adds	r3, r3, #16
 700 001e 02F58161 		add	r1, r2, #1032
 701 0022 8B42     		cmp	r3, r1
 702              		.loc 1 243 0
 703 0024 28BF     		it	cs
 704 0026 02F10803 		addcs	r3, r2, #8
 705 002a 5360     		str	r3, [r2, #4]
 706              		.loc 1 244 0
 707 002c 5DF8044B 		ldr	r4, [sp], #4
 708 0030 7047     		bx	lr
 709              	.L81:
 710 0032 00BF     		.align	2
 711              	.L80:
 712 0034 00000000 		.word	.LANCHOR3
 713 0038 00000000 		.word	rlist
 714 003c 00000000 		.word	vtlist
 715              		.cfi_endproc
 716              	.LFE19:
 717              		.size	dbg_trace, .-dbg_trace
 718              		.section	.text.chDbgPanic,"ax",%progbits
 719              		.align	2
 720              		.p2align 4,,15
 721              		.global	chDbgPanic
 722              		.thumb
 723              		.thumb_func
 724              		.type	chDbgPanic, %function
 725              	chDbgPanic:
 726              	.LFB20:
 727              		.loc 1 264 0
 728              		.cfi_startproc
 729              		@ args = 0, pretend = 0, frame = 0
 730              		@ frame_needed = 0, uses_anonymous_args = 0
 731              		@ link register save eliminated.
 732              	.LVL25:
 733              		.loc 1 266 0
 734 0000 014B     		ldr	r3, .L83
ARM GAS  /tmp/ccFcPkm3.s 			page 14


 735 0002 1860     		str	r0, [r3]
 736              		.loc 1 267 0
 737 0004 FFF7FEBF 		b	port_halt
 738              	.LVL26:
 739              	.L84:
 740              		.align	2
 741              	.L83:
 742 0008 00000000 		.word	.LANCHOR2
 743              		.cfi_endproc
 744              	.LFE20:
 745              		.size	chDbgPanic, .-chDbgPanic
 746              		.global	dbg_panic_msg
 747              		.global	dbg_trace_buffer
 748              		.global	dbg_lock_cnt
 749              		.global	dbg_isr_cnt
 750 000c AFF30080 		.section	.bss.dbg_isr_cnt,"aw",%nobits
 751              		.align	2
 752              		.set	.LANCHOR0,. + 0
 753              		.type	dbg_isr_cnt, %object
 754              		.size	dbg_isr_cnt, 4
 755              	dbg_isr_cnt:
 756 0000 00000000 		.space	4
 757              		.section	.bss.dbg_trace_buffer,"aw",%nobits
 758              		.align	2
 759              		.set	.LANCHOR3,. + 0
 760              		.type	dbg_trace_buffer, %object
 761              		.size	dbg_trace_buffer, 1032
 762              	dbg_trace_buffer:
 763 0000 00000000 		.space	1032
 763      00000000 
 763      00000000 
 763      00000000 
 763      00000000 
 764              		.section	.rodata.str1.4,"aMS",%progbits,1
 765              		.align	2
 766              	.LC0:
 767 0000 53562331 		.ascii	"SV#1\000"
 767      00
 768 0005 000000   		.space	3
 769              	.LC1:
 770 0008 53562332 		.ascii	"SV#2\000"
 770      00
 771 000d 000000   		.space	3
 772              	.LC2:
 773 0010 53562333 		.ascii	"SV#3\000"
 773      00
 774 0015 000000   		.space	3
 775              	.LC3:
 776 0018 53562334 		.ascii	"SV#4\000"
 776      00
 777 001d 000000   		.space	3
 778              	.LC4:
 779 0020 53562335 		.ascii	"SV#5\000"
 779      00
 780 0025 000000   		.space	3
 781              	.LC5:
 782 0028 53562336 		.ascii	"SV#6\000"
ARM GAS  /tmp/ccFcPkm3.s 			page 15


 782      00
 783 002d 000000   		.space	3
 784              	.LC6:
 785 0030 53562337 		.ascii	"SV#7\000"
 785      00
 786 0035 000000   		.space	3
 787              	.LC7:
 788 0038 53562338 		.ascii	"SV#8\000"
 788      00
 789 003d 000000   		.space	3
 790              	.LC8:
 791 0040 53562339 		.ascii	"SV#9\000"
 791      00
 792 0045 000000   		.space	3
 793              	.LC9:
 794 0048 53562331 		.ascii	"SV#10\000"
 794      3000
 795 004e 0000     		.space	2
 796              	.LC10:
 797 0050 53562331 		.ascii	"SV#11\000"
 797      3100
 798 0056 0000     		.section	.bss.dbg_lock_cnt,"aw",%nobits
 799              		.align	2
 800              		.set	.LANCHOR1,. + 0
 801              		.type	dbg_lock_cnt, %object
 802              		.size	dbg_lock_cnt, 4
 803              	dbg_lock_cnt:
 804 0000 00000000 		.space	4
 805              		.section	.bss.dbg_panic_msg,"aw",%nobits
 806              		.align	2
 807              		.set	.LANCHOR2,. + 0
 808              		.type	dbg_panic_msg, %object
 809              		.size	dbg_panic_msg, 4
 810              	dbg_panic_msg:
 811 0000 00000000 		.space	4
 812              		.text
 813              	.Letext0:
 814              		.file 2 "/usr/include/newlib/machine/_default_types.h"
 815              		.file 3 "/usr/include/newlib/stdint.h"
 816              		.file 4 "../../../../os/ports/GCC/ARMCMx/chtypes.h"
 817              		.file 5 "../../../../os/kernel/include/chlists.h"
 818              		.file 6 "../../../../os/kernel/include/chthreads.h"
 819              		.file 7 "../../../../os/ports/GCC/ARMCMx/chcore_v7m.h"
 820              		.file 8 "../../../../os/kernel/include/chvt.h"
 821              		.file 9 "../../../../os/kernel/include/chschd.h"
 822              		.file 10 "../../../../os/kernel/include/chmtx.h"
 823              		.file 11 "../../../../os/kernel/include/chdebug.h"