ARM GAS  /tmp/cc98hekH.s 			page 1


   1              		.syntax unified
   2              		.cpu cortex-m4
   3              		.eabi_attribute 27, 3
   4              		.fpu fpv4-sp-d16
   5              		.eabi_attribute 20, 1
   6              		.eabi_attribute 21, 1
   7              		.eabi_attribute 23, 3
   8              		.eabi_attribute 24, 1
   9              		.eabi_attribute 25, 1
  10              		.eabi_attribute 26, 1
  11              		.eabi_attribute 30, 2
  12              		.eabi_attribute 34, 1
  13              		.eabi_attribute 18, 4
  14              		.thumb
  15              		.file	"chevents.c"
  16              		.text
  17              	.Ltext0:
  18              		.cfi_sections	.debug_frame
  19              		.section	.text.chEvtRegisterMask,"ax",%progbits
  20              		.align	2
  21              		.p2align 4,,15
  22              		.global	chEvtRegisterMask
  23              		.thumb
  24              		.thumb_func
  25              		.type	chEvtRegisterMask, %function
  26              	chEvtRegisterMask:
  27              	.LFB7:
  28              		.file 1 "../../../../os/kernel/src/chevents.c"
  29              		.loc 1 78 0
  30              		.cfi_startproc
  31              		@ args = 0, pretend = 0, frame = 0
  32              		@ frame_needed = 0, uses_anonymous_args = 0
  33              	.LVL0:
  34 0000 F8B5     		push	{r3, r4, r5, r6, r7, lr}
  35              		.cfi_def_cfa_offset 24
  36              		.cfi_offset 3, -24
  37              		.cfi_offset 4, -20
  38              		.cfi_offset 5, -16
  39              		.cfi_offset 6, -12
  40              		.cfi_offset 7, -8
  41              		.cfi_offset 14, -4
  42              		.loc 1 80 0
  43 0002 0546     		mov	r5, r0
  44              		.loc 1 78 0
  45 0004 0C46     		mov	r4, r1
  46 0006 1746     		mov	r7, r2
  47              		.loc 1 80 0
  48 0008 A0B1     		cbz	r0, .L2
  49              		.loc 1 80 0 is_stmt 0 discriminator 2
  50 000a 99B1     		cbz	r1, .L2
  51              	.LVL1:
  52              	.L3:
  53              	.LBB2:
  54              		.loc 1 82 0 is_stmt 1
  55 000c 2023     		movs	r3, #32
  56              	@ 82 "../../../../os/kernel/src/chevents.c" 1
  57 000e 83F31188 		msr     BASEPRI, r3
ARM GAS  /tmp/cc98hekH.s 			page 2


  58              	@ 0 "" 2
  59              		.thumb
  60              	.LBE2:
  61 0012 FFF7FEFF 		bl	dbg_check_lock
  62              	.LVL2:
  63              		.loc 1 85 0
  64 0016 094A     		ldr	r2, .L8
  65              		.loc 1 83 0
  66 0018 2B68     		ldr	r3, [r5]
  67              		.loc 1 85 0
  68 001a 9269     		ldr	r2, [r2, #24]
  69              		.loc 1 83 0
  70 001c 2360     		str	r3, [r4]
  71              		.loc 1 87 0
  72 001e 0026     		movs	r6, #0
  73              		.loc 1 84 0
  74 0020 2C60     		str	r4, [r5]
  75              		.loc 1 85 0
  76 0022 6260     		str	r2, [r4, #4]
  77              		.loc 1 86 0
  78 0024 A760     		str	r7, [r4, #8]
  79              		.loc 1 87 0
  80 0026 E660     		str	r6, [r4, #12]
  81              		.loc 1 88 0
  82 0028 FFF7FEFF 		bl	dbg_check_unlock
  83              	.LVL3:
  84              	.LBB3:
  85 002c 3346     		mov	r3, r6
  86              	@ 88 "../../../../os/kernel/src/chevents.c" 1
  87 002e 83F31188 		msr     BASEPRI, r3
  88              	@ 0 "" 2
  89              		.thumb
  90 0032 F8BD     		pop	{r3, r4, r5, r6, r7, pc}
  91              	.LVL4:
  92              	.L2:
  93              	.LBE3:
  94              		.loc 1 80 0 discriminator 1
  95 0034 0248     		ldr	r0, .L8+4
  96              	.LVL5:
  97 0036 FFF7FEFF 		bl	chDbgPanic
  98              	.LVL6:
  99 003a E7E7     		b	.L3
 100              	.L9:
 101              		.align	2
 102              	.L8:
 103 003c 00000000 		.word	rlist
 104 0040 00000000 		.word	.LC0
 105              		.cfi_endproc
 106              	.LFE7:
 107              		.size	chEvtRegisterMask, .-chEvtRegisterMask
 108 0044 AFF30080 		.section	.text.chEvtUnregister,"ax",%progbits
 108      AFF30080 
 108      AFF30080 
 109              		.align	2
 110              		.p2align 4,,15
 111              		.global	chEvtUnregister
 112              		.thumb
ARM GAS  /tmp/cc98hekH.s 			page 3


 113              		.thumb_func
 114              		.type	chEvtUnregister, %function
 115              	chEvtUnregister:
 116              	.LFB8:
 117              		.loc 1 104 0
 118              		.cfi_startproc
 119              		@ args = 0, pretend = 0, frame = 0
 120              		@ frame_needed = 0, uses_anonymous_args = 0
 121              	.LVL7:
 122 0000 38B5     		push	{r3, r4, r5, lr}
 123              		.cfi_def_cfa_offset 16
 124              		.cfi_offset 3, -16
 125              		.cfi_offset 4, -12
 126              		.cfi_offset 5, -8
 127              		.cfi_offset 14, -4
 128              		.loc 1 107 0
 129 0002 0446     		mov	r4, r0
 130              		.loc 1 104 0
 131 0004 0D46     		mov	r5, r1
 132              		.loc 1 107 0
 133 0006 D8B1     		cbz	r0, .L11
 134              		.loc 1 107 0 is_stmt 0 discriminator 2
 135 0008 D1B1     		cbz	r1, .L11
 136              	.LVL8:
 137              	.L12:
 138              	.LBB4:
 139              		.loc 1 110 0 is_stmt 1
 140 000a 2023     		movs	r3, #32
 141              	@ 110 "../../../../os/kernel/src/chevents.c" 1
 142 000c 83F31188 		msr     BASEPRI, r3
 143              	@ 0 "" 2
 144              		.thumb
 145              	.LBE4:
 146 0010 FFF7FEFF 		bl	dbg_check_lock
 147              	.LVL9:
 148              		.loc 1 111 0
 149 0014 2246     		mov	r2, r4
 150 0016 02E0     		b	.L13
 151              	.LVL10:
 152              	.L16:
 153              		.loc 1 112 0
 154 0018 9D42     		cmp	r5, r3
 155 001a 09D0     		beq	.L20
 156 001c 1A46     		mov	r2, r3
 157              	.LVL11:
 158              	.L13:
 159              		.loc 1 111 0 discriminator 1
 160 001e 1368     		ldr	r3, [r2]
 161 0020 A342     		cmp	r3, r4
 162 0022 F9D1     		bne	.L16
 163              		.loc 1 118 0
 164 0024 FFF7FEFF 		bl	dbg_check_unlock
 165              	.LVL12:
 166              	.LBB5:
 167 0028 0023     		movs	r3, #0
 168              	@ 118 "../../../../os/kernel/src/chevents.c" 1
 169 002a 83F31188 		msr     BASEPRI, r3
ARM GAS  /tmp/cc98hekH.s 			page 4


 170              	@ 0 "" 2
 171              		.thumb
 172 002e 38BD     		pop	{r3, r4, r5, pc}
 173              	.LVL13:
 174              	.L20:
 175              	.LBE5:
 176              		.loc 1 113 0
 177 0030 2B68     		ldr	r3, [r5]
 178 0032 1360     		str	r3, [r2]
 179              		.loc 1 118 0
 180 0034 FFF7FEFF 		bl	dbg_check_unlock
 181              	.LVL14:
 182              	.LBB6:
 183 0038 0023     		movs	r3, #0
 184              	@ 118 "../../../../os/kernel/src/chevents.c" 1
 185 003a 83F31188 		msr     BASEPRI, r3
 186              	@ 0 "" 2
 187              		.thumb
 188 003e 38BD     		pop	{r3, r4, r5, pc}
 189              	.LVL15:
 190              	.L11:
 191              	.LBE6:
 192              		.loc 1 107 0 discriminator 1
 193 0040 0148     		ldr	r0, .L21
 194              	.LVL16:
 195 0042 FFF7FEFF 		bl	chDbgPanic
 196              	.LVL17:
 197 0046 E0E7     		b	.L12
 198              	.L22:
 199              		.align	2
 200              	.L21:
 201 0048 18000000 		.word	.LC1
 202              		.cfi_endproc
 203              	.LFE8:
 204              		.size	chEvtUnregister, .-chEvtUnregister
 205 004c AFF30080 		.section	.text.chEvtGetAndClearEvents,"ax",%progbits
 206              		.align	2
 207              		.p2align 4,,15
 208              		.global	chEvtGetAndClearEvents
 209              		.thumb
 210              		.thumb_func
 211              		.type	chEvtGetAndClearEvents, %function
 212              	chEvtGetAndClearEvents:
 213              	.LFB9:
 214              		.loc 1 129 0
 215              		.cfi_startproc
 216              		@ args = 0, pretend = 0, frame = 0
 217              		@ frame_needed = 0, uses_anonymous_args = 0
 218              	.LVL18:
 219 0000 10B5     		push	{r4, lr}
 220              		.cfi_def_cfa_offset 8
 221              		.cfi_offset 4, -8
 222              		.cfi_offset 14, -4
 223              	.LBB7:
 224              		.loc 1 132 0
 225 0002 2023     		movs	r3, #32
 226              	.LBE7:
ARM GAS  /tmp/cc98hekH.s 			page 5


 227              		.loc 1 129 0
 228 0004 0446     		mov	r4, r0
 229              	.LBB8:
 230              		.loc 1 132 0
 231              	@ 132 "../../../../os/kernel/src/chevents.c" 1
 232 0006 83F31188 		msr     BASEPRI, r3
 233              	@ 0 "" 2
 234              		.thumb
 235              	.LBE8:
 236 000a FFF7FEFF 		bl	dbg_check_lock
 237              	.LVL19:
 238              		.loc 1 134 0
 239 000e 074B     		ldr	r3, .L24
 240 0010 9B69     		ldr	r3, [r3, #24]
 241 0012 D86B     		ldr	r0, [r3, #60]
 242              		.loc 1 135 0
 243 0014 20EA0402 		bic	r2, r0, r4
 244 0018 DA63     		str	r2, [r3, #60]
 245              		.loc 1 134 0
 246 001a 0440     		ands	r4, r4, r0
 247              	.LVL20:
 248              		.loc 1 137 0
 249 001c FFF7FEFF 		bl	dbg_check_unlock
 250              	.LVL21:
 251              	.LBB9:
 252 0020 0023     		movs	r3, #0
 253              	@ 137 "../../../../os/kernel/src/chevents.c" 1
 254 0022 83F31188 		msr     BASEPRI, r3
 255              	@ 0 "" 2
 256              		.thumb
 257              	.LBE9:
 258              		.loc 1 139 0
 259 0026 2046     		mov	r0, r4
 260 0028 10BD     		pop	{r4, pc}
 261              	.LVL22:
 262              	.L25:
 263 002a 00BF     		.align	2
 264              	.L24:
 265 002c 00000000 		.word	rlist
 266              		.cfi_endproc
 267              	.LFE9:
 268              		.size	chEvtGetAndClearEvents, .-chEvtGetAndClearEvents
 269              		.section	.text.chEvtAddEvents,"ax",%progbits
 270              		.align	2
 271              		.p2align 4,,15
 272              		.global	chEvtAddEvents
 273              		.thumb
 274              		.thumb_func
 275              		.type	chEvtAddEvents, %function
 276              	chEvtAddEvents:
 277              	.LFB10:
 278              		.loc 1 150 0
 279              		.cfi_startproc
 280              		@ args = 0, pretend = 0, frame = 0
 281              		@ frame_needed = 0, uses_anonymous_args = 0
 282              	.LVL23:
 283 0000 10B5     		push	{r4, lr}
ARM GAS  /tmp/cc98hekH.s 			page 6


 284              		.cfi_def_cfa_offset 8
 285              		.cfi_offset 4, -8
 286              		.cfi_offset 14, -4
 287              	.LBB10:
 288              		.loc 1 152 0
 289 0002 2023     		movs	r3, #32
 290              	.LBE10:
 291              		.loc 1 150 0
 292 0004 0446     		mov	r4, r0
 293              	.LBB11:
 294              		.loc 1 152 0
 295              	@ 152 "../../../../os/kernel/src/chevents.c" 1
 296 0006 83F31188 		msr     BASEPRI, r3
 297              	@ 0 "" 2
 298              		.thumb
 299              	.LBE11:
 300 000a FFF7FEFF 		bl	dbg_check_lock
 301              	.LVL24:
 302              		.loc 1 154 0
 303 000e 064B     		ldr	r3, .L27
 304 0010 9B69     		ldr	r3, [r3, #24]
 305 0012 DA6B     		ldr	r2, [r3, #60]
 306 0014 1443     		orrs	r4, r4, r2
 307              	.LVL25:
 308 0016 DC63     		str	r4, [r3, #60]
 309              	.LVL26:
 310              		.loc 1 156 0
 311 0018 FFF7FEFF 		bl	dbg_check_unlock
 312              	.LVL27:
 313              	.LBB12:
 314 001c 0023     		movs	r3, #0
 315              	@ 156 "../../../../os/kernel/src/chevents.c" 1
 316 001e 83F31188 		msr     BASEPRI, r3
 317              	@ 0 "" 2
 318              		.thumb
 319              	.LBE12:
 320              		.loc 1 158 0
 321 0022 2046     		mov	r0, r4
 322 0024 10BD     		pop	{r4, pc}
 323              	.LVL28:
 324              	.L28:
 325 0026 00BF     		.align	2
 326              	.L27:
 327 0028 00000000 		.word	rlist
 328              		.cfi_endproc
 329              	.LFE10:
 330              		.size	chEvtAddEvents, .-chEvtAddEvents
 331 002c AFF30080 		.section	.text.chEvtGetAndClearFlags,"ax",%progbits
 332              		.align	2
 333              		.p2align 4,,15
 334              		.global	chEvtGetAndClearFlags
 335              		.thumb
 336              		.thumb_func
 337              		.type	chEvtGetAndClearFlags, %function
 338              	chEvtGetAndClearFlags:
 339              	.LFB12:
 340              		.loc 1 202 0
ARM GAS  /tmp/cc98hekH.s 			page 7


 341              		.cfi_startproc
 342              		@ args = 0, pretend = 0, frame = 0
 343              		@ frame_needed = 0, uses_anonymous_args = 0
 344              	.LVL29:
 345 0000 70B5     		push	{r4, r5, r6, lr}
 346              		.cfi_def_cfa_offset 16
 347              		.cfi_offset 4, -16
 348              		.cfi_offset 5, -12
 349              		.cfi_offset 6, -8
 350              		.cfi_offset 14, -4
 351              	.LBB13:
 352              		.loc 1 205 0
 353 0002 2023     		movs	r3, #32
 354              	.LBE13:
 355              		.loc 1 202 0
 356 0004 0546     		mov	r5, r0
 357              	.LBB14:
 358              		.loc 1 205 0
 359              	@ 205 "../../../../os/kernel/src/chevents.c" 1
 360 0006 83F31188 		msr     BASEPRI, r3
 361              	@ 0 "" 2
 362              		.thumb
 363              	.LBE14:
 364              		.loc 1 208 0
 365 000a 0024     		movs	r4, #0
 366              		.loc 1 205 0
 367 000c FFF7FEFF 		bl	dbg_check_lock
 368              	.LVL30:
 369              		.loc 1 207 0
 370 0010 EE68     		ldr	r6, [r5, #12]
 371              	.LVL31:
 372              		.loc 1 208 0
 373 0012 EC60     		str	r4, [r5, #12]
 374              		.loc 1 210 0
 375 0014 FFF7FEFF 		bl	dbg_check_unlock
 376              	.LVL32:
 377              	.LBB15:
 378 0018 2346     		mov	r3, r4
 379              	@ 210 "../../../../os/kernel/src/chevents.c" 1
 380 001a 83F31188 		msr     BASEPRI, r3
 381              	@ 0 "" 2
 382              		.thumb
 383              	.LBE15:
 384              		.loc 1 212 0
 385 001e 3046     		mov	r0, r6
 386 0020 70BD     		pop	{r4, r5, r6, pc}
 387              		.cfi_endproc
 388              	.LFE12:
 389              		.size	chEvtGetAndClearFlags, .-chEvtGetAndClearFlags
 390 0022 00BFAFF3 		.section	.text.chEvtSignalI,"ax",%progbits
 390      0080AFF3 
 390      0080AFF3 
 390      0080
 391              		.align	2
 392              		.p2align 4,,15
 393              		.global	chEvtSignalI
 394              		.thumb
ARM GAS  /tmp/cc98hekH.s 			page 8


 395              		.thumb_func
 396              		.type	chEvtSignalI, %function
 397              	chEvtSignalI:
 398              	.LFB14:
 399              		.loc 1 244 0
 400              		.cfi_startproc
 401              		@ args = 0, pretend = 0, frame = 0
 402              		@ frame_needed = 0, uses_anonymous_args = 0
 403              	.LVL33:
 404 0000 38B5     		push	{r3, r4, r5, lr}
 405              		.cfi_def_cfa_offset 16
 406              		.cfi_offset 3, -16
 407              		.cfi_offset 4, -12
 408              		.cfi_offset 5, -8
 409              		.cfi_offset 14, -4
 410              		.loc 1 244 0
 411 0002 0446     		mov	r4, r0
 412 0004 0D46     		mov	r5, r1
 413              		.loc 1 246 0
 414 0006 FFF7FEFF 		bl	chDbgCheckClassI
 415              	.LVL34:
 416              		.loc 1 247 0
 417 000a C4B1     		cbz	r4, .L35
 418              	.L31:
 419              		.loc 1 249 0
 420 000c E26B     		ldr	r2, [r4, #60]
 421              		.loc 1 251 0
 422 000e 94F82030 		ldrb	r3, [r4, #32]	@ zero_extendqisi2
 423              		.loc 1 249 0
 424 0012 45EA0201 		orr	r1, r5, r2
 425              		.loc 1 251 0
 426 0016 082B     		cmp	r3, #8
 427              		.loc 1 249 0
 428 0018 E163     		str	r1, [r4, #60]
 429              		.loc 1 251 0
 430 001a 0CD0     		beq	.L36
 431              		.loc 1 252 0
 432 001c 092B     		cmp	r3, #9
 433 001e 00D0     		beq	.L37
 434              	.L30:
 435 0020 38BD     		pop	{r3, r4, r5, pc}
 436              	.LVL35:
 437              	.L37:
 438              		.loc 1 254 0
 439 0022 A36A     		ldr	r3, [r4, #40]
 440 0024 1940     		ands	r1, r1, r3
 441              		.loc 1 253 0
 442 0026 8B42     		cmp	r3, r1
 443 0028 FAD1     		bne	.L30
 444              	.L33:
 445              	.LVL36:
 446              	.LBB18:
 447              	.LBB19:
 448              		.loc 1 255 0
 449 002a 2046     		mov	r0, r4
 450 002c FFF7FEFF 		bl	chSchReadyI
 451              	.LVL37:
ARM GAS  /tmp/cc98hekH.s 			page 9


 452 0030 0023     		movs	r3, #0
 453 0032 8362     		str	r3, [r0, #40]
 454 0034 38BD     		pop	{r3, r4, r5, pc}
 455              	.LVL38:
 456              	.L36:
 457              	.LBE19:
 458              	.LBE18:
 459              		.loc 1 252 0 discriminator 1
 460 0036 A36A     		ldr	r3, [r4, #40]
 461              		.loc 1 251 0 discriminator 1
 462 0038 1942     		tst	r1, r3
 463 003a F6D1     		bne	.L33
 464 003c 38BD     		pop	{r3, r4, r5, pc}
 465              	.LVL39:
 466              	.L35:
 467              		.loc 1 247 0 discriminator 1
 468 003e 0248     		ldr	r0, .L38
 469 0040 FFF7FEFF 		bl	chDbgPanic
 470              	.LVL40:
 471 0044 E2E7     		b	.L31
 472              	.L39:
 473 0046 00BF     		.align	2
 474              	.L38:
 475 0048 2C000000 		.word	.LC2
 476              		.cfi_endproc
 477              	.LFE14:
 478              		.size	chEvtSignalI, .-chEvtSignalI
 479 004c AFF30080 		.section	.text.chEvtBroadcastFlagsI,"ax",%progbits
 480              		.align	2
 481              		.p2align 4,,15
 482              		.global	chEvtBroadcastFlagsI
 483              		.thumb
 484              		.thumb_func
 485              		.type	chEvtBroadcastFlagsI, %function
 486              	chEvtBroadcastFlagsI:
 487              	.LFB11:
 488              		.loc 1 177 0
 489              		.cfi_startproc
 490              		@ args = 0, pretend = 0, frame = 0
 491              		@ frame_needed = 0, uses_anonymous_args = 0
 492              	.LVL41:
 493 0000 70B5     		push	{r4, r5, r6, lr}
 494              		.cfi_def_cfa_offset 16
 495              		.cfi_offset 4, -16
 496              		.cfi_offset 5, -12
 497              		.cfi_offset 6, -8
 498              		.cfi_offset 14, -4
 499              		.loc 1 177 0
 500 0002 0546     		mov	r5, r0
 501 0004 0E46     		mov	r6, r1
 502              		.loc 1 180 0
 503 0006 FFF7FEFF 		bl	chDbgCheckClassI
 504              	.LVL42:
 505              		.loc 1 181 0
 506 000a 65B1     		cbz	r5, .L45
 507              	.L41:
 508              		.loc 1 183 0
ARM GAS  /tmp/cc98hekH.s 			page 10


 509 000c 2C68     		ldr	r4, [r5]
 510              	.LVL43:
 511              		.loc 1 184 0
 512 000e A542     		cmp	r5, r4
 513 0010 08D0     		beq	.L40
 514              	.L44:
 515              		.loc 1 186 0
 516 0012 201D     		adds	r0, r4, #4
 517 0014 0BC8     		ldmia	r0, {r0, r1, r3}
 518              		.loc 1 185 0
 519 0016 3343     		orrs	r3, r3, r6
 520 0018 E360     		str	r3, [r4, #12]
 521              		.loc 1 186 0
 522 001a FFF7FEFF 		bl	chEvtSignalI
 523              	.LVL44:
 524              		.loc 1 187 0
 525 001e 2468     		ldr	r4, [r4]
 526              	.LVL45:
 527              		.loc 1 184 0
 528 0020 A542     		cmp	r5, r4
 529 0022 F6D1     		bne	.L44
 530              	.L40:
 531 0024 70BD     		pop	{r4, r5, r6, pc}
 532              	.LVL46:
 533              	.L45:
 534              		.loc 1 181 0 discriminator 1
 535 0026 0248     		ldr	r0, .L46
 536 0028 FFF7FEFF 		bl	chDbgPanic
 537              	.LVL47:
 538 002c EEE7     		b	.L41
 539              	.L47:
 540 002e 00BF     		.align	2
 541              	.L46:
 542 0030 40000000 		.word	.LC3
 543              		.cfi_endproc
 544              	.LFE11:
 545              		.size	chEvtBroadcastFlagsI, .-chEvtBroadcastFlagsI
 546 0034 AFF30080 		.section	.text.chEvtSignal,"ax",%progbits
 546      AFF30080 
 546      AFF30080 
 547              		.align	2
 548              		.p2align 4,,15
 549              		.global	chEvtSignal
 550              		.thumb
 551              		.thumb_func
 552              		.type	chEvtSignal, %function
 553              	chEvtSignal:
 554              	.LFB13:
 555              		.loc 1 222 0
 556              		.cfi_startproc
 557              		@ args = 0, pretend = 0, frame = 0
 558              		@ frame_needed = 0, uses_anonymous_args = 0
 559              	.LVL48:
 560 0000 38B5     		push	{r3, r4, r5, lr}
 561              		.cfi_def_cfa_offset 16
 562              		.cfi_offset 3, -16
 563              		.cfi_offset 4, -12
ARM GAS  /tmp/cc98hekH.s 			page 11


 564              		.cfi_offset 5, -8
 565              		.cfi_offset 14, -4
 566              		.loc 1 224 0
 567 0002 0446     		mov	r4, r0
 568              		.loc 1 222 0
 569 0004 0D46     		mov	r5, r1
 570              		.loc 1 224 0
 571 0006 80B1     		cbz	r0, .L50
 572              	.LVL49:
 573              	.L49:
 574              	.LBB20:
 575              		.loc 1 226 0
 576 0008 2023     		movs	r3, #32
 577              	@ 226 "../../../../os/kernel/src/chevents.c" 1
 578 000a 83F31188 		msr     BASEPRI, r3
 579              	@ 0 "" 2
 580              		.thumb
 581              	.LBE20:
 582 000e FFF7FEFF 		bl	dbg_check_lock
 583              	.LVL50:
 584              		.loc 1 227 0
 585 0012 2046     		mov	r0, r4
 586 0014 2946     		mov	r1, r5
 587 0016 FFF7FEFF 		bl	chEvtSignalI
 588              	.LVL51:
 589              		.loc 1 228 0
 590 001a FFF7FEFF 		bl	chSchRescheduleS
 591              	.LVL52:
 592              		.loc 1 229 0
 593 001e FFF7FEFF 		bl	dbg_check_unlock
 594              	.LVL53:
 595              	.LBB21:
 596 0022 0023     		movs	r3, #0
 597              	@ 229 "../../../../os/kernel/src/chevents.c" 1
 598 0024 83F31188 		msr     BASEPRI, r3
 599              	@ 0 "" 2
 600              		.thumb
 601 0028 38BD     		pop	{r3, r4, r5, pc}
 602              	.LVL54:
 603              	.L50:
 604              	.LBE21:
 605              		.loc 1 224 0 discriminator 1
 606 002a 0248     		ldr	r0, .L51
 607              	.LVL55:
 608 002c FFF7FEFF 		bl	chDbgPanic
 609              	.LVL56:
 610 0030 EAE7     		b	.L49
 611              	.L52:
 612 0032 00BF     		.align	2
 613              	.L51:
 614 0034 58000000 		.word	.LC4
 615              		.cfi_endproc
 616              	.LFE13:
 617              		.size	chEvtSignal, .-chEvtSignal
 618 0038 AFF30080 		.section	.text.chEvtBroadcastFlags,"ax",%progbits
 618      AFF30080 
 619              		.align	2
ARM GAS  /tmp/cc98hekH.s 			page 12


 620              		.p2align 4,,15
 621              		.global	chEvtBroadcastFlags
 622              		.thumb
 623              		.thumb_func
 624              		.type	chEvtBroadcastFlags, %function
 625              	chEvtBroadcastFlags:
 626              	.LFB15:
 627              		.loc 1 271 0
 628              		.cfi_startproc
 629              		@ args = 0, pretend = 0, frame = 0
 630              		@ frame_needed = 0, uses_anonymous_args = 0
 631              	.LVL57:
 632 0000 38B5     		push	{r3, r4, r5, lr}
 633              		.cfi_def_cfa_offset 16
 634              		.cfi_offset 3, -16
 635              		.cfi_offset 4, -12
 636              		.cfi_offset 5, -8
 637              		.cfi_offset 14, -4
 638              		.loc 1 271 0
 639 0002 0546     		mov	r5, r0
 640 0004 0C46     		mov	r4, r1
 641              	.LBB22:
 642              		.loc 1 273 0
 643 0006 2023     		movs	r3, #32
 644              	@ 273 "../../../../os/kernel/src/chevents.c" 1
 645 0008 83F31188 		msr     BASEPRI, r3
 646              	@ 0 "" 2
 647              		.thumb
 648              	.LBE22:
 649 000c FFF7FEFF 		bl	dbg_check_lock
 650              	.LVL58:
 651              		.loc 1 274 0
 652 0010 2846     		mov	r0, r5
 653 0012 2146     		mov	r1, r4
 654 0014 FFF7FEFF 		bl	chEvtBroadcastFlagsI
 655              	.LVL59:
 656              		.loc 1 275 0
 657 0018 FFF7FEFF 		bl	chSchRescheduleS
 658              	.LVL60:
 659              		.loc 1 276 0
 660 001c FFF7FEFF 		bl	dbg_check_unlock
 661              	.LVL61:
 662              	.LBB23:
 663 0020 0023     		movs	r3, #0
 664              	@ 276 "../../../../os/kernel/src/chevents.c" 1
 665 0022 83F31188 		msr     BASEPRI, r3
 666              	@ 0 "" 2
 667              		.thumb
 668 0026 38BD     		pop	{r3, r4, r5, pc}
 669              	.LBE23:
 670              		.cfi_endproc
 671              	.LFE15:
 672              		.size	chEvtBroadcastFlags, .-chEvtBroadcastFlags
 673 0028 AFF30080 		.section	.text.chEvtGetAndClearFlagsI,"ax",%progbits
 673      AFF30080 
 674              		.align	2
 675              		.p2align 4,,15
ARM GAS  /tmp/cc98hekH.s 			page 13


 676              		.global	chEvtGetAndClearFlagsI
 677              		.thumb
 678              		.thumb_func
 679              		.type	chEvtGetAndClearFlagsI, %function
 680              	chEvtGetAndClearFlagsI:
 681              	.LFB16:
 682              		.loc 1 290 0
 683              		.cfi_startproc
 684              		@ args = 0, pretend = 0, frame = 0
 685              		@ frame_needed = 0, uses_anonymous_args = 0
 686              		@ link register save eliminated.
 687              	.LVL62:
 688              		.loc 1 290 0
 689 0000 0346     		mov	r3, r0
 690              		.loc 1 294 0
 691 0002 0022     		movs	r2, #0
 692              		.loc 1 293 0
 693 0004 C068     		ldr	r0, [r0, #12]
 694              	.LVL63:
 695              		.loc 1 294 0
 696 0006 DA60     		str	r2, [r3, #12]
 697              		.loc 1 297 0
 698 0008 7047     		bx	lr
 699              		.cfi_endproc
 700              	.LFE16:
 701              		.size	chEvtGetAndClearFlagsI, .-chEvtGetAndClearFlagsI
 702 000a 00BFAFF3 		.section	.text.chEvtDispatch,"ax",%progbits
 702      0080
 703              		.align	2
 704              		.p2align 4,,15
 705              		.global	chEvtDispatch
 706              		.thumb
 707              		.thumb_func
 708              		.type	chEvtDispatch, %function
 709              	chEvtDispatch:
 710              	.LFB17:
 711              		.loc 1 308 0
 712              		.cfi_startproc
 713              		@ args = 0, pretend = 0, frame = 0
 714              		@ frame_needed = 0, uses_anonymous_args = 0
 715              	.LVL64:
 716 0000 2DE9F843 		push	{r3, r4, r5, r6, r7, r8, r9, lr}
 717              		.cfi_def_cfa_offset 32
 718              		.cfi_offset 3, -32
 719              		.cfi_offset 4, -28
 720              		.cfi_offset 5, -24
 721              		.cfi_offset 6, -20
 722              		.cfi_offset 7, -16
 723              		.cfi_offset 8, -12
 724              		.cfi_offset 9, -8
 725              		.cfi_offset 14, -4
 726              		.loc 1 311 0
 727 0004 8146     		mov	r9, r0
 728              		.loc 1 308 0
 729 0006 0D46     		mov	r5, r1
 730              		.loc 1 311 0
 731 0008 D8B1     		cbz	r0, .L69
ARM GAS  /tmp/cc98hekH.s 			page 14


 732              	.LVL65:
 733              	.L56:
 734              		.loc 1 314 0 discriminator 1
 735 000a 95B1     		cbz	r5, .L55
 736              		.loc 1 314 0 is_stmt 0
 737 000c 0026     		movs	r6, #0
 738 000e 3446     		mov	r4, r6
 739              		.loc 1 315 0 is_stmt 1
 740 0010 4FF00108 		mov	r8, #1
 741              	.LVL66:
 742              	.L61:
 743 0014 08FA04F7 		lsl	r7, r8, r4
 744 0018 2F42     		tst	r7, r5
 745 001a 06D0     		beq	.L58
 746              		.loc 1 316 0
 747 001c 59F80630 		ldr	r3, [r9, r6]
 748 0020 4BB1     		cbz	r3, .L70
 749              	.L59:
 750              		.loc 1 320 0
 751 0022 2046     		mov	r0, r4
 752              		.loc 1 319 0
 753 0024 25EA0705 		bic	r5, r5, r7
 754              	.LVL67:
 755              		.loc 1 320 0
 756 0028 9847     		blx	r3
 757              	.LVL68:
 758              	.L58:
 759              		.loc 1 322 0
 760 002a 0134     		adds	r4, r4, #1
 761              	.LVL69:
 762 002c 0436     		adds	r6, r6, #4
 763              		.loc 1 314 0
 764 002e 002D     		cmp	r5, #0
 765 0030 F0D1     		bne	.L61
 766              	.LVL70:
 767              	.L55:
 768 0032 BDE8F883 		pop	{r3, r4, r5, r6, r7, r8, r9, pc}
 769              	.LVL71:
 770              	.L70:
 771              		.loc 1 316 0 discriminator 1
 772 0036 0548     		ldr	r0, .L71
 773 0038 FFF7FEFF 		bl	chDbgPanic
 774              	.LVL72:
 775 003c 59F80630 		ldr	r3, [r9, r6]
 776 0040 EFE7     		b	.L59
 777              	.LVL73:
 778              	.L69:
 779              		.loc 1 311 0 discriminator 1
 780 0042 0348     		ldr	r0, .L71+4
 781              	.LVL74:
 782 0044 FFF7FEFF 		bl	chDbgPanic
 783              	.LVL75:
 784 0048 DFE7     		b	.L56
 785              	.L72:
 786 004a 00BF     		.align	2
 787              	.L71:
 788 004c 7C000000 		.word	.LC6
ARM GAS  /tmp/cc98hekH.s 			page 15


 789 0050 68000000 		.word	.LC5
 790              		.cfi_endproc
 791              	.LFE17:
 792              		.size	chEvtDispatch, .-chEvtDispatch
 793 0054 AFF30080 		.section	.text.chEvtWaitOne,"ax",%progbits
 793      AFF30080 
 793      AFF30080 
 794              		.align	2
 795              		.p2align 4,,15
 796              		.global	chEvtWaitOne
 797              		.thumb
 798              		.thumb_func
 799              		.type	chEvtWaitOne, %function
 800              	chEvtWaitOne:
 801              	.LFB18:
 802              		.loc 1 343 0
 803              		.cfi_startproc
 804              		@ args = 0, pretend = 0, frame = 0
 805              		@ frame_needed = 0, uses_anonymous_args = 0
 806              	.LVL76:
 807 0000 38B5     		push	{r3, r4, r5, lr}
 808              		.cfi_def_cfa_offset 16
 809              		.cfi_offset 3, -16
 810              		.cfi_offset 4, -12
 811              		.cfi_offset 5, -8
 812              		.cfi_offset 14, -4
 813              		.loc 1 344 0
 814 0002 0F4B     		ldr	r3, .L75
 815              		.loc 1 343 0
 816 0004 0446     		mov	r4, r0
 817              		.loc 1 344 0
 818 0006 9D69     		ldr	r5, [r3, #24]
 819              	.LVL77:
 820              	.LBB24:
 821              		.loc 1 347 0
 822 0008 2023     		movs	r3, #32
 823              	@ 347 "../../../../os/kernel/src/chevents.c" 1
 824 000a 83F31188 		msr     BASEPRI, r3
 825              	@ 0 "" 2
 826              		.thumb
 827              	.LBE24:
 828 000e FFF7FEFF 		bl	dbg_check_lock
 829              	.LVL78:
 830              		.loc 1 349 0
 831 0012 EB6B     		ldr	r3, [r5, #60]
 832              	.LVL79:
 833 0014 14EA0302 		ands	r2, r4, r3
 834              	.LVL80:
 835 0018 06D1     		bne	.L74
 836              		.loc 1 350 0
 837 001a AC62     		str	r4, [r5, #40]
 838              		.loc 1 351 0
 839 001c 0820     		movs	r0, #8
 840 001e FFF7FEFF 		bl	chSchGoSleepS
 841              	.LVL81:
 842              		.loc 1 352 0
 843 0022 EB6B     		ldr	r3, [r5, #60]
ARM GAS  /tmp/cc98hekH.s 			page 16


 844 0024 04EA0302 		and	r2, r4, r3
 845              	.LVL82:
 846              	.L74:
 847              		.loc 1 354 0
 848 0028 5442     		negs	r4, r2
 849              	.LVL83:
 850 002a 1440     		ands	r4, r4, r2
 851              	.LVL84:
 852              		.loc 1 355 0
 853 002c 23EA0403 		bic	r3, r3, r4
 854 0030 EB63     		str	r3, [r5, #60]
 855              		.loc 1 357 0
 856 0032 FFF7FEFF 		bl	dbg_check_unlock
 857              	.LVL85:
 858              	.LBB25:
 859 0036 0023     		movs	r3, #0
 860              	@ 357 "../../../../os/kernel/src/chevents.c" 1
 861 0038 83F31188 		msr     BASEPRI, r3
 862              	@ 0 "" 2
 863              		.thumb
 864              	.LBE25:
 865              		.loc 1 359 0
 866 003c 2046     		mov	r0, r4
 867 003e 38BD     		pop	{r3, r4, r5, pc}
 868              	.LVL86:
 869              	.L76:
 870              		.align	2
 871              	.L75:
 872 0040 00000000 		.word	rlist
 873              		.cfi_endproc
 874              	.LFE18:
 875              		.size	chEvtWaitOne, .-chEvtWaitOne
 876 0044 AFF30080 		.section	.text.chEvtWaitAny,"ax",%progbits
 876      AFF30080 
 876      AFF30080 
 877              		.align	2
 878              		.p2align 4,,15
 879              		.global	chEvtWaitAny
 880              		.thumb
 881              		.thumb_func
 882              		.type	chEvtWaitAny, %function
 883              	chEvtWaitAny:
 884              	.LFB19:
 885              		.loc 1 372 0
 886              		.cfi_startproc
 887              		@ args = 0, pretend = 0, frame = 0
 888              		@ frame_needed = 0, uses_anonymous_args = 0
 889              	.LVL87:
 890              		.loc 1 373 0
 891 0000 0E4B     		ldr	r3, .L79
 892              		.loc 1 372 0
 893 0002 70B5     		push	{r4, r5, r6, lr}
 894              		.cfi_def_cfa_offset 16
 895              		.cfi_offset 4, -16
 896              		.cfi_offset 5, -12
 897              		.cfi_offset 6, -8
 898              		.cfi_offset 14, -4
ARM GAS  /tmp/cc98hekH.s 			page 17


 899              		.loc 1 373 0
 900 0004 9D69     		ldr	r5, [r3, #24]
 901              	.LVL88:
 902              		.loc 1 372 0
 903 0006 0446     		mov	r4, r0
 904              	.LBB26:
 905              		.loc 1 376 0
 906 0008 2023     		movs	r3, #32
 907              	@ 376 "../../../../os/kernel/src/chevents.c" 1
 908 000a 83F31188 		msr     BASEPRI, r3
 909              	@ 0 "" 2
 910              		.thumb
 911              	.LBE26:
 912 000e FFF7FEFF 		bl	dbg_check_lock
 913              	.LVL89:
 914              		.loc 1 378 0
 915 0012 EB6B     		ldr	r3, [r5, #60]
 916              	.LVL90:
 917 0014 14EA0306 		ands	r6, r4, r3
 918              	.LVL91:
 919 0018 06D1     		bne	.L78
 920              		.loc 1 379 0
 921 001a AC62     		str	r4, [r5, #40]
 922              		.loc 1 380 0
 923 001c 0820     		movs	r0, #8
 924 001e FFF7FEFF 		bl	chSchGoSleepS
 925              	.LVL92:
 926              		.loc 1 381 0
 927 0022 EB6B     		ldr	r3, [r5, #60]
 928 0024 04EA0306 		and	r6, r4, r3
 929              	.LVL93:
 930              	.L78:
 931              		.loc 1 383 0
 932 0028 23EA0603 		bic	r3, r3, r6
 933 002c EB63     		str	r3, [r5, #60]
 934              		.loc 1 385 0
 935 002e FFF7FEFF 		bl	dbg_check_unlock
 936              	.LVL94:
 937              	.LBB27:
 938 0032 0023     		movs	r3, #0
 939              	@ 385 "../../../../os/kernel/src/chevents.c" 1
 940 0034 83F31188 		msr     BASEPRI, r3
 941              	@ 0 "" 2
 942              		.thumb
 943              	.LBE27:
 944              		.loc 1 387 0
 945 0038 3046     		mov	r0, r6
 946 003a 70BD     		pop	{r4, r5, r6, pc}
 947              	.LVL95:
 948              	.L80:
 949              		.align	2
 950              	.L79:
 951 003c 00000000 		.word	rlist
 952              		.cfi_endproc
 953              	.LFE19:
 954              		.size	chEvtWaitAny, .-chEvtWaitAny
 955              		.section	.text.chEvtWaitAll,"ax",%progbits
ARM GAS  /tmp/cc98hekH.s 			page 18


 956              		.align	2
 957              		.p2align 4,,15
 958              		.global	chEvtWaitAll
 959              		.thumb
 960              		.thumb_func
 961              		.type	chEvtWaitAll, %function
 962              	chEvtWaitAll:
 963              	.LFB20:
 964              		.loc 1 400 0
 965              		.cfi_startproc
 966              		@ args = 0, pretend = 0, frame = 0
 967              		@ frame_needed = 0, uses_anonymous_args = 0
 968              	.LVL96:
 969 0000 38B5     		push	{r3, r4, r5, lr}
 970              		.cfi_def_cfa_offset 16
 971              		.cfi_offset 3, -16
 972              		.cfi_offset 4, -12
 973              		.cfi_offset 5, -8
 974              		.cfi_offset 14, -4
 975              		.loc 1 401 0
 976 0002 0E4B     		ldr	r3, .L83
 977              		.loc 1 400 0
 978 0004 0446     		mov	r4, r0
 979              		.loc 1 401 0
 980 0006 9D69     		ldr	r5, [r3, #24]
 981              	.LVL97:
 982              	.LBB28:
 983              		.loc 1 403 0
 984 0008 2023     		movs	r3, #32
 985              	@ 403 "../../../../os/kernel/src/chevents.c" 1
 986 000a 83F31188 		msr     BASEPRI, r3
 987              	@ 0 "" 2
 988              		.thumb
 989              	.LBE28:
 990 000e FFF7FEFF 		bl	dbg_check_lock
 991              	.LVL98:
 992              		.loc 1 405 0
 993 0012 EB6B     		ldr	r3, [r5, #60]
 994 0014 04EA0302 		and	r2, r4, r3
 995 0018 A242     		cmp	r2, r4
 996 001a 04D0     		beq	.L82
 997              		.loc 1 406 0
 998 001c AC62     		str	r4, [r5, #40]
 999              		.loc 1 407 0
 1000 001e 0920     		movs	r0, #9
 1001 0020 FFF7FEFF 		bl	chSchGoSleepS
 1002              	.LVL99:
 1003 0024 EB6B     		ldr	r3, [r5, #60]
 1004              	.L82:
 1005              		.loc 1 409 0
 1006 0026 23EA0403 		bic	r3, r3, r4
 1007 002a EB63     		str	r3, [r5, #60]
 1008              		.loc 1 411 0
 1009 002c FFF7FEFF 		bl	dbg_check_unlock
 1010              	.LVL100:
 1011              	.LBB29:
 1012 0030 0023     		movs	r3, #0
ARM GAS  /tmp/cc98hekH.s 			page 19


 1013              	@ 411 "../../../../os/kernel/src/chevents.c" 1
 1014 0032 83F31188 		msr     BASEPRI, r3
 1015              	@ 0 "" 2
 1016              		.thumb
 1017              	.LBE29:
 1018              		.loc 1 413 0
 1019 0036 2046     		mov	r0, r4
 1020 0038 38BD     		pop	{r3, r4, r5, pc}
 1021              	.LVL101:
 1022              	.L84:
 1023 003a 00BF     		.align	2
 1024              	.L83:
 1025 003c 00000000 		.word	rlist
 1026              		.cfi_endproc
 1027              	.LFE20:
 1028              		.size	chEvtWaitAll, .-chEvtWaitAll
 1029              		.section	.text.chEvtWaitOneTimeout,"ax",%progbits
 1030              		.align	2
 1031              		.p2align 4,,15
 1032              		.global	chEvtWaitOneTimeout
 1033              		.thumb
 1034              		.thumb_func
 1035              		.type	chEvtWaitOneTimeout, %function
 1036              	chEvtWaitOneTimeout:
 1037              	.LFB21:
 1038              		.loc 1 439 0
 1039              		.cfi_startproc
 1040              		@ args = 0, pretend = 0, frame = 0
 1041              		@ frame_needed = 0, uses_anonymous_args = 0
 1042              	.LVL102:
 1043 0000 F8B5     		push	{r3, r4, r5, r6, r7, lr}
 1044              		.cfi_def_cfa_offset 24
 1045              		.cfi_offset 3, -24
 1046              		.cfi_offset 4, -20
 1047              		.cfi_offset 5, -16
 1048              		.cfi_offset 6, -12
 1049              		.cfi_offset 7, -8
 1050              		.cfi_offset 14, -4
 1051              		.loc 1 440 0
 1052 0002 194B     		ldr	r3, .L92
 1053              		.loc 1 439 0
 1054 0004 0446     		mov	r4, r0
 1055              		.loc 1 440 0
 1056 0006 9D69     		ldr	r5, [r3, #24]
 1057              	.LVL103:
 1058              		.loc 1 439 0
 1059 0008 0F46     		mov	r7, r1
 1060              	.LBB30:
 1061              		.loc 1 443 0
 1062 000a 2023     		movs	r3, #32
 1063              	@ 443 "../../../../os/kernel/src/chevents.c" 1
 1064 000c 83F31188 		msr     BASEPRI, r3
 1065              	@ 0 "" 2
 1066              		.thumb
 1067              	.LBE30:
 1068 0010 FFF7FEFF 		bl	dbg_check_lock
 1069              	.LVL104:
ARM GAS  /tmp/cc98hekH.s 			page 20


 1070              		.loc 1 445 0
 1071 0014 EA6B     		ldr	r2, [r5, #60]
 1072              	.LVL105:
 1073 0016 14EA0206 		ands	r6, r4, r2
 1074              	.LVL106:
 1075 001a 0AD1     		bne	.L86
 1076              		.loc 1 446 0
 1077 001c AFB1     		cbz	r7, .L90
 1078              		.loc 1 450 0
 1079 001e AC62     		str	r4, [r5, #40]
 1080              		.loc 1 451 0
 1081 0020 3946     		mov	r1, r7
 1082 0022 0820     		movs	r0, #8
 1083 0024 FFF7FEFF 		bl	chSchGoSleepTimeoutS
 1084              	.LVL107:
 1085 0028 0028     		cmp	r0, #0
 1086 002a 15DB     		blt	.L91
 1087              		.loc 1 455 0
 1088 002c EA6B     		ldr	r2, [r5, #60]
 1089 002e 04EA0206 		and	r6, r4, r2
 1090              	.LVL108:
 1091              	.L86:
 1092              		.loc 1 457 0
 1093 0032 7342     		negs	r3, r6
 1094 0034 1E40     		ands	r6, r6, r3
 1095              	.LVL109:
 1096              		.loc 1 458 0
 1097 0036 22EA0602 		bic	r2, r2, r6
 1098 003a EA63     		str	r2, [r5, #60]
 1099              		.loc 1 460 0
 1100 003c FFF7FEFF 		bl	dbg_check_unlock
 1101              	.LVL110:
 1102              	.LBB31:
 1103 0040 0023     		movs	r3, #0
 1104              	@ 460 "../../../../os/kernel/src/chevents.c" 1
 1105 0042 83F31188 		msr     BASEPRI, r3
 1106              	@ 0 "" 2
 1107              		.thumb
 1108              	.LBE31:
 1109              		.loc 1 461 0
 1110 0046 3046     		mov	r0, r6
 1111              		.loc 1 462 0
 1112 0048 F8BD     		pop	{r3, r4, r5, r6, r7, pc}
 1113              	.LVL111:
 1114              	.L90:
 1115              		.loc 1 447 0
 1116 004a FFF7FEFF 		bl	dbg_check_unlock
 1117              	.LVL112:
 1118              	.LBB32:
 1119 004e 3B46     		mov	r3, r7
 1120              	@ 447 "../../../../os/kernel/src/chevents.c" 1
 1121 0050 83F31188 		msr     BASEPRI, r3
 1122              	@ 0 "" 2
 1123              		.thumb
 1124              	.LBE32:
 1125              		.loc 1 448 0
 1126 0054 3846     		mov	r0, r7
ARM GAS  /tmp/cc98hekH.s 			page 21


 1127 0056 F8BD     		pop	{r3, r4, r5, r6, r7, pc}
 1128              	.LVL113:
 1129              	.L91:
 1130              		.loc 1 452 0
 1131 0058 FFF7FEFF 		bl	dbg_check_unlock
 1132              	.LVL114:
 1133              	.LBB33:
 1134 005c 3346     		mov	r3, r6
 1135              	@ 452 "../../../../os/kernel/src/chevents.c" 1
 1136 005e 83F31188 		msr     BASEPRI, r3
 1137              	@ 0 "" 2
 1138              		.thumb
 1139              	.LBE33:
 1140              		.loc 1 453 0
 1141 0062 3046     		mov	r0, r6
 1142 0064 F8BD     		pop	{r3, r4, r5, r6, r7, pc}
 1143              	.LVL115:
 1144              	.L93:
 1145 0066 00BF     		.align	2
 1146              	.L92:
 1147 0068 00000000 		.word	rlist
 1148              		.cfi_endproc
 1149              	.LFE21:
 1150              		.size	chEvtWaitOneTimeout, .-chEvtWaitOneTimeout
 1151 006c AFF30080 		.section	.text.chEvtWaitAnyTimeout,"ax",%progbits
 1152              		.align	2
 1153              		.p2align 4,,15
 1154              		.global	chEvtWaitAnyTimeout
 1155              		.thumb
 1156              		.thumb_func
 1157              		.type	chEvtWaitAnyTimeout, %function
 1158              	chEvtWaitAnyTimeout:
 1159              	.LFB22:
 1160              		.loc 1 482 0
 1161              		.cfi_startproc
 1162              		@ args = 0, pretend = 0, frame = 0
 1163              		@ frame_needed = 0, uses_anonymous_args = 0
 1164              	.LVL116:
 1165 0000 F8B5     		push	{r3, r4, r5, r6, r7, lr}
 1166              		.cfi_def_cfa_offset 24
 1167              		.cfi_offset 3, -24
 1168              		.cfi_offset 4, -20
 1169              		.cfi_offset 5, -16
 1170              		.cfi_offset 6, -12
 1171              		.cfi_offset 7, -8
 1172              		.cfi_offset 14, -4
 1173              		.loc 1 483 0
 1174 0002 184B     		ldr	r3, .L101
 1175              		.loc 1 482 0
 1176 0004 0446     		mov	r4, r0
 1177              		.loc 1 483 0
 1178 0006 9D69     		ldr	r5, [r3, #24]
 1179              	.LVL117:
 1180              		.loc 1 482 0
 1181 0008 0F46     		mov	r7, r1
 1182              	.LBB34:
 1183              		.loc 1 486 0
ARM GAS  /tmp/cc98hekH.s 			page 22


 1184 000a 2023     		movs	r3, #32
 1185              	@ 486 "../../../../os/kernel/src/chevents.c" 1
 1186 000c 83F31188 		msr     BASEPRI, r3
 1187              	@ 0 "" 2
 1188              		.thumb
 1189              	.LBE34:
 1190 0010 FFF7FEFF 		bl	dbg_check_lock
 1191              	.LVL118:
 1192              		.loc 1 488 0
 1193 0014 EA6B     		ldr	r2, [r5, #60]
 1194              	.LVL119:
 1195 0016 14EA0206 		ands	r6, r4, r2
 1196              	.LVL120:
 1197 001a 0AD1     		bne	.L95
 1198              		.loc 1 489 0
 1199 001c 9FB1     		cbz	r7, .L99
 1200              		.loc 1 493 0
 1201 001e AC62     		str	r4, [r5, #40]
 1202              		.loc 1 494 0
 1203 0020 3946     		mov	r1, r7
 1204 0022 0820     		movs	r0, #8
 1205 0024 FFF7FEFF 		bl	chSchGoSleepTimeoutS
 1206              	.LVL121:
 1207 0028 0028     		cmp	r0, #0
 1208 002a 13DB     		blt	.L100
 1209              		.loc 1 498 0
 1210 002c EA6B     		ldr	r2, [r5, #60]
 1211 002e 04EA0206 		and	r6, r4, r2
 1212              	.LVL122:
 1213              	.L95:
 1214              		.loc 1 500 0
 1215 0032 22EA0602 		bic	r2, r2, r6
 1216 0036 EA63     		str	r2, [r5, #60]
 1217              		.loc 1 502 0
 1218 0038 FFF7FEFF 		bl	dbg_check_unlock
 1219              	.LVL123:
 1220              	.LBB35:
 1221 003c 0023     		movs	r3, #0
 1222              	@ 502 "../../../../os/kernel/src/chevents.c" 1
 1223 003e 83F31188 		msr     BASEPRI, r3
 1224              	@ 0 "" 2
 1225              		.thumb
 1226              	.LBE35:
 1227              		.loc 1 503 0
 1228 0042 3046     		mov	r0, r6
 1229              		.loc 1 504 0
 1230 0044 F8BD     		pop	{r3, r4, r5, r6, r7, pc}
 1231              	.LVL124:
 1232              	.L99:
 1233              		.loc 1 490 0
 1234 0046 FFF7FEFF 		bl	dbg_check_unlock
 1235              	.LVL125:
 1236              	.LBB36:
 1237 004a 3B46     		mov	r3, r7
 1238              	@ 490 "../../../../os/kernel/src/chevents.c" 1
 1239 004c 83F31188 		msr     BASEPRI, r3
 1240              	@ 0 "" 2
ARM GAS  /tmp/cc98hekH.s 			page 23


 1241              		.thumb
 1242              	.LBE36:
 1243              		.loc 1 491 0
 1244 0050 3846     		mov	r0, r7
 1245 0052 F8BD     		pop	{r3, r4, r5, r6, r7, pc}
 1246              	.LVL126:
 1247              	.L100:
 1248              		.loc 1 495 0
 1249 0054 FFF7FEFF 		bl	dbg_check_unlock
 1250              	.LVL127:
 1251              	.LBB37:
 1252 0058 3346     		mov	r3, r6
 1253              	@ 495 "../../../../os/kernel/src/chevents.c" 1
 1254 005a 83F31188 		msr     BASEPRI, r3
 1255              	@ 0 "" 2
 1256              		.thumb
 1257              	.LBE37:
 1258              		.loc 1 496 0
 1259 005e 3046     		mov	r0, r6
 1260 0060 F8BD     		pop	{r3, r4, r5, r6, r7, pc}
 1261              	.LVL128:
 1262              	.L102:
 1263 0062 00BF     		.align	2
 1264              	.L101:
 1265 0064 00000000 		.word	rlist
 1266              		.cfi_endproc
 1267              	.LFE22:
 1268              		.size	chEvtWaitAnyTimeout, .-chEvtWaitAnyTimeout
 1269 0068 AFF30080 		.section	.text.chEvtWaitAllTimeout,"ax",%progbits
 1269      AFF30080 
 1270              		.align	2
 1271              		.p2align 4,,15
 1272              		.global	chEvtWaitAllTimeout
 1273              		.thumb
 1274              		.thumb_func
 1275              		.type	chEvtWaitAllTimeout, %function
 1276              	chEvtWaitAllTimeout:
 1277              	.LFB23:
 1278              		.loc 1 523 0
 1279              		.cfi_startproc
 1280              		@ args = 0, pretend = 0, frame = 0
 1281              		@ frame_needed = 0, uses_anonymous_args = 0
 1282              	.LVL129:
 1283              		.loc 1 524 0
 1284 0000 174B     		ldr	r3, .L109
 1285              		.loc 1 523 0
 1286 0002 70B5     		push	{r4, r5, r6, lr}
 1287              		.cfi_def_cfa_offset 16
 1288              		.cfi_offset 4, -16
 1289              		.cfi_offset 5, -12
 1290              		.cfi_offset 6, -8
 1291              		.cfi_offset 14, -4
 1292              		.loc 1 524 0
 1293 0004 9D69     		ldr	r5, [r3, #24]
 1294              	.LVL130:
 1295              		.loc 1 523 0
 1296 0006 0446     		mov	r4, r0
ARM GAS  /tmp/cc98hekH.s 			page 24


 1297 0008 0E46     		mov	r6, r1
 1298              	.LBB38:
 1299              		.loc 1 526 0
 1300 000a 2023     		movs	r3, #32
 1301              	@ 526 "../../../../os/kernel/src/chevents.c" 1
 1302 000c 83F31188 		msr     BASEPRI, r3
 1303              	@ 0 "" 2
 1304              		.thumb
 1305              	.LBE38:
 1306 0010 FFF7FEFF 		bl	dbg_check_lock
 1307              	.LVL131:
 1308              		.loc 1 528 0
 1309 0014 EA6B     		ldr	r2, [r5, #60]
 1310 0016 04EA0203 		and	r3, r4, r2
 1311 001a A342     		cmp	r3, r4
 1312 001c 08D0     		beq	.L104
 1313              		.loc 1 529 0
 1314 001e 8EB1     		cbz	r6, .L108
 1315              		.loc 1 533 0
 1316 0020 AC62     		str	r4, [r5, #40]
 1317              		.loc 1 534 0
 1318 0022 3146     		mov	r1, r6
 1319 0024 0920     		movs	r0, #9
 1320 0026 FFF7FEFF 		bl	chSchGoSleepTimeoutS
 1321              	.LVL132:
 1322 002a 0028     		cmp	r0, #0
 1323 002c 11DB     		blt	.L107
 1324 002e EA6B     		ldr	r2, [r5, #60]
 1325              	.L104:
 1326              		.loc 1 539 0
 1327 0030 22EA0402 		bic	r2, r2, r4
 1328 0034 EA63     		str	r2, [r5, #60]
 1329              		.loc 1 541 0
 1330 0036 FFF7FEFF 		bl	dbg_check_unlock
 1331              	.LVL133:
 1332              	.LBB39:
 1333 003a 0023     		movs	r3, #0
 1334              	@ 541 "../../../../os/kernel/src/chevents.c" 1
 1335 003c 83F31188 		msr     BASEPRI, r3
 1336              	@ 0 "" 2
 1337              		.thumb
 1338              	.LBE39:
 1339              		.loc 1 542 0
 1340 0040 2046     		mov	r0, r4
 1341              		.loc 1 543 0
 1342 0042 70BD     		pop	{r4, r5, r6, pc}
 1343              	.LVL134:
 1344              	.L108:
 1345              		.loc 1 530 0
 1346 0044 FFF7FEFF 		bl	dbg_check_unlock
 1347              	.LVL135:
 1348              	.LBB40:
 1349 0048 3346     		mov	r3, r6
 1350              	@ 530 "../../../../os/kernel/src/chevents.c" 1
 1351 004a 83F31188 		msr     BASEPRI, r3
 1352              	@ 0 "" 2
 1353              		.thumb
ARM GAS  /tmp/cc98hekH.s 			page 25


 1354              	.LBE40:
 1355              		.loc 1 531 0
 1356 004e 3046     		mov	r0, r6
 1357 0050 70BD     		pop	{r4, r5, r6, pc}
 1358              	.LVL136:
 1359              	.L107:
 1360              		.loc 1 535 0
 1361 0052 FFF7FEFF 		bl	dbg_check_unlock
 1362              	.LVL137:
 1363              	.LBB41:
 1364 0056 0023     		movs	r3, #0
 1365              	@ 535 "../../../../os/kernel/src/chevents.c" 1
 1366 0058 83F31188 		msr     BASEPRI, r3
 1367              	@ 0 "" 2
 1368              		.thumb
 1369              	.LBE41:
 1370              		.loc 1 536 0
 1371 005c 1846     		mov	r0, r3
 1372 005e 70BD     		pop	{r4, r5, r6, pc}
 1373              	.LVL138:
 1374              	.L110:
 1375              		.align	2
 1376              	.L109:
 1377 0060 00000000 		.word	rlist
 1378              		.cfi_endproc
 1379              	.LFE23:
 1380              		.size	chEvtWaitAllTimeout, .-chEvtWaitAllTimeout
 1381 0064 AFF30080 		.section	.rodata.str1.4,"aMS",%progbits,1
 1381      AFF30080 
 1381      AFF30080 
 1382              		.align	2
 1383              	.LC0:
 1384 0000 22636845 		.ascii	"\"chEvtRegisterMask\"()\000"
 1384      76745265 
 1384      67697374 
 1384      65724D61 
 1384      736B2228 
 1385 0016 0000     		.space	2
 1386              	.LC1:
 1387 0018 22636845 		.ascii	"\"chEvtUnregister\"()\000"
 1387      7674556E 
 1387      72656769 
 1387      73746572 
 1387      22282900 
 1388              	.LC2:
 1389 002c 22636845 		.ascii	"\"chEvtSignalI\"()\000"
 1389      76745369 
 1389      676E616C 
 1389      49222829 
 1389      00
 1390 003d 000000   		.space	3
 1391              	.LC3:
 1392 0040 22636845 		.ascii	"\"chEvtBroadcastMaskI\"()\000"
 1392      76744272 
 1392      6F616463 
 1392      6173744D 
 1392      61736B49 
ARM GAS  /tmp/cc98hekH.s 			page 26


 1393              	.LC4:
 1394 0058 22636845 		.ascii	"\"chEvtSignal\"()\000"
 1394      76745369 
 1394      676E616C 
 1394      22282900 
 1395              	.LC5:
 1396 0068 22636845 		.ascii	"\"chEvtDispatch\"()\000"
 1396      76744469 
 1396      73706174 
 1396      63682228 
 1396      2900
 1397 007a 0000     		.space	2
 1398              	.LC6:
 1399 007c 63684576 		.ascii	"chEvtDispatch(), #1\000"
 1399      74446973 
 1399      70617463 
 1399      6828292C 
 1399      20233100 
 1400              		.text
 1401              	.Letext0:
 1402              		.file 2 "/usr/include/newlib/machine/_default_types.h"
 1403              		.file 3 "/usr/include/newlib/stdint.h"
 1404              		.file 4 "../../../../os/ports/GCC/ARMCMx/chtypes.h"
 1405              		.file 5 "../../../../os/kernel/include/chlists.h"
 1406              		.file 6 "../../../../os/kernel/include/chthreads.h"
 1407              		.file 7 "../../../../os/ports/GCC/ARMCMx/chcore_v7m.h"
 1408              		.file 8 "../../../../os/kernel/include/chschd.h"
 1409              		.file 9 "../../../../os/kernel/include/chmtx.h"
 1410              		.file 10 "../../../../os/kernel/include/chevents.h"
 1411              		.file 11 "../../../../os/kernel/include/chdebug.h"