ARM GAS  /tmp/ccaSpNNf.s 			page 1


   1              		.syntax unified
   2              		.cpu cortex-m4
   3              		.eabi_attribute 27, 3
   4              		.fpu fpv4-sp-d16
   5              		.eabi_attribute 20, 1
   6              		.eabi_attribute 21, 1
   7              		.eabi_attribute 23, 3
   8              		.eabi_attribute 24, 1
   9              		.eabi_attribute 25, 1
  10              		.eabi_attribute 26, 1
  11              		.eabi_attribute 30, 2
  12              		.eabi_attribute 34, 1
  13              		.eabi_attribute 18, 4
  14              		.thumb
  15              		.file	"chmempools.c"
  16              		.text
  17              	.Ltext0:
  18              		.cfi_sections	.debug_frame
  19              		.section	.text.chPoolInit,"ax",%progbits
  20              		.align	2
  21              		.p2align 4,,15
  22              		.global	chPoolInit
  23              		.thumb
  24              		.thumb_func
  25              		.type	chPoolInit, %function
  26              	chPoolInit:
  27              	.LFB7:
  28              		.file 1 "../../../../os/kernel/src/chmempools.c"
  29              		.loc 1 55 0
  30              		.cfi_startproc
  31              		@ args = 0, pretend = 0, frame = 0
  32              		@ frame_needed = 0, uses_anonymous_args = 0
  33              	.LVL0:
  34 0000 70B5     		push	{r4, r5, r6, lr}
  35              		.cfi_def_cfa_offset 16
  36              		.cfi_offset 4, -16
  37              		.cfi_offset 5, -12
  38              		.cfi_offset 6, -8
  39              		.cfi_offset 14, -4
  40              		.loc 1 57 0
  41 0002 0446     		mov	r4, r0
  42              		.loc 1 55 0
  43 0004 0D46     		mov	r5, r1
  44 0006 1646     		mov	r6, r2
  45              		.loc 1 57 0
  46 0008 08B1     		cbz	r0, .L2
  47              		.loc 1 57 0 is_stmt 0 discriminator 2
  48 000a 0329     		cmp	r1, #3
  49 000c 02D8     		bhi	.L3
  50              	.L2:
  51              		.loc 1 57 0 discriminator 1
  52 000e 0348     		ldr	r0, .L8
  53              	.LVL1:
  54 0010 FFF7FEFF 		bl	chDbgPanic
  55              	.LVL2:
  56              	.L3:
  57              		.loc 1 59 0 is_stmt 1
ARM GAS  /tmp/ccaSpNNf.s 			page 2


  58 0014 0023     		movs	r3, #0
  59 0016 84E86800 		stmia	r4, {r3, r5, r6}
  60 001a 70BD     		pop	{r4, r5, r6, pc}
  61              	.LVL3:
  62              	.L9:
  63              		.align	2
  64              	.L8:
  65 001c 00000000 		.word	.LC0
  66              		.cfi_endproc
  67              	.LFE7:
  68              		.size	chPoolInit, .-chPoolInit
  69              		.section	.text.chPoolAllocI,"ax",%progbits
  70              		.align	2
  71              		.p2align 4,,15
  72              		.global	chPoolAllocI
  73              		.thumb
  74              		.thumb_func
  75              		.type	chPoolAllocI, %function
  76              	chPoolAllocI:
  77              	.LFB9:
  78              		.loc 1 98 0
  79              		.cfi_startproc
  80              		@ args = 0, pretend = 0, frame = 0
  81              		@ frame_needed = 0, uses_anonymous_args = 0
  82              	.LVL4:
  83 0000 10B5     		push	{r4, lr}
  84              		.cfi_def_cfa_offset 8
  85              		.cfi_offset 4, -8
  86              		.cfi_offset 14, -4
  87              		.loc 1 98 0
  88 0002 0446     		mov	r4, r0
  89              		.loc 1 101 0
  90 0004 FFF7FEFF 		bl	chDbgCheckClassI
  91              	.LVL5:
  92              		.loc 1 102 0
  93 0008 4CB1     		cbz	r4, .L17
  94              	.L11:
  95              		.loc 1 104 0
  96 000a 2068     		ldr	r0, [r4]
  97              	.LVL6:
  98 000c 10B1     		cbz	r0, .L12
  99              		.loc 1 105 0
 100 000e 0368     		ldr	r3, [r0]
 101 0010 2360     		str	r3, [r4]
 102 0012 10BD     		pop	{r4, pc}
 103              	.LVL7:
 104              	.L12:
 105              		.loc 1 106 0
 106 0014 A368     		ldr	r3, [r4, #8]
 107 0016 0BB1     		cbz	r3, .L13
 108              		.loc 1 107 0
 109 0018 6068     		ldr	r0, [r4, #4]
 110              	.LVL8:
 111 001a 9847     		blx	r3
 112              	.LVL9:
 113              	.L13:
 114              		.loc 1 109 0
ARM GAS  /tmp/ccaSpNNf.s 			page 3


 115 001c 10BD     		pop	{r4, pc}
 116              	.LVL10:
 117              	.L17:
 118              		.loc 1 102 0 discriminator 1
 119 001e 0248     		ldr	r0, .L18
 120 0020 FFF7FEFF 		bl	chDbgPanic
 121              	.LVL11:
 122 0024 F1E7     		b	.L11
 123              	.L19:
 124 0026 00BF     		.align	2
 125              	.L18:
 126 0028 10000000 		.word	.LC1
 127              		.cfi_endproc
 128              	.LFE9:
 129              		.size	chPoolAllocI, .-chPoolAllocI
 130 002c AFF30080 		.section	.text.chPoolAlloc,"ax",%progbits
 131              		.align	2
 132              		.p2align 4,,15
 133              		.global	chPoolAlloc
 134              		.thumb
 135              		.thumb_func
 136              		.type	chPoolAlloc, %function
 137              	chPoolAlloc:
 138              	.LFB10:
 139              		.loc 1 121 0
 140              		.cfi_startproc
 141              		@ args = 0, pretend = 0, frame = 0
 142              		@ frame_needed = 0, uses_anonymous_args = 0
 143              	.LVL12:
 144 0000 10B5     		push	{r4, lr}
 145              		.cfi_def_cfa_offset 8
 146              		.cfi_offset 4, -8
 147              		.cfi_offset 14, -4
 148              	.LBB2:
 149              		.loc 1 124 0
 150 0002 2023     		movs	r3, #32
 151              	.LBE2:
 152              		.loc 1 121 0
 153 0004 0446     		mov	r4, r0
 154              	.LBB3:
 155              		.loc 1 124 0
 156              	@ 124 "../../../../os/kernel/src/chmempools.c" 1
 157 0006 83F31188 		msr     BASEPRI, r3
 158              	@ 0 "" 2
 159              		.thumb
 160              	.LBE3:
 161 000a FFF7FEFF 		bl	dbg_check_lock
 162              	.LVL13:
 163              		.loc 1 125 0
 164 000e 2046     		mov	r0, r4
 165 0010 FFF7FEFF 		bl	chPoolAllocI
 166              	.LVL14:
 167 0014 0446     		mov	r4, r0
 168              	.LVL15:
 169              		.loc 1 126 0
 170 0016 FFF7FEFF 		bl	dbg_check_unlock
 171              	.LVL16:
ARM GAS  /tmp/ccaSpNNf.s 			page 4


 172              	.LBB4:
 173 001a 0023     		movs	r3, #0
 174              	@ 126 "../../../../os/kernel/src/chmempools.c" 1
 175 001c 83F31188 		msr     BASEPRI, r3
 176              	@ 0 "" 2
 177              		.thumb
 178              	.LBE4:
 179              		.loc 1 128 0
 180 0020 2046     		mov	r0, r4
 181 0022 10BD     		pop	{r4, pc}
 182              		.cfi_endproc
 183              	.LFE10:
 184              		.size	chPoolAlloc, .-chPoolAlloc
 185 0024 AFF30080 		.section	.text.chPoolFreeI,"ax",%progbits
 185      AFF30080 
 185      AFF30080 
 186              		.align	2
 187              		.p2align 4,,15
 188              		.global	chPoolFreeI
 189              		.thumb
 190              		.thumb_func
 191              		.type	chPoolFreeI, %function
 192              	chPoolFreeI:
 193              	.LFB11:
 194              		.loc 1 142 0
 195              		.cfi_startproc
 196              		@ args = 0, pretend = 0, frame = 0
 197              		@ frame_needed = 0, uses_anonymous_args = 0
 198              	.LVL17:
 199 0000 38B5     		push	{r3, r4, r5, lr}
 200              		.cfi_def_cfa_offset 16
 201              		.cfi_offset 3, -16
 202              		.cfi_offset 4, -12
 203              		.cfi_offset 5, -8
 204              		.cfi_offset 14, -4
 205              		.loc 1 142 0
 206 0002 0446     		mov	r4, r0
 207 0004 0D46     		mov	r5, r1
 208              	.LVL18:
 209              		.loc 1 145 0
 210 0006 FFF7FEFF 		bl	chDbgCheckClassI
 211              	.LVL19:
 212              		.loc 1 146 0
 213 000a 24B1     		cbz	r4, .L22
 214              		.loc 1 146 0 is_stmt 0 discriminator 2
 215 000c 1DB1     		cbz	r5, .L22
 216              		.loc 1 148 0 is_stmt 1
 217 000e 2368     		ldr	r3, [r4]
 218 0010 2B60     		str	r3, [r5]
 219              		.loc 1 149 0
 220 0012 2560     		str	r5, [r4]
 221 0014 38BD     		pop	{r3, r4, r5, pc}
 222              	.LVL20:
 223              	.L22:
 224              		.loc 1 146 0 discriminator 1
 225 0016 0348     		ldr	r0, .L27
 226 0018 FFF7FEFF 		bl	chDbgPanic
ARM GAS  /tmp/ccaSpNNf.s 			page 5


 227              	.LVL21:
 228              		.loc 1 148 0 discriminator 1
 229 001c 2368     		ldr	r3, [r4]
 230 001e 2B60     		str	r3, [r5]
 231              		.loc 1 149 0 discriminator 1
 232 0020 2560     		str	r5, [r4]
 233 0022 38BD     		pop	{r3, r4, r5, pc}
 234              	.LVL22:
 235              	.L28:
 236              		.align	2
 237              	.L27:
 238 0024 24000000 		.word	.LC2
 239              		.cfi_endproc
 240              	.LFE11:
 241              		.size	chPoolFreeI, .-chPoolFreeI
 242 0028 AFF30080 		.section	.text.chPoolFree,"ax",%progbits
 242      AFF30080 
 243              		.align	2
 244              		.p2align 4,,15
 245              		.global	chPoolFree
 246              		.thumb
 247              		.thumb_func
 248              		.type	chPoolFree, %function
 249              	chPoolFree:
 250              	.LFB12:
 251              		.loc 1 164 0
 252              		.cfi_startproc
 253              		@ args = 0, pretend = 0, frame = 0
 254              		@ frame_needed = 0, uses_anonymous_args = 0
 255              	.LVL23:
 256 0000 38B5     		push	{r3, r4, r5, lr}
 257              		.cfi_def_cfa_offset 16
 258              		.cfi_offset 3, -16
 259              		.cfi_offset 4, -12
 260              		.cfi_offset 5, -8
 261              		.cfi_offset 14, -4
 262              		.loc 1 164 0
 263 0002 0546     		mov	r5, r0
 264 0004 0C46     		mov	r4, r1
 265              	.LBB5:
 266              		.loc 1 166 0
 267 0006 2023     		movs	r3, #32
 268              	@ 166 "../../../../os/kernel/src/chmempools.c" 1
 269 0008 83F31188 		msr     BASEPRI, r3
 270              	@ 0 "" 2
 271              		.thumb
 272              	.LBE5:
 273 000c FFF7FEFF 		bl	dbg_check_lock
 274              	.LVL24:
 275              		.loc 1 167 0
 276 0010 2846     		mov	r0, r5
 277 0012 2146     		mov	r1, r4
 278 0014 FFF7FEFF 		bl	chPoolFreeI
 279              	.LVL25:
 280              		.loc 1 168 0
 281 0018 FFF7FEFF 		bl	dbg_check_unlock
 282              	.LVL26:
ARM GAS  /tmp/ccaSpNNf.s 			page 6


 283              	.LBB6:
 284 001c 0023     		movs	r3, #0
 285              	@ 168 "../../../../os/kernel/src/chmempools.c" 1
 286 001e 83F31188 		msr     BASEPRI, r3
 287              	@ 0 "" 2
 288              		.thumb
 289 0022 38BD     		pop	{r3, r4, r5, pc}
 290              	.LBE6:
 291              		.cfi_endproc
 292              	.LFE12:
 293              		.size	chPoolFree, .-chPoolFree
 294 0024 AFF30080 		.section	.text.chPoolLoadArray,"ax",%progbits
 294      AFF30080 
 294      AFF30080 
 295              		.align	2
 296              		.p2align 4,,15
 297              		.global	chPoolLoadArray
 298              		.thumb
 299              		.thumb_func
 300              		.type	chPoolLoadArray, %function
 301              	chPoolLoadArray:
 302              	.LFB8:
 303              		.loc 1 77 0
 304              		.cfi_startproc
 305              		@ args = 0, pretend = 0, frame = 0
 306              		@ frame_needed = 0, uses_anonymous_args = 0
 307              	.LVL27:
 308 0000 70B5     		push	{r4, r5, r6, lr}
 309              		.cfi_def_cfa_offset 16
 310              		.cfi_offset 4, -16
 311              		.cfi_offset 5, -12
 312              		.cfi_offset 6, -8
 313              		.cfi_offset 14, -4
 314              		.loc 1 79 0
 315 0002 0646     		mov	r6, r0
 316              		.loc 1 77 0
 317 0004 0D46     		mov	r5, r1
 318 0006 1446     		mov	r4, r2
 319              		.loc 1 79 0
 320 0008 28B1     		cbz	r0, .L31
 321              		.loc 1 79 0 is_stmt 0 discriminator 2
 322 000a 42B9     		cbnz	r2, .L33
 323              		.loc 1 79 0
 324 000c 0948     		ldr	r0, .L39
 325              	.LVL28:
 326              		.loc 1 86 0 is_stmt 1
 327 000e BDE87040 		pop	{r4, r5, r6, lr}
 328              	.LVL29:
 329              		.loc 1 79 0
 330 0012 FFF7FEBF 		b	chDbgPanic
 331              	.LVL30:
 332              	.L31:
 333              		.loc 1 79 0 is_stmt 0 discriminator 1
 334 0016 0748     		ldr	r0, .L39
 335              	.LVL31:
 336 0018 FFF7FEFF 		bl	chDbgPanic
 337              	.LVL32:
ARM GAS  /tmp/ccaSpNNf.s 			page 7


 338              		.loc 1 81 0 is_stmt 1 discriminator 1
 339 001c 44B1     		cbz	r4, .L30
 340              	.LVL33:
 341              	.L33:
 342              		.loc 1 82 0
 343 001e 2946     		mov	r1, r5
 344 0020 3046     		mov	r0, r6
 345 0022 FFF7FEFF 		bl	chPoolFree
 346              	.LVL34:
 347              		.loc 1 83 0
 348 0026 7368     		ldr	r3, [r6, #4]
 349              		.loc 1 81 0
 350 0028 013C     		subs	r4, r4, #1
 351              	.LVL35:
 352              		.loc 1 83 0
 353 002a 1D44     		add	r5, r5, r3
 354              	.LVL36:
 355              		.loc 1 81 0
 356 002c F7D1     		bne	.L33
 357 002e 70BD     		pop	{r4, r5, r6, pc}
 358              	.LVL37:
 359              	.L30:
 360 0030 70BD     		pop	{r4, r5, r6, pc}
 361              	.LVL38:
 362              	.L40:
 363 0032 00BF     		.align	2
 364              	.L39:
 365 0034 34000000 		.word	.LC3
 366              		.cfi_endproc
 367              	.LFE8:
 368              		.size	chPoolLoadArray, .-chPoolLoadArray
 369 0038 AFF30080 		.section	.rodata.str1.4,"aMS",%progbits,1
 369      AFF30080 
 370              		.align	2
 371              	.LC0:
 372 0000 22636850 		.ascii	"\"chPoolInit\"()\000"
 372      6F6F6C49 
 372      6E697422 
 372      282900
 373 000f 00       		.space	1
 374              	.LC1:
 375 0010 22636850 		.ascii	"\"chPoolAllocI\"()\000"
 375      6F6F6C41 
 375      6C6C6F63 
 375      49222829 
 375      00
 376 0021 000000   		.space	3
 377              	.LC2:
 378 0024 22636850 		.ascii	"\"chPoolFreeI\"()\000"
 378      6F6F6C46 
 378      72656549 
 378      22282900 
 379              	.LC3:
 380 0034 22636850 		.ascii	"\"chPoolLoadArray\"()\000"
 380      6F6F6C4C 
 380      6F616441 
 380      72726179 
ARM GAS  /tmp/ccaSpNNf.s 			page 8


 380      22282900 
 381              		.text
 382              	.Letext0:
 383              		.file 2 "/usr/lib/gcc/arm-none-eabi/4.8/include/stddef.h"
 384              		.file 3 "/usr/include/newlib/machine/_default_types.h"
 385              		.file 4 "/usr/include/newlib/stdint.h"
 386              		.file 5 "../../../../os/kernel/include/chmemcore.h"
 387              		.file 6 "../../../../os/kernel/include/chmempools.h"
 388              		.file 7 "../../../../os/kernel/include/chdebug.h"