ARM GAS  /tmp/ccB8bzC9.s 			page 1


   1              		.syntax unified
   2              		.cpu cortex-m4
   3              		.eabi_attribute 27, 3
   4              		.fpu fpv4-sp-d16
   5              		.eabi_attribute 20, 1
   6              		.eabi_attribute 21, 1
   7              		.eabi_attribute 23, 3
   8              		.eabi_attribute 24, 1
   9              		.eabi_attribute 25, 1
  10              		.eabi_attribute 26, 1
  11              		.eabi_attribute 30, 2
  12              		.eabi_attribute 34, 1
  13              		.eabi_attribute 18, 4
  14              		.thumb
  15              		.file	"chmemcore.c"
  16              		.text
  17              	.Ltext0:
  18              		.cfi_sections	.debug_frame
  19              		.section	.text._core_init,"ax",%progbits
  20              		.align	2
  21              		.p2align 4,,15
  22              		.global	_core_init
  23              		.thumb
  24              		.thumb_func
  25              		.type	_core_init, %function
  26              	_core_init:
  27              	.LFB7:
  28              		.file 1 "../../../../os/kernel/src/chmemcore.c"
  29              		.loc 1 59 0
  30              		.cfi_startproc
  31              		@ args = 0, pretend = 0, frame = 0
  32              		@ frame_needed = 0, uses_anonymous_args = 0
  33              		@ link register save eliminated.
  34              		.loc 1 63 0
  35 0000 0548     		ldr	r0, .L2
  36              		.loc 1 64 0
  37 0002 064A     		ldr	r2, .L2+4
  38              		.loc 1 63 0
  39 0004 0649     		ldr	r1, .L2+8
  40              		.loc 1 64 0
  41 0006 074B     		ldr	r3, .L2+12
  42              		.loc 1 63 0
  43 0008 20F00700 		bic	r0, r0, #7
  44              		.loc 1 64 0
  45 000c 22F00702 		bic	r2, r2, #7
  46              		.loc 1 63 0
  47 0010 0860     		str	r0, [r1]
  48              		.loc 1 64 0
  49 0012 1A60     		str	r2, [r3]
  50 0014 7047     		bx	lr
  51              	.L3:
  52 0016 00BF     		.align	2
  53              	.L2:
  54 0018 07000000 		.word	__heap_base__+7
  55 001c 00000000 		.word	__heap_end__
  56 0020 00000000 		.word	.LANCHOR0
  57 0024 00000000 		.word	.LANCHOR1
ARM GAS  /tmp/ccB8bzC9.s 			page 2


  58              		.cfi_endproc
  59              	.LFE7:
  60              		.size	_core_init, .-_core_init
  61 0028 AFF30080 		.section	.text.chCoreAllocI,"ax",%progbits
  61      AFF30080 
  62              		.align	2
  63              		.p2align 4,,15
  64              		.global	chCoreAllocI
  65              		.thumb
  66              		.thumb_func
  67              		.type	chCoreAllocI, %function
  68              	chCoreAllocI:
  69              	.LFB9:
  70              		.loc 1 105 0
  71              		.cfi_startproc
  72              		@ args = 0, pretend = 0, frame = 0
  73              		@ frame_needed = 0, uses_anonymous_args = 0
  74              	.LVL0:
  75 0000 10B5     		push	{r4, lr}
  76              		.cfi_def_cfa_offset 8
  77              		.cfi_offset 4, -8
  78              		.cfi_offset 14, -4
  79              		.loc 1 105 0
  80 0002 0446     		mov	r4, r0
  81              		.loc 1 108 0
  82 0004 FFF7FEFF 		bl	chDbgCheckClassI
  83              	.LVL1:
  84              		.loc 1 111 0
  85 0008 074A     		ldr	r2, .L7
  86 000a 0849     		ldr	r1, .L7+4
  87 000c 1368     		ldr	r3, [r2]
  88 000e 0968     		ldr	r1, [r1]
  89              		.loc 1 110 0
  90 0010 E01D     		adds	r0, r4, #7
  91 0012 20F00700 		bic	r0, r0, #7
  92              	.LVL2:
  93              		.loc 1 111 0
  94 0016 C91A     		subs	r1, r1, r3
  95 0018 8842     		cmp	r0, r1
  96              	.LVL3:
  97              		.loc 1 114 0
  98 001a 9DBF     		ittte	ls
  99 001c C018     		addls	r0, r0, r3
 100              	.LVL4:
 101 001e 1060     		strls	r0, [r2]
 102              		.loc 1 115 0
 103 0020 1846     		movls	r0, r3
 104              		.loc 1 112 0
 105 0022 0020     		movhi	r0, #0
 106              		.loc 1 116 0
 107 0024 10BD     		pop	{r4, pc}
 108              	.LVL5:
 109              	.L8:
 110 0026 00BF     		.align	2
 111              	.L7:
 112 0028 00000000 		.word	.LANCHOR0
 113 002c 00000000 		.word	.LANCHOR1
ARM GAS  /tmp/ccB8bzC9.s 			page 3


 114              		.cfi_endproc
 115              	.LFE9:
 116              		.size	chCoreAllocI, .-chCoreAllocI
 117              		.section	.text.chCoreAlloc,"ax",%progbits
 118              		.align	2
 119              		.p2align 4,,15
 120              		.global	chCoreAlloc
 121              		.thumb
 122              		.thumb_func
 123              		.type	chCoreAlloc, %function
 124              	chCoreAlloc:
 125              	.LFB8:
 126              		.loc 1 84 0
 127              		.cfi_startproc
 128              		@ args = 0, pretend = 0, frame = 0
 129              		@ frame_needed = 0, uses_anonymous_args = 0
 130              	.LVL6:
 131 0000 10B5     		push	{r4, lr}
 132              		.cfi_def_cfa_offset 8
 133              		.cfi_offset 4, -8
 134              		.cfi_offset 14, -4
 135              	.LBB2:
 136              		.loc 1 87 0
 137 0002 2023     		movs	r3, #32
 138              	.LBE2:
 139              		.loc 1 84 0
 140 0004 0446     		mov	r4, r0
 141              	.LBB3:
 142              		.loc 1 87 0
 143              	@ 87 "../../../../os/kernel/src/chmemcore.c" 1
 144 0006 83F31188 		msr     BASEPRI, r3
 145              	@ 0 "" 2
 146              		.thumb
 147              	.LBE3:
 148 000a FFF7FEFF 		bl	dbg_check_lock
 149              	.LVL7:
 150              		.loc 1 88 0
 151 000e 2046     		mov	r0, r4
 152 0010 FFF7FEFF 		bl	chCoreAllocI
 153              	.LVL8:
 154 0014 0446     		mov	r4, r0
 155              	.LVL9:
 156              		.loc 1 89 0
 157 0016 FFF7FEFF 		bl	dbg_check_unlock
 158              	.LVL10:
 159              	.LBB4:
 160 001a 0023     		movs	r3, #0
 161              	@ 89 "../../../../os/kernel/src/chmemcore.c" 1
 162 001c 83F31188 		msr     BASEPRI, r3
 163              	@ 0 "" 2
 164              		.thumb
 165              	.LBE4:
 166              		.loc 1 91 0
 167 0020 2046     		mov	r0, r4
 168 0022 10BD     		pop	{r4, pc}
 169              		.cfi_endproc
 170              	.LFE8:
ARM GAS  /tmp/ccB8bzC9.s 			page 4


 171              		.size	chCoreAlloc, .-chCoreAlloc
 172 0024 AFF30080 		.section	.text.chCoreStatus,"ax",%progbits
 172      AFF30080 
 172      AFF30080 
 173              		.align	2
 174              		.p2align 4,,15
 175              		.global	chCoreStatus
 176              		.thumb
 177              		.thumb_func
 178              		.type	chCoreStatus, %function
 179              	chCoreStatus:
 180              	.LFB10:
 181              		.loc 1 125 0
 182              		.cfi_startproc
 183              		@ args = 0, pretend = 0, frame = 0
 184              		@ frame_needed = 0, uses_anonymous_args = 0
 185              		@ link register save eliminated.
 186              		.loc 1 127 0
 187 0000 024A     		ldr	r2, .L11
 188 0002 034B     		ldr	r3, .L11+4
 189 0004 1068     		ldr	r0, [r2]
 190 0006 1B68     		ldr	r3, [r3]
 191              		.loc 1 128 0
 192 0008 C01A     		subs	r0, r0, r3
 193 000a 7047     		bx	lr
 194              	.L12:
 195              		.align	2
 196              	.L11:
 197 000c 00000000 		.word	.LANCHOR1
 198 0010 00000000 		.word	.LANCHOR0
 199              		.cfi_endproc
 200              	.LFE10:
 201              		.size	chCoreStatus, .-chCoreStatus
 202 0014 AFF30080 		.section	.bss.endmem,"aw",%nobits
 202      AFF30080 
 202      AFF30080 
 203              		.align	2
 204              		.set	.LANCHOR1,. + 0
 205              		.type	endmem, %object
 206              		.size	endmem, 4
 207              	endmem:
 208 0000 00000000 		.space	4
 209              		.section	.bss.nextmem,"aw",%nobits
 210              		.align	2
 211              		.set	.LANCHOR0,. + 0
 212              		.type	nextmem, %object
 213              		.size	nextmem, 4
 214              	nextmem:
 215 0000 00000000 		.space	4
 216              		.text
 217              	.Letext0:
 218              		.file 2 "/usr/lib/gcc/arm-none-eabi/4.8/include/stddef.h"
 219              		.file 3 "/usr/include/newlib/machine/_default_types.h"
 220              		.file 4 "/usr/include/newlib/stdint.h"
 221              		.file 5 "../../../../os/kernel/include/chdebug.h"