ARM GAS  /tmp/ccs1h4Lm.s 			page 1


   1              		.syntax unified
   2              		.cpu cortex-m4
   3              		.eabi_attribute 27, 3
   4              		.fpu fpv4-sp-d16
   5              		.eabi_attribute 20, 1
   6              		.eabi_attribute 21, 1
   7              		.eabi_attribute 23, 3
   8              		.eabi_attribute 24, 1
   9              		.eabi_attribute 25, 1
  10              		.eabi_attribute 26, 1
  11              		.eabi_attribute 30, 2
  12              		.eabi_attribute 34, 1
  13              		.eabi_attribute 18, 4
  14              		.thumb
  15              		.file	"chregistry.c"
  16              		.text
  17              	.Ltext0:
  18              		.cfi_sections	.debug_frame
  19              		.section	.text.chRegFirstThread,"ax",%progbits
  20              		.align	2
  21              		.p2align 4,,15
  22              		.global	chRegFirstThread
  23              		.thumb
  24              		.thumb_func
  25              		.type	chRegFirstThread, %function
  26              	chRegFirstThread:
  27              	.LFB7:
  28              		.file 1 "../../../../os/kernel/src/chregistry.c"
  29              		.loc 1 110 0
  30              		.cfi_startproc
  31              		@ args = 0, pretend = 0, frame = 0
  32              		@ frame_needed = 0, uses_anonymous_args = 0
  33 0000 10B5     		push	{r4, lr}
  34              		.cfi_def_cfa_offset 8
  35              		.cfi_offset 4, -8
  36              		.cfi_offset 14, -4
  37              	.LBB2:
  38              		.loc 1 113 0
  39 0002 2023     		movs	r3, #32
  40              	@ 113 "../../../../os/kernel/src/chregistry.c" 1
  41 0004 83F31188 		msr     BASEPRI, r3
  42              	@ 0 "" 2
  43              		.thumb
  44              	.LBE2:
  45 0008 FFF7FEFF 		bl	dbg_check_lock
  46              	.LVL0:
  47              		.loc 1 114 0
  48 000c 064B     		ldr	r3, .L2
  49 000e 1C69     		ldr	r4, [r3, #16]
  50              	.LVL1:
  51              		.loc 1 116 0
  52 0010 94F82230 		ldrb	r3, [r4, #34]	@ zero_extendqisi2
  53 0014 0133     		adds	r3, r3, #1
  54 0016 84F82230 		strb	r3, [r4, #34]
  55              		.loc 1 118 0
  56 001a FFF7FEFF 		bl	dbg_check_unlock
  57              	.LVL2:
ARM GAS  /tmp/ccs1h4Lm.s 			page 2


  58              	.LBB3:
  59 001e 0023     		movs	r3, #0
  60              	@ 118 "../../../../os/kernel/src/chregistry.c" 1
  61 0020 83F31188 		msr     BASEPRI, r3
  62              	@ 0 "" 2
  63              		.thumb
  64              	.LBE3:
  65              		.loc 1 120 0
  66 0024 2046     		mov	r0, r4
  67 0026 10BD     		pop	{r4, pc}
  68              	.LVL3:
  69              	.L3:
  70              		.align	2
  71              	.L2:
  72 0028 00000000 		.word	rlist
  73              		.cfi_endproc
  74              	.LFE7:
  75              		.size	chRegFirstThread, .-chRegFirstThread
  76 002c AFF30080 		.section	.text.chRegNextThread,"ax",%progbits
  77              		.align	2
  78              		.p2align 4,,15
  79              		.global	chRegNextThread
  80              		.thumb
  81              		.thumb_func
  82              		.type	chRegNextThread, %function
  83              	chRegNextThread:
  84              	.LFB8:
  85              		.loc 1 133 0
  86              		.cfi_startproc
  87              		@ args = 0, pretend = 0, frame = 0
  88              		@ frame_needed = 0, uses_anonymous_args = 0
  89              	.LVL4:
  90 0000 38B5     		push	{r3, r4, r5, lr}
  91              		.cfi_def_cfa_offset 16
  92              		.cfi_offset 3, -16
  93              		.cfi_offset 4, -12
  94              		.cfi_offset 5, -8
  95              		.cfi_offset 14, -4
  96              		.loc 1 133 0
  97 0002 0546     		mov	r5, r0
  98              	.LBB4:
  99              		.loc 1 136 0
 100 0004 2023     		movs	r3, #32
 101              	@ 136 "../../../../os/kernel/src/chregistry.c" 1
 102 0006 83F31188 		msr     BASEPRI, r3
 103              	@ 0 "" 2
 104              		.thumb
 105              	.LBE4:
 106 000a FFF7FEFF 		bl	dbg_check_lock
 107              	.LVL5:
 108              		.loc 1 137 0
 109 000e 2C69     		ldr	r4, [r5, #16]
 110              	.LVL6:
 111              		.loc 1 138 0
 112 0010 0D4B     		ldr	r3, .L10
 113 0012 9C42     		cmp	r4, r3
 114 0014 16D0     		beq	.L7
ARM GAS  /tmp/ccs1h4Lm.s 			page 3


 115              		.loc 1 142 0
 116 0016 94F82230 		ldrb	r3, [r4, #34]	@ zero_extendqisi2
 117 001a FF2B     		cmp	r3, #255
 118 001c 0CD0     		beq	.L9
 119              	.L6:
 120              		.loc 1 144 0
 121 001e 0133     		adds	r3, r3, #1
 122 0020 84F82230 		strb	r3, [r4, #34]
 123              	.LVL7:
 124              	.L5:
 125              		.loc 1 147 0
 126 0024 FFF7FEFF 		bl	dbg_check_unlock
 127              	.LVL8:
 128              	.LBB5:
 129 0028 0023     		movs	r3, #0
 130              	@ 147 "../../../../os/kernel/src/chregistry.c" 1
 131 002a 83F31188 		msr     BASEPRI, r3
 132              	@ 0 "" 2
 133              		.thumb
 134              	.LBE5:
 135              		.loc 1 149 0
 136 002e 2846     		mov	r0, r5
 137 0030 FFF7FEFF 		bl	chThdRelease
 138              	.LVL9:
 139              		.loc 1 152 0
 140 0034 2046     		mov	r0, r4
 141 0036 38BD     		pop	{r3, r4, r5, pc}
 142              	.LVL10:
 143              	.L9:
 144              		.loc 1 142 0 discriminator 1
 145 0038 0448     		ldr	r0, .L10+4
 146 003a FFF7FEFF 		bl	chDbgPanic
 147              	.LVL11:
 148 003e 94F82230 		ldrb	r3, [r4, #34]	@ zero_extendqisi2
 149 0042 ECE7     		b	.L6
 150              	.L7:
 151              		.loc 1 139 0
 152 0044 0024     		movs	r4, #0
 153              	.LVL12:
 154 0046 EDE7     		b	.L5
 155              	.L11:
 156              		.align	2
 157              	.L10:
 158 0048 00000000 		.word	rlist
 159 004c 00000000 		.word	.LC0
 160              		.cfi_endproc
 161              	.LFE8:
 162              		.size	chRegNextThread, .-chRegNextThread
 163              		.global	ch_debug
 164              		.section	.rodata.ch_debug,"a",%progbits
 165              		.align	2
 166              		.type	ch_debug, %object
 167              		.size	ch_debug, 22
 168              	ch_debug:
 169 0000 6D61696E 		.ascii	"main"
 170 0004 00       		.byte	0
 171 0005 16       		.byte	22
ARM GAS  /tmp/ccs1h4Lm.s 			page 4


 172 0006 4211     		.short	4418
 173 0008 04       		.byte	4
 174 0009 04       		.byte	4
 175 000a 4C       		.byte	76
 176 000b 08       		.byte	8
 177 000c 0C       		.byte	12
 178 000d 10       		.byte	16
 179 000e 14       		.byte	20
 180 000f 18       		.byte	24
 181 0010 1C       		.byte	28
 182 0011 20       		.byte	32
 183 0012 21       		.byte	33
 184 0013 22       		.byte	34
 185 0014 23       		.byte	35
 186 0015 24       		.byte	36
 187 0016 0000     		.section	.rodata.str1.4,"aMS",%progbits,1
 188              		.align	2
 189              	.LC0:
 190 0000 63685265 		.ascii	"chRegNextThread(), #1\000"
 190      674E6578 
 190      74546872 
 190      65616428 
 190      292C2023 
 191 0016 0000     		.text
 192              	.Letext0:
 193              		.file 2 "/usr/lib/gcc/arm-none-eabi/4.8/include/stddef.h"
 194              		.file 3 "/usr/include/newlib/machine/_default_types.h"
 195              		.file 4 "/usr/include/newlib/stdint.h"
 196              		.file 5 "../../../../os/ports/GCC/ARMCMx/chtypes.h"
 197              		.file 6 "../../../../os/kernel/include/chlists.h"
 198              		.file 7 "../../../../os/kernel/include/chthreads.h"
 199              		.file 8 "../../../../os/ports/GCC/ARMCMx/chcore_v7m.h"
 200              		.file 9 "../../../../os/kernel/include/chschd.h"
 201              		.file 10 "../../../../os/kernel/include/chmtx.h"
 202              		.file 11 "../../../../os/kernel/include/chregistry.h"
 203              		.file 12 "../../../../os/kernel/include/chdebug.h"
 204              		.file 13 "../../../../os/kernel/include/chdynamic.h"