ARM GAS  /tmp/ccLn6K2o.s 			page 1


   1              		.syntax unified
   2              		.cpu cortex-m4
   3              		.eabi_attribute 27, 3
   4              		.fpu fpv4-sp-d16
   5              		.eabi_attribute 20, 1
   6              		.eabi_attribute 21, 1
   7              		.eabi_attribute 23, 3
   8              		.eabi_attribute 24, 1
   9              		.eabi_attribute 25, 1
  10              		.eabi_attribute 26, 1
  11              		.eabi_attribute 30, 2
  12              		.eabi_attribute 34, 1
  13              		.eabi_attribute 18, 4
  14              		.thumb
  15              		.file	"chsem.c"
  16              		.text
  17              	.Ltext0:
  18              		.cfi_sections	.debug_frame
  19              		.section	.text.chSemInit,"ax",%progbits
  20              		.align	2
  21              		.p2align 4,,15
  22              		.global	chSemInit
  23              		.thumb
  24              		.thumb_func
  25              		.type	chSemInit, %function
  26              	chSemInit:
  27              	.LFB7:
  28              		.file 1 "../../../../os/kernel/src/chsem.c"
  29              		.loc 1 79 0
  30              		.cfi_startproc
  31              		@ args = 0, pretend = 0, frame = 0
  32              		@ frame_needed = 0, uses_anonymous_args = 0
  33              	.LVL0:
  34 0000 38B5     		push	{r3, r4, r5, lr}
  35              		.cfi_def_cfa_offset 16
  36              		.cfi_offset 3, -16
  37              		.cfi_offset 4, -12
  38              		.cfi_offset 5, -8
  39              		.cfi_offset 14, -4
  40              		.loc 1 81 0
  41 0002 0446     		mov	r4, r0
  42              		.loc 1 79 0
  43 0004 0D46     		mov	r5, r1
  44              		.loc 1 81 0
  45 0006 28B1     		cbz	r0, .L2
  46              		.loc 1 81 0 is_stmt 0 discriminator 2
  47 0008 0029     		cmp	r1, #0
  48 000a 03DB     		blt	.L2
  49              		.loc 1 83 0 is_stmt 1
  50 000c 6460     		str	r4, [r4, #4]
  51 000e 2460     		str	r4, [r4]
  52              		.loc 1 84 0
  53 0010 A560     		str	r5, [r4, #8]
  54 0012 38BD     		pop	{r3, r4, r5, pc}
  55              	.L2:
  56              		.loc 1 81 0 discriminator 1
  57 0014 0348     		ldr	r0, .L8
ARM GAS  /tmp/ccLn6K2o.s 			page 2


  58              	.LVL1:
  59 0016 FFF7FEFF 		bl	chDbgPanic
  60              	.LVL2:
  61              		.loc 1 83 0 discriminator 1
  62 001a 6460     		str	r4, [r4, #4]
  63 001c 2460     		str	r4, [r4]
  64              		.loc 1 84 0 discriminator 1
  65 001e A560     		str	r5, [r4, #8]
  66 0020 38BD     		pop	{r3, r4, r5, pc}
  67              	.LVL3:
  68              	.L9:
  69 0022 00BF     		.align	2
  70              	.L8:
  71 0024 00000000 		.word	.LC0
  72              		.cfi_endproc
  73              	.LFE7:
  74              		.size	chSemInit, .-chSemInit
  75 0028 AFF30080 		.section	.text.chSemResetI,"ax",%progbits
  75      AFF30080 
  76              		.align	2
  77              		.p2align 4,,15
  78              		.global	chSemResetI
  79              		.thumb
  80              		.thumb_func
  81              		.type	chSemResetI, %function
  82              	chSemResetI:
  83              	.LFB9:
  84              		.loc 1 129 0
  85              		.cfi_startproc
  86              		@ args = 0, pretend = 0, frame = 0
  87              		@ frame_needed = 0, uses_anonymous_args = 0
  88              	.LVL4:
  89 0000 70B5     		push	{r4, r5, r6, lr}
  90              		.cfi_def_cfa_offset 16
  91              		.cfi_offset 4, -16
  92              		.cfi_offset 5, -12
  93              		.cfi_offset 6, -8
  94              		.cfi_offset 14, -4
  95              		.loc 1 129 0
  96 0002 0446     		mov	r4, r0
  97 0004 0E46     		mov	r6, r1
  98              		.loc 1 132 0
  99 0006 FFF7FEFF 		bl	chDbgCheckClassI
 100              	.LVL5:
 101              		.loc 1 133 0
 102 000a FCB1     		cbz	r4, .L11
 103              		.loc 1 133 0 is_stmt 0 discriminator 2
 104 000c 002E     		cmp	r6, #0
 105 000e 1DDB     		blt	.L11
 106              	.L12:
 107              		.loc 1 134 0 is_stmt 1
 108 0010 A568     		ldr	r5, [r4, #8]
 109 0012 2368     		ldr	r3, [r4]
 110 0014 002D     		cmp	r5, #0
 111 0016 16DB     		blt	.L13
 112              		.loc 1 134 0 is_stmt 0 discriminator 2
 113 0018 A342     		cmp	r3, r4
ARM GAS  /tmp/ccLn6K2o.s 			page 3


 114 001a 03D0     		beq	.L15
 115              	.L14:
 116              		.loc 1 134 0 discriminator 1
 117 001c 0D48     		ldr	r0, .L25
 118 001e FFF7FEFF 		bl	chDbgPanic
 119              	.LVL6:
 120 0022 A568     		ldr	r5, [r4, #8]
 121              	.L15:
 122              	.LVL7:
 123              		.loc 1 140 0 is_stmt 1
 124 0024 A660     		str	r6, [r4, #8]
 125              		.loc 1 141 0
 126 0026 0135     		adds	r5, r5, #1
 127              	.LVL8:
 128 0028 002D     		cmp	r5, #0
 129 002a 0BDC     		bgt	.L10
 130              		.loc 1 142 0
 131 002c 6FF00106 		mvn	r6, #1
 132              	.LVL9:
 133              	.L18:
 134              	.LBB24:
 135              	.LBB25:
 136              		.file 2 "../../../../os/kernel/include/chinline.h"
 137              		.loc 2 60 0
 138 0030 6068     		ldr	r0, [r4, #4]
 139              	.LVL10:
 140              		.loc 2 62 0
 141 0032 4368     		ldr	r3, [r0, #4]
 142 0034 6360     		str	r3, [r4, #4]
 143 0036 1C60     		str	r4, [r3]
 144              	.LBE25:
 145              	.LBE24:
 146              		.loc 1 142 0
 147 0038 FFF7FEFF 		bl	chSchReadyI
 148              	.LVL11:
 149              		.loc 1 141 0
 150 003c 0135     		adds	r5, r5, #1
 151              	.LVL12:
 152 003e 012D     		cmp	r5, #1
 153              		.loc 1 142 0
 154 0040 8662     		str	r6, [r0, #40]
 155              	.LVL13:
 156              		.loc 1 141 0
 157 0042 F5D1     		bne	.L18
 158              	.LVL14:
 159              	.L10:
 160 0044 70BD     		pop	{r4, r5, r6, pc}
 161              	.LVL15:
 162              	.L13:
 163              		.loc 1 134 0 discriminator 2
 164 0046 A342     		cmp	r3, r4
 165 0048 ECD1     		bne	.L15
 166 004a E7E7     		b	.L14
 167              	.L11:
 168              		.loc 1 133 0 discriminator 1
 169 004c 0248     		ldr	r0, .L25+4
 170 004e FFF7FEFF 		bl	chDbgPanic
ARM GAS  /tmp/ccLn6K2o.s 			page 4


 171              	.LVL16:
 172 0052 DDE7     		b	.L12
 173              	.L26:
 174              		.align	2
 175              	.L25:
 176 0054 20000000 		.word	.LC2
 177 0058 10000000 		.word	.LC1
 178              		.cfi_endproc
 179              	.LFE9:
 180              		.size	chSemResetI, .-chSemResetI
 181 005c AFF30080 		.section	.text.chSemReset,"ax",%progbits
 182              		.align	2
 183              		.p2align 4,,15
 184              		.global	chSemReset
 185              		.thumb
 186              		.thumb_func
 187              		.type	chSemReset, %function
 188              	chSemReset:
 189              	.LFB8:
 190              		.loc 1 102 0
 191              		.cfi_startproc
 192              		@ args = 0, pretend = 0, frame = 0
 193              		@ frame_needed = 0, uses_anonymous_args = 0
 194              	.LVL17:
 195 0000 38B5     		push	{r3, r4, r5, lr}
 196              		.cfi_def_cfa_offset 16
 197              		.cfi_offset 3, -16
 198              		.cfi_offset 4, -12
 199              		.cfi_offset 5, -8
 200              		.cfi_offset 14, -4
 201              		.loc 1 102 0
 202 0002 0546     		mov	r5, r0
 203 0004 0C46     		mov	r4, r1
 204              	.LBB26:
 205              		.loc 1 104 0
 206 0006 2023     		movs	r3, #32
 207              	@ 104 "../../../../os/kernel/src/chsem.c" 1
 208 0008 83F31188 		msr     BASEPRI, r3
 209              	@ 0 "" 2
 210              		.thumb
 211              	.LBE26:
 212 000c FFF7FEFF 		bl	dbg_check_lock
 213              	.LVL18:
 214              		.loc 1 105 0
 215 0010 2846     		mov	r0, r5
 216 0012 2146     		mov	r1, r4
 217 0014 FFF7FEFF 		bl	chSemResetI
 218              	.LVL19:
 219              		.loc 1 106 0
 220 0018 FFF7FEFF 		bl	chSchRescheduleS
 221              	.LVL20:
 222              		.loc 1 107 0
 223 001c FFF7FEFF 		bl	dbg_check_unlock
 224              	.LVL21:
 225              	.LBB27:
 226 0020 0023     		movs	r3, #0
 227              	@ 107 "../../../../os/kernel/src/chsem.c" 1
ARM GAS  /tmp/ccLn6K2o.s 			page 5


 228 0022 83F31188 		msr     BASEPRI, r3
 229              	@ 0 "" 2
 230              		.thumb
 231 0026 38BD     		pop	{r3, r4, r5, pc}
 232              	.LBE27:
 233              		.cfi_endproc
 234              	.LFE8:
 235              		.size	chSemReset, .-chSemReset
 236 0028 AFF30080 		.section	.text.chSemWaitS,"ax",%progbits
 236      AFF30080 
 237              		.align	2
 238              		.p2align 4,,15
 239              		.global	chSemWaitS
 240              		.thumb
 241              		.thumb_func
 242              		.type	chSemWaitS, %function
 243              	chSemWaitS:
 244              	.LFB11:
 245              		.loc 1 178 0
 246              		.cfi_startproc
 247              		@ args = 0, pretend = 0, frame = 0
 248              		@ frame_needed = 0, uses_anonymous_args = 0
 249              	.LVL22:
 250 0000 38B5     		push	{r3, r4, r5, lr}
 251              		.cfi_def_cfa_offset 16
 252              		.cfi_offset 3, -16
 253              		.cfi_offset 4, -12
 254              		.cfi_offset 5, -8
 255              		.cfi_offset 14, -4
 256              		.loc 1 178 0
 257 0002 0446     		mov	r4, r0
 258              		.loc 1 180 0
 259 0004 FFF7FEFF 		bl	chDbgCheckClassS
 260              	.LVL23:
 261              		.loc 1 181 0
 262 0008 1CB3     		cbz	r4, .L36
 263              	.L29:
 264              		.loc 1 182 0
 265 000a A368     		ldr	r3, [r4, #8]
 266 000c 2268     		ldr	r2, [r4]
 267 000e 002B     		cmp	r3, #0
 268 0010 0BDB     		blt	.L30
 269              		.loc 1 182 0 is_stmt 0 discriminator 2
 270 0012 A242     		cmp	r2, r4
 271 0014 03D0     		beq	.L32
 272              	.L31:
 273              		.loc 1 182 0 discriminator 1
 274 0016 1148     		ldr	r0, .L38
 275 0018 FFF7FEFF 		bl	chDbgPanic
 276              	.LVL24:
 277 001c A368     		ldr	r3, [r4, #8]
 278              	.L32:
 279              		.loc 1 187 0 is_stmt 1
 280 001e 013B     		subs	r3, r3, #1
 281 0020 002B     		cmp	r3, #0
 282 0022 A360     		str	r3, [r4, #8]
 283 0024 07DB     		blt	.L37
ARM GAS  /tmp/ccLn6K2o.s 			page 6


 284              	.L34:
 285              		.loc 1 193 0
 286 0026 0020     		movs	r0, #0
 287              		.loc 1 194 0
 288 0028 38BD     		pop	{r3, r4, r5, pc}
 289              	.LVL25:
 290              	.L30:
 291              		.loc 1 182 0 discriminator 2
 292 002a A242     		cmp	r2, r4
 293 002c F3D0     		beq	.L31
 294              		.loc 1 187 0
 295 002e 013B     		subs	r3, r3, #1
 296 0030 002B     		cmp	r3, #0
 297 0032 A360     		str	r3, [r4, #8]
 298 0034 F7DA     		bge	.L34
 299              	.L37:
 300              		.loc 1 188 0
 301 0036 0A4D     		ldr	r5, .L38+4
 302 0038 AB69     		ldr	r3, [r5, #24]
 303 003a 9C62     		str	r4, [r3, #40]
 304              	.LVL26:
 305              	.LBB28:
 306              	.LBB29:
 307              		.loc 2 48 0
 308 003c 6268     		ldr	r2, [r4, #4]
 309 003e 5A60     		str	r2, [r3, #4]
 310              		.loc 2 47 0
 311 0040 1C60     		str	r4, [r3]
 312              	.LBE29:
 313              	.LBE28:
 314              		.loc 1 190 0
 315 0042 0320     		movs	r0, #3
 316              	.LBB31:
 317              	.LBB30:
 318              		.loc 2 49 0
 319 0044 6360     		str	r3, [r4, #4]
 320              	.LVL27:
 321 0046 1360     		str	r3, [r2]
 322              	.LVL28:
 323              	.LBE30:
 324              	.LBE31:
 325              		.loc 1 190 0
 326 0048 FFF7FEFF 		bl	chSchGoSleepS
 327              	.LVL29:
 328              		.loc 1 191 0
 329 004c AB69     		ldr	r3, [r5, #24]
 330 004e 986A     		ldr	r0, [r3, #40]
 331 0050 38BD     		pop	{r3, r4, r5, pc}
 332              	.LVL30:
 333              	.L36:
 334              		.loc 1 181 0 discriminator 1
 335 0052 0448     		ldr	r0, .L38+8
 336 0054 FFF7FEFF 		bl	chDbgPanic
 337              	.LVL31:
 338 0058 D7E7     		b	.L29
 339              	.L39:
 340 005a 00BF     		.align	2
ARM GAS  /tmp/ccLn6K2o.s 			page 7


 341              	.L38:
 342 005c 44000000 		.word	.LC4
 343 0060 00000000 		.word	rlist
 344 0064 34000000 		.word	.LC3
 345              		.cfi_endproc
 346              	.LFE11:
 347              		.size	chSemWaitS, .-chSemWaitS
 348 0068 AFF30080 		.section	.text.chSemWait,"ax",%progbits
 348      AFF30080 
 349              		.align	2
 350              		.p2align 4,,15
 351              		.global	chSemWait
 352              		.thumb
 353              		.thumb_func
 354              		.type	chSemWait, %function
 355              	chSemWait:
 356              	.LFB10:
 357              		.loc 1 157 0
 358              		.cfi_startproc
 359              		@ args = 0, pretend = 0, frame = 0
 360              		@ frame_needed = 0, uses_anonymous_args = 0
 361              	.LVL32:
 362 0000 10B5     		push	{r4, lr}
 363              		.cfi_def_cfa_offset 8
 364              		.cfi_offset 4, -8
 365              		.cfi_offset 14, -4
 366              	.LBB32:
 367              		.loc 1 160 0
 368 0002 2023     		movs	r3, #32
 369              	.LBE32:
 370              		.loc 1 157 0
 371 0004 0446     		mov	r4, r0
 372              	.LBB33:
 373              		.loc 1 160 0
 374              	@ 160 "../../../../os/kernel/src/chsem.c" 1
 375 0006 83F31188 		msr     BASEPRI, r3
 376              	@ 0 "" 2
 377              		.thumb
 378              	.LBE33:
 379 000a FFF7FEFF 		bl	dbg_check_lock
 380              	.LVL33:
 381              		.loc 1 161 0
 382 000e 2046     		mov	r0, r4
 383 0010 FFF7FEFF 		bl	chSemWaitS
 384              	.LVL34:
 385 0014 0446     		mov	r4, r0
 386              	.LVL35:
 387              		.loc 1 162 0
 388 0016 FFF7FEFF 		bl	dbg_check_unlock
 389              	.LVL36:
 390              	.LBB34:
 391 001a 0023     		movs	r3, #0
 392              	@ 162 "../../../../os/kernel/src/chsem.c" 1
 393 001c 83F31188 		msr     BASEPRI, r3
 394              	@ 0 "" 2
 395              		.thumb
 396              	.LBE34:
ARM GAS  /tmp/ccLn6K2o.s 			page 8


 397              		.loc 1 164 0
 398 0020 2046     		mov	r0, r4
 399 0022 10BD     		pop	{r4, pc}
 400              		.cfi_endproc
 401              	.LFE10:
 402              		.size	chSemWait, .-chSemWait
 403 0024 AFF30080 		.section	.text.chSemWaitTimeoutS,"ax",%progbits
 403      AFF30080 
 403      AFF30080 
 404              		.align	2
 405              		.p2align 4,,15
 406              		.global	chSemWaitTimeoutS
 407              		.thumb
 408              		.thumb_func
 409              		.type	chSemWaitTimeoutS, %function
 410              	chSemWaitTimeoutS:
 411              	.LFB13:
 412              		.loc 1 243 0
 413              		.cfi_startproc
 414              		@ args = 0, pretend = 0, frame = 0
 415              		@ frame_needed = 0, uses_anonymous_args = 0
 416              	.LVL37:
 417 0000 38B5     		push	{r3, r4, r5, lr}
 418              		.cfi_def_cfa_offset 16
 419              		.cfi_offset 3, -16
 420              		.cfi_offset 4, -12
 421              		.cfi_offset 5, -8
 422              		.cfi_offset 14, -4
 423              		.loc 1 243 0
 424 0002 0446     		mov	r4, r0
 425 0004 0D46     		mov	r5, r1
 426              		.loc 1 245 0
 427 0006 FFF7FEFF 		bl	chDbgCheckClassS
 428              	.LVL38:
 429              		.loc 1 246 0
 430 000a 24B3     		cbz	r4, .L50
 431              	.L42:
 432              		.loc 1 247 0
 433 000c A368     		ldr	r3, [r4, #8]
 434 000e 2268     		ldr	r2, [r4]
 435 0010 002B     		cmp	r3, #0
 436 0012 0BDB     		blt	.L43
 437              		.loc 1 247 0 is_stmt 0 discriminator 2
 438 0014 A242     		cmp	r2, r4
 439 0016 03D0     		beq	.L45
 440              	.L44:
 441              		.loc 1 247 0 discriminator 1
 442 0018 1348     		ldr	r0, .L53
 443 001a FFF7FEFF 		bl	chDbgPanic
 444              	.LVL39:
 445 001e A368     		ldr	r3, [r4, #8]
 446              	.L45:
 447              		.loc 1 252 0 is_stmt 1
 448 0020 5A1E     		subs	r2, r3, #1
 449 0022 002A     		cmp	r2, #0
 450 0024 A260     		str	r2, [r4, #8]
 451 0026 07DB     		blt	.L51
ARM GAS  /tmp/ccLn6K2o.s 			page 9


 452              	.L48:
 453              		.loc 1 261 0
 454 0028 0020     		movs	r0, #0
 455              		.loc 1 262 0
 456 002a 38BD     		pop	{r3, r4, r5, pc}
 457              	.LVL40:
 458              	.L43:
 459              		.loc 1 247 0 discriminator 2
 460 002c A242     		cmp	r2, r4
 461 002e F3D0     		beq	.L44
 462              		.loc 1 252 0
 463 0030 5A1E     		subs	r2, r3, #1
 464 0032 002A     		cmp	r2, #0
 465 0034 A260     		str	r2, [r4, #8]
 466 0036 F7DA     		bge	.L48
 467              	.L51:
 468              		.loc 1 253 0
 469 0038 8DB1     		cbz	r5, .L52
 470              		.loc 1 257 0
 471 003a 0C4B     		ldr	r3, .L53+4
 472 003c 9B69     		ldr	r3, [r3, #24]
 473 003e 9C62     		str	r4, [r3, #40]
 474              	.LVL41:
 475              	.LBB35:
 476              	.LBB36:
 477              		.loc 2 48 0
 478 0040 6268     		ldr	r2, [r4, #4]
 479 0042 5A60     		str	r2, [r3, #4]
 480              		.loc 2 47 0
 481 0044 1C60     		str	r4, [r3]
 482              	.LBE36:
 483              	.LBE35:
 484              		.loc 1 259 0
 485 0046 2946     		mov	r1, r5
 486              	.LBB39:
 487              	.LBB37:
 488              		.loc 2 49 0
 489 0048 6360     		str	r3, [r4, #4]
 490              	.LVL42:
 491              	.LBE37:
 492              	.LBE39:
 493              		.loc 1 259 0
 494 004a 0320     		movs	r0, #3
 495              	.LBB40:
 496              	.LBB38:
 497              		.loc 2 49 0
 498 004c 1360     		str	r3, [r2]
 499              	.LVL43:
 500              	.LBE38:
 501              	.LBE40:
 502              		.loc 1 262 0
 503 004e BDE83840 		pop	{r3, r4, r5, lr}
 504              	.LVL44:
 505              		.loc 1 259 0
 506 0052 FFF7FEBF 		b	chSchGoSleepTimeoutS
 507              	.LVL45:
 508              	.L50:
ARM GAS  /tmp/ccLn6K2o.s 			page 10


 509              		.loc 1 246 0 discriminator 1
 510 0056 0648     		ldr	r0, .L53+8
 511 0058 FFF7FEFF 		bl	chDbgPanic
 512              	.LVL46:
 513 005c D6E7     		b	.L42
 514              	.L52:
 515              		.loc 1 254 0
 516 005e A360     		str	r3, [r4, #8]
 517              		.loc 1 255 0
 518 0060 4FF0FF30 		mov	r0, #-1
 519 0064 38BD     		pop	{r3, r4, r5, pc}
 520              	.LVL47:
 521              	.L54:
 522 0066 00BF     		.align	2
 523              	.L53:
 524 0068 70000000 		.word	.LC6
 525 006c 00000000 		.word	rlist
 526 0070 58000000 		.word	.LC5
 527              		.cfi_endproc
 528              	.LFE13:
 529              		.size	chSemWaitTimeoutS, .-chSemWaitTimeoutS
 530 0074 AFF30080 		.section	.text.chSemWaitTimeout,"ax",%progbits
 530      AFF30080 
 530      AFF30080 
 531              		.align	2
 532              		.p2align 4,,15
 533              		.global	chSemWaitTimeout
 534              		.thumb
 535              		.thumb_func
 536              		.type	chSemWaitTimeout, %function
 537              	chSemWaitTimeout:
 538              	.LFB12:
 539              		.loc 1 215 0
 540              		.cfi_startproc
 541              		@ args = 0, pretend = 0, frame = 0
 542              		@ frame_needed = 0, uses_anonymous_args = 0
 543              	.LVL48:
 544 0000 38B5     		push	{r3, r4, r5, lr}
 545              		.cfi_def_cfa_offset 16
 546              		.cfi_offset 3, -16
 547              		.cfi_offset 4, -12
 548              		.cfi_offset 5, -8
 549              		.cfi_offset 14, -4
 550              		.loc 1 215 0
 551 0002 0546     		mov	r5, r0
 552 0004 0C46     		mov	r4, r1
 553              	.LBB41:
 554              		.loc 1 218 0
 555 0006 2023     		movs	r3, #32
 556              	@ 218 "../../../../os/kernel/src/chsem.c" 1
 557 0008 83F31188 		msr     BASEPRI, r3
 558              	@ 0 "" 2
 559              		.thumb
 560              	.LBE41:
 561 000c FFF7FEFF 		bl	dbg_check_lock
 562              	.LVL49:
 563              		.loc 1 219 0
ARM GAS  /tmp/ccLn6K2o.s 			page 11


 564 0010 2146     		mov	r1, r4
 565 0012 2846     		mov	r0, r5
 566 0014 FFF7FEFF 		bl	chSemWaitTimeoutS
 567              	.LVL50:
 568 0018 0446     		mov	r4, r0
 569              	.LVL51:
 570              		.loc 1 220 0
 571 001a FFF7FEFF 		bl	dbg_check_unlock
 572              	.LVL52:
 573              	.LBB42:
 574 001e 0023     		movs	r3, #0
 575              	@ 220 "../../../../os/kernel/src/chsem.c" 1
 576 0020 83F31188 		msr     BASEPRI, r3
 577              	@ 0 "" 2
 578              		.thumb
 579              	.LBE42:
 580              		.loc 1 222 0
 581 0024 2046     		mov	r0, r4
 582 0026 38BD     		pop	{r3, r4, r5, pc}
 583              		.cfi_endproc
 584              	.LFE12:
 585              		.size	chSemWaitTimeout, .-chSemWaitTimeout
 586 0028 AFF30080 		.section	.text.chSemSignal,"ax",%progbits
 586      AFF30080 
 587              		.align	2
 588              		.p2align 4,,15
 589              		.global	chSemSignal
 590              		.thumb
 591              		.thumb_func
 592              		.type	chSemSignal, %function
 593              	chSemSignal:
 594              	.LFB14:
 595              		.loc 1 271 0
 596              		.cfi_startproc
 597              		@ args = 0, pretend = 0, frame = 0
 598              		@ frame_needed = 0, uses_anonymous_args = 0
 599              	.LVL53:
 600 0000 10B5     		push	{r4, lr}
 601              		.cfi_def_cfa_offset 8
 602              		.cfi_offset 4, -8
 603              		.cfi_offset 14, -4
 604              		.loc 1 273 0
 605 0002 0446     		mov	r4, r0
 606 0004 40B3     		cbz	r0, .L62
 607              	.LVL54:
 608              	.L57:
 609              		.loc 1 274 0
 610 0006 A368     		ldr	r3, [r4, #8]
 611 0008 002B     		cmp	r3, #0
 612 000a 2368     		ldr	r3, [r4]
 613 000c 14DB     		blt	.L58
 614              		.loc 1 274 0 is_stmt 0 discriminator 2
 615 000e A342     		cmp	r3, r4
 616 0010 02D0     		beq	.L60
 617              	.L59:
 618              		.loc 1 274 0 discriminator 1
 619 0012 1348     		ldr	r0, .L64
ARM GAS  /tmp/ccLn6K2o.s 			page 12


 620 0014 FFF7FEFF 		bl	chDbgPanic
 621              	.LVL55:
 622              	.L60:
 623              	.LBB43:
 624              		.loc 1 279 0 is_stmt 1
 625 0018 2023     		movs	r3, #32
 626              	@ 279 "../../../../os/kernel/src/chsem.c" 1
 627 001a 83F31188 		msr     BASEPRI, r3
 628              	@ 0 "" 2
 629              		.thumb
 630              	.LBE43:
 631 001e FFF7FEFF 		bl	dbg_check_lock
 632              	.LVL56:
 633              		.loc 1 280 0
 634 0022 A368     		ldr	r3, [r4, #8]
 635 0024 0133     		adds	r3, r3, #1
 636 0026 002B     		cmp	r3, #0
 637 0028 A360     		str	r3, [r4, #8]
 638 002a 08DD     		ble	.L63
 639              		.loc 1 282 0
 640 002c FFF7FEFF 		bl	dbg_check_unlock
 641              	.LVL57:
 642              	.LBB44:
 643 0030 0023     		movs	r3, #0
 644              	@ 282 "../../../../os/kernel/src/chsem.c" 1
 645 0032 83F31188 		msr     BASEPRI, r3
 646              	@ 0 "" 2
 647              		.thumb
 648 0036 10BD     		pop	{r4, pc}
 649              	.LVL58:
 650              	.L58:
 651              	.LBE44:
 652              		.loc 1 274 0 discriminator 2
 653 0038 A342     		cmp	r3, r4
 654 003a EDD1     		bne	.L60
 655 003c E9E7     		b	.L59
 656              	.L63:
 657              	.LVL59:
 658              	.LBB45:
 659              	.LBB46:
 660              		.loc 2 53 0
 661 003e 2068     		ldr	r0, [r4]
 662              	.LVL60:
 663              		.loc 2 55 0
 664 0040 0368     		ldr	r3, [r0]
 665 0042 2360     		str	r3, [r4]
 666              	.LBE46:
 667              	.LBE45:
 668              		.loc 1 281 0
 669 0044 0021     		movs	r1, #0
 670              	.LBB48:
 671              	.LBB47:
 672              		.loc 2 55 0
 673 0046 5C60     		str	r4, [r3, #4]
 674              	.LBE47:
 675              	.LBE48:
 676              		.loc 1 281 0
ARM GAS  /tmp/ccLn6K2o.s 			page 13


 677 0048 FFF7FEFF 		bl	chSchWakeupS
 678              	.LVL61:
 679              		.loc 1 282 0
 680 004c FFF7FEFF 		bl	dbg_check_unlock
 681              	.LVL62:
 682              	.LBB49:
 683 0050 0023     		movs	r3, #0
 684              	@ 282 "../../../../os/kernel/src/chsem.c" 1
 685 0052 83F31188 		msr     BASEPRI, r3
 686              	@ 0 "" 2
 687              		.thumb
 688 0056 10BD     		pop	{r4, pc}
 689              	.LVL63:
 690              	.L62:
 691              	.LBE49:
 692              		.loc 1 273 0 discriminator 1
 693 0058 0248     		ldr	r0, .L64+4
 694              	.LVL64:
 695 005a FFF7FEFF 		bl	chDbgPanic
 696              	.LVL65:
 697 005e D2E7     		b	.L57
 698              	.L65:
 699              		.align	2
 700              	.L64:
 701 0060 98000000 		.word	.LC8
 702 0064 88000000 		.word	.LC7
 703              		.cfi_endproc
 704              	.LFE14:
 705              		.size	chSemSignal, .-chSemSignal
 706 0068 AFF30080 		.section	.text.chSemSignalI,"ax",%progbits
 706      AFF30080 
 707              		.align	2
 708              		.p2align 4,,15
 709              		.global	chSemSignalI
 710              		.thumb
 711              		.thumb_func
 712              		.type	chSemSignalI, %function
 713              	chSemSignalI:
 714              	.LFB15:
 715              		.loc 1 296 0
 716              		.cfi_startproc
 717              		@ args = 0, pretend = 0, frame = 0
 718              		@ frame_needed = 0, uses_anonymous_args = 0
 719              	.LVL66:
 720 0000 10B5     		push	{r4, lr}
 721              		.cfi_def_cfa_offset 8
 722              		.cfi_offset 4, -8
 723              		.cfi_offset 14, -4
 724              		.loc 1 296 0
 725 0002 0446     		mov	r4, r0
 726              		.loc 1 298 0
 727 0004 FFF7FEFF 		bl	chDbgCheckClassI
 728              	.LVL67:
 729              		.loc 1 299 0
 730 0008 FCB1     		cbz	r4, .L73
 731              	.L67:
 732              		.loc 1 300 0
ARM GAS  /tmp/ccLn6K2o.s 			page 14


 733 000a A368     		ldr	r3, [r4, #8]
 734 000c 2268     		ldr	r2, [r4]
 735 000e 002B     		cmp	r3, #0
 736 0010 0ADB     		blt	.L68
 737              		.loc 1 300 0 is_stmt 0 discriminator 2
 738 0012 A242     		cmp	r2, r4
 739 0014 03D0     		beq	.L70
 740              	.L69:
 741              		.loc 1 300 0 discriminator 1
 742 0016 0F48     		ldr	r0, .L75
 743 0018 FFF7FEFF 		bl	chDbgPanic
 744              	.LVL68:
 745 001c A368     		ldr	r3, [r4, #8]
 746              	.L70:
 747              		.loc 1 305 0 is_stmt 1
 748 001e 0133     		adds	r3, r3, #1
 749 0020 002B     		cmp	r3, #0
 750 0022 A360     		str	r3, [r4, #8]
 751 0024 06DD     		ble	.L74
 752              	.L66:
 753 0026 10BD     		pop	{r4, pc}
 754              	.LVL69:
 755              	.L68:
 756              		.loc 1 300 0 discriminator 2
 757 0028 A242     		cmp	r2, r4
 758 002a F4D0     		beq	.L69
 759              		.loc 1 305 0
 760 002c 0133     		adds	r3, r3, #1
 761 002e 002B     		cmp	r3, #0
 762 0030 A360     		str	r3, [r4, #8]
 763 0032 F8DC     		bgt	.L66
 764              	.L74:
 765              	.LVL70:
 766              	.LBB50:
 767              	.LBB51:
 768              	.LBB52:
 769              		.loc 2 53 0
 770 0034 2368     		ldr	r3, [r4]
 771              	.LVL71:
 772              		.loc 2 55 0
 773 0036 1A68     		ldr	r2, [r3]
 774 0038 2260     		str	r2, [r4]
 775              	.LBE52:
 776              	.LBE51:
 777              		.loc 1 309 0
 778 003a 0021     		movs	r1, #0
 779              	.LBB54:
 780              	.LBB53:
 781              		.loc 2 55 0
 782 003c 5460     		str	r4, [r2, #4]
 783              	.LBE53:
 784              	.LBE54:
 785              		.loc 1 309 0
 786 003e 9962     		str	r1, [r3, #40]
 787              		.loc 1 310 0
 788 0040 1846     		mov	r0, r3
 789              	.LBE50:
ARM GAS  /tmp/ccLn6K2o.s 			page 15


 790              		.loc 1 312 0
 791 0042 BDE81040 		pop	{r4, lr}
 792              	.LVL72:
 793              	.LBB55:
 794              		.loc 1 310 0
 795 0046 FFF7FEBF 		b	chSchReadyI
 796              	.LVL73:
 797              	.L73:
 798              	.LBE55:
 799              		.loc 1 299 0 discriminator 1
 800 004a 0348     		ldr	r0, .L75+4
 801 004c FFF7FEFF 		bl	chDbgPanic
 802              	.LVL74:
 803 0050 DBE7     		b	.L67
 804              	.L76:
 805 0052 00BF     		.align	2
 806              	.L75:
 807 0054 C0000000 		.word	.LC10
 808 0058 AC000000 		.word	.LC9
 809              		.cfi_endproc
 810              	.LFE15:
 811              		.size	chSemSignalI, .-chSemSignalI
 812 005c AFF30080 		.section	.text.chSemAddCounterI,"ax",%progbits
 813              		.align	2
 814              		.p2align 4,,15
 815              		.global	chSemAddCounterI
 816              		.thumb
 817              		.thumb_func
 818              		.type	chSemAddCounterI, %function
 819              	chSemAddCounterI:
 820              	.LFB16:
 821              		.loc 1 327 0
 822              		.cfi_startproc
 823              		@ args = 0, pretend = 0, frame = 0
 824              		@ frame_needed = 0, uses_anonymous_args = 0
 825              	.LVL75:
 826 0000 70B5     		push	{r4, r5, r6, lr}
 827              		.cfi_def_cfa_offset 16
 828              		.cfi_offset 4, -16
 829              		.cfi_offset 5, -12
 830              		.cfi_offset 6, -8
 831              		.cfi_offset 14, -4
 832              		.loc 1 327 0
 833 0002 0546     		mov	r5, r0
 834 0004 0C46     		mov	r4, r1
 835              		.loc 1 329 0
 836 0006 FFF7FEFF 		bl	chDbgCheckClassI
 837              	.LVL76:
 838              		.loc 1 330 0
 839 000a 15B3     		cbz	r5, .L78
 840              		.loc 1 330 0 is_stmt 0 discriminator 2
 841 000c 002C     		cmp	r4, #0
 842 000e 20DD     		ble	.L78
 843              	.L79:
 844              		.loc 1 331 0 is_stmt 1
 845 0010 AB68     		ldr	r3, [r5, #8]
 846 0012 002B     		cmp	r3, #0
ARM GAS  /tmp/ccLn6K2o.s 			page 16


 847 0014 2B68     		ldr	r3, [r5]
 848 0016 19DB     		blt	.L80
 849              		.loc 1 331 0 is_stmt 0 discriminator 2
 850 0018 AB42     		cmp	r3, r5
 851 001a 02D0     		beq	.L82
 852              	.L81:
 853              		.loc 1 331 0 discriminator 1
 854 001c 0F48     		ldr	r0, .L93
 855 001e FFF7FEFF 		bl	chDbgPanic
 856              	.LVL77:
 857              	.L82:
 858              		.loc 1 336 0 is_stmt 1 discriminator 1
 859 0022 002C     		cmp	r4, #0
 860 0024 11DD     		ble	.L77
 861              		.loc 1 338 0
 862 0026 0026     		movs	r6, #0
 863 0028 01E0     		b	.L86
 864              	.L84:
 865              	.LVL78:
 866              		.loc 1 336 0
 867 002a 013C     		subs	r4, r4, #1
 868              	.LVL79:
 869 002c 0DD0     		beq	.L77
 870              	.LVL80:
 871              	.L86:
 872              		.loc 1 337 0
 873 002e AB68     		ldr	r3, [r5, #8]
 874 0030 0133     		adds	r3, r3, #1
 875 0032 002B     		cmp	r3, #0
 876 0034 AB60     		str	r3, [r5, #8]
 877 0036 F8DC     		bgt	.L84
 878              	.LVL81:
 879              	.LBB56:
 880              	.LBB57:
 881              		.loc 2 53 0
 882 0038 2868     		ldr	r0, [r5]
 883              	.LVL82:
 884              		.loc 2 55 0
 885 003a 0368     		ldr	r3, [r0]
 886 003c 2B60     		str	r3, [r5]
 887 003e 5D60     		str	r5, [r3, #4]
 888              	.LBE57:
 889              	.LBE56:
 890              		.loc 1 338 0
 891 0040 FFF7FEFF 		bl	chSchReadyI
 892              	.LVL83:
 893              		.loc 1 336 0
 894 0044 013C     		subs	r4, r4, #1
 895              	.LVL84:
 896              		.loc 1 338 0
 897 0046 8662     		str	r6, [r0, #40]
 898              	.LVL85:
 899              		.loc 1 336 0
 900 0048 F1D1     		bne	.L86
 901              	.LVL86:
 902              	.L77:
 903 004a 70BD     		pop	{r4, r5, r6, pc}
ARM GAS  /tmp/ccLn6K2o.s 			page 17


 904              	.LVL87:
 905              	.L80:
 906              		.loc 1 331 0 discriminator 2
 907 004c AB42     		cmp	r3, r5
 908 004e E8D1     		bne	.L82
 909 0050 E4E7     		b	.L81
 910              	.L78:
 911              		.loc 1 330 0 discriminator 1
 912 0052 0348     		ldr	r0, .L93+4
 913 0054 FFF7FEFF 		bl	chDbgPanic
 914              	.LVL88:
 915 0058 DAE7     		b	.L79
 916              	.L94:
 917 005a 00BF     		.align	2
 918              	.L93:
 919 005c EC000000 		.word	.LC12
 920 0060 D4000000 		.word	.LC11
 921              		.cfi_endproc
 922              	.LFE16:
 923              		.size	chSemAddCounterI, .-chSemAddCounterI
 924 0064 AFF30080 		.section	.text.chSemSignalWait,"ax",%progbits
 924      AFF30080 
 924      AFF30080 
 925              		.align	2
 926              		.p2align 4,,15
 927              		.global	chSemSignalWait
 928              		.thumb
 929              		.thumb_func
 930              		.type	chSemSignalWait, %function
 931              	chSemSignalWait:
 932              	.LFB17:
 933              		.loc 1 359 0
 934              		.cfi_startproc
 935              		@ args = 0, pretend = 0, frame = 0
 936              		@ frame_needed = 0, uses_anonymous_args = 0
 937              	.LVL89:
 938 0000 38B5     		push	{r3, r4, r5, lr}
 939              		.cfi_def_cfa_offset 16
 940              		.cfi_offset 3, -16
 941              		.cfi_offset 4, -12
 942              		.cfi_offset 5, -8
 943              		.cfi_offset 14, -4
 944              		.loc 1 362 0
 945 0002 0546     		mov	r5, r0
 946              		.loc 1 359 0
 947 0004 0C46     		mov	r4, r1
 948              		.loc 1 362 0
 949 0006 0028     		cmp	r0, #0
 950 0008 35D0     		beq	.L96
 951              		.loc 1 362 0 is_stmt 0 discriminator 2
 952 000a 0029     		cmp	r1, #0
 953 000c 33D0     		beq	.L96
 954              	.LVL90:
 955              	.L97:
 956              		.loc 1 363 0 is_stmt 1
 957 000e AB68     		ldr	r3, [r5, #8]
 958 0010 002B     		cmp	r3, #0
ARM GAS  /tmp/ccLn6K2o.s 			page 18


 959 0012 2B68     		ldr	r3, [r5]
 960 0014 26DB     		blt	.L98
 961              		.loc 1 363 0 is_stmt 0 discriminator 2
 962 0016 AB42     		cmp	r3, r5
 963 0018 02D0     		beq	.L100
 964              	.L99:
 965              		.loc 1 363 0 discriminator 1
 966 001a 2448     		ldr	r0, .L114
 967 001c FFF7FEFF 		bl	chDbgPanic
 968              	.LVL91:
 969              	.L100:
 970              		.loc 1 367 0 is_stmt 1
 971 0020 A368     		ldr	r3, [r4, #8]
 972 0022 002B     		cmp	r3, #0
 973 0024 2368     		ldr	r3, [r4]
 974 0026 23DB     		blt	.L101
 975              	.L113:
 976              		.loc 1 367 0 is_stmt 0 discriminator 2
 977 0028 A342     		cmp	r3, r4
 978 002a 02D0     		beq	.L103
 979              	.L102:
 980              		.loc 1 367 0 discriminator 1
 981 002c 2048     		ldr	r0, .L114+4
 982 002e FFF7FEFF 		bl	chDbgPanic
 983              	.LVL92:
 984              	.L103:
 985              	.LBB58:
 986              		.loc 1 372 0 is_stmt 1
 987 0032 2023     		movs	r3, #32
 988              	@ 372 "../../../../os/kernel/src/chsem.c" 1
 989 0034 83F31188 		msr     BASEPRI, r3
 990              	@ 0 "" 2
 991              		.thumb
 992              	.LBE58:
 993 0038 FFF7FEFF 		bl	dbg_check_lock
 994              	.LVL93:
 995              		.loc 1 373 0
 996 003c AB68     		ldr	r3, [r5, #8]
 997 003e 0133     		adds	r3, r3, #1
 998 0040 002B     		cmp	r3, #0
 999 0042 AB60     		str	r3, [r5, #8]
 1000 0044 28DD     		ble	.L111
 1001              	.L104:
 1002              		.loc 1 375 0
 1003 0046 A368     		ldr	r3, [r4, #8]
 1004 0048 013B     		subs	r3, r3, #1
 1005 004a 002B     		cmp	r3, #0
 1006 004c A360     		str	r3, [r4, #8]
 1007 004e 16DB     		blt	.L112
 1008              		.loc 1 383 0
 1009 0050 FFF7FEFF 		bl	chSchRescheduleS
 1010              	.LVL94:
 1011              		.loc 1 384 0
 1012 0054 0024     		movs	r4, #0
 1013              	.LVL95:
 1014              	.L106:
 1015              		.loc 1 386 0
ARM GAS  /tmp/ccLn6K2o.s 			page 19


 1016 0056 FFF7FEFF 		bl	dbg_check_unlock
 1017              	.LVL96:
 1018              	.LBB59:
 1019 005a 0023     		movs	r3, #0
 1020              	@ 386 "../../../../os/kernel/src/chsem.c" 1
 1021 005c 83F31188 		msr     BASEPRI, r3
 1022              	@ 0 "" 2
 1023              		.thumb
 1024              	.LBE59:
 1025              		.loc 1 388 0
 1026 0060 2046     		mov	r0, r4
 1027 0062 38BD     		pop	{r3, r4, r5, pc}
 1028              	.LVL97:
 1029              	.L98:
 1030              		.loc 1 363 0 discriminator 2
 1031 0064 AB42     		cmp	r3, r5
 1032 0066 D8D0     		beq	.L99
 1033              		.loc 1 367 0
 1034 0068 A368     		ldr	r3, [r4, #8]
 1035 006a 002B     		cmp	r3, #0
 1036 006c 2368     		ldr	r3, [r4]
 1037 006e DBDA     		bge	.L113
 1038              	.L101:
 1039              		.loc 1 367 0 is_stmt 0 discriminator 2
 1040 0070 A342     		cmp	r3, r4
 1041 0072 DED1     		bne	.L103
 1042 0074 DAE7     		b	.L102
 1043              	.LVL98:
 1044              	.L96:
 1045              		.loc 1 362 0 is_stmt 1 discriminator 1
 1046 0076 0F48     		ldr	r0, .L114+8
 1047              	.LVL99:
 1048 0078 FFF7FEFF 		bl	chDbgPanic
 1049              	.LVL100:
 1050 007c C7E7     		b	.L97
 1051              	.L112:
 1052              	.LBB60:
 1053              		.loc 1 376 0
 1054 007e 0E4A     		ldr	r2, .L114+12
 1055              	.LBB61:
 1056              	.LBB62:
 1057              		.loc 2 48 0
 1058 0080 6368     		ldr	r3, [r4, #4]
 1059              	.LBE62:
 1060              	.LBE61:
 1061              		.loc 1 376 0
 1062 0082 9569     		ldr	r5, [r2, #24]
 1063              	.LVL101:
 1064              		.loc 1 379 0
 1065 0084 0320     		movs	r0, #3
 1066              	.LBB64:
 1067              	.LBB63:
 1068              		.loc 2 47 0
 1069 0086 2C60     		str	r4, [r5]
 1070              		.loc 2 48 0
 1071 0088 6B60     		str	r3, [r5, #4]
 1072              		.loc 2 49 0
ARM GAS  /tmp/ccLn6K2o.s 			page 20


 1073 008a 6560     		str	r5, [r4, #4]
 1074 008c 1D60     		str	r5, [r3]
 1075              	.LBE63:
 1076              	.LBE64:
 1077              		.loc 1 378 0
 1078 008e AC62     		str	r4, [r5, #40]
 1079              		.loc 1 379 0
 1080 0090 FFF7FEFF 		bl	chSchGoSleepS
 1081              	.LVL102:
 1082              		.loc 1 380 0
 1083 0094 AC6A     		ldr	r4, [r5, #40]
 1084              	.LVL103:
 1085              	.LBE60:
 1086 0096 DEE7     		b	.L106
 1087              	.LVL104:
 1088              	.L111:
 1089              	.LBB65:
 1090              	.LBB66:
 1091              		.loc 2 53 0
 1092 0098 2868     		ldr	r0, [r5]
 1093              	.LVL105:
 1094              		.loc 2 55 0
 1095 009a 0368     		ldr	r3, [r0]
 1096 009c 2B60     		str	r3, [r5]
 1097 009e 5D60     		str	r5, [r3, #4]
 1098              	.LBE66:
 1099              	.LBE65:
 1100              		.loc 1 374 0
 1101 00a0 FFF7FEFF 		bl	chSchReadyI
 1102              	.LVL106:
 1103 00a4 0023     		movs	r3, #0
 1104 00a6 8362     		str	r3, [r0, #40]
 1105 00a8 CDE7     		b	.L104
 1106              	.L115:
 1107 00aa 00BF     		.align	2
 1108              	.L114:
 1109 00ac 18010000 		.word	.LC14
 1110 00b0 30010000 		.word	.LC15
 1111 00b4 04010000 		.word	.LC13
 1112 00b8 00000000 		.word	rlist
 1113              		.cfi_endproc
 1114              	.LFE17:
 1115              		.size	chSemSignalWait, .-chSemSignalWait
 1116 00bc AFF30080 		.section	.rodata.str1.4,"aMS",%progbits,1
 1117              		.align	2
 1118              	.LC0:
 1119 0000 22636853 		.ascii	"\"chSemInit\"()\000"
 1119      656D496E 
 1119      69742228 
 1119      2900
 1120 000e 0000     		.space	2
 1121              	.LC1:
 1122 0010 22636853 		.ascii	"\"chSemResetI\"()\000"
 1122      656D5265 
 1122      73657449 
 1122      22282900 
 1123              	.LC2:
ARM GAS  /tmp/ccLn6K2o.s 			page 21


 1124 0020 63685365 		.ascii	"chSemResetI(), #1\000"
 1124      6D526573 
 1124      65744928 
 1124      292C2023 
 1124      3100
 1125 0032 0000     		.space	2
 1126              	.LC3:
 1127 0034 22636853 		.ascii	"\"chSemWaitS\"()\000"
 1127      656D5761 
 1127      69745322 
 1127      282900
 1128 0043 00       		.space	1
 1129              	.LC4:
 1130 0044 63685365 		.ascii	"chSemWaitS(), #1\000"
 1130      6D576169 
 1130      74532829 
 1130      2C202331 
 1130      00
 1131 0055 000000   		.space	3
 1132              	.LC5:
 1133 0058 22636853 		.ascii	"\"chSemWaitTimeoutS\"()\000"
 1133      656D5761 
 1133      69745469 
 1133      6D656F75 
 1133      74532228 
 1134 006e 0000     		.space	2
 1135              	.LC6:
 1136 0070 63685365 		.ascii	"chSemWaitTimeoutS(), #1\000"
 1136      6D576169 
 1136      7454696D 
 1136      656F7574 
 1136      5328292C 
 1137              	.LC7:
 1138 0088 22636853 		.ascii	"\"chSemSignal\"()\000"
 1138      656D5369 
 1138      676E616C 
 1138      22282900 
 1139              	.LC8:
 1140 0098 63685365 		.ascii	"chSemSignal(), #1\000"
 1140      6D536967 
 1140      6E616C28 
 1140      292C2023 
 1140      3100
 1141 00aa 0000     		.space	2
 1142              	.LC9:
 1143 00ac 22636853 		.ascii	"\"chSemSignalI\"()\000"
 1143      656D5369 
 1143      676E616C 
 1143      49222829 
 1143      00
 1144 00bd 000000   		.space	3
 1145              	.LC10:
 1146 00c0 63685365 		.ascii	"chSemSignalI(), #1\000"
 1146      6D536967 
 1146      6E616C49 
 1146      28292C20 
 1146      233100
ARM GAS  /tmp/ccLn6K2o.s 			page 22


 1147 00d3 00       		.space	1
 1148              	.LC11:
 1149 00d4 22636853 		.ascii	"\"chSemAddCounterI\"()\000"
 1149      656D4164 
 1149      64436F75 
 1149      6E746572 
 1149      49222829 
 1150 00e9 000000   		.space	3
 1151              	.LC12:
 1152 00ec 63685365 		.ascii	"chSemAddCounterI(), #1\000"
 1152      6D416464 
 1152      436F756E 
 1152      74657249 
 1152      28292C20 
 1153 0103 00       		.space	1
 1154              	.LC13:
 1155 0104 22636853 		.ascii	"\"chSemSignalWait\"()\000"
 1155      656D5369 
 1155      676E616C 
 1155      57616974 
 1155      22282900 
 1156              	.LC14:
 1157 0118 63685365 		.ascii	"chSemSignalWait(), #1\000"
 1157      6D536967 
 1157      6E616C57 
 1157      61697428 
 1157      292C2023 
 1158 012e 0000     		.space	2
 1159              	.LC15:
 1160 0130 63685365 		.ascii	"chSemSignalWait(), #2\000"
 1160      6D536967 
 1160      6E616C57 
 1160      61697428 
 1160      292C2023 
 1161 0146 0000     		.text
 1162              	.Letext0:
 1163              		.file 3 "/usr/include/newlib/machine/_default_types.h"
 1164              		.file 4 "/usr/include/newlib/stdint.h"
 1165              		.file 5 "../../../../os/ports/GCC/ARMCMx/chtypes.h"
 1166              		.file 6 "../../../../os/kernel/include/chlists.h"
 1167              		.file 7 "../../../../os/kernel/include/chthreads.h"
 1168              		.file 8 "../../../../os/ports/GCC/ARMCMx/chcore_v7m.h"
 1169              		.file 9 "../../../../os/kernel/include/chschd.h"
 1170              		.file 10 "../../../../os/kernel/include/chsem.h"
 1171              		.file 11 "../../../../os/kernel/include/chmtx.h"
 1172              		.file 12 "../../../../os/kernel/include/chdebug.h"