ARM GAS  /tmp/ccRZ3kKI.s 			page 1


   1              		.syntax unified
   2              		.cpu cortex-m4
   3              		.eabi_attribute 27, 3
   4              		.fpu fpv4-sp-d16
   5              		.eabi_attribute 20, 1
   6              		.eabi_attribute 21, 1
   7              		.eabi_attribute 23, 3
   8              		.eabi_attribute 24, 1
   9              		.eabi_attribute 25, 1
  10              		.eabi_attribute 26, 1
  11              		.eabi_attribute 30, 2
  12              		.eabi_attribute 34, 1
  13              		.eabi_attribute 18, 4
  14              		.thumb
  15              		.file	"icu_lld.c"
  16              		.text
  17              	.Ltext0:
  18              		.cfi_sections	.debug_frame
  19              		.section	.text.icu_lld_serve_interrupt,"ax",%progbits
  20              		.align	2
  21              		.p2align 4,,15
  22              		.thumb
  23              		.thumb_func
  24              		.type	icu_lld_serve_interrupt, %function
  25              	icu_lld_serve_interrupt:
  26              	.LFB118:
  27              		.file 1 "../../../../os/hal/platforms/STM32/icu_lld.c"
  28              		.loc 1 111 0
  29              		.cfi_startproc
  30              		@ args = 0, pretend = 0, frame = 0
  31              		@ frame_needed = 0, uses_anonymous_args = 0
  32              	.LVL0:
  33              		.loc 1 114 0
  34 0000 C368     		ldr	r3, [r0, #12]
  35              		.loc 1 117 0
  36 0002 4268     		ldr	r2, [r0, #4]
  37              		.loc 1 111 0
  38 0004 70B5     		push	{r4, r5, r6, lr}
  39              		.cfi_def_cfa_offset 16
  40              		.cfi_offset 4, -16
  41              		.cfi_offset 5, -12
  42              		.cfi_offset 6, -8
  43              		.cfi_offset 14, -4
  44              		.loc 1 114 0
  45 0006 1E8A     		ldrh	r6, [r3, #16]
  46              	.LVL1:
  47              		.loc 1 115 0
  48 0008 9D89     		ldrh	r5, [r3, #12]
  49              		.loc 1 117 0
  50 000a 117D     		ldrb	r1, [r2, #20]	@ zero_extendqisi2
  51              		.loc 1 115 0
  52 000c ADB2     		uxth	r5, r5
  53 000e 3540     		ands	r5, r5, r6
  54              	.LVL2:
  55              		.loc 1 116 0
  56 0010 EE43     		mvns	r6, r5
  57 0012 B6B2     		uxth	r6, r6
ARM GAS  /tmp/ccRZ3kKI.s 			page 2


  58              		.loc 1 111 0
  59 0014 0446     		mov	r4, r0
  60              		.loc 1 116 0
  61 0016 1E82     		strh	r6, [r3, #16]	@ movhi
  62              		.loc 1 117 0
  63 0018 89B9     		cbnz	r1, .L2
  64              		.loc 1 118 0
  65 001a AE07     		lsls	r6, r5, #30
  66 001c 06D5     		bpl	.L4
  67              	.LBB2:
  68              		.loc 1 119 0
  69 001e 0378     		ldrb	r3, [r0]	@ zero_extendqisi2
  70              	.LVL3:
  71 0020 0421     		movs	r1, #4
  72 0022 032B     		cmp	r3, #3
  73 0024 0170     		strb	r1, [r0]
  74              	.LVL4:
  75 0026 01D0     		beq	.L4
  76              		.loc 1 119 0 is_stmt 0 discriminator 1
  77 0028 D368     		ldr	r3, [r2, #12]
  78              	.LVL5:
  79 002a 9847     		blx	r3
  80              	.LVL6:
  81              	.L4:
  82              	.LBE2:
  83              		.loc 1 120 0 is_stmt 1
  84 002c 6807     		lsls	r0, r5, #29
  85 002e 1BD4     		bmi	.L27
  86              	.L7:
  87              		.loc 1 128 0
  88 0030 EB07     		lsls	r3, r5, #31
  89 0032 03D5     		bpl	.L1
  90              		.loc 1 129 0
  91 0034 6368     		ldr	r3, [r4, #4]
  92 0036 2046     		mov	r0, r4
  93 0038 1B69     		ldr	r3, [r3, #16]
  94 003a 9847     		blx	r3
  95              	.LVL7:
  96              	.L1:
  97 003c 70BD     		pop	{r4, r5, r6, pc}
  98              	.LVL8:
  99              	.L2:
 100              		.loc 1 123 0
 101 003e A907     		lsls	r1, r5, #30
 102 0040 0BD4     		bmi	.L28
 103              		.loc 1 125 0
 104 0042 6A07     		lsls	r2, r5, #29
 105 0044 F4D5     		bpl	.L7
 106              	.LVL9:
 107              	.L29:
 108              	.LBB3:
 109              		.loc 1 126 0
 110 0046 2378     		ldrb	r3, [r4]	@ zero_extendqisi2
 111              	.LVL10:
 112 0048 0422     		movs	r2, #4
 113 004a 032B     		cmp	r3, #3
 114 004c 2270     		strb	r2, [r4]
ARM GAS  /tmp/ccRZ3kKI.s 			page 3


 115              	.LVL11:
 116 004e EFD0     		beq	.L7
 117              		.loc 1 126 0 is_stmt 0 discriminator 1
 118 0050 6368     		ldr	r3, [r4, #4]
 119              	.LVL12:
 120 0052 2046     		mov	r0, r4
 121 0054 DB68     		ldr	r3, [r3, #12]
 122 0056 9847     		blx	r3
 123              	.LVL13:
 124 0058 EAE7     		b	.L7
 125              	.LVL14:
 126              	.L28:
 127              	.LBE3:
 128              		.loc 1 124 0 is_stmt 1
 129 005a 0521     		movs	r1, #5
 130 005c 9368     		ldr	r3, [r2, #8]
 131 005e 0170     		strb	r1, [r0]
 132 0060 9847     		blx	r3
 133              	.LVL15:
 134              		.loc 1 125 0
 135 0062 6A07     		lsls	r2, r5, #29
 136 0064 E4D5     		bpl	.L7
 137 0066 EEE7     		b	.L29
 138              	.L27:
 139              		.loc 1 121 0
 140 0068 6368     		ldr	r3, [r4, #4]
 141 006a 0522     		movs	r2, #5
 142 006c 9B68     		ldr	r3, [r3, #8]
 143 006e 2270     		strb	r2, [r4]
 144 0070 2046     		mov	r0, r4
 145 0072 9847     		blx	r3
 146              	.LVL16:
 147 0074 DCE7     		b	.L7
 148              		.cfi_endproc
 149              	.LFE118:
 150              		.size	icu_lld_serve_interrupt, .-icu_lld_serve_interrupt
 151 0076 00BFAFF3 		.section	.text.VectorA4,"ax",%progbits
 151      0080AFF3 
 151      0080
 152              		.align	2
 153              		.p2align 4,,15
 154              		.global	VectorA4
 155              		.thumb
 156              		.thumb_func
 157              		.type	VectorA4, %function
 158              	VectorA4:
 159              	.LFB119:
 160              		.loc 1 148 0
 161              		.cfi_startproc
 162              		@ args = 0, pretend = 0, frame = 0
 163              		@ frame_needed = 0, uses_anonymous_args = 0
 164 0000 08B5     		push	{r3, lr}
 165              		.cfi_def_cfa_offset 8
 166              		.cfi_offset 3, -8
 167              		.cfi_offset 14, -4
 168              		.loc 1 150 0
 169 0002 FFF7FEFF 		bl	dbg_check_enter_isr
ARM GAS  /tmp/ccRZ3kKI.s 			page 4


 170              	.LVL17:
 171              		.loc 1 152 0
 172 0006 0448     		ldr	r0, .L31
 173 0008 FFF7FEFF 		bl	icu_lld_serve_interrupt
 174              	.LVL18:
 175              		.loc 1 154 0
 176 000c FFF7FEFF 		bl	dbg_check_leave_isr
 177              	.LVL19:
 178              		.loc 1 155 0
 179 0010 BDE80840 		pop	{r3, lr}
 180              		.loc 1 154 0
 181 0014 FFF7FEBF 		b	_port_irq_epilogue
 182              	.LVL20:
 183              	.L32:
 184              		.align	2
 185              	.L31:
 186 0018 00000000 		.word	.LANCHOR0
 187              		.cfi_endproc
 188              	.LFE119:
 189              		.size	VectorA4, .-VectorA4
 190 001c AFF30080 		.section	.text.VectorAC,"ax",%progbits
 191              		.align	2
 192              		.p2align 4,,15
 193              		.global	VectorAC
 194              		.thumb
 195              		.thumb_func
 196              		.type	VectorAC, %function
 197              	VectorAC:
 198              	.LFB120:
 199              		.loc 1 168 0
 200              		.cfi_startproc
 201              		@ args = 0, pretend = 0, frame = 0
 202              		@ frame_needed = 0, uses_anonymous_args = 0
 203 0000 08B5     		push	{r3, lr}
 204              		.cfi_def_cfa_offset 8
 205              		.cfi_offset 3, -8
 206              		.cfi_offset 14, -4
 207              		.loc 1 170 0
 208 0002 FFF7FEFF 		bl	dbg_check_enter_isr
 209              	.LVL21:
 210              		.loc 1 172 0
 211 0006 0448     		ldr	r0, .L34
 212 0008 FFF7FEFF 		bl	icu_lld_serve_interrupt
 213              	.LVL22:
 214              		.loc 1 174 0
 215 000c FFF7FEFF 		bl	dbg_check_leave_isr
 216              	.LVL23:
 217              		.loc 1 175 0
 218 0010 BDE80840 		pop	{r3, lr}
 219              		.loc 1 174 0
 220 0014 FFF7FEBF 		b	_port_irq_epilogue
 221              	.LVL24:
 222              	.L35:
 223              		.align	2
 224              	.L34:
 225 0018 00000000 		.word	.LANCHOR0
 226              		.cfi_endproc
ARM GAS  /tmp/ccRZ3kKI.s 			page 5


 227              	.LFE120:
 228              		.size	VectorAC, .-VectorAC
 229 001c AFF30080 		.section	.text.VectorB4,"ax",%progbits
 230              		.align	2
 231              		.p2align 4,,15
 232              		.global	VectorB4
 233              		.thumb
 234              		.thumb_func
 235              		.type	VectorB4, %function
 236              	VectorB4:
 237              	.LFB121:
 238              		.loc 1 212 0
 239              		.cfi_startproc
 240              		@ args = 0, pretend = 0, frame = 0
 241              		@ frame_needed = 0, uses_anonymous_args = 0
 242 0000 08B5     		push	{r3, lr}
 243              		.cfi_def_cfa_offset 8
 244              		.cfi_offset 3, -8
 245              		.cfi_offset 14, -4
 246              		.loc 1 214 0
 247 0002 FFF7FEFF 		bl	dbg_check_enter_isr
 248              	.LVL25:
 249              		.loc 1 216 0
 250 0006 0448     		ldr	r0, .L37
 251 0008 FFF7FEFF 		bl	icu_lld_serve_interrupt
 252              	.LVL26:
 253              		.loc 1 218 0
 254 000c FFF7FEFF 		bl	dbg_check_leave_isr
 255              	.LVL27:
 256              		.loc 1 219 0
 257 0010 BDE80840 		pop	{r3, lr}
 258              		.loc 1 218 0
 259 0014 FFF7FEBF 		b	_port_irq_epilogue
 260              	.LVL28:
 261              	.L38:
 262              		.align	2
 263              	.L37:
 264 0018 00000000 		.word	.LANCHOR1
 265              		.cfi_endproc
 266              	.LFE121:
 267              		.size	VectorB4, .-VectorB4
 268 001c AFF30080 		.section	.text.VectorB8,"ax",%progbits
 269              		.align	2
 270              		.p2align 4,,15
 271              		.global	VectorB8
 272              		.thumb
 273              		.thumb_func
 274              		.type	VectorB8, %function
 275              	VectorB8:
 276              	.LFB122:
 277              		.loc 1 234 0
 278              		.cfi_startproc
 279              		@ args = 0, pretend = 0, frame = 0
 280              		@ frame_needed = 0, uses_anonymous_args = 0
 281 0000 08B5     		push	{r3, lr}
 282              		.cfi_def_cfa_offset 8
 283              		.cfi_offset 3, -8
ARM GAS  /tmp/ccRZ3kKI.s 			page 6


 284              		.cfi_offset 14, -4
 285              		.loc 1 236 0
 286 0002 FFF7FEFF 		bl	dbg_check_enter_isr
 287              	.LVL29:
 288              		.loc 1 238 0
 289 0006 0448     		ldr	r0, .L40
 290 0008 FFF7FEFF 		bl	icu_lld_serve_interrupt
 291              	.LVL30:
 292              		.loc 1 240 0
 293 000c FFF7FEFF 		bl	dbg_check_leave_isr
 294              	.LVL31:
 295              		.loc 1 241 0
 296 0010 BDE80840 		pop	{r3, lr}
 297              		.loc 1 240 0
 298 0014 FFF7FEBF 		b	_port_irq_epilogue
 299              	.LVL32:
 300              	.L41:
 301              		.align	2
 302              	.L40:
 303 0018 00000000 		.word	.LANCHOR2
 304              		.cfi_endproc
 305              	.LFE122:
 306              		.size	VectorB8, .-VectorB8
 307 001c AFF30080 		.section	.text.VectorF0,"ax",%progbits
 308              		.align	2
 309              		.p2align 4,,15
 310              		.global	VectorF0
 311              		.thumb
 312              		.thumb_func
 313              		.type	VectorF0, %function
 314              	VectorF0:
 315              	.LFB123:
 316              		.loc 1 278 0
 317              		.cfi_startproc
 318              		@ args = 0, pretend = 0, frame = 0
 319              		@ frame_needed = 0, uses_anonymous_args = 0
 320 0000 08B5     		push	{r3, lr}
 321              		.cfi_def_cfa_offset 8
 322              		.cfi_offset 3, -8
 323              		.cfi_offset 14, -4
 324              		.loc 1 280 0
 325 0002 FFF7FEFF 		bl	dbg_check_enter_isr
 326              	.LVL33:
 327              		.loc 1 282 0
 328 0006 0448     		ldr	r0, .L43
 329 0008 FFF7FEFF 		bl	icu_lld_serve_interrupt
 330              	.LVL34:
 331              		.loc 1 284 0
 332 000c FFF7FEFF 		bl	dbg_check_leave_isr
 333              	.LVL35:
 334              		.loc 1 285 0
 335 0010 BDE80840 		pop	{r3, lr}
 336              		.loc 1 284 0
 337 0014 FFF7FEBF 		b	_port_irq_epilogue
 338              	.LVL36:
 339              	.L44:
 340              		.align	2
ARM GAS  /tmp/ccRZ3kKI.s 			page 7


 341              	.L43:
 342 0018 00000000 		.word	.LANCHOR3
 343              		.cfi_endproc
 344              	.LFE123:
 345              		.size	VectorF0, .-VectorF0
 346 001c AFF30080 		.section	.text.VectorF8,"ax",%progbits
 347              		.align	2
 348              		.p2align 4,,15
 349              		.global	VectorF8
 350              		.thumb
 351              		.thumb_func
 352              		.type	VectorF8, %function
 353              	VectorF8:
 354              	.LFB124:
 355              		.loc 1 298 0
 356              		.cfi_startproc
 357              		@ args = 0, pretend = 0, frame = 0
 358              		@ frame_needed = 0, uses_anonymous_args = 0
 359 0000 08B5     		push	{r3, lr}
 360              		.cfi_def_cfa_offset 8
 361              		.cfi_offset 3, -8
 362              		.cfi_offset 14, -4
 363              		.loc 1 300 0
 364 0002 FFF7FEFF 		bl	dbg_check_enter_isr
 365              	.LVL37:
 366              		.loc 1 302 0
 367 0006 0448     		ldr	r0, .L46
 368 0008 FFF7FEFF 		bl	icu_lld_serve_interrupt
 369              	.LVL38:
 370              		.loc 1 304 0
 371 000c FFF7FEFF 		bl	dbg_check_leave_isr
 372              	.LVL39:
 373              		.loc 1 305 0
 374 0010 BDE80840 		pop	{r3, lr}
 375              		.loc 1 304 0
 376 0014 FFF7FEBF 		b	_port_irq_epilogue
 377              	.LVL40:
 378              	.L47:
 379              		.align	2
 380              	.L46:
 381 0018 00000000 		.word	.LANCHOR3
 382              		.cfi_endproc
 383              	.LFE124:
 384              		.size	VectorF8, .-VectorF8
 385 001c AFF30080 		.section	.text.icu_lld_init,"ax",%progbits
 386              		.align	2
 387              		.p2align 4,,15
 388              		.global	icu_lld_init
 389              		.thumb
 390              		.thumb_func
 391              		.type	icu_lld_init, %function
 392              	icu_lld_init:
 393              	.LFB125:
 394              		.loc 1 339 0
 395              		.cfi_startproc
 396              		@ args = 0, pretend = 0, frame = 0
 397              		@ frame_needed = 0, uses_anonymous_args = 0
ARM GAS  /tmp/ccRZ3kKI.s 			page 8


 398 0000 F8B5     		push	{r3, r4, r5, r6, r7, lr}
 399              		.cfi_def_cfa_offset 24
 400              		.cfi_offset 3, -24
 401              		.cfi_offset 4, -20
 402              		.cfi_offset 5, -16
 403              		.cfi_offset 6, -12
 404              		.cfi_offset 7, -8
 405              		.cfi_offset 14, -4
 406              		.loc 1 343 0
 407 0002 0C4F     		ldr	r7, .L49
 408              		.loc 1 355 0
 409 0004 0C4E     		ldr	r6, .L49+4
 410              		.loc 1 361 0
 411 0006 0D4D     		ldr	r5, .L49+8
 412              		.loc 1 373 0
 413 0008 0D4C     		ldr	r4, .L49+12
 414              		.loc 1 343 0
 415 000a 3846     		mov	r0, r7
 416 000c FFF7FEFF 		bl	icuObjectInit
 417              	.LVL41:
 418              		.loc 1 344 0
 419 0010 0C4B     		ldr	r3, .L49+16
 420 0012 FB60     		str	r3, [r7, #12]
 421              		.loc 1 355 0
 422 0014 3046     		mov	r0, r6
 423 0016 FFF7FEFF 		bl	icuObjectInit
 424              	.LVL42:
 425              		.loc 1 356 0
 426 001a 0B4B     		ldr	r3, .L49+20
 427 001c F360     		str	r3, [r6, #12]
 428              		.loc 1 361 0
 429 001e 2846     		mov	r0, r5
 430 0020 FFF7FEFF 		bl	icuObjectInit
 431              	.LVL43:
 432              		.loc 1 362 0
 433 0024 094B     		ldr	r3, .L49+24
 434 0026 EB60     		str	r3, [r5, #12]
 435              		.loc 1 373 0
 436 0028 2046     		mov	r0, r4
 437 002a FFF7FEFF 		bl	icuObjectInit
 438              	.LVL44:
 439              		.loc 1 374 0
 440 002e 084B     		ldr	r3, .L49+28
 441 0030 E360     		str	r3, [r4, #12]
 442 0032 F8BD     		pop	{r3, r4, r5, r6, r7, pc}
 443              	.L50:
 444              		.align	2
 445              	.L49:
 446 0034 00000000 		.word	.LANCHOR0
 447 0038 00000000 		.word	.LANCHOR1
 448 003c 00000000 		.word	.LANCHOR2
 449 0040 00000000 		.word	.LANCHOR3
 450 0044 002C0140 		.word	1073818624
 451 0048 00040040 		.word	1073742848
 452 004c 00080040 		.word	1073743872
 453 0050 00340140 		.word	1073820672
 454              		.cfi_endproc
ARM GAS  /tmp/ccRZ3kKI.s 			page 9


 455              	.LFE125:
 456              		.size	icu_lld_init, .-icu_lld_init
 457 0054 AFF30080 		.section	.text.icu_lld_start,"ax",%progbits
 457      AFF30080 
 457      AFF30080 
 458              		.align	2
 459              		.p2align 4,,15
 460              		.global	icu_lld_start
 461              		.thumb
 462              		.thumb_func
 463              		.type	icu_lld_start, %function
 464              	icu_lld_start:
 465              	.LFB126:
 466              		.loc 1 391 0
 467              		.cfi_startproc
 468              		@ args = 0, pretend = 0, frame = 0
 469              		@ frame_needed = 0, uses_anonymous_args = 0
 470              	.LVL45:
 471 0000 38B5     		push	{r3, r4, r5, lr}
 472              		.cfi_def_cfa_offset 16
 473              		.cfi_offset 3, -16
 474              		.cfi_offset 4, -12
 475              		.cfi_offset 5, -8
 476              		.cfi_offset 14, -4
 477              		.loc 1 394 0
 478 0002 4368     		ldr	r3, [r0, #4]
 479 0004 1B7D     		ldrb	r3, [r3, #20]	@ zero_extendqisi2
 480 0006 012B     		cmp	r3, #1
 481              		.loc 1 391 0
 482 0008 0446     		mov	r4, r0
 483              		.loc 1 394 0
 484 000a 02D9     		bls	.L52
 485              		.loc 1 394 0 is_stmt 0 discriminator 1
 486 000c 4F48     		ldr	r0, .L73
 487              	.LVL46:
 488 000e FFF7FEFF 		bl	chDbgPanic
 489              	.LVL47:
 490              	.L52:
 491              		.loc 1 398 0 is_stmt 1
 492 0012 2378     		ldrb	r3, [r4]	@ zero_extendqisi2
 493 0014 012B     		cmp	r3, #1
 494 0016 43D0     		beq	.L67
 495              		.loc 1 470 0
 496 0018 E368     		ldr	r3, [r4, #12]
 497 001a 0022     		movs	r2, #0
 498 001c 1A80     		strh	r2, [r3]	@ movhi
 499              		.loc 1 471 0
 500 001e 9A81     		strh	r2, [r3, #12]	@ movhi
 501              		.loc 1 472 0
 502 0020 1A82     		strh	r2, [r3, #16]	@ movhi
 503              		.loc 1 473 0
 504 0022 5A63     		str	r2, [r3, #52]
 505              		.loc 1 474 0
 506 0024 9A63     		str	r2, [r3, #56]
 507              		.loc 1 475 0
 508 0026 5A62     		str	r2, [r3, #36]
 509              	.L55:
ARM GAS  /tmp/ccRZ3kKI.s 			page 10


 510              		.loc 1 479 0
 511 0028 6268     		ldr	r2, [r4, #4]
 512 002a A368     		ldr	r3, [r4, #8]
 513 002c 5068     		ldr	r0, [r2, #4]
 514 002e B3FBF0F1 		udiv	r1, r3, r0
 515 0032 4D1E     		subs	r5, r1, #1
 516              	.LVL48:
 517              		.loc 1 480 0
 518 0034 B5F5803F 		cmp	r5, #65536
 519 0038 03D2     		bcs	.L58
 520              		.loc 1 480 0 is_stmt 0 discriminator 2
 521 003a 00FB01F1 		mul	r1, r0, r1
 522 003e 8B42     		cmp	r3, r1
 523 0040 03D0     		beq	.L59
 524              	.L58:
 525              		.loc 1 480 0 discriminator 1
 526 0042 4248     		ldr	r0, .L73
 527 0044 FFF7FEFF 		bl	chDbgPanic
 528              	.LVL49:
 529 0048 6268     		ldr	r2, [r4, #4]
 530              	.L59:
 531              		.loc 1 486 0 is_stmt 1
 532 004a 117D     		ldrb	r1, [r2, #20]	@ zero_extendqisi2
 533              		.loc 1 483 0
 534 004c E368     		ldr	r3, [r4, #12]
 535              		.loc 1 499 0
 536 004e 1278     		ldrb	r2, [r2]	@ zero_extendqisi2
 537              		.loc 1 483 0
 538 0050 ADB2     		uxth	r5, r5
 539              	.LVL50:
 540              		.loc 1 484 0
 541 0052 4FF6FF70 		movw	r0, #65535
 542              		.loc 1 483 0
 543 0056 1D85     		strh	r5, [r3, #40]	@ movhi
 544              		.loc 1 484 0
 545 0058 D862     		str	r0, [r3, #44]
 546              		.loc 1 486 0
 547 005a 69B9     		cbnz	r1, .L60
 548              		.loc 1 490 0
 549 005c 40F20120 		movw	r0, #513
 550              		.loc 1 494 0
 551 0060 5421     		movs	r1, #84
 552              		.loc 1 490 0
 553 0062 1883     		strh	r0, [r3, #24]	@ movhi
 554              		.loc 1 494 0
 555 0064 1981     		strh	r1, [r3, #8]	@ movhi
 556              		.loc 1 499 0
 557 0066 C2B1     		cbz	r2, .L68
 558              		.loc 1 503 0
 559 0068 1322     		movs	r2, #19
 560 006a 1A84     		strh	r2, [r3, #32]	@ movhi
 561              	.L62:
 562              		.loc 1 507 0 discriminator 1
 563 006c 03F13802 		add	r2, r3, #56
 564              		.loc 1 508 0 discriminator 1
 565 0070 3433     		adds	r3, r3, #52
 566              		.loc 1 507 0 discriminator 1
ARM GAS  /tmp/ccRZ3kKI.s 			page 11


 567 0072 2261     		str	r2, [r4, #16]
 568              		.loc 1 508 0 discriminator 1
 569 0074 6361     		str	r3, [r4, #20]
 570 0076 38BD     		pop	{r3, r4, r5, pc}
 571              	.LVL51:
 572              	.L60:
 573              		.loc 1 513 0
 574 0078 4FF48170 		mov	r0, #258
 575              		.loc 1 517 0
 576 007c 6421     		movs	r1, #100
 577              		.loc 1 513 0
 578 007e 1883     		strh	r0, [r3, #24]	@ movhi
 579              		.loc 1 517 0
 580 0080 1981     		strh	r1, [r3, #8]	@ movhi
 581              		.loc 1 522 0
 582 0082 3AB1     		cbz	r2, .L69
 583              		.loc 1 526 0
 584 0084 3122     		movs	r2, #49
 585 0086 1A84     		strh	r2, [r3, #32]	@ movhi
 586              	.L65:
 587              		.loc 1 530 0
 588 0088 03F13402 		add	r2, r3, #52
 589              		.loc 1 531 0
 590 008c 3833     		adds	r3, r3, #56
 591              		.loc 1 530 0
 592 008e 2261     		str	r2, [r4, #16]
 593              		.loc 1 531 0
 594 0090 6361     		str	r3, [r4, #20]
 595 0092 38BD     		pop	{r3, r4, r5, pc}
 596              	.LVL52:
 597              	.L69:
 598              		.loc 1 523 0
 599 0094 1322     		movs	r2, #19
 600 0096 1A84     		strh	r2, [r3, #32]	@ movhi
 601 0098 F6E7     		b	.L65
 602              	.L68:
 603              		.loc 1 500 0
 604 009a 3122     		movs	r2, #49
 605 009c 1A84     		strh	r2, [r3, #32]	@ movhi
 606 009e E5E7     		b	.L62
 607              	.L67:
 608              		.loc 1 401 0
 609 00a0 2B4B     		ldr	r3, .L73+4
 610 00a2 9C42     		cmp	r4, r3
 611 00a4 1ED0     		beq	.L70
 612              		.loc 1 421 0
 613 00a6 2B4B     		ldr	r3, .L73+8
 614 00a8 9C42     		cmp	r4, r3
 615 00aa 31D0     		beq	.L71
 616              		.loc 1 430 0
 617 00ac 2A4B     		ldr	r3, .L73+12
 618 00ae 9C42     		cmp	r4, r3
 619 00b0 40D0     		beq	.L72
 620              		.loc 1 448 0
 621 00b2 2A4B     		ldr	r3, .L73+16
 622 00b4 9C42     		cmp	r4, r3
 623 00b6 B7D1     		bne	.L55
ARM GAS  /tmp/ccRZ3kKI.s 			page 12


 624              		.loc 1 449 0
 625 00b8 294B     		ldr	r3, .L73+20
 626 00ba 9A69     		ldr	r2, [r3, #24]
 627 00bc 42F40052 		orr	r2, r2, #8192
 628 00c0 9A61     		str	r2, [r3, #24]
 629              		.loc 1 450 0
 630 00c2 D968     		ldr	r1, [r3, #12]
 631 00c4 0022     		movs	r2, #0
 632 00c6 41F40071 		orr	r1, r1, #512
 633 00ca D960     		str	r1, [r3, #12]
 634              		.loc 1 451 0
 635 00cc 2C20     		movs	r0, #44
 636              		.loc 1 450 0
 637 00ce DA60     		str	r2, [r3, #12]
 638              		.loc 1 451 0
 639 00d0 7021     		movs	r1, #112
 640 00d2 FFF7FEFF 		bl	nvicEnableVector
 641              	.LVL53:
 642              		.loc 1 453 0
 643 00d6 2E20     		movs	r0, #46
 644 00d8 7021     		movs	r1, #112
 645 00da FFF7FEFF 		bl	nvicEnableVector
 646              	.LVL54:
 647              		.loc 1 455 0
 648 00de 214B     		ldr	r3, .L73+24
 649 00e0 A360     		str	r3, [r4, #8]
 650 00e2 A1E7     		b	.L55
 651              	.L70:
 652              		.loc 1 402 0
 653 00e4 1E4B     		ldr	r3, .L73+20
 654 00e6 9A69     		ldr	r2, [r3, #24]
 655 00e8 42F40062 		orr	r2, r2, #2048
 656 00ec 9A61     		str	r2, [r3, #24]
 657              		.loc 1 403 0
 658 00ee D968     		ldr	r1, [r3, #12]
 659 00f0 0022     		movs	r2, #0
 660 00f2 41F40071 		orr	r1, r1, #512
 661 00f6 D960     		str	r1, [r3, #12]
 662              		.loc 1 404 0
 663 00f8 1920     		movs	r0, #25
 664              		.loc 1 403 0
 665 00fa DA60     		str	r2, [r3, #12]
 666              		.loc 1 404 0
 667 00fc 7021     		movs	r1, #112
 668 00fe FFF7FEFF 		bl	nvicEnableVector
 669              	.LVL55:
 670              		.loc 1 406 0
 671 0102 1B20     		movs	r0, #27
 672 0104 7021     		movs	r1, #112
 673 0106 FFF7FEFF 		bl	nvicEnableVector
 674              	.LVL56:
 675              		.loc 1 408 0
 676 010a 164B     		ldr	r3, .L73+24
 677 010c A360     		str	r3, [r4, #8]
 678 010e 8BE7     		b	.L55
 679              	.L71:
 680              		.loc 1 422 0
ARM GAS  /tmp/ccRZ3kKI.s 			page 13


 681 0110 134B     		ldr	r3, .L73+20
 682 0112 DA69     		ldr	r2, [r3, #28]
 683 0114 42F00202 		orr	r2, r2, #2
 684 0118 DA61     		str	r2, [r3, #28]
 685              		.loc 1 423 0
 686 011a 1969     		ldr	r1, [r3, #16]
 687 011c 41F00201 		orr	r1, r1, #2
 688 0120 0022     		movs	r2, #0
 689 0122 1961     		str	r1, [r3, #16]
 690              		.loc 1 424 0
 691 0124 1D20     		movs	r0, #29
 692              	.L66:
 693              		.loc 1 432 0
 694 0126 1A61     		str	r2, [r3, #16]
 695              		.loc 1 433 0
 696 0128 7021     		movs	r1, #112
 697 012a FFF7FEFF 		bl	nvicEnableVector
 698              	.LVL57:
 699              		.loc 1 435 0
 700 012e 0D4B     		ldr	r3, .L73+24
 701 0130 A360     		str	r3, [r4, #8]
 702 0132 79E7     		b	.L55
 703              	.L72:
 704              		.loc 1 431 0
 705 0134 0A4B     		ldr	r3, .L73+20
 706 0136 DA69     		ldr	r2, [r3, #28]
 707 0138 42F00402 		orr	r2, r2, #4
 708 013c DA61     		str	r2, [r3, #28]
 709              		.loc 1 432 0
 710 013e 1969     		ldr	r1, [r3, #16]
 711 0140 41F00401 		orr	r1, r1, #4
 712 0144 0022     		movs	r2, #0
 713 0146 1961     		str	r1, [r3, #16]
 714              		.loc 1 433 0
 715 0148 1E20     		movs	r0, #30
 716 014a ECE7     		b	.L66
 717              	.L74:
 718              		.align	2
 719              	.L73:
 720 014c 00000000 		.word	.LC0
 721 0150 00000000 		.word	.LANCHOR0
 722 0154 00000000 		.word	.LANCHOR1
 723 0158 00000000 		.word	.LANCHOR2
 724 015c 00000000 		.word	.LANCHOR3
 725 0160 00100240 		.word	1073876992
 726 0164 00A24A04 		.word	72000000
 727              		.cfi_endproc
 728              	.LFE126:
 729              		.size	icu_lld_start, .-icu_lld_start
 730 0168 AFF30080 		.section	.text.icu_lld_stop,"ax",%progbits
 730      AFF30080 
 731              		.align	2
 732              		.p2align 4,,15
 733              		.global	icu_lld_stop
 734              		.thumb
 735              		.thumb_func
 736              		.type	icu_lld_stop, %function
ARM GAS  /tmp/ccRZ3kKI.s 			page 14


 737              	icu_lld_stop:
 738              	.LFB127:
 739              		.loc 1 542 0
 740              		.cfi_startproc
 741              		@ args = 0, pretend = 0, frame = 0
 742              		@ frame_needed = 0, uses_anonymous_args = 0
 743              	.LVL58:
 744 0000 08B5     		push	{r3, lr}
 745              		.cfi_def_cfa_offset 8
 746              		.cfi_offset 3, -8
 747              		.cfi_offset 14, -4
 748              		.loc 1 544 0
 749 0002 0378     		ldrb	r3, [r0]	@ zero_extendqisi2
 750 0004 022B     		cmp	r3, #2
 751 0006 00D0     		beq	.L82
 752              	.LVL59:
 753              	.L75:
 754 0008 08BD     		pop	{r3, pc}
 755              	.LVL60:
 756              	.L82:
 757              		.loc 1 551 0
 758 000a 1D49     		ldr	r1, .L86
 759              		.loc 1 546 0
 760 000c C368     		ldr	r3, [r0, #12]
 761 000e 0022     		movs	r2, #0
 762              		.loc 1 551 0
 763 0010 8842     		cmp	r0, r1
 764              		.loc 1 546 0
 765 0012 1A80     		strh	r2, [r3]	@ movhi
 766              		.loc 1 547 0
 767 0014 9A81     		strh	r2, [r3, #12]	@ movhi
 768              		.loc 1 548 0
 769 0016 1A82     		strh	r2, [r3, #16]	@ movhi
 770              		.loc 1 551 0
 771 0018 14D0     		beq	.L83
 772              		.loc 1 564 0
 773 001a 1A4B     		ldr	r3, .L86+4
 774 001c 9842     		cmp	r0, r3
 775 001e 1DD0     		beq	.L84
 776              		.loc 1 570 0
 777 0020 194B     		ldr	r3, .L86+8
 778 0022 9842     		cmp	r0, r3
 779 0024 23D0     		beq	.L85
 780              		.loc 1 582 0
 781 0026 194B     		ldr	r3, .L86+12
 782 0028 9842     		cmp	r0, r3
 783 002a EDD1     		bne	.L75
 784              		.loc 1 583 0
 785 002c 2C20     		movs	r0, #44
 786              	.LVL61:
 787 002e FFF7FEFF 		bl	nvicDisableVector
 788              	.LVL62:
 789              		.loc 1 584 0
 790 0032 2E20     		movs	r0, #46
 791 0034 FFF7FEFF 		bl	nvicDisableVector
 792              	.LVL63:
 793              		.loc 1 585 0
ARM GAS  /tmp/ccRZ3kKI.s 			page 15


 794 0038 154B     		ldr	r3, .L86+16
 795 003a 9A69     		ldr	r2, [r3, #24]
 796 003c 22F40052 		bic	r2, r2, #8192
 797 0040 9A61     		str	r2, [r3, #24]
 798 0042 E1E7     		b	.L75
 799              	.LVL64:
 800              	.L83:
 801              		.loc 1 552 0
 802 0044 1920     		movs	r0, #25
 803              	.LVL65:
 804 0046 FFF7FEFF 		bl	nvicDisableVector
 805              	.LVL66:
 806              		.loc 1 553 0
 807 004a 1B20     		movs	r0, #27
 808 004c FFF7FEFF 		bl	nvicDisableVector
 809              	.LVL67:
 810              		.loc 1 554 0
 811 0050 0F4B     		ldr	r3, .L86+16
 812 0052 9A69     		ldr	r2, [r3, #24]
 813 0054 22F40062 		bic	r2, r2, #2048
 814 0058 9A61     		str	r2, [r3, #24]
 815 005a 08BD     		pop	{r3, pc}
 816              	.LVL68:
 817              	.L84:
 818              		.loc 1 565 0
 819 005c 1D20     		movs	r0, #29
 820              	.LVL69:
 821 005e FFF7FEFF 		bl	nvicDisableVector
 822              	.LVL70:
 823              		.loc 1 566 0
 824 0062 0B4B     		ldr	r3, .L86+16
 825 0064 DA69     		ldr	r2, [r3, #28]
 826 0066 22F00202 		bic	r2, r2, #2
 827 006a DA61     		str	r2, [r3, #28]
 828 006c 08BD     		pop	{r3, pc}
 829              	.LVL71:
 830              	.L85:
 831              		.loc 1 571 0
 832 006e 1E20     		movs	r0, #30
 833              	.LVL72:
 834 0070 FFF7FEFF 		bl	nvicDisableVector
 835              	.LVL73:
 836              		.loc 1 572 0
 837 0074 064B     		ldr	r3, .L86+16
 838 0076 DA69     		ldr	r2, [r3, #28]
 839 0078 22F00402 		bic	r2, r2, #4
 840 007c DA61     		str	r2, [r3, #28]
 841 007e 08BD     		pop	{r3, pc}
 842              	.L87:
 843              		.align	2
 844              	.L86:
 845 0080 00000000 		.word	.LANCHOR0
 846 0084 00000000 		.word	.LANCHOR1
 847 0088 00000000 		.word	.LANCHOR2
 848 008c 00000000 		.word	.LANCHOR3
 849 0090 00100240 		.word	1073876992
 850              		.cfi_endproc
ARM GAS  /tmp/ccRZ3kKI.s 			page 16


 851              	.LFE127:
 852              		.size	icu_lld_stop, .-icu_lld_stop
 853 0094 AFF30080 		.section	.text.icu_lld_enable,"ax",%progbits
 853      AFF30080 
 853      AFF30080 
 854              		.align	2
 855              		.p2align 4,,15
 856              		.global	icu_lld_enable
 857              		.thumb
 858              		.thumb_func
 859              		.type	icu_lld_enable, %function
 860              	icu_lld_enable:
 861              	.LFB128:
 862              		.loc 1 604 0
 863              		.cfi_startproc
 864              		@ args = 0, pretend = 0, frame = 0
 865              		@ frame_needed = 0, uses_anonymous_args = 0
 866              		@ link register save eliminated.
 867              	.LVL74:
 868              		.loc 1 607 0
 869 0000 4268     		ldr	r2, [r0, #4]
 870              		.loc 1 606 0
 871 0002 C368     		ldr	r3, [r0, #12]
 872              		.loc 1 607 0
 873 0004 117D     		ldrb	r1, [r2, #20]	@ zero_extendqisi2
 874              		.loc 1 604 0
 875 0006 10B4     		push	{r4}
 876              		.cfi_def_cfa_offset 4
 877              		.cfi_offset 4, -4
 878              		.loc 1 606 0
 879 0008 0024     		movs	r4, #0
 880 000a 1C82     		strh	r4, [r3, #16]	@ movhi
 881              		.loc 1 607 0
 882 000c C9B9     		cbnz	r1, .L89
 883              		.loc 1 608 0
 884 000e D168     		ldr	r1, [r2, #12]
 885 0010 21B1     		cbz	r1, .L90
 886              		.loc 1 609 0
 887 0012 9989     		ldrh	r1, [r3, #12]
 888 0014 89B2     		uxth	r1, r1
 889 0016 41F00201 		orr	r1, r1, #2
 890 001a 9981     		strh	r1, [r3, #12]	@ movhi
 891              	.L90:
 892              		.loc 1 610 0
 893 001c 9168     		ldr	r1, [r2, #8]
 894 001e 21B1     		cbz	r1, .L92
 895              	.L108:
 896              		.loc 1 616 0
 897 0020 9989     		ldrh	r1, [r3, #12]
 898 0022 89B2     		uxth	r1, r1
 899 0024 41F00401 		orr	r1, r1, #4
 900 0028 9981     		strh	r1, [r3, #12]	@ movhi
 901              	.L92:
 902              		.loc 1 618 0
 903 002a 1269     		ldr	r2, [r2, #16]
 904 002c 22B1     		cbz	r2, .L95
 905              		.loc 1 619 0
ARM GAS  /tmp/ccRZ3kKI.s 			page 17


 906 002e 9A89     		ldrh	r2, [r3, #12]
 907 0030 92B2     		uxth	r2, r2
 908 0032 42F00102 		orr	r2, r2, #1
 909 0036 9A81     		strh	r2, [r3, #12]	@ movhi
 910              	.L95:
 911              		.loc 1 620 0
 912 0038 0522     		movs	r2, #5
 913 003a 1A80     		strh	r2, [r3]	@ movhi
 914              		.loc 1 621 0
 915 003c 5DF8044B 		ldr	r4, [sp], #4
 916 0040 7047     		bx	lr
 917              	.L89:
 918              		.loc 1 613 0
 919 0042 9168     		ldr	r1, [r2, #8]
 920 0044 21B1     		cbz	r1, .L93
 921              		.loc 1 614 0
 922 0046 9989     		ldrh	r1, [r3, #12]
 923 0048 89B2     		uxth	r1, r1
 924 004a 41F00201 		orr	r1, r1, #2
 925 004e 9981     		strh	r1, [r3, #12]	@ movhi
 926              	.L93:
 927              		.loc 1 615 0
 928 0050 D168     		ldr	r1, [r2, #12]
 929 0052 0029     		cmp	r1, #0
 930 0054 E4D1     		bne	.L108
 931 0056 E8E7     		b	.L92
 932              		.cfi_endproc
 933              	.LFE128:
 934              		.size	icu_lld_enable, .-icu_lld_enable
 935 0058 AFF30080 		.section	.text.icu_lld_disable,"ax",%progbits
 935      AFF30080 
 936              		.align	2
 937              		.p2align 4,,15
 938              		.global	icu_lld_disable
 939              		.thumb
 940              		.thumb_func
 941              		.type	icu_lld_disable, %function
 942              	icu_lld_disable:
 943              	.LFB129:
 944              		.loc 1 630 0
 945              		.cfi_startproc
 946              		@ args = 0, pretend = 0, frame = 0
 947              		@ frame_needed = 0, uses_anonymous_args = 0
 948              		@ link register save eliminated.
 949              	.LVL75:
 950              		.loc 1 632 0
 951 0000 C368     		ldr	r3, [r0, #12]
 952 0002 0022     		movs	r2, #0
 953 0004 1A80     		strh	r2, [r3]	@ movhi
 954              		.loc 1 633 0
 955 0006 1A82     		strh	r2, [r3, #16]	@ movhi
 956              		.loc 1 634 0
 957 0008 9A81     		strh	r2, [r3, #12]	@ movhi
 958 000a 7047     		bx	lr
 959              		.cfi_endproc
 960              	.LFE129:
 961              		.size	icu_lld_disable, .-icu_lld_disable
ARM GAS  /tmp/ccRZ3kKI.s 			page 18


 962              		.global	ICUD8
 963              		.global	ICUD4
 964              		.global	ICUD3
 965              		.global	ICUD1
 966 000c AFF30080 		.section	.bss.ICUD3,"aw",%nobits
 967              		.align	2
 968              		.set	.LANCHOR1,. + 0
 969              		.type	ICUD3, %object
 970              		.size	ICUD3, 24
 971              	ICUD3:
 972 0000 00000000 		.space	24
 972      00000000 
 972      00000000 
 972      00000000 
 972      00000000 
 973              		.section	.bss.ICUD4,"aw",%nobits
 974              		.align	2
 975              		.set	.LANCHOR2,. + 0
 976              		.type	ICUD4, %object
 977              		.size	ICUD4, 24
 978              	ICUD4:
 979 0000 00000000 		.space	24
 979      00000000 
 979      00000000 
 979      00000000 
 979      00000000 
 980              		.section	.bss.ICUD8,"aw",%nobits
 981              		.align	2
 982              		.set	.LANCHOR3,. + 0
 983              		.type	ICUD8, %object
 984              		.size	ICUD8, 24
 985              	ICUD8:
 986 0000 00000000 		.space	24
 986      00000000 
 986      00000000 
 986      00000000 
 986      00000000 
 987              		.section	.rodata.str1.4,"aMS",%progbits,1
 988              		.align	2
 989              	.LC0:
 990 0000 6963755F 		.ascii	"icu_lld_start(), #1\000"
 990      6C6C645F 
 990      73746172 
 990      7428292C 
 990      20233100 
 991              		.section	.bss.ICUD1,"aw",%nobits
 992              		.align	2
 993              		.set	.LANCHOR0,. + 0
 994              		.type	ICUD1, %object
 995              		.size	ICUD1, 24
 996              	ICUD1:
 997 0000 00000000 		.space	24
 997      00000000 
 997      00000000 
 997      00000000 
 997      00000000 
 998              		.text
ARM GAS  /tmp/ccRZ3kKI.s 			page 19


 999              	.Letext0:
 1000              		.file 2 "/usr/include/newlib/machine/_default_types.h"
 1001              		.file 3 "/usr/include/newlib/stdint.h"
 1002              		.file 4 "../../../../os/hal/platforms/STM32F30x/stm32f30x.h"
 1003              		.file 5 "../../../../os/hal/platforms/STM32/stm32.h"
 1004              		.file 6 "../../../../os/hal/include/icu.h"
 1005              		.file 7 "../../../../os/hal/platforms/STM32/icu_lld.h"
 1006              		.file 8 "../../../../os/ports/common/ARMCMx/CMSIS/include/core_cm4.h"
 1007              		.file 9 "../../../../os/kernel/include/chdebug.h"
 1008              		.file 10 "../../../../os/ports/GCC/ARMCMx/chcore_v7m.h"
 1009              		.file 11 "../../../../os/ports/common/ARMCMx/nvic.h"