ARM GAS  /tmp/ccRZ3kKI.s 			page 1


   1              		.syntax unified
   2              		.cpu cortex-m4
   3              		.eabi_attribute 27, 3
   4              		.fpu fpv4-sp-d16
   5              		.eabi_attribute 20, 1
   6              		.eabi_attribute 21, 1
   7              		.eabi_attribute 23, 3
   8              		.eabi_attribute 24, 1
   9              		.eabi_attribute 25, 1
  10              		.eabi_attribute 26, 1
  11              		.eabi_attribute 30, 2
  12              		.eabi_attribute 34, 1
  13              		.eabi_attribute 18, 4
  14              		.thumb
  15              		.file	"icu_lld.c"
  16              		.text
  17              	.Ltext0:
  18              		.cfi_sections	.debug_frame
  19              		.section	.text.icu_lld_serve_interrupt,"ax",%progbits
  20              		.align	2
  21              		.p2align 4,,15
  22              		.thumb
  23              		.thumb_func
  24              		.type	icu_lld_serve_interrupt, %function
  25              	icu_lld_serve_interrupt:
  26              	.LFB118:
  27              		.file 1 "../../../../os/hal/platforms/STM32/icu_lld.c"
  28              		.loc 1 111 0
  29              		.cfi_startproc
  30              		@ args = 0, pretend = 0, frame = 0
  31              		@ frame_needed = 0, uses_anonymous_args = 0
  32              	.LVL0:
  33              		.loc 1 114 0
  34 0000 C368     		ldr	r3, [r0, #12]
  35              		.loc 1 117 0
  36 0002 4268     		ldr	r2, [r0, #4]
  37              		.loc 1 111 0
  38 0004 70B5     		push	{r4, r5, r6, lr}
  39              		.cfi_def_cfa_offset 16
  40              		.cfi_offset 4, -16
  41              		.cfi_offset 5, -12
  42              		.cfi_offset 6, -8
  43              		.cfi_offset 14, -4
  44              		.loc 1 114 0
  45 0006 1E8A     		ldrh	r6, [r3, #16]
  46              	.LVL1:
  47              		.loc 1 115 0
  48 0008 9D89     		ldrh	r5, [r3, #12]
  49              		.loc 1 117 0
  50 000a 117D     		ldrb	r1, [r2, #20]	@ zero_extendqisi2
  51              		.loc 1 115 0
  52 000c ADB2     		uxth	r5, r5
  53 000e 3540     		ands	r5, r5, r6
  54              	.LVL2:
  55              		.loc 1 116 0
  56 0010 EE43     		mvns	r6, r5
  57 0012 B6B2     		uxth	r6, r6
ARM GAS  /tmp/ccRZ3kKI.s 			page 2


  58              		.loc 1 111 0
  59 0014 0446     		mov	r4, r0
  60              		.loc 1 116 0
  61 0016 1E82     		strh	r6, [r3, #16]	@ movhi
  62              		.loc 1 117 0
  63 0018 89B9     		cbnz	r1, .L2
  64              		.loc 1 118 0
  65 001a AE07     		lsls	r6, r5, #30
  66 001c 06D5     		bpl	.L4
  67              	.LBB2:
  68              		.loc 1 119 0
  69 001e 0378     		ldrb	r3, [r0]	@ zero_extendqisi2
  70              	.LVL3:
  71 0020 0421     		movs	r1, #4
  72 0022 032B     		cmp	r3, #3
  73 0024 0170     		strb	r1, [r0]
  74              	.LVL4:
  75 0026 01D0     		beq	.L4
  76              		.loc 1 119 0 is_stmt 0 discriminator 1
  77 0028 D368     		ldr	r3, [r2, #12]
  78              	.LVL5:
  79 002a 9847     		blx	r3
  80              	.LVL6:
  81              	.L4:
  82              	.LBE2:
  83              		.loc 1 120 0 is_stmt 1
  84 002c 6807     		lsls	r0, r5, #29
  85 002e 1BD4     		bmi	.L27
  86              	.L7:
  87              		.loc 1 128 0
  88 0030 EB07     		lsls	r3, r5, #31
  89 0032 03D5     		bpl	.L1
  90              		.loc 1 129 0
  91 0034 6368     		ldr	r3, [r4, #4]
  92 0036 2046     		mov	r0, r4
  93 0038 1B69     		ldr	r3, [r3, #16]
  94 003a 9847     		blx	r3
  95              	.LVL7:
  96              	.L1:
  97 003c 70BD     		pop	{r4, r5, r6, pc}
  98              	.LVL8:
  99              	.L2:
 100              		.loc 1 123 0
 101 003e A907     		lsls	r1, r5, #30
 102 0040 0BD4     		bmi	.L28
 103              		.loc 1 125 0
 104 0042 6A07     		lsls	r2, r5, #29
 105 0044 F4D5     		bpl	.L7
 106              	.LVL9:
 107              	.L29:
 108              	.LBB3:
 109              		.loc 1 126 0
 110 0046 2378     		ldrb	r3, [r4]	@ zero_extendqisi2
 111              	.LVL10:
 112 0048 0422     		movs	r2, #4
 113 004a 032B     		cmp	r3, #3
 114 004c 2270     		strb	r2, [r4]
ARM GAS  /tmp/ccRZ3kKI.s 			page 3


 115              	.LVL11:
 116 004e EFD0     		beq	.L7
 117              		.loc 1 126 0 is_stmt 0 discriminator 1
 118 0050 6368     		ldr	r3, [r4, #4]
 119              	.LVL12:
 120 0052 2046     		mov	r0, r4
 121 0054 DB68     		ldr	r3, [r3, #12]
 122 0056 9847     		blx	r3
 123              	.LVL13:
 124 0058 EAE7     		b	.L7
 125              	.LVL14:
 126              	.L28:
 127              	.LBE3:
 128              		.loc 1 124 0 is_stmt 1
 129 005a 0521     		movs	r1, #5
 130 005c 9368     		ldr	r3, [r2, #8]
 131 005e 0170     		strb	r1, [r0]
 132 0060 9847     		blx	r3
 133              	.LVL15:
 134              		.loc 1 125 0
 135 0062 6A07     		lsls	r2, r5, #29
 136 0064 E4D5     		bpl	.L7
 137 0066 EEE7     		b	.L29
 138              	.L27:
 139              		.loc 1 121 0
 140 0068 6368     		ldr	r3, [r4, #4]
 141 006a 0522     		movs	r2, #5
 142 006c 9B68     		ldr	r3, [r3, #8]
 143 006e 2270     		strb	r2, [r4]
 144 0070 2046     		mov	r0, r4
 145 0072 9847     		blx	r3
 146              	.LVL16:
 147 0074 DCE7     		b	.L7
 148              		.cfi_endproc
 149              	.LFE118:
 150              		.size	icu_lld_serve_interrupt, .-icu_lld_serve_interrupt
 151 0076 00BFAFF3 		.section	.text.VectorA4,"ax",%progbits
 151      0080AFF3 
 151      0080
 152              		.align	2
 153              		.p2align 4,,15
 154              		.global	VectorA4
 155              		.thumb
 156              		.thumb_func
 157              		.type	VectorA4, %function
 158              	VectorA4:
 159              	.LFB119:
 160              		.loc 1 148 0
 161              		.cfi_startproc
 162              		@ args = 0, pretend = 0, frame = 0
 163              		@ frame_needed = 0, uses_anonymous_args = 0
 164 0000 08B5     		push	{r3, lr}
 165              		.cfi_def_cfa_offset 8
 166              		.cfi_offset 3, -8
 167              		.cfi_offset 14, -4
 168              		.loc 1 150 0
 169 0002 FFF7FEFF 		bl	dbg_check_enter_isr
ARM GAS  /tmp/ccRZ3kKI.s 			page 4


 170              	.LVL17:
 171              		.loc 1 152 0
 172 0006 0448     		ldr	r0, .L31
 173 0008 FFF7FEFF 		bl	icu_lld_serve_interrupt
 174              	.LVL18:
 175              		.loc 1 154 0
 176 000c FFF7FEFF 		bl	dbg_check_leave_isr
 177              	.LVL19:
 178              		.loc 1 155 0
 179 0010 BDE80840 		pop	{r3, lr}
 180              		.loc 1 154 0
 181 0014 FFF7FEBF 		b	_port_irq_epilogue
 182              	.LVL20:
 183              	.L32:
 184              		.align	2
 185              	.L31:
 186 0018 00000000 		.word	.LANCHOR0
 187              		.cfi_endproc
 188              	.LFE119:
 189              		.size	VectorA4, .-VectorA4
 190 001c AFF30080 		.section	.text.VectorAC,"ax",%progbits
 191              		.align	2
 192              		.p2align 4,,15
 193              		.global	VectorAC
 194              		.thumb
 195              		.thumb_func
 196              		.type	VectorAC, %function
 197              	VectorAC:
 198              	.LFB120:
 199              		.loc 1 168 0
 200              		.cfi_startproc
 201              		@ args = 0, pretend = 0, frame = 0
 202              		@ frame_needed = 0, uses_anonymous_args = 0
 203 0000 08B5     		push	{r3, lr}
 204              		.cfi_def_cfa_offset 8
 205              		.cfi_offset 3, -8
 206              		.cfi_offset 14, -4
 207              		.loc 1 170 0
 208 0002 FFF7FEFF 		bl	dbg_check_enter_isr
 209              	.LVL21:
 210              		.loc 1 172 0
 211 0006 0448     		ldr	r0, .L34
 212 0008 FFF7FEFF 		bl	icu_lld_serve_interrupt
 213              	.LVL22:
 214              		.loc 1 174 0
 215 000c FFF7FEFF 		bl	dbg_check_leave_isr
 216              	.LVL23:
 217              		.loc 1 175 0
 218 0010 BDE80840 		pop	{r3, lr}
 219              		.loc 1 174 0
 220 0014 FFF7FEBF 		b	_port_irq_epilogue
 221              	.LVL24:
 222              	.L35:
 223              		.align	2
 224              	.L34:
 225 0018 00000000 		.word	.LANCHOR0
 226              		.cfi_endproc
ARM GAS  /tmp/ccRZ3kKI.s 			page 5


 227              	.LFE120:
 228              		.size	VectorAC, .-VectorAC
 229 001c AFF30080 		.section	.text.VectorB4,"ax",%progbits
 230              		.align	2
 231              		.p2align 4,,15
 232              		.global	VectorB4
 233              		.thumb
 234              		.thumb_func
 235              		.type	VectorB4, %function
 236              	VectorB4:
 237              	.LFB121:
 238              		.loc 1 212 0
 239              		.cfi_startproc
 240              		@ args = 0, pretend = 0, frame = 0
 241              		@ frame_needed = 0, uses_anonymous_args = 0
 242 0000 08B5     		push	{r3, lr}
 243              		.cfi_def_cfa_offset 8
 244              		.cfi_offset 3, -8
 245              		.cfi_offset 14, -4
 246              		.loc 1 214 0
 247 0002 FFF7FEFF 		bl	dbg_check_enter_isr
 248              	.LVL25:
 249              		.loc 1 216 0
 250 0006 0448     		ldr	r0, .L37
 251 0008 FFF7FEFF 		bl	icu_lld_serve_interrupt
 252              	.LVL26:
 253              		.loc 1 218 0
 254 000c FFF7FEFF 		bl	dbg_check_leave_isr
 255              	.LVL27:
 256              		.loc 1 219 0
 257 0010 BDE80840 		pop	{r3, lr}
 258              		.loc 1 218 0
 259 0014 FFF7FEBF 		b	_port_irq_epilogue
 260              	.LVL28:
 261              	.L38:
 262              		.align	2
 263              	.L37:
 264 0018 00000000 		.word	.LANCHOR1
 265              		.cfi_endproc
 266              	.LFE121:
 267              		.size	VectorB4, .-VectorB4
 268 001c AFF30080 		.section	.text.VectorB8,"ax",%progbits
 269              		.align	2
 270              		.p2align 4,,15
 271              		.global	VectorB8
 272              		.thumb
 273              		.thumb_func
 274              		.type	VectorB8, %function
 275              	VectorB8:
 276              	.LFB122:
 277              		.loc 1 234 0
 278              		.cfi_startproc
 279              		@ args = 0, pretend = 0, frame = 0
 280              		@ frame_needed = 0, uses_anonymous_args = 0
 281 0000 08B5     		push	{r3, lr}
 282              		.cfi_def_cfa_offset 8
 283              		.cfi_offset 3, -8
ARM GAS  /tmp/ccRZ3kKI.s 			page 6


 284              		.cfi_offset 14, -4
 285              		.loc 1 236 0
 286 0002 FFF7FEFF 		bl	dbg_check_enter_isr
 287              	.LVL29:
 288              		.loc 1 238 0
 289 0006 0448     		ldr	r0, .L40
 290 0008 FFF7FEFF 		bl	icu_lld_serve_interrupt
 291              	.LVL30:
 292              		.loc 1 240 0
 293 000c FFF7FEFF 		bl	dbg_check_leave_isr
 294              	.LVL31:
 295              		.loc 1 241 0
 296 0010 BDE80840 		pop	{r3, lr}
 297              		.loc 1 240 0
 298 0014 FFF7FEBF 		b	_port_irq_epilogue
 299              	.LVL32:
 300              	.L41:
 301              		.align	2
 302              	.L40:
 303 0018 00000000 		.word	.LANCHOR2
 304              		.cfi_endproc
 305              	.LFE122:
 306              		.size	VectorB8, .-VectorB8
 307 001c AFF30080 		.section	.text.VectorF0,"ax",%progbits
 308              		.align	2
 309              		.p2align 4,,15
 310              		.global	VectorF0
 311              		.thumb
 312              		.thumb_func
 313              		.type	VectorF0, %function
 314              	VectorF0:
 315              	.LFB123:
 316              		.loc 1 278 0
 317              		.cfi_startproc
 318              		@ args = 0, pretend = 0, frame = 0
 319              		@ frame_needed = 0, uses_anonymous_args = 0
 320 0000 08B5     		push	{r3, lr}
 321              		.cfi_def_cfa_offset 8
 322              		.cfi_offset 3, -8
 323              		.cfi_offset 14, -4
 324              		.loc 1 280 0
 325 0002 FFF7FEFF 		bl	dbg_check_enter_isr
 326              	.LVL33:
 327              		.loc 1 282 0
 328 0006 0448     		ldr	r0, .L43
 329 0008 FFF7FEFF 		bl	icu_lld_serve_interrupt
 330              	.LVL34:
 331              		.loc 1 284 0
 332 000c FFF7FEFF 		bl	dbg_check_leave_isr
 333              	.LVL35:
 334              		.loc 1 285 0
 335 0010 BDE80840 		pop	{r3, lr}
 336              		.loc 1 284 0
 337 0014 FFF7FEBF 		b	_port_irq_epilogue
 338              	.LVL36:
 339              	.L44:
 340              		.align	2
ARM GAS  /tmp/ccRZ3kKI.s 			page 7


 341              	.L43:
 342 0018 00000000 		.word	.LANCHOR3
 343              		.cfi_endproc
 344              	.LFE123:
 345              		.size	VectorF0, .-VectorF0
 346 001c AFF30080 		.section	.text.VectorF8,"ax",%progbits
 347              		.align	2
 348              		.p2align 4,,15
 349              		.global	VectorF8
 350              		.thumb
 351              		.thumb_func
 352              		.type	VectorF8, %function
 353              	VectorF8:
 354              	.LFB124:
 355              		.loc 1 298 0
 356              		.cfi_startproc
 357              		@ args = 0, pretend = 0, frame = 0
 358              		@ frame_needed = 0, uses_anonymous_args = 0
 359 0000 08B5     		push	{r3, lr}
 360              		.cfi_def_cfa_offset 8
 361              		.cfi_offset 3, -8
 362              		.cfi_offset 14, -4
 363              		.loc 1 300 0
 364 0002 FFF7FEFF 		bl	dbg_check_enter_isr
 365              	.LVL37:
 366              		.loc 1 302 0
 367 0006 0448     		ldr	r0, .L46
 368 0008 FFF7FEFF 		bl	icu_lld_serve_interrupt
 369              	.LVL38:
 370              		.loc 1 304 0
 371 000c FFF7FEFF 		bl	dbg_check_leave_isr
 372              	.LVL39:
 373              		.loc 1 305 0
 374 0010 BDE80840 		pop	{r3, lr}
 375              		.loc 1 304 0
 376 0014 FFF7FEBF 		b	_port_irq_epilogue
 377              	.LVL40:
 378              	.L47:
 379              		.align	2
 380              	.L46:
 381 0018 00000000 		.word	.LANCHOR3
 382              		.cfi_endproc
 383              	.LFE124:
 384              		.size	VectorF8, .-VectorF8
 385 001c AFF30080 		.section	.text.icu_lld_init,"ax",%progbits
 386              		.align	2
 387              		.p2align 4,,15
 388              		.global	icu_lld_init
 389              		.thumb
 390              		.thumb_func
 391              		.type	icu_lld_init, %function
 392              	icu_lld_init:
 393              	.LFB125:
 394              		.loc 1 339 0
 395              		.cfi_startproc
 396              		@ args = 0, pretend = 0, frame = 0
 397              		@ frame_needed = 0, uses_anonymous_args = 0
ARM GAS  /tmp/ccRZ3kKI.s 			page 8


 398 0000 F8B5     		push	{r3, r4, r5, r6, r7, lr}
 399              		.cfi_def_cfa_offset 24
 400              		.cfi_offset 3, -24
 401              		.cfi_offset 4, -20
 402              		.cfi_offset 5, -16
 403              		.cfi_offset 6, -12
 404              		.cfi_offset 7, -8
 405              		.cfi_offset 14, -4
 406              		.loc 1 343 0
 407 0002 0C4F     		ldr	r7, .L49
 408              		.loc 1 355 0
 409 0004 0C4E     		ldr	r6, .L49+4
 410              		.loc 1 361 0
 411 0006 0D4D     		ldr	r5, .L49+8
 412              		.loc 1 373 0
 413 0008 0D4C     		ldr	r4, .L49+12
 414              		.loc 1 343 0
 415 000a 3846     		mov	r0, r7
 416 000c FFF7FEFF 		bl	icuObjectInit
 417              	.LVL41:
 418              		.loc 1 344 0
 419 0010 0C4B     		ldr	r3, .L49+16
 420 0012 FB60     		str	r3, [r7, #12]
 421              		.loc 1 355 0
 422 0014 3046     		mov	r0, r6
 423 0016 FFF7FEFF 		bl	icuObjectInit
 424              	.LVL42:
 425              		.loc 1 356 0
 426 001a 0B4B     		ldr	r3, .L49+20
 427 001c F360     		str	r3, [r6, #12]
 428              		.loc 1 361 0
 429 001e 2846     		mov	r0, r5
 430 0020 FFF7FEFF 		bl	icuObjectInit
 431              	.LVL43:
 432              		.loc 1 362 0
 433 0024 094B     		ldr	r3, .L49+24
 434 0026 EB60     		str	r3, [r5, #12]
 435              		.loc 1 373 0
 436 0028 2046     		mov	r0, r4
 437 002a FFF7FEFF 		bl	icuObjectInit
 438              	.LVL44:
 439              		.loc 1 374 0
 440 002e 084B     		ldr	r3, .L49+28
 441 0030 E360     		str	r3, [r4, #12]
 442 0032 F8BD     		pop	{r3, r4, r5, r6, r7, pc}
 443              	.L50:
 444              		.align	2
 445              	.L49:
 446 0034 00000000 		.word	.LANCHOR0
 447 0038 00000000 		.word	.LANCHOR1
 448 003c 00000000 		.word	.LANCHOR2
 449 0040 00000000 		.word	.LANCHOR3
 450 0044 002C0140 		.word	1073818624
 451 0048 00040040 		.word	1073742848
 452 004c 00080040 		.word	1073743872
 453 0050 00340140 		.word	1073820672
 454              		.cfi_endproc
ARM GAS  /tmp/ccRZ3kKI.s 			page 9


 455              	.LFE125:
 456              		.size	icu_lld_init, .-icu_lld_init
 457 0054 AFF30080 		.section	.text.icu_lld_start,"ax",%progbits
 457      AFF30080 
 457      AFF30080 
 458              		.align	2
 459              		.p2align 4,,15
 460              		.global	icu_lld_start
 461              		.thumb
 462              		.thumb_func
 463              		.type	icu_lld_start, %function
 464              	icu_lld_start:
 465              	.LFB126:
 466              		.loc 1 391 0
 467              		.cfi_startproc
 468              		@ args = 0, pretend = 0, frame = 0
 469              		@ frame_needed = 0, uses_anonymous_args = 0
 470              	.LVL45:
 471 0000 38B5     		push	{r3, r4, r5, lr}
 472              		.cfi_def_cfa_offset 16
 473              		.cfi_offset 3, -16
 474              		.cfi_offset 4, -12
 475              		.cfi_offset 5, -8
 476              		.cfi_offset 14, -4
 477              		.loc 1 394 0
 478 0002 4368     		ldr	r3, [r0, #4]
 479 0004 1B7D     		ldrb	r3, [r3, #20]	@ zero_extendqisi2
 480 0006 012B     		cmp	r3, #1
 481              		.loc 1 391 0
 482 0008 0446     		mov	r4, r0
 483              		.loc 1 394 0
 484 000a 02D9     		bls	.L52
 485              		.loc 1 394 0 is_stmt 0 discriminator 1
 486 000c 4F48     		ldr	r0, .L73
 487              	.LVL46:
 488 000e FFF7FEFF 		bl	chDbgPanic
 489              	.LVL47:
 490              	.L52:
 491              		.loc 1 398 0 is_stmt 1
 492 0012 2378     		ldrb	r3, [r4]	@ zero_extendqisi2
 493 0014 012B     		cmp	r3, #1
 494 0016 43D0     		beq	.L67
 495              		.loc 1 470 0
 496 0018 E368     		ldr	r3, [r4, #12]
 497 001a 0022     		movs	r2, #0
 498 001c 1A80     		strh	r2, [r3]	@ movhi
 499              		.loc 1 471 0
 500 001e 9A81     		strh	r2, [r3, #12]	@ movhi
 501              		.loc 1 472 0
 502 0020 1A82     		strh	r2, [r3, #16]	@ movhi
 503              		.loc 1 473 0
 504 0022 5A63     		str	r2, [r3, #52]
 505              		.loc 1 474 0
 506 0024 9A63     		str	r2, [r3, #56]
 507              		.loc 1 475 0
 508 0026 5A62     		str	r2, [r3, #36]
 509              	.L55:
ARM GAS  /tmp/ccRZ3kKI.s 			page 10


 510              		.loc 1 479 0
 511 0028 6268     		ldr	r2, [r4, #4]
 512 002a A368     		ldr	r3, [r4, #8]
 513 002c 5068     		ldr	r0, [r2, #4]
 514 002e B3FBF0F1 		udiv	r1, r3, r0
 515 0032 4D1E     		subs	r5, r1, #1
 516              	.LVL48:
 517              		.loc 1 480 0
 518 0034 B5F5803F 		cmp	r5, #65536
 519 0038 03D2     		bcs	.L58
 520              		.loc 1 480 0 is_stmt 0 discriminator 2
 521 003a 00FB01F1 		mul	r1, r0, r1
 522 003e 8B42     		cmp	r3, r1
 523 0040 03D0     		beq	.L59
 524              	.L58:
 525              		.loc 1 480 0 discriminator 1
 526 0042 4248     		ldr	r0, .L73
 527 0044 FFF7FEFF 		bl	chDbgPanic
 528              	.LVL49:
 529 0048 6268     		ldr	r2, [r4, #4]
 530              	.L59:
 531              		.loc 1 486 0 is_stmt 1
 532 004a 117D     		ldrb	r1, [r2, #20]	@ zero_extendqisi2
 533              		.loc 1 483 0
 534 004c E368     		ldr	r3, [r4, #12]
 535              		.loc 1 499 0
 536 004e 1278     		ldrb	r2, [r2]	@ zero_extendqisi2
 537              		.loc 1 483 0
 538 0050 ADB2     		uxth	r5, r5
 539              	.LVL50:
 540              		.loc 1 484 0
 541 0052 4FF6FF70 		movw	r0, #65535
 542              		.loc 1 483 0
 543 0056 1D85     		strh	r5, [r3, #40]	@ movhi
 544              		.loc 1 484 0
 545 0058 D862     		str	r0, [r3, #44]
 546              		.loc 1 486 0
 547 005a 69B9     		cbnz	r1, .L60
 548              		.loc 1 490 0
 549 005c 40F20120 		movw	r0, #513
 550              		.loc 1 494 0
 551 0060 5421     		movs	r1, #84
 552              		.loc 1 490 0
 553 0062 1883     		strh	r0, [r3, #24]	@ movhi
 554              		.loc 1 494 0
 555 0064 1981     		strh	r1, [r3, #8]	@ movhi
 556              		.loc 1 499 0
 557 0066 C2B1     		cbz	r2, .L68
 558              		.loc 1 503 0
 559 0068 1322     		movs	r2, #19
 560 006a 1A84     		strh	r2, [r3, #32]	@ movhi
 561              	.L62:
 562              		.loc 1 507 0 discriminator 1
 563 006c 03F13802 		add	r2, r3, #56
 564              		.loc 1 508 0 discriminator 1
 565 0070 3433     		adds	r3, r3, #52
 566              		.loc 1 507 0 discriminator 1
ARM GAS  /tmp/ccRZ3kKI.s 			page 11


 567 0072 2261     		str	r2, [r4, #16]
 568              		.loc 1 508 0 discriminator 1
 569 0074 6361     		str	r3, [r4, #20]
 570 0076 38BD     		pop	{r3, r4, r5, pc}
 571              	.LVL51:
 572              	.L60:
 573              		.loc 1 513 0
 574 0078 4FF48170 		mov	r0, #258
 575              		.loc 1 517 0
 576 007c 6421     		movs	r1, #100
 577              		.loc 1 513 0
 578 007e 1883     		strh	r0, [r3, #24]	@ movhi
 579              		.loc 1 517 0
 580 0080 1981     		strh	r1, [r3, #8]	@ movhi
 581              		.loc 1 522 0
 582 0082 3AB1     		cbz	r2, .L69
 583              		.loc 1 526 0
 584 0084 3122     		movs	r2, #49
 585 0086 1A84     		strh	r2, [r3, #32]	@ movhi
 586              	.L65:
 587              		.loc 1 530 0
 588 0088 03F13402 		add	r2, r3, #52
 589              		.loc 1 531 0
 590 008c 3833     		adds	r3, r3, #56
 591              		.loc 1 530 0
 592 008e 2261     		str	r2, [r4, #16]
 593              		.loc 1 531 0
 594 0090 6361     		str	r3, [r4, #20]
 595 0092 38BD     		pop	{r3, r4, r5, pc}
 596              	.LVL52:
 597              	.L69:
 598              		.loc 1 523 0
 599 0094 1322     		movs	r2, #19
 600 0096 1A84     		strh	r2, [r3, #32]	@ movhi
 601 0098 F6E7     		b	.L65
 602              	.L68:
 603              		.loc 1 500 0
 604 009a 3122     		movs	r2, #49
 605 009c 1A84     		strh	r2, [r3, #32]	@ movhi
 606 009e E5E7     		b	.L62
 607              	.L67:
 608              		.loc 1 401 0
 609 00a0 2B4B     		ldr	r3, .L73+4
 610 00a2 9C42     		cmp	r4, r3
 611 00a4 1ED0     		beq	.L70
 612              		.loc 1 421 0
 613 00a6 2B4B     		ldr	r3, .L73+8
 614 00a8 9C42     		cmp	r4, r3
 615 00aa 31D0     		beq	.L71
 616              		.loc 1 430 0
 617 00ac 2A4B     		ldr	r3, .L73+12
 618 00ae 9C42     		cmp	r4, r3
 619 00b0 40D0     		beq	.L72
 620              		.loc 1 448 0
 621 00b2 2A4B     		ldr	r3, .L73+16
 622 00b4 9C42     		cmp	r4, r3
 623 00b6 B7D1     		bne	.L55
ARM GAS  /tmp/ccRZ3kKI.s 			page 12


 624              		.loc 1 449 0
 625 00b8 294B     		ldr	r3, .L73+20
 626 00ba 9A69     		ldr	r2, [r3, #24]
 627 00bc 42F40052 		orr	r2, r2, #8192
 628 00c0 9A61     		str	r2, [r3, #24]
 629              		.loc 1 450 0
 630 00c2 D968     		ldr	r1, [r3, #12]
 631 00c4 0022     		movs	r2, #0
 632 00c6 41F40071 		orr	r1, r1, #512
 633 00ca D960     		str	r1, [r3, #12]
 634              		.loc 1 451 0
 635 00cc 2C20     		movs	r0, #44
 636              		.loc 1 450 0
 637 00ce DA60     		str	r2, [r3, #12]
 638              		.loc 1 451 0
 639 00d0 7021     		movs	r1, #112
 640 00d2 FFF7FEFF 		bl	nvicEnableVector
 641              	.LVL53:
 642              		.loc 1 453 0
 643 00d6 2E20     		movs	r0, #46
 644 00d8 7021     		movs	r1, #112
 645 00da FFF7FEFF 		bl	nvicEnableVector
 646              	.LVL54:
 647              		.loc 1 455 0
 648 00de 214B     		ldr	r3, .L73+24
 649 00e0 A360     		str	r3, [r4, #8]
 650 00e2 A1E7     		b	.L55
 651              	.L70:
 652              		.loc 1 402 0
 653 00e4 1E4B     		ldr	r3, .L73+20
 654 00e6 9A69     		ldr	r2, [r3, #24]
 655 00e8 42F40062 		orr	r2, r2, #2048
 656 00ec 9A61     		str	r2, [r3, #24]
 657              		.loc 1 403 0
 658 00ee D968     		ldr	r1, [r3, #12]
 659 00f0 0022     		movs	r2, #0
 660 00f2 41F40071 		orr	r1, r1, #512
 661 00f6 D960     		str	r1, [r3, #12]
 662              		.loc 1 404 0
 663 00f8 1920     		movs	r0, #25
 664              		.loc 1 403 0
 665 00fa DA60     		str	r2, [r3, #12]
 666              		.loc 1 404 0
 667 00fc 7021     		movs	r1, #112
 668 00fe FFF7FEFF 		bl	nvicEnableVector
 669              	.LVL55:
 670              		.loc 1 406 0
 671 0102 1B20     		movs	r0, #27
 672 0104 7021     		movs	r1, #112
 673 0106 FFF7FEFF 		bl	nvicEnableVector
 674              	.LVL56:
 675              		.loc 1 408 0
 676 010a 164B     		ldr	r3, .L73+24
 677 010c A360     		str	r3, [r4, #8]
 678 010e 8BE7     		b	.L55
 679              	.L71:
 680              		.loc 1 422 0
ARM GAS  /tmp/ccRZ3kKI.s 			page 13


 681 0110 134B     		ldr	r3, .L73+20
 682 0112 DA69     		ldr	r2, [r3, #28]
 683 0114 42F00202 		orr	r2, r2, #2
 684 0118 DA61     		str	r2, [r3, #28]
 685              		.loc 1 423 0
 686 011a 1969     		ldr	r1, [r3, #16]
 687 011c 41F00201 		orr	r1, r1, #2
 688 0120 0022     		movs	r2, #0
 689 0122 1961     		str	r1, [r3, #16]
 690              		.loc 1 424 0
 691 0124 1D20     		movs	r0, #29
 692              	.L66:
 693              		.loc 1 432 0
 694 0126 1A61     		str	r2, [r3, #16]
 695              		.loc 1 433 0
 696 0128 7021     		movs	r1, #112
 697 012a FFF7FEFF 		bl	nvicEnableVector
 698              	.LVL57:
 699              		.loc 1 435 0
 700 012e 0D4B     		ldr	r3, .L73+24
 701 0130 A360     		str	r3, [r4, #8]
 702 0132 79E7     		b	.L55
 703              	.L72:
 704              		.loc 1 431 0
 705 0134 0A4B     		ldr	r3, .L73+20
 706 0136 DA69     		ldr	r2, [r3, #28]
 707 0138 42F00402 		orr	r2, r2, #4
 708 013c DA61     		str	r2, [r3, #28]
 709              		.loc 1 432 0
 710 013e 1969     		ldr	r1, [r3, #16]
 711 0140 41F00401 		orr	r1, r1, #4
 712 0144 0022     		movs	r2, #0
 713 0146 1961     		str	r1, [r3, #16]
 714              		.loc 1 433 0
 715 0148 1E20     		movs	r0, #30
 716 014a ECE7     		b	.L66
 717              	.L74:
 718              		.align	2
 719              	.L73:
 720 014c 00000000 		.word	.LC0
 721 0150 00000000 		.word	.LANCHOR0
 722 0154 00000000 		.word	.LANCHOR1
 723 0158 00000000 		.word	.LANCHOR2
 724 015c 00000000 		.word	.LANCHOR3
 725 0160 00100240 		.word	1073876992
 726 0164 00A24A04 		.word	72000000
 727              		.cfi_endproc
 728              	.LFE126:
 729              		.size	icu_lld_start, .-icu_lld_start
 730 0168 AFF30080 		.section	.text.icu_lld_stop,"ax",%progbits
 730      AFF30080 
 731              		.align	2
 732              		.p2align 4,,15
 733              		.global	icu_lld_stop
 734              		.thumb
 735              		.thumb_func
 736              		.type	icu_lld_stop, %function
ARM GAS  /tmp/ccRZ3kKI.s 			page 14


 737              	icu_lld_stop:
 738              	.LFB127:
 739              		.loc 1 542 0
 740              		.cfi_startproc
 741              		@ args = 0, pretend = 0, frame = 0
 742              		@ frame_needed = 0, uses_anonymous_args = 0
 743              	.LVL58:
 744 0000 08B5     		push	{r3, lr}
 745              		.cfi_def_cfa_offset 8
 746              		.cfi_offset 3, -8
 747              		.cfi_offset 14, -4
 748              		.loc 1 544 0
 749 0002 0378     		ldrb	r3, [r0]	@ zero_extendqisi2
 750 0004 022B     		cmp	r3, #2
 751 0006 00D0     		beq	.L82
 752              	.LVL59:
 753              	.L75:
 754 0008 08BD     		pop	{r3, pc}
 755              	.LVL60:
 756              	.L82:
 757              		.loc 1 551 0
 758 000a 1D49     		ldr	r1, .L86
 759              		.loc 1 546 0
 760 000c C368     		ldr	r3, [r0, #12]
 761 000e 0022     		movs	r2, #0
 762              		.loc 1 551 0
 763 0010 8842     		cmp	r0, r1
 764              		.loc 1 546 0
 765 0012 1A80     		strh	r2, [r3]	@ movhi
 766              		.loc 1 547 0
 767 0014 9A81     		strh	r2, [r3, #12]	@ movhi
 768              		.loc 1 548 0
 769 0016 1A82     		strh	r2, [r3, #16]	@ movhi
 770              		.loc 1 551 0
 771 0018 14D0     		beq	.L83
 772              		.loc 1 564 0
 773 001a 1A4B     		ldr	r3, .L86+4
 774 001c 9842     		cmp	r0, r3
 775 001e 1DD0     		beq	.L84
 776              		.loc 1 570 0
 777 0020 194B     		ldr	r3, .L86+8
 778 0022 9842     		cmp	r0, r3
 779 0024 23D0     		beq	.L85
 780              		.loc 1 582 0
 781 0026 194B     		ldr	r3, .L86+12
 782 0028 9842     		cmp	r0, r3
 783 002a EDD1     		bne	.L75
 784              		.loc 1 583 0
 785 002c 2C20     		movs	r0, #44
 786              	.LVL61:
 787 002e FFF7FEFF 		bl	nvicDisableVector
 788              	.LVL62:
 789              		.loc 1 584 0
 790 0032 2E20     		movs	r0, #46
 791 0034 FFF7FEFF 		bl	nvicDisableVector
 792              	.LVL63:
 793              		.loc 1 585 0
ARM GAS  /tmp/ccRZ3kKI.s 			page 15


 794 0038 154B     		ldr	r3, .L86+16
 795 003a 9A69     		ldr	r2, [r3, #24]
 796 003c 22F40052 		bic	r2, r2, #8192
 797 0040 9A61     		str	r2, [r3, #24]
 798 0042 E1E7     		b	.L75
 799              	.LVL64:
 800              	.L83:
 801              		.loc 1 552 0
 802 0044 1920     		movs	r0, #25
 803              	.LVL65:
 804 0046 FFF7FEFF 		bl	nvicDisableVector
 805              	.LVL66:
 806              		.loc 1 553 0
 807 004a 1B20     		movs	r0, #27
 808 004c FFF7FEFF 		bl	nvicDisableVector
 809              	.LVL67:
 810              		.loc 1 554 0
 811 0050 0F4B     		ldr	r3, .L86+16
 812 0052 9A69     		ldr	r2, [r3, #24]
 813 0054 22F40062 		bic	r2, r2, #2048
 814 0058 9A61     		str	r2, [r3, #24]
 815 005a 08BD     		pop	{r3, pc}
 816              	.LVL68:
 817              	.L84:
 818              		.loc 1 565 0
 819 005c 1D20     		movs	r0, #29
 820              	.LVL69:
 821 005e FFF7FEFF 		bl	nvicDisableVector
 822              	.LVL70:
 823              		.loc 1 566 0
 824 0062 0B4B     		ldr	r3, .L86+16
 825 0064 DA69     		ldr	r2, [r3, #28]
 826 0066 22F00202 		bic	r2, r2, #2
 827 006a DA61     		str	r2, [r3, #28]
 828 006c 08BD     		pop	{r3, pc}
 829              	.LVL71:
 830              	.L85:
 831              		.loc 1 571 0
 832 006e 1E20     		movs	r0, #30
 833              	.LVL72:
 834 0070 FFF7FEFF 		bl	nvicDisableVector
 835              	.LVL73:
 836              		.loc 1 572 0
 837 0074 064B     		ldr	r3, .L86+16
 838 0076 DA69     		ldr	r2, [r3, #28]
 839 0078 22F00402 		bic	r2, r2, #4
 840 007c DA61     		str	r2, [r3, #28]
 841 007e 08BD     		pop	{r3, pc}
 842              	.L87:
 843              		.align	2
 844              	.L86:
 845 0080 00000000 		.word	.LANCHOR0
 846 0084 00000000 		.word	.LANCHOR1
 847 0088 00000000 		.word	.LANCHOR2
 848 008c 00000000 		.word	.LANCHOR3
 849 0090 00100240 		.word	1073876992
 850              		.cfi_endproc
ARM GAS  /tmp/ccRZ3kKI.s 			page 16


 851              	.LFE127:
 852              		.size	icu_lld_stop, .-icu_lld_stop
 853 0094 AFF30080 		.section	.text.icu_lld_enable,"ax",%progbits
 853      AFF30080 
 853      AFF30080 
 854              		.align	2
 855              		.p2align 4,,15
 856              		.global	icu_lld_enable
 857              		.thumb
 858              		.thumb_func
 859              		.type	icu_lld_enable, %function
 860              	icu_lld_enable:
 861              	.LFB128:
 862              		.loc 1 604 0
 863              		.cfi_startproc
 864              		@ args = 0, pretend = 0, frame = 0
 865              		@ frame_needed = 0, uses_anonymous_args = 0
 866              		@ link register save eliminated.
 867              	.LVL74:
 868              		.loc 1 607 0
 869 0000 4268     		ldr	r2, [r0, #4]
 870              		.loc 1 606 0
 871 0002 C368     		ldr	r3, [r0, #12]
 872              		.loc 1 607 0
 873 0004 117D     		ldrb	r1, [r2, #20]	@ zero_extendqisi2
 874              		.loc 1 604 0
 875 0006 10B4     		push	{r4}
 876              		.cfi_def_cfa_offset 4
 877              		.cfi_offset 4, -4
 878              		.loc 1 606 0
 879 0008 0024     		movs	r4, #0
 880 000a 1C82     		strh	r4, [r3, #16]	@ movhi
 881              		.loc 1 607 0
 882 000c C9B9     		cbnz	r1, .L89
 883              		.loc 1 608 0
 884 000e D168     		ldr	r1, [r2, #12]
 885 0010 21B1     		cbz	r1, .L90
 886              		.loc 1 609 0
 887 0012 9989     		ldrh	r1, [r3, #12]
 888 0014 89B2     		uxth	r1, r1
 889 0016 41F00201 		orr	r1, r1, #2
 890 001a 9981     		strh	r1, [r3, #12]	@ movhi
 891              	.L90:
 892              		.loc 1 610 0
 893 001c 9168     		ldr	r1, [r2, #8]
 894 001e 21B1     		cbz	r1, .L92
 895              	.L108:
 896              		.loc 1 616 0
 897 0020 9989     		ldrh	r1, [r3, #12]
 898 0022 89B2     		uxth	r1, r1
 899 0024 41F00401 		orr	r1, r1, #4
 900 0028 9981     		strh	r1, [r3, #12]	@ movhi
 901              	.L92:
 902              		.loc 1 618 0
 903 002a 1269     		ldr	r2, [r2, #16]
 904 002c 22B1     		cbz	r2, .L95
 905              		.loc 1 619 0
ARM GAS  /tmp/ccRZ3kKI.s 			page 17


 906 002e 9A89     		ldrh	r2, [r3, #12]
 907 0030 92B2     		uxth	r2, r2
 908 0032 42F00102 		orr	r2, r2, #1
 909 0036 9A81     		strh	r2, [r3, #12]	@ movhi
 910              	.L95:
 911              		.loc 1 620 0
 912 0038 0522     		movs	r2, #5
 913 003a 1A80     		strh	r2, [r3]	@ movhi
 914              		.loc 1 621 0
 915 003c 5DF8044B 		ldr	r4, [sp], #4
 916 0040 7047     		bx	lr
 917              	.L89:
 918              		.loc 1 613 0
 919 0042 9168     		ldr	r1, [r2, #8]
 920 0044 21B1     		cbz	r1, .L93
 921              		.loc 1 614 0
 922 0046 9989     		ldrh	r1, [r3, #12]
 923 0048 89B2     		uxth	r1, r1
 924 004a 41F00201 		orr	r1, r1, #2
 925 004e 9981     		strh	r1, [r3, #12]	@ movhi
 926              	.L93:
 927              		.loc 1 615 0
 928 0050 D168     		ldr	r1, [r2, #12]
 929 0052 0029     		cmp	r1, #0
 930 0054 E4D1     		bne	.L108
 931 0056 E8E7     		b	.L92
 932              		.cfi_endproc
 933              	.LFE128:
 934              		.size	icu_lld_enable, .-icu_lld_enable
 935 0058 AFF30080 		.section	.text.icu_lld_disable,"ax",%progbits
 935      AFF30080 
 936              		.align	2
 937              		.p2align 4,,15
 938              		.global	icu_lld_disable
 939              		.thumb
 940              		.thumb_func
 941              		.type	icu_lld_disable, %function
 942              	icu_lld_disable:
 943              	.LFB129:
 944              		.loc 1 630 0
 945              		.cfi_startproc
 946              		@ args = 0, pretend = 0, frame = 0
 947              		@ frame_needed = 0, uses_anonymous_args = 0
 948              		@ link register save eliminated.
 949              	.LVL75:
 950              		.loc 1 632 0
 951 0000 C368     		ldr	r3, [r0, #12]
 952 0002 0022     		movs	r2, #0
 953 0004 1A80     		strh	r2, [r3]	@ movhi
 954              		.loc 1 633 0
 955 0006 1A82     		strh	r2, [r3, #16]	@ movhi
 956              		.loc 1 634 0
 957 0008 9A81     		strh	r2, [r3, #12]	@ movhi
 958 000a 7047     		bx	lr
 959              		.cfi_endproc
 960              	.LFE129:
 961              		.size	icu_lld_disable, .-icu_lld_disable
ARM GAS  /tmp/ccRZ3kKI.s 			page 18


 962              		.global	ICUD8
 963              		.global	ICUD4
 964              		.global	ICUD3
 965              		.global	ICUD1
 966 000c AFF30080 		.section	.bss.ICUD3,"aw",%nobits
 967              		.align	2
 968              		.set	.LANCHOR1,. + 0
 969              		.type	ICUD3, %object
 970              		.size	ICUD3, 24
 971              	ICUD3:
 972 0000 00000000 		.space	24
 972      00000000 
 972      00000000 
 972      00000000 
 972      00000000 
 973              		.section	.bss.ICUD4,"aw",%nobits
 974              		.align	2
 975              		.set	.LANCHOR2,. + 0
 976              		.type	ICUD4, %object
 977              		.size	ICUD4, 24
 978              	ICUD4:
 979 0000 00000000 		.space	24
 979      00000000 
 979      00000000 
 979      00000000 
 979      00000000 
 980              		.section	.bss.ICUD8,"aw",%nobits
 981              		.align	2
 982              		.set	.LANCHOR3,. + 0
 983              		.type	ICUD8, %object
 984              		.size	ICUD8, 24
 985              	ICUD8:
 986 0000 00000000 		.space	24
 986      00000000 
 986      00000000 
 986      00000000 
 986      00000000 
 987              		.section	.rodata.str1.4,"aMS",%progbits,1
 988              		.align	2
 989              	.LC0:
 990 0000 6963755F 		.ascii	"icu_lld_start(), #1\000"
 990      6C6C645F 
 990      73746172 
 990      7428292C 
 990      20233100 
 991              		.section	.bss.ICUD1,"aw",%nobits
 992              		.align	2
 993              		.set	.LANCHOR0,. + 0
 994              		.type	ICUD1, %object
 995              		.size	ICUD1, 24
 996              	ICUD1:
 997 0000 00000000 		.space	24
 997      00000000 
 997      00000000 
 997      00000000 
 997      00000000 
 998              		.text
ARM GAS  /tmp/ccRZ3kKI.s 			page 19


 999              	.Letext0:
 1000              		.file 2 "/usr/include/newlib/machine/_default_types.h"
 1001              		.file 3 "/usr/include/newlib/stdint.h"
 1002              		.file 4 "../../../../os/hal/platforms/STM32F30x/stm32f30x.h"
 1003              		.file 5 "../../../../os/hal/platforms/STM32/stm32.h"
 1004              		.file 6 "../../../../os/hal/include/icu.h"
 1005              		.file 7 "../../../../os/hal/platforms/STM32/icu_lld.h"
 1006              		.file 8 "../../../../os/ports/common/ARMCMx/CMSIS/include/core_cm4.h"
 1007              		.file 9 "../../../../os/kernel/include/chdebug.h"
 1008              		.file 10 "../../../../os/ports/GCC/ARMCMx/chcore_v7m.h"
 1009              		.file 11 "../../../../os/ports/common/ARMCMx/nvic.h"
 1010              		.section	.debug_info,"",%progbits
 1011              	.Ldebug_info0:
 1012 0000 000A0000 		.4byte	0xa00
 1013 0004 0400     		.2byte	0x4
 1014 0006 00000000 		.4byte	.Ldebug_abbrev0
 1015 000a 04       		.byte	0x4
 1016 000b 01       		.uleb128 0x1
 1017 000c 08040000 		.4byte	.LASF104
 1018 0010 01       		.byte	0x1
 1019 0011 80010000 		.4byte	.LASF105
 1020 0015 E6040000 		.4byte	.LASF106
 1021 0019 00000000 		.4byte	.Ldebug_ranges0+0
 1022 001d 00000000 		.4byte	0
 1023 0021 00000000 		.4byte	.Ldebug_line0
 1024 0025 02       		.uleb128 0x2
 1025 0026 04       		.byte	0x4
 1026 0027 05       		.byte	0x5
 1027 0028 696E7400 		.ascii	"int\000"
 1028 002c 03       		.uleb128 0x3
 1029 002d 04       		.byte	0x4
 1030 002e 07       		.byte	0x7
 1031 002f D5010000 		.4byte	.LASF0
 1032 0033 03       		.uleb128 0x3
 1033 0034 01       		.byte	0x1
 1034 0035 06       		.byte	0x6
 1035 0036 15010000 		.4byte	.LASF1
 1036 003a 03       		.uleb128 0x3
 1037 003b 01       		.byte	0x1
 1038 003c 08       		.byte	0x8
 1039 003d 08030000 		.4byte	.LASF2
 1040 0041 03       		.uleb128 0x3
 1041 0042 02       		.byte	0x2
 1042 0043 05       		.byte	0x5
 1043 0044 25030000 		.4byte	.LASF3
 1044 0048 04       		.uleb128 0x4
 1045 0049 75010000 		.4byte	.LASF5
 1046 004d 02       		.byte	0x2
 1047 004e 2B       		.byte	0x2b
 1048 004f 53000000 		.4byte	0x53
 1049 0053 03       		.uleb128 0x3
 1050 0054 02       		.byte	0x2
 1051 0055 07       		.byte	0x7
 1052 0056 39030000 		.4byte	.LASF4
 1053 005a 04       		.uleb128 0x4
 1054 005b BE030000 		.4byte	.LASF6
 1055 005f 02       		.byte	0x2
ARM GAS  /tmp/ccRZ3kKI.s 			page 20


 1056 0060 3F       		.byte	0x3f
 1057 0061 65000000 		.4byte	0x65
 1058 0065 03       		.uleb128 0x3
 1059 0066 04       		.byte	0x4
 1060 0067 05       		.byte	0x5
 1061 0068 42010000 		.4byte	.LASF7
 1062 006c 04       		.uleb128 0x4
 1063 006d B6010000 		.4byte	.LASF8
 1064 0071 02       		.byte	0x2
 1065 0072 41       		.byte	0x41
 1066 0073 77000000 		.4byte	0x77
 1067 0077 03       		.uleb128 0x3
 1068 0078 04       		.byte	0x4
 1069 0079 07       		.byte	0x7
 1070 007a FA010000 		.4byte	.LASF9
 1071 007e 03       		.uleb128 0x3
 1072 007f 08       		.byte	0x8
 1073 0080 05       		.byte	0x5
 1074 0081 07010000 		.4byte	.LASF10
 1075 0085 03       		.uleb128 0x3
 1076 0086 08       		.byte	0x8
 1077 0087 07       		.byte	0x7
 1078 0088 AE000000 		.4byte	.LASF11
 1079 008c 04       		.uleb128 0x4
 1080 008d 62010000 		.4byte	.LASF12
 1081 0091 03       		.byte	0x3
 1082 0092 36       		.byte	0x36
 1083 0093 48000000 		.4byte	0x48
 1084 0097 04       		.uleb128 0x4
 1085 0098 00030000 		.4byte	.LASF13
 1086 009c 03       		.byte	0x3
 1087 009d 41       		.byte	0x41
 1088 009e 5A000000 		.4byte	0x5a
 1089 00a2 04       		.uleb128 0x4
 1090 00a3 63050000 		.4byte	.LASF14
 1091 00a7 03       		.byte	0x3
 1092 00a8 42       		.byte	0x42
 1093 00a9 6C000000 		.4byte	0x6c
 1094 00ad 03       		.uleb128 0x3
 1095 00ae 01       		.byte	0x1
 1096 00af 02       		.byte	0x2
 1097 00b0 FA020000 		.4byte	.LASF15
 1098 00b4 05       		.uleb128 0x5
 1099 00b5 A2000000 		.4byte	0xa2
 1100 00b9 03       		.uleb128 0x3
 1101 00ba 04       		.byte	0x4
 1102 00bb 07       		.byte	0x7
 1103 00bc 92020000 		.4byte	.LASF16
 1104 00c0 06       		.uleb128 0x6
 1105 00c1 04       		.byte	0x4
 1106 00c2 C6000000 		.4byte	0xc6
 1107 00c6 07       		.uleb128 0x7
 1108 00c7 CB000000 		.4byte	0xcb
 1109 00cb 03       		.uleb128 0x3
 1110 00cc 01       		.byte	0x1
 1111 00cd 08       		.byte	0x8
 1112 00ce A8030000 		.4byte	.LASF17
ARM GAS  /tmp/ccRZ3kKI.s 			page 21


 1113 00d2 08       		.uleb128 0x8
 1114 00d3 A2000000 		.4byte	0xa2
 1115 00d7 E2000000 		.4byte	0xe2
 1116 00db 09       		.uleb128 0x9
 1117 00dc B9000000 		.4byte	0xb9
 1118 00e0 03       		.byte	0x3
 1119 00e1 00       		.byte	0
 1120 00e2 05       		.uleb128 0x5
 1121 00e3 8C000000 		.4byte	0x8c
 1122 00e7 05       		.uleb128 0x5
 1123 00e8 97000000 		.4byte	0x97
 1124 00ec 0A       		.uleb128 0xa
 1125 00ed 34       		.byte	0x34
 1126 00ee 04       		.byte	0x4
 1127 00ef 8502     		.2byte	0x285
 1128 00f1 9E010000 		.4byte	0x19e
 1129 00f5 0B       		.uleb128 0xb
 1130 00f6 435200   		.ascii	"CR\000"
 1131 00f9 04       		.byte	0x4
 1132 00fa 8702     		.2byte	0x287
 1133 00fc B4000000 		.4byte	0xb4
 1134 0100 00       		.byte	0
 1135 0101 0C       		.uleb128 0xc
 1136 0102 99050000 		.4byte	.LASF18
 1137 0106 04       		.byte	0x4
 1138 0107 8802     		.2byte	0x288
 1139 0109 B4000000 		.4byte	0xb4
 1140 010d 04       		.byte	0x4
 1141 010e 0B       		.uleb128 0xb
 1142 010f 43495200 		.ascii	"CIR\000"
 1143 0113 04       		.byte	0x4
 1144 0114 8902     		.2byte	0x289
 1145 0116 B4000000 		.4byte	0xb4
 1146 011a 08       		.byte	0x8
 1147 011b 0C       		.uleb128 0xc
 1148 011c 54010000 		.4byte	.LASF19
 1149 0120 04       		.byte	0x4
 1150 0121 8A02     		.2byte	0x28a
 1151 0123 B4000000 		.4byte	0xb4
 1152 0127 0C       		.byte	0xc
 1153 0128 0C       		.uleb128 0xc
 1154 0129 CA020000 		.4byte	.LASF20
 1155 012d 04       		.byte	0x4
 1156 012e 8B02     		.2byte	0x28b
 1157 0130 B4000000 		.4byte	0xb4
 1158 0134 10       		.byte	0x10
 1159 0135 0C       		.uleb128 0xc
 1160 0136 B8050000 		.4byte	.LASF21
 1161 013a 04       		.byte	0x4
 1162 013b 8C02     		.2byte	0x28c
 1163 013d B4000000 		.4byte	0xb4
 1164 0141 14       		.byte	0x14
 1165 0142 0C       		.uleb128 0xc
 1166 0143 55030000 		.4byte	.LASF22
 1167 0147 04       		.byte	0x4
 1168 0148 8D02     		.2byte	0x28d
 1169 014a B4000000 		.4byte	0xb4
ARM GAS  /tmp/ccRZ3kKI.s 			page 22


 1170 014e 18       		.byte	0x18
 1171 014f 0C       		.uleb128 0xc
 1172 0150 C8030000 		.4byte	.LASF23
 1173 0154 04       		.byte	0x4
 1174 0155 8E02     		.2byte	0x28e
 1175 0157 B4000000 		.4byte	0xb4
 1176 015b 1C       		.byte	0x1c
 1177 015c 0C       		.uleb128 0xc
 1178 015d 6C050000 		.4byte	.LASF24
 1179 0161 04       		.byte	0x4
 1180 0162 8F02     		.2byte	0x28f
 1181 0164 B4000000 		.4byte	0xb4
 1182 0168 20       		.byte	0x20
 1183 0169 0B       		.uleb128 0xb
 1184 016a 43535200 		.ascii	"CSR\000"
 1185 016e 04       		.byte	0x4
 1186 016f 9002     		.2byte	0x290
 1187 0171 B4000000 		.4byte	0xb4
 1188 0175 24       		.byte	0x24
 1189 0176 0C       		.uleb128 0xc
 1190 0177 C2020000 		.4byte	.LASF25
 1191 017b 04       		.byte	0x4
 1192 017c 9102     		.2byte	0x291
 1193 017e B4000000 		.4byte	0xb4
 1194 0182 28       		.byte	0x28
 1195 0183 0C       		.uleb128 0xc
 1196 0184 8D050000 		.4byte	.LASF26
 1197 0188 04       		.byte	0x4
 1198 0189 9202     		.2byte	0x292
 1199 018b B4000000 		.4byte	0xb4
 1200 018f 2C       		.byte	0x2c
 1201 0190 0C       		.uleb128 0xc
 1202 0191 93050000 		.4byte	.LASF27
 1203 0195 04       		.byte	0x4
 1204 0196 9302     		.2byte	0x293
 1205 0198 B4000000 		.4byte	0xb4
 1206 019c 30       		.byte	0x30
 1207 019d 00       		.byte	0
 1208 019e 0D       		.uleb128 0xd
 1209 019f 1A020000 		.4byte	.LASF28
 1210 01a3 04       		.byte	0x4
 1211 01a4 9402     		.2byte	0x294
 1212 01a6 EC000000 		.4byte	0xec
 1213 01aa 0E       		.uleb128 0xe
 1214 01ab 54       		.byte	0x54
 1215 01ac 05       		.byte	0x5
 1216 01ad 60       		.byte	0x60
 1217 01ae 3D030000 		.4byte	0x33d
 1218 01b2 0F       		.uleb128 0xf
 1219 01b3 43523100 		.ascii	"CR1\000"
 1220 01b7 05       		.byte	0x5
 1221 01b8 61       		.byte	0x61
 1222 01b9 E2000000 		.4byte	0xe2
 1223 01bd 00       		.byte	0
 1224 01be 10       		.uleb128 0x10
 1225 01bf 3D000000 		.4byte	.LASF29
 1226 01c3 05       		.byte	0x5
ARM GAS  /tmp/ccRZ3kKI.s 			page 23


 1227 01c4 62       		.byte	0x62
 1228 01c5 8C000000 		.4byte	0x8c
 1229 01c9 02       		.byte	0x2
 1230 01ca 0F       		.uleb128 0xf
 1231 01cb 43523200 		.ascii	"CR2\000"
 1232 01cf 05       		.byte	0x5
 1233 01d0 63       		.byte	0x63
 1234 01d1 E2000000 		.4byte	0xe2
 1235 01d5 04       		.byte	0x4
 1236 01d6 10       		.uleb128 0x10
 1237 01d7 45000000 		.4byte	.LASF30
 1238 01db 05       		.byte	0x5
 1239 01dc 64       		.byte	0x64
 1240 01dd 8C000000 		.4byte	0x8c
 1241 01e1 06       		.byte	0x6
 1242 01e2 10       		.uleb128 0x10
 1243 01e3 48020000 		.4byte	.LASF31
 1244 01e7 05       		.byte	0x5
 1245 01e8 65       		.byte	0x65
 1246 01e9 E2000000 		.4byte	0xe2
 1247 01ed 08       		.byte	0x8
 1248 01ee 10       		.uleb128 0x10
 1249 01ef 98030000 		.4byte	.LASF32
 1250 01f3 05       		.byte	0x5
 1251 01f4 66       		.byte	0x66
 1252 01f5 8C000000 		.4byte	0x8c
 1253 01f9 0A       		.byte	0xa
 1254 01fa 10       		.uleb128 0x10
 1255 01fb 2D000000 		.4byte	.LASF33
 1256 01ff 05       		.byte	0x5
 1257 0200 67       		.byte	0x67
 1258 0201 E2000000 		.4byte	0xe2
 1259 0205 0C       		.byte	0xc
 1260 0206 10       		.uleb128 0x10
 1261 0207 A0030000 		.4byte	.LASF34
 1262 020b 05       		.byte	0x5
 1263 020c 68       		.byte	0x68
 1264 020d 8C000000 		.4byte	0x8c
 1265 0211 0E       		.byte	0xe
 1266 0212 0F       		.uleb128 0xf
 1267 0213 535200   		.ascii	"SR\000"
 1268 0216 05       		.byte	0x5
 1269 0217 69       		.byte	0x69
 1270 0218 E2000000 		.4byte	0xe2
 1271 021c 10       		.byte	0x10
 1272 021d 10       		.uleb128 0x10
 1273 021e 61000000 		.4byte	.LASF35
 1274 0222 05       		.byte	0x5
 1275 0223 6A       		.byte	0x6a
 1276 0224 8C000000 		.4byte	0x8c
 1277 0228 12       		.byte	0x12
 1278 0229 0F       		.uleb128 0xf
 1279 022a 45475200 		.ascii	"EGR\000"
 1280 022e 05       		.byte	0x5
 1281 022f 6B       		.byte	0x6b
 1282 0230 E2000000 		.4byte	0xe2
 1283 0234 14       		.byte	0x14
ARM GAS  /tmp/ccRZ3kKI.s 			page 24


 1284 0235 10       		.uleb128 0x10
 1285 0236 69000000 		.4byte	.LASF36
 1286 023a 05       		.byte	0x5
 1287 023b 6C       		.byte	0x6c
 1288 023c 8C000000 		.4byte	0x8c
 1289 0240 16       		.byte	0x16
 1290 0241 10       		.uleb128 0x10
 1291 0242 FB000000 		.4byte	.LASF37
 1292 0246 05       		.byte	0x5
 1293 0247 6D       		.byte	0x6d
 1294 0248 E2000000 		.4byte	0xe2
 1295 024c 18       		.byte	0x18
 1296 024d 10       		.uleb128 0x10
 1297 024e 71000000 		.4byte	.LASF38
 1298 0252 05       		.byte	0x5
 1299 0253 6E       		.byte	0x6e
 1300 0254 8C000000 		.4byte	0x8c
 1301 0258 1A       		.byte	0x1a
 1302 0259 10       		.uleb128 0x10
 1303 025a 01010000 		.4byte	.LASF39
 1304 025e 05       		.byte	0x5
 1305 025f 6F       		.byte	0x6f
 1306 0260 E2000000 		.4byte	0xe2
 1307 0264 1C       		.byte	0x1c
 1308 0265 10       		.uleb128 0x10
 1309 0266 79000000 		.4byte	.LASF40
 1310 026a 05       		.byte	0x5
 1311 026b 70       		.byte	0x70
 1312 026c 8C000000 		.4byte	0x8c
 1313 0270 1E       		.byte	0x1e
 1314 0271 10       		.uleb128 0x10
 1315 0272 5D010000 		.4byte	.LASF41
 1316 0276 05       		.byte	0x5
 1317 0277 71       		.byte	0x71
 1318 0278 E2000000 		.4byte	0xe2
 1319 027c 20       		.byte	0x20
 1320 027d 10       		.uleb128 0x10
 1321 027e 81000000 		.4byte	.LASF42
 1322 0282 05       		.byte	0x5
 1323 0283 72       		.byte	0x72
 1324 0284 8C000000 		.4byte	0x8c
 1325 0288 22       		.byte	0x22
 1326 0289 0F       		.uleb128 0xf
 1327 028a 434E5400 		.ascii	"CNT\000"
 1328 028e 05       		.byte	0x5
 1329 028f 73       		.byte	0x73
 1330 0290 B4000000 		.4byte	0xb4
 1331 0294 24       		.byte	0x24
 1332 0295 0F       		.uleb128 0xf
 1333 0296 50534300 		.ascii	"PSC\000"
 1334 029a 05       		.byte	0x5
 1335 029b 74       		.byte	0x74
 1336 029c E2000000 		.4byte	0xe2
 1337 02a0 28       		.byte	0x28
 1338 02a1 10       		.uleb128 0x10
 1339 02a2 89000000 		.4byte	.LASF43
 1340 02a6 05       		.byte	0x5
ARM GAS  /tmp/ccRZ3kKI.s 			page 25


 1341 02a7 75       		.byte	0x75
 1342 02a8 8C000000 		.4byte	0x8c
 1343 02ac 2A       		.byte	0x2a
 1344 02ad 0F       		.uleb128 0xf
 1345 02ae 41525200 		.ascii	"ARR\000"
 1346 02b2 05       		.byte	0x5
 1347 02b3 76       		.byte	0x76
 1348 02b4 B4000000 		.4byte	0xb4
 1349 02b8 2C       		.byte	0x2c
 1350 02b9 0F       		.uleb128 0xf
 1351 02ba 52435200 		.ascii	"RCR\000"
 1352 02be 05       		.byte	0x5
 1353 02bf 77       		.byte	0x77
 1354 02c0 E2000000 		.4byte	0xe2
 1355 02c4 30       		.byte	0x30
 1356 02c5 10       		.uleb128 0x10
 1357 02c6 2A010000 		.4byte	.LASF44
 1358 02ca 05       		.byte	0x5
 1359 02cb 78       		.byte	0x78
 1360 02cc 8C000000 		.4byte	0x8c
 1361 02d0 32       		.byte	0x32
 1362 02d1 0F       		.uleb128 0xf
 1363 02d2 43435200 		.ascii	"CCR\000"
 1364 02d6 05       		.byte	0x5
 1365 02d7 79       		.byte	0x79
 1366 02d8 3D030000 		.4byte	0x33d
 1367 02dc 34       		.byte	0x34
 1368 02dd 10       		.uleb128 0x10
 1369 02de D2000000 		.4byte	.LASF45
 1370 02e2 05       		.byte	0x5
 1371 02e3 7A       		.byte	0x7a
 1372 02e4 E2000000 		.4byte	0xe2
 1373 02e8 44       		.byte	0x44
 1374 02e9 10       		.uleb128 0x10
 1375 02ea 91000000 		.4byte	.LASF46
 1376 02ee 05       		.byte	0x5
 1377 02ef 7B       		.byte	0x7b
 1378 02f0 8C000000 		.4byte	0x8c
 1379 02f4 46       		.byte	0x46
 1380 02f5 0F       		.uleb128 0xf
 1381 02f6 44435200 		.ascii	"DCR\000"
 1382 02fa 05       		.byte	0x5
 1383 02fb 7C       		.byte	0x7c
 1384 02fc E2000000 		.4byte	0xe2
 1385 0300 48       		.byte	0x48
 1386 0301 10       		.uleb128 0x10
 1387 0302 39010000 		.4byte	.LASF47
 1388 0306 05       		.byte	0x5
 1389 0307 7D       		.byte	0x7d
 1390 0308 8C000000 		.4byte	0x8c
 1391 030c 4A       		.byte	0x4a
 1392 030d 10       		.uleb128 0x10
 1393 030e B9030000 		.4byte	.LASF48
 1394 0312 05       		.byte	0x5
 1395 0313 7E       		.byte	0x7e
 1396 0314 E2000000 		.4byte	0xe2
 1397 0318 4C       		.byte	0x4c
ARM GAS  /tmp/ccRZ3kKI.s 			page 26


 1398 0319 10       		.uleb128 0x10
 1399 031a A5000000 		.4byte	.LASF49
 1400 031e 05       		.byte	0x5
 1401 031f 7F       		.byte	0x7f
 1402 0320 8C000000 		.4byte	0x8c
 1403 0324 4E       		.byte	0x4e
 1404 0325 0F       		.uleb128 0xf
 1405 0326 4F5200   		.ascii	"OR\000"
 1406 0329 05       		.byte	0x5
 1407 032a 80       		.byte	0x80
 1408 032b E2000000 		.4byte	0xe2
 1409 032f 50       		.byte	0x50
 1410 0330 10       		.uleb128 0x10
 1411 0331 4B010000 		.4byte	.LASF50
 1412 0335 05       		.byte	0x5
 1413 0336 81       		.byte	0x81
 1414 0337 8C000000 		.4byte	0x8c
 1415 033b 52       		.byte	0x52
 1416 033c 00       		.byte	0
 1417 033d 05       		.uleb128 0x5
 1418 033e D2000000 		.4byte	0xd2
 1419 0342 04       		.uleb128 0x4
 1420 0343 6A020000 		.4byte	.LASF51
 1421 0347 05       		.byte	0x5
 1422 0348 82       		.byte	0x82
 1423 0349 AA010000 		.4byte	0x1aa
 1424 034d 06       		.uleb128 0x6
 1425 034e 04       		.byte	0x4
 1426 034f B4000000 		.4byte	0xb4
 1427 0353 11       		.uleb128 0x11
 1428 0354 01       		.byte	0x1
 1429 0355 06       		.byte	0x6
 1430 0356 35       		.byte	0x35
 1431 0357 80030000 		.4byte	0x380
 1432 035b 12       		.uleb128 0x12
 1433 035c 22000000 		.4byte	.LASF52
 1434 0360 00       		.sleb128 0
 1435 0361 12       		.uleb128 0x12
 1436 0362 A4020000 		.4byte	.LASF53
 1437 0366 01       		.sleb128 1
 1438 0367 12       		.uleb128 0x12
 1439 0368 88020000 		.4byte	.LASF54
 1440 036c 02       		.sleb128 2
 1441 036d 12       		.uleb128 0x12
 1442 036e 7C020000 		.4byte	.LASF55
 1443 0372 03       		.sleb128 3
 1444 0373 12       		.uleb128 0x12
 1445 0374 4D000000 		.4byte	.LASF56
 1446 0378 04       		.sleb128 4
 1447 0379 12       		.uleb128 0x12
 1448 037a E1000000 		.4byte	.LASF57
 1449 037e 05       		.sleb128 5
 1450 037f 00       		.byte	0
 1451 0380 04       		.uleb128 0x4
 1452 0381 9A000000 		.4byte	.LASF58
 1453 0385 06       		.byte	0x6
 1454 0386 3C       		.byte	0x3c
ARM GAS  /tmp/ccRZ3kKI.s 			page 27


 1455 0387 53030000 		.4byte	0x353
 1456 038b 04       		.uleb128 0x4
 1457 038c 60020000 		.4byte	.LASF59
 1458 0390 06       		.byte	0x6
 1459 0391 41       		.byte	0x41
 1460 0392 96030000 		.4byte	0x396
 1461 0396 13       		.uleb128 0x13
 1462 0397 60020000 		.4byte	.LASF59
 1463 039b 18       		.byte	0x18
 1464 039c 07       		.byte	0x7
 1465 039d 2901     		.2byte	0x129
 1466 039f F2030000 		.4byte	0x3f2
 1467 03a3 0C       		.uleb128 0xc
 1468 03a4 33010000 		.4byte	.LASF60
 1469 03a8 07       		.byte	0x7
 1470 03a9 2D01     		.2byte	0x12d
 1471 03ab 80030000 		.4byte	0x380
 1472 03af 00       		.byte	0
 1473 03b0 0C       		.uleb128 0xc
 1474 03b1 B2030000 		.4byte	.LASF61
 1475 03b5 07       		.byte	0x7
 1476 03b6 3101     		.2byte	0x131
 1477 03b8 C3040000 		.4byte	0x4c3
 1478 03bc 04       		.byte	0x4
 1479 03bd 0C       		.uleb128 0xc
 1480 03be AC050000 		.4byte	.LASF62
 1481 03c2 07       		.byte	0x7
 1482 03c3 3901     		.2byte	0x139
 1483 03c5 A2000000 		.4byte	0xa2
 1484 03c9 08       		.byte	0x8
 1485 03ca 0B       		.uleb128 0xb
 1486 03cb 74696D00 		.ascii	"tim\000"
 1487 03cf 07       		.byte	0x7
 1488 03d0 3D01     		.2byte	0x13d
 1489 03d2 CE040000 		.4byte	0x4ce
 1490 03d6 0C       		.byte	0xc
 1491 03d7 0C       		.uleb128 0xc
 1492 03d8 B2050000 		.4byte	.LASF63
 1493 03dc 07       		.byte	0x7
 1494 03dd 4101     		.2byte	0x141
 1495 03df 4D030000 		.4byte	0x34d
 1496 03e3 10       		.byte	0x10
 1497 03e4 0C       		.uleb128 0xc
 1498 03e5 76020000 		.4byte	.LASF64
 1499 03e9 07       		.byte	0x7
 1500 03ea 4501     		.2byte	0x145
 1501 03ec 4D030000 		.4byte	0x34d
 1502 03f0 14       		.byte	0x14
 1503 03f1 00       		.byte	0
 1504 03f2 04       		.uleb128 0x4
 1505 03f3 0C020000 		.4byte	.LASF65
 1506 03f7 06       		.byte	0x6
 1507 03f8 48       		.byte	0x48
 1508 03f9 FD030000 		.4byte	0x3fd
 1509 03fd 06       		.uleb128 0x6
 1510 03fe 04       		.byte	0x4
 1511 03ff 03040000 		.4byte	0x403
ARM GAS  /tmp/ccRZ3kKI.s 			page 28


 1512 0403 14       		.uleb128 0x14
 1513 0404 0E040000 		.4byte	0x40e
 1514 0408 15       		.uleb128 0x15
 1515 0409 0E040000 		.4byte	0x40e
 1516 040d 00       		.byte	0
 1517 040e 06       		.uleb128 0x6
 1518 040f 04       		.byte	0x4
 1519 0410 8B030000 		.4byte	0x38b
 1520 0414 11       		.uleb128 0x11
 1521 0415 01       		.byte	0x1
 1522 0416 07       		.byte	0x7
 1523 0417 EC       		.byte	0xec
 1524 0418 29040000 		.4byte	0x429
 1525 041c 12       		.uleb128 0x12
 1526 041d 00000000 		.4byte	.LASF66
 1527 0421 00       		.sleb128 0
 1528 0422 12       		.uleb128 0x12
 1529 0423 AD020000 		.4byte	.LASF67
 1530 0427 01       		.sleb128 1
 1531 0428 00       		.byte	0
 1532 0429 04       		.uleb128 0x4
 1533 042a 2F030000 		.4byte	.LASF68
 1534 042e 07       		.byte	0x7
 1535 042f EF       		.byte	0xef
 1536 0430 14040000 		.4byte	0x414
 1537 0434 04       		.uleb128 0x4
 1538 0435 EA030000 		.4byte	.LASF69
 1539 0439 07       		.byte	0x7
 1540 043a F4       		.byte	0xf4
 1541 043b A2000000 		.4byte	0xa2
 1542 043f 11       		.uleb128 0x11
 1543 0440 01       		.byte	0x1
 1544 0441 07       		.byte	0x7
 1545 0442 F9       		.byte	0xf9
 1546 0443 54040000 		.4byte	0x454
 1547 0447 12       		.uleb128 0x12
 1548 0448 71050000 		.4byte	.LASF70
 1549 044c 00       		.sleb128 0
 1550 044d 12       		.uleb128 0x12
 1551 044e 7F050000 		.4byte	.LASF71
 1552 0452 01       		.sleb128 1
 1553 0453 00       		.byte	0
 1554 0454 04       		.uleb128 0x4
 1555 0455 5D030000 		.4byte	.LASF72
 1556 0459 07       		.byte	0x7
 1557 045a FC       		.byte	0xfc
 1558 045b 3F040000 		.4byte	0x43f
 1559 045f 0A       		.uleb128 0xa
 1560 0460 18       		.byte	0x18
 1561 0461 07       		.byte	0x7
 1562 0462 0701     		.2byte	0x107
 1563 0464 B7040000 		.4byte	0x4b7
 1564 0468 0C       		.uleb128 0xc
 1565 0469 AD030000 		.4byte	.LASF73
 1566 046d 07       		.byte	0x7
 1567 046e 0B01     		.2byte	0x10b
 1568 0470 29040000 		.4byte	0x429
ARM GAS  /tmp/ccRZ3kKI.s 			page 29


 1569 0474 00       		.byte	0
 1570 0475 0C       		.uleb128 0xc
 1571 0476 D7000000 		.4byte	.LASF74
 1572 047a 07       		.byte	0x7
 1573 047b 1101     		.2byte	0x111
 1574 047d 34040000 		.4byte	0x434
 1575 0481 04       		.byte	0x4
 1576 0482 0C       		.uleb128 0xc
 1577 0483 9B020000 		.4byte	.LASF75
 1578 0487 07       		.byte	0x7
 1579 0488 1501     		.2byte	0x115
 1580 048a F2030000 		.4byte	0x3f2
 1581 048e 08       		.byte	0x8
 1582 048f 0C       		.uleb128 0xc
 1583 0490 26020000 		.4byte	.LASF76
 1584 0494 07       		.byte	0x7
 1585 0495 1901     		.2byte	0x119
 1586 0497 F2030000 		.4byte	0x3f2
 1587 049b 0C       		.byte	0xc
 1588 049c 0C       		.uleb128 0xc
 1589 049d 16000000 		.4byte	.LASF77
 1590 04a1 07       		.byte	0x7
 1591 04a2 1D01     		.2byte	0x11d
 1592 04a4 F2030000 		.4byte	0x3f2
 1593 04a8 10       		.byte	0x10
 1594 04a9 0C       		.uleb128 0xc
 1595 04aa 6A030000 		.4byte	.LASF78
 1596 04ae 07       		.byte	0x7
 1597 04af 2301     		.2byte	0x123
 1598 04b1 54040000 		.4byte	0x454
 1599 04b5 14       		.byte	0x14
 1600 04b6 00       		.byte	0
 1601 04b7 0D       		.uleb128 0xd
 1602 04b8 6B010000 		.4byte	.LASF79
 1603 04bc 07       		.byte	0x7
 1604 04bd 2401     		.2byte	0x124
 1605 04bf 5F040000 		.4byte	0x45f
 1606 04c3 06       		.uleb128 0x6
 1607 04c4 04       		.byte	0x4
 1608 04c5 C9040000 		.4byte	0x4c9
 1609 04c9 07       		.uleb128 0x7
 1610 04ca B7040000 		.4byte	0x4b7
 1611 04ce 06       		.uleb128 0x6
 1612 04cf 04       		.byte	0x4
 1613 04d0 42030000 		.4byte	0x342
 1614 04d4 16       		.uleb128 0x16
 1615 04d5 30020000 		.4byte	.LASF107
 1616 04d9 01       		.byte	0x1
 1617 04da 6F       		.byte	0x6f
 1618 04db 00000000 		.4byte	.LFB118
 1619 04df 76000000 		.4byte	.LFE118-.LFB118
 1620 04e3 01       		.uleb128 0x1
 1621 04e4 9C       		.byte	0x9c
 1622 04e5 85050000 		.4byte	0x585
 1623 04e9 17       		.uleb128 0x17
 1624 04ea EF020000 		.4byte	.LASF89
 1625 04ee 01       		.byte	0x1
ARM GAS  /tmp/ccRZ3kKI.s 			page 30


 1626 04ef 6F       		.byte	0x6f
 1627 04f0 0E040000 		.4byte	0x40e
 1628 04f4 00000000 		.4byte	.LLST0
 1629 04f8 18       		.uleb128 0x18
 1630 04f9 737200   		.ascii	"sr\000"
 1631 04fc 01       		.byte	0x1
 1632 04fd 70       		.byte	0x70
 1633 04fe 8C000000 		.4byte	0x8c
 1634 0502 4A000000 		.4byte	.LLST1
 1635 0506 19       		.uleb128 0x19
 1636 0507 1E000000 		.4byte	.LBB2
 1637 050b 0E000000 		.4byte	.LBE2-.LBB2
 1638 050f 2F050000 		.4byte	0x52f
 1639 0513 1A       		.uleb128 0x1a
 1640 0514 89030000 		.4byte	.LASF80
 1641 0518 01       		.byte	0x1
 1642 0519 77       		.byte	0x77
 1643 051a 80030000 		.4byte	0x380
 1644 051e 68000000 		.4byte	.LLST2
 1645 0522 1B       		.uleb128 0x1b
 1646 0523 2C000000 		.4byte	.LVL6
 1647 0527 1C       		.uleb128 0x1c
 1648 0528 01       		.uleb128 0x1
 1649 0529 50       		.byte	0x50
 1650 052a 02       		.uleb128 0x2
 1651 052b 74       		.byte	0x74
 1652 052c 00       		.sleb128 0
 1653 052d 00       		.byte	0
 1654 052e 00       		.byte	0
 1655 052f 19       		.uleb128 0x19
 1656 0530 46000000 		.4byte	.LBB3
 1657 0534 14000000 		.4byte	.LBE3-.LBB3
 1658 0538 58050000 		.4byte	0x558
 1659 053c 1A       		.uleb128 0x1a
 1660 053d 89030000 		.4byte	.LASF80
 1661 0541 01       		.byte	0x1
 1662 0542 7E       		.byte	0x7e
 1663 0543 80030000 		.4byte	0x380
 1664 0547 87000000 		.4byte	.LLST3
 1665 054b 1B       		.uleb128 0x1b
 1666 054c 58000000 		.4byte	.LVL13
 1667 0550 1C       		.uleb128 0x1c
 1668 0551 01       		.uleb128 0x1
 1669 0552 50       		.byte	0x50
 1670 0553 02       		.uleb128 0x2
 1671 0554 74       		.byte	0x74
 1672 0555 00       		.sleb128 0
 1673 0556 00       		.byte	0
 1674 0557 00       		.byte	0
 1675 0558 1D       		.uleb128 0x1d
 1676 0559 3C000000 		.4byte	.LVL7
 1677 055d 68050000 		.4byte	0x568
 1678 0561 1C       		.uleb128 0x1c
 1679 0562 01       		.uleb128 0x1
 1680 0563 50       		.byte	0x50
 1681 0564 02       		.uleb128 0x2
 1682 0565 74       		.byte	0x74
ARM GAS  /tmp/ccRZ3kKI.s 			page 31


 1683 0566 00       		.sleb128 0
 1684 0567 00       		.byte	0
 1685 0568 1D       		.uleb128 0x1d
 1686 0569 62000000 		.4byte	.LVL15
 1687 056d 78050000 		.4byte	0x578
 1688 0571 1C       		.uleb128 0x1c
 1689 0572 01       		.uleb128 0x1
 1690 0573 50       		.byte	0x50
 1691 0574 02       		.uleb128 0x2
 1692 0575 74       		.byte	0x74
 1693 0576 00       		.sleb128 0
 1694 0577 00       		.byte	0
 1695 0578 1B       		.uleb128 0x1b
 1696 0579 74000000 		.4byte	.LVL16
 1697 057d 1C       		.uleb128 0x1c
 1698 057e 01       		.uleb128 0x1
 1699 057f 50       		.byte	0x50
 1700 0580 02       		.uleb128 0x2
 1701 0581 74       		.byte	0x74
 1702 0582 00       		.sleb128 0
 1703 0583 00       		.byte	0
 1704 0584 00       		.byte	0
 1705 0585 1E       		.uleb128 0x1e
 1706 0586 BF050000 		.4byte	.LASF81
 1707 058a 01       		.byte	0x1
 1708 058b 94       		.byte	0x94
 1709 058c 00000000 		.4byte	.LFB119
 1710 0590 1C000000 		.4byte	.LFE119-.LFB119
 1711 0594 01       		.uleb128 0x1
 1712 0595 9C       		.byte	0x9c
 1713 0596 CD050000 		.4byte	0x5cd
 1714 059a 1F       		.uleb128 0x1f
 1715 059b 06000000 		.4byte	.LVL17
 1716 059f A6090000 		.4byte	0x9a6
 1717 05a3 20       		.uleb128 0x20
 1718 05a4 0C000000 		.4byte	.LVL18
 1719 05a8 D4040000 		.4byte	0x4d4
 1720 05ac BA050000 		.4byte	0x5ba
 1721 05b0 1C       		.uleb128 0x1c
 1722 05b1 01       		.uleb128 0x1
 1723 05b2 50       		.byte	0x50
 1724 05b3 05       		.uleb128 0x5
 1725 05b4 03       		.byte	0x3
 1726 05b5 00000000 		.4byte	.LANCHOR0
 1727 05b9 00       		.byte	0
 1728 05ba 1F       		.uleb128 0x1f
 1729 05bb 10000000 		.4byte	.LVL19
 1730 05bf AD090000 		.4byte	0x9ad
 1731 05c3 21       		.uleb128 0x21
 1732 05c4 18000000 		.4byte	.LVL20
 1733 05c8 B4090000 		.4byte	0x9b4
 1734 05cc 00       		.byte	0
 1735 05cd 1E       		.uleb128 0x1e
 1736 05ce 58000000 		.4byte	.LASF82
 1737 05d2 01       		.byte	0x1
 1738 05d3 A8       		.byte	0xa8
 1739 05d4 00000000 		.4byte	.LFB120
ARM GAS  /tmp/ccRZ3kKI.s 			page 32


 1740 05d8 1C000000 		.4byte	.LFE120-.LFB120
 1741 05dc 01       		.uleb128 0x1
 1742 05dd 9C       		.byte	0x9c
 1743 05de 15060000 		.4byte	0x615
 1744 05e2 1F       		.uleb128 0x1f
 1745 05e3 06000000 		.4byte	.LVL21
 1746 05e7 A6090000 		.4byte	0x9a6
 1747 05eb 20       		.uleb128 0x20
 1748 05ec 0C000000 		.4byte	.LVL22
 1749 05f0 D4040000 		.4byte	0x4d4
 1750 05f4 02060000 		.4byte	0x602
 1751 05f8 1C       		.uleb128 0x1c
 1752 05f9 01       		.uleb128 0x1
 1753 05fa 50       		.byte	0x50
 1754 05fb 05       		.uleb128 0x5
 1755 05fc 03       		.byte	0x3
 1756 05fd 00000000 		.4byte	.LANCHOR0
 1757 0601 00       		.byte	0
 1758 0602 1F       		.uleb128 0x1f
 1759 0603 10000000 		.4byte	.LVL23
 1760 0607 AD090000 		.4byte	0x9ad
 1761 060b 21       		.uleb128 0x21
 1762 060c 18000000 		.4byte	.LVL24
 1763 0610 B4090000 		.4byte	0x9b4
 1764 0614 00       		.byte	0
 1765 0615 1E       		.uleb128 0x1e
 1766 0616 21010000 		.4byte	.LASF83
 1767 061a 01       		.byte	0x1
 1768 061b D4       		.byte	0xd4
 1769 061c 00000000 		.4byte	.LFB121
 1770 0620 1C000000 		.4byte	.LFE121-.LFB121
 1771 0624 01       		.uleb128 0x1
 1772 0625 9C       		.byte	0x9c
 1773 0626 5D060000 		.4byte	0x65d
 1774 062a 1F       		.uleb128 0x1f
 1775 062b 06000000 		.4byte	.LVL25
 1776 062f A6090000 		.4byte	0x9a6
 1777 0633 20       		.uleb128 0x20
 1778 0634 0C000000 		.4byte	.LVL26
 1779 0638 D4040000 		.4byte	0x4d4
 1780 063c 4A060000 		.4byte	0x64a
 1781 0640 1C       		.uleb128 0x1c
 1782 0641 01       		.uleb128 0x1
 1783 0642 50       		.byte	0x50
 1784 0643 05       		.uleb128 0x5
 1785 0644 03       		.byte	0x3
 1786 0645 00000000 		.4byte	.LANCHOR1
 1787 0649 00       		.byte	0
 1788 064a 1F       		.uleb128 0x1f
 1789 064b 10000000 		.4byte	.LVL27
 1790 064f AD090000 		.4byte	0x9ad
 1791 0653 21       		.uleb128 0x21
 1792 0654 18000000 		.4byte	.LVL28
 1793 0658 B4090000 		.4byte	0x9b4
 1794 065c 00       		.byte	0
 1795 065d 1E       		.uleb128 0x1e
 1796 065e AD010000 		.4byte	.LASF84
ARM GAS  /tmp/ccRZ3kKI.s 			page 33


 1797 0662 01       		.byte	0x1
 1798 0663 EA       		.byte	0xea
 1799 0664 00000000 		.4byte	.LFB122
 1800 0668 1C000000 		.4byte	.LFE122-.LFB122
 1801 066c 01       		.uleb128 0x1
 1802 066d 9C       		.byte	0x9c
 1803 066e A5060000 		.4byte	0x6a5
 1804 0672 1F       		.uleb128 0x1f
 1805 0673 06000000 		.4byte	.LVL29
 1806 0677 A6090000 		.4byte	0x9a6
 1807 067b 20       		.uleb128 0x20
 1808 067c 0C000000 		.4byte	.LVL30
 1809 0680 D4040000 		.4byte	0x4d4
 1810 0684 92060000 		.4byte	0x692
 1811 0688 1C       		.uleb128 0x1c
 1812 0689 01       		.uleb128 0x1
 1813 068a 50       		.byte	0x50
 1814 068b 05       		.uleb128 0x5
 1815 068c 03       		.byte	0x3
 1816 068d 00000000 		.4byte	.LANCHOR2
 1817 0691 00       		.byte	0
 1818 0692 1F       		.uleb128 0x1f
 1819 0693 10000000 		.4byte	.LVL31
 1820 0697 AD090000 		.4byte	0x9ad
 1821 069b 21       		.uleb128 0x21
 1822 069c 18000000 		.4byte	.LVL32
 1823 06a0 B4090000 		.4byte	0x9b4
 1824 06a4 00       		.byte	0
 1825 06a5 22       		.uleb128 0x22
 1826 06a6 4C030000 		.4byte	.LASF85
 1827 06aa 01       		.byte	0x1
 1828 06ab 1601     		.2byte	0x116
 1829 06ad 00000000 		.4byte	.LFB123
 1830 06b1 1C000000 		.4byte	.LFE123-.LFB123
 1831 06b5 01       		.uleb128 0x1
 1832 06b6 9C       		.byte	0x9c
 1833 06b7 EE060000 		.4byte	0x6ee
 1834 06bb 1F       		.uleb128 0x1f
 1835 06bc 06000000 		.4byte	.LVL33
 1836 06c0 A6090000 		.4byte	0x9a6
 1837 06c4 20       		.uleb128 0x20
 1838 06c5 0C000000 		.4byte	.LVL34
 1839 06c9 D4040000 		.4byte	0x4d4
 1840 06cd DB060000 		.4byte	0x6db
 1841 06d1 1C       		.uleb128 0x1c
 1842 06d2 01       		.uleb128 0x1
 1843 06d3 50       		.byte	0x50
 1844 06d4 05       		.uleb128 0x5
 1845 06d5 03       		.byte	0x3
 1846 06d6 00000000 		.4byte	.LANCHOR3
 1847 06da 00       		.byte	0
 1848 06db 1F       		.uleb128 0x1f
 1849 06dc 10000000 		.4byte	.LVL35
 1850 06e0 AD090000 		.4byte	0x9ad
 1851 06e4 21       		.uleb128 0x21
 1852 06e5 18000000 		.4byte	.LVL36
 1853 06e9 B4090000 		.4byte	0x9b4
ARM GAS  /tmp/ccRZ3kKI.s 			page 34


 1854 06ed 00       		.byte	0
 1855 06ee 22       		.uleb128 0x22
 1856 06ef 72030000 		.4byte	.LASF86
 1857 06f3 01       		.byte	0x1
 1858 06f4 2A01     		.2byte	0x12a
 1859 06f6 00000000 		.4byte	.LFB124
 1860 06fa 1C000000 		.4byte	.LFE124-.LFB124
 1861 06fe 01       		.uleb128 0x1
 1862 06ff 9C       		.byte	0x9c
 1863 0700 37070000 		.4byte	0x737
 1864 0704 1F       		.uleb128 0x1f
 1865 0705 06000000 		.4byte	.LVL37
 1866 0709 A6090000 		.4byte	0x9a6
 1867 070d 20       		.uleb128 0x20
 1868 070e 0C000000 		.4byte	.LVL38
 1869 0712 D4040000 		.4byte	0x4d4
 1870 0716 24070000 		.4byte	0x724
 1871 071a 1C       		.uleb128 0x1c
 1872 071b 01       		.uleb128 0x1
 1873 071c 50       		.byte	0x50
 1874 071d 05       		.uleb128 0x5
 1875 071e 03       		.byte	0x3
 1876 071f 00000000 		.4byte	.LANCHOR3
 1877 0723 00       		.byte	0
 1878 0724 1F       		.uleb128 0x1f
 1879 0725 10000000 		.4byte	.LVL39
 1880 0729 AD090000 		.4byte	0x9ad
 1881 072d 21       		.uleb128 0x21
 1882 072e 18000000 		.4byte	.LVL40
 1883 0732 B4090000 		.4byte	0x9b4
 1884 0736 00       		.byte	0
 1885 0737 22       		.uleb128 0x22
 1886 0738 DD030000 		.4byte	.LASF87
 1887 073c 01       		.byte	0x1
 1888 073d 5301     		.2byte	0x153
 1889 073f 00000000 		.4byte	.LFB125
 1890 0743 54000000 		.4byte	.LFE125-.LFB125
 1891 0747 01       		.uleb128 0x1
 1892 0748 9C       		.byte	0x9c
 1893 0749 9A070000 		.4byte	0x79a
 1894 074d 20       		.uleb128 0x20
 1895 074e 10000000 		.4byte	.LVL41
 1896 0752 BC090000 		.4byte	0x9bc
 1897 0756 61070000 		.4byte	0x761
 1898 075a 1C       		.uleb128 0x1c
 1899 075b 01       		.uleb128 0x1
 1900 075c 50       		.byte	0x50
 1901 075d 02       		.uleb128 0x2
 1902 075e 77       		.byte	0x77
 1903 075f 00       		.sleb128 0
 1904 0760 00       		.byte	0
 1905 0761 20       		.uleb128 0x20
 1906 0762 1A000000 		.4byte	.LVL42
 1907 0766 BC090000 		.4byte	0x9bc
 1908 076a 75070000 		.4byte	0x775
 1909 076e 1C       		.uleb128 0x1c
 1910 076f 01       		.uleb128 0x1
ARM GAS  /tmp/ccRZ3kKI.s 			page 35


 1911 0770 50       		.byte	0x50
 1912 0771 02       		.uleb128 0x2
 1913 0772 76       		.byte	0x76
 1914 0773 00       		.sleb128 0
 1915 0774 00       		.byte	0
 1916 0775 20       		.uleb128 0x20
 1917 0776 24000000 		.4byte	.LVL43
 1918 077a BC090000 		.4byte	0x9bc
 1919 077e 89070000 		.4byte	0x789
 1920 0782 1C       		.uleb128 0x1c
 1921 0783 01       		.uleb128 0x1
 1922 0784 50       		.byte	0x50
 1923 0785 02       		.uleb128 0x2
 1924 0786 75       		.byte	0x75
 1925 0787 00       		.sleb128 0
 1926 0788 00       		.byte	0
 1927 0789 23       		.uleb128 0x23
 1928 078a 2E000000 		.4byte	.LVL44
 1929 078e BC090000 		.4byte	0x9bc
 1930 0792 1C       		.uleb128 0x1c
 1931 0793 01       		.uleb128 0x1
 1932 0794 50       		.byte	0x50
 1933 0795 02       		.uleb128 0x2
 1934 0796 74       		.byte	0x74
 1935 0797 00       		.sleb128 0
 1936 0798 00       		.byte	0
 1937 0799 00       		.byte	0
 1938 079a 22       		.uleb128 0x22
 1939 079b 9E050000 		.4byte	.LASF88
 1940 079f 01       		.byte	0x1
 1941 07a0 8701     		.2byte	0x187
 1942 07a2 00000000 		.4byte	.LFB126
 1943 07a6 68010000 		.4byte	.LFE126-.LFB126
 1944 07aa 01       		.uleb128 0x1
 1945 07ab 9C       		.byte	0x9c
 1946 07ac 75080000 		.4byte	0x875
 1947 07b0 24       		.uleb128 0x24
 1948 07b1 EF020000 		.4byte	.LASF89
 1949 07b5 01       		.byte	0x1
 1950 07b6 8701     		.2byte	0x187
 1951 07b8 0E040000 		.4byte	0x40e
 1952 07bc A6000000 		.4byte	.LLST4
 1953 07c0 25       		.uleb128 0x25
 1954 07c1 70736300 		.ascii	"psc\000"
 1955 07c5 01       		.byte	0x1
 1956 07c6 8801     		.2byte	0x188
 1957 07c8 A2000000 		.4byte	0xa2
 1958 07cc C4000000 		.4byte	.LLST5
 1959 07d0 20       		.uleb128 0x20
 1960 07d1 12000000 		.4byte	.LVL47
 1961 07d5 CD090000 		.4byte	0x9cd
 1962 07d9 E7070000 		.4byte	0x7e7
 1963 07dd 1C       		.uleb128 0x1c
 1964 07de 01       		.uleb128 0x1
 1965 07df 50       		.byte	0x50
 1966 07e0 05       		.uleb128 0x5
 1967 07e1 03       		.byte	0x3
ARM GAS  /tmp/ccRZ3kKI.s 			page 36


 1968 07e2 00000000 		.4byte	.LC0
 1969 07e6 00       		.byte	0
 1970 07e7 20       		.uleb128 0x20
 1971 07e8 48000000 		.4byte	.LVL49
 1972 07ec CD090000 		.4byte	0x9cd
 1973 07f0 FE070000 		.4byte	0x7fe
 1974 07f4 1C       		.uleb128 0x1c
 1975 07f5 01       		.uleb128 0x1
 1976 07f6 50       		.byte	0x50
 1977 07f7 05       		.uleb128 0x5
 1978 07f8 03       		.byte	0x3
 1979 07f9 00000000 		.4byte	.LC0
 1980 07fd 00       		.byte	0
 1981 07fe 20       		.uleb128 0x20
 1982 07ff D6000000 		.4byte	.LVL53
 1983 0803 DE090000 		.4byte	0x9de
 1984 0807 18080000 		.4byte	0x818
 1985 080b 1C       		.uleb128 0x1c
 1986 080c 01       		.uleb128 0x1
 1987 080d 51       		.byte	0x51
 1988 080e 02       		.uleb128 0x2
 1989 080f 08       		.byte	0x8
 1990 0810 70       		.byte	0x70
 1991 0811 1C       		.uleb128 0x1c
 1992 0812 01       		.uleb128 0x1
 1993 0813 50       		.byte	0x50
 1994 0814 02       		.uleb128 0x2
 1995 0815 08       		.byte	0x8
 1996 0816 2C       		.byte	0x2c
 1997 0817 00       		.byte	0
 1998 0818 20       		.uleb128 0x20
 1999 0819 DE000000 		.4byte	.LVL54
 2000 081d DE090000 		.4byte	0x9de
 2001 0821 32080000 		.4byte	0x832
 2002 0825 1C       		.uleb128 0x1c
 2003 0826 01       		.uleb128 0x1
 2004 0827 51       		.byte	0x51
 2005 0828 02       		.uleb128 0x2
 2006 0829 08       		.byte	0x8
 2007 082a 70       		.byte	0x70
 2008 082b 1C       		.uleb128 0x1c
 2009 082c 01       		.uleb128 0x1
 2010 082d 50       		.byte	0x50
 2011 082e 02       		.uleb128 0x2
 2012 082f 08       		.byte	0x8
 2013 0830 2E       		.byte	0x2e
 2014 0831 00       		.byte	0
 2015 0832 20       		.uleb128 0x20
 2016 0833 02010000 		.4byte	.LVL55
 2017 0837 DE090000 		.4byte	0x9de
 2018 083b 4B080000 		.4byte	0x84b
 2019 083f 1C       		.uleb128 0x1c
 2020 0840 01       		.uleb128 0x1
 2021 0841 51       		.byte	0x51
 2022 0842 02       		.uleb128 0x2
 2023 0843 08       		.byte	0x8
 2024 0844 70       		.byte	0x70
ARM GAS  /tmp/ccRZ3kKI.s 			page 37


 2025 0845 1C       		.uleb128 0x1c
 2026 0846 01       		.uleb128 0x1
 2027 0847 50       		.byte	0x50
 2028 0848 01       		.uleb128 0x1
 2029 0849 49       		.byte	0x49
 2030 084a 00       		.byte	0
 2031 084b 20       		.uleb128 0x20
 2032 084c 0A010000 		.4byte	.LVL56
 2033 0850 DE090000 		.4byte	0x9de
 2034 0854 64080000 		.4byte	0x864
 2035 0858 1C       		.uleb128 0x1c
 2036 0859 01       		.uleb128 0x1
 2037 085a 51       		.byte	0x51
 2038 085b 02       		.uleb128 0x2
 2039 085c 08       		.byte	0x8
 2040 085d 70       		.byte	0x70
 2041 085e 1C       		.uleb128 0x1c
 2042 085f 01       		.uleb128 0x1
 2043 0860 50       		.byte	0x50
 2044 0861 01       		.uleb128 0x1
 2045 0862 4B       		.byte	0x4b
 2046 0863 00       		.byte	0
 2047 0864 23       		.uleb128 0x23
 2048 0865 2E010000 		.4byte	.LVL57
 2049 0869 DE090000 		.4byte	0x9de
 2050 086d 1C       		.uleb128 0x1c
 2051 086e 01       		.uleb128 0x1
 2052 086f 51       		.byte	0x51
 2053 0870 02       		.uleb128 0x2
 2054 0871 08       		.byte	0x8
 2055 0872 70       		.byte	0x70
 2056 0873 00       		.byte	0
 2057 0874 00       		.byte	0
 2058 0875 22       		.uleb128 0x22
 2059 0876 D0030000 		.4byte	.LASF90
 2060 087a 01       		.byte	0x1
 2061 087b 1E02     		.2byte	0x21e
 2062 087d 00000000 		.4byte	.LFB127
 2063 0881 94000000 		.4byte	.LFE127-.LFB127
 2064 0885 01       		.uleb128 0x1
 2065 0886 9C       		.byte	0x9c
 2066 0887 0C090000 		.4byte	0x90c
 2067 088b 24       		.uleb128 0x24
 2068 088c EF020000 		.4byte	.LASF89
 2069 0890 01       		.byte	0x1
 2070 0891 1E02     		.2byte	0x21e
 2071 0893 0E040000 		.4byte	0x40e
 2072 0897 D7000000 		.4byte	.LLST6
 2073 089b 20       		.uleb128 0x20
 2074 089c 32000000 		.4byte	.LVL62
 2075 08a0 F5090000 		.4byte	0x9f5
 2076 08a4 AF080000 		.4byte	0x8af
 2077 08a8 1C       		.uleb128 0x1c
 2078 08a9 01       		.uleb128 0x1
 2079 08aa 50       		.byte	0x50
 2080 08ab 02       		.uleb128 0x2
 2081 08ac 08       		.byte	0x8
ARM GAS  /tmp/ccRZ3kKI.s 			page 38


 2082 08ad 2C       		.byte	0x2c
 2083 08ae 00       		.byte	0
 2084 08af 20       		.uleb128 0x20
 2085 08b0 38000000 		.4byte	.LVL63
 2086 08b4 F5090000 		.4byte	0x9f5
 2087 08b8 C3080000 		.4byte	0x8c3
 2088 08bc 1C       		.uleb128 0x1c
 2089 08bd 01       		.uleb128 0x1
 2090 08be 50       		.byte	0x50
 2091 08bf 02       		.uleb128 0x2
 2092 08c0 08       		.byte	0x8
 2093 08c1 2E       		.byte	0x2e
 2094 08c2 00       		.byte	0
 2095 08c3 20       		.uleb128 0x20
 2096 08c4 4A000000 		.4byte	.LVL66
 2097 08c8 F5090000 		.4byte	0x9f5
 2098 08cc D6080000 		.4byte	0x8d6
 2099 08d0 1C       		.uleb128 0x1c
 2100 08d1 01       		.uleb128 0x1
 2101 08d2 50       		.byte	0x50
 2102 08d3 01       		.uleb128 0x1
 2103 08d4 49       		.byte	0x49
 2104 08d5 00       		.byte	0
 2105 08d6 20       		.uleb128 0x20
 2106 08d7 50000000 		.4byte	.LVL67
 2107 08db F5090000 		.4byte	0x9f5
 2108 08df E9080000 		.4byte	0x8e9
 2109 08e3 1C       		.uleb128 0x1c
 2110 08e4 01       		.uleb128 0x1
 2111 08e5 50       		.byte	0x50
 2112 08e6 01       		.uleb128 0x1
 2113 08e7 4B       		.byte	0x4b
 2114 08e8 00       		.byte	0
 2115 08e9 20       		.uleb128 0x20
 2116 08ea 62000000 		.4byte	.LVL70
 2117 08ee F5090000 		.4byte	0x9f5
 2118 08f2 FC080000 		.4byte	0x8fc
 2119 08f6 1C       		.uleb128 0x1c
 2120 08f7 01       		.uleb128 0x1
 2121 08f8 50       		.byte	0x50
 2122 08f9 01       		.uleb128 0x1
 2123 08fa 4D       		.byte	0x4d
 2124 08fb 00       		.byte	0
 2125 08fc 23       		.uleb128 0x23
 2126 08fd 74000000 		.4byte	.LVL73
 2127 0901 F5090000 		.4byte	0x9f5
 2128 0905 1C       		.uleb128 0x1c
 2129 0906 01       		.uleb128 0x1
 2130 0907 50       		.byte	0x50
 2131 0908 01       		.uleb128 0x1
 2132 0909 4E       		.byte	0x4e
 2133 090a 00       		.byte	0
 2134 090b 00       		.byte	0
 2135 090c 22       		.uleb128 0x22
 2136 090d 16030000 		.4byte	.LASF91
 2137 0911 01       		.byte	0x1
 2138 0912 5C02     		.2byte	0x25c
ARM GAS  /tmp/ccRZ3kKI.s 			page 39


 2139 0914 00000000 		.4byte	.LFB128
 2140 0918 58000000 		.4byte	.LFE128-.LFB128
 2141 091c 01       		.uleb128 0x1
 2142 091d 9C       		.byte	0x9c
 2143 091e 31090000 		.4byte	0x931
 2144 0922 26       		.uleb128 0x26
 2145 0923 EF020000 		.4byte	.LASF89
 2146 0927 01       		.byte	0x1
 2147 0928 5C02     		.2byte	0x25c
 2148 092a 0E040000 		.4byte	0x40e
 2149 092e 01       		.uleb128 0x1
 2150 092f 50       		.byte	0x50
 2151 0930 00       		.byte	0
 2152 0931 22       		.uleb128 0x22
 2153 0932 D3020000 		.4byte	.LASF92
 2154 0936 01       		.byte	0x1
 2155 0937 7602     		.2byte	0x276
 2156 0939 00000000 		.4byte	.LFB129
 2157 093d 0C000000 		.4byte	.LFE129-.LFB129
 2158 0941 01       		.uleb128 0x1
 2159 0942 9C       		.byte	0x9c
 2160 0943 56090000 		.4byte	0x956
 2161 0947 26       		.uleb128 0x26
 2162 0948 EF020000 		.4byte	.LASF89
 2163 094c 01       		.byte	0x1
 2164 094d 7602     		.2byte	0x276
 2165 094f 0E040000 		.4byte	0x40e
 2166 0953 01       		.uleb128 0x1
 2167 0954 50       		.byte	0x50
 2168 0955 00       		.byte	0
 2169 0956 27       		.uleb128 0x27
 2170 0957 C5000000 		.4byte	.LASF93
 2171 095b 08       		.byte	0x8
 2172 095c 9806     		.2byte	0x698
 2173 095e E7000000 		.4byte	0xe7
 2174 0962 28       		.uleb128 0x28
 2175 0963 E2010000 		.4byte	.LASF94
 2176 0967 01       		.byte	0x1
 2177 0968 2F       		.byte	0x2f
 2178 0969 8B030000 		.4byte	0x38b
 2179 096d 05       		.uleb128 0x5
 2180 096e 03       		.byte	0x3
 2181 096f 00000000 		.4byte	ICUD1
 2182 0973 28       		.uleb128 0x28
 2183 0974 E3020000 		.4byte	.LASF95
 2184 0978 01       		.byte	0x1
 2185 0979 3F       		.byte	0x3f
 2186 097a 8B030000 		.4byte	0x38b
 2187 097e 05       		.uleb128 0x5
 2188 097f 03       		.byte	0x3
 2189 0980 00000000 		.4byte	ICUD3
 2190 0984 28       		.uleb128 0x28
 2191 0985 E9020000 		.4byte	.LASF96
 2192 0989 01       		.byte	0x1
 2193 098a 47       		.byte	0x47
 2194 098b 8B030000 		.4byte	0x38b
 2195 098f 05       		.uleb128 0x5
ARM GAS  /tmp/ccRZ3kKI.s 			page 40


 2196 0990 03       		.byte	0x3
 2197 0991 00000000 		.4byte	ICUD4
 2198 0995 28       		.uleb128 0x28
 2199 0996 F4020000 		.4byte	.LASF97
 2200 099a 01       		.byte	0x1
 2201 099b 57       		.byte	0x57
 2202 099c 8B030000 		.4byte	0x38b
 2203 09a0 05       		.uleb128 0x5
 2204 09a1 03       		.byte	0x3
 2205 09a2 00000000 		.4byte	ICUD8
 2206 09a6 29       		.uleb128 0x29
 2207 09a7 C1010000 		.4byte	.LASF98
 2208 09ab 09       		.byte	0x9
 2209 09ac E4       		.byte	0xe4
 2210 09ad 29       		.uleb128 0x29
 2211 09ae F4030000 		.4byte	.LASF99
 2212 09b2 09       		.byte	0x9
 2213 09b3 E5       		.byte	0xe5
 2214 09b4 2A       		.uleb128 0x2a
 2215 09b5 4D020000 		.4byte	.LASF100
 2216 09b9 0A       		.byte	0xa
 2217 09ba FC01     		.2byte	0x1fc
 2218 09bc 2B       		.uleb128 0x2b
 2219 09bd 7B030000 		.4byte	.LASF101
 2220 09c1 06       		.byte	0x6
 2221 09c2 B5       		.byte	0xb5
 2222 09c3 CD090000 		.4byte	0x9cd
 2223 09c7 15       		.uleb128 0x15
 2224 09c8 0E040000 		.4byte	0x40e
 2225 09cc 00       		.byte	0
 2226 09cd 2B       		.uleb128 0x2b
 2227 09ce 32000000 		.4byte	.LASF102
 2228 09d2 09       		.byte	0x9
 2229 09d3 EF       		.byte	0xef
 2230 09d4 DE090000 		.4byte	0x9de
 2231 09d8 15       		.uleb128 0x15
 2232 09d9 C0000000 		.4byte	0xc0
 2233 09dd 00       		.byte	0
 2234 09de 2C       		.uleb128 0x2c
 2235 09df EA000000 		.4byte	.LASF103
 2236 09e3 0B       		.byte	0xb
 2237 09e4 1C01     		.2byte	0x11c
 2238 09e6 F5090000 		.4byte	0x9f5
 2239 09ea 15       		.uleb128 0x15
 2240 09eb A2000000 		.4byte	0xa2
 2241 09ef 15       		.uleb128 0x15
 2242 09f0 A2000000 		.4byte	0xa2
 2243 09f4 00       		.byte	0
 2244 09f5 2D       		.uleb128 0x2d
 2245 09f6 E8010000 		.4byte	.LASF108
 2246 09fa 0B       		.byte	0xb
 2247 09fb 1D01     		.2byte	0x11d
 2248 09fd 15       		.uleb128 0x15
 2249 09fe A2000000 		.4byte	0xa2
 2250 0a02 00       		.byte	0
 2251 0a03 00       		.byte	0
 2252              		.section	.debug_abbrev,"",%progbits
ARM GAS  /tmp/ccRZ3kKI.s 			page 41


 2253              	.Ldebug_abbrev0:
 2254 0000 01       		.uleb128 0x1
 2255 0001 11       		.uleb128 0x11
 2256 0002 01       		.byte	0x1
 2257 0003 25       		.uleb128 0x25
 2258 0004 0E       		.uleb128 0xe
 2259 0005 13       		.uleb128 0x13
 2260 0006 0B       		.uleb128 0xb
 2261 0007 03       		.uleb128 0x3
 2262 0008 0E       		.uleb128 0xe
 2263 0009 1B       		.uleb128 0x1b
 2264 000a 0E       		.uleb128 0xe
 2265 000b 55       		.uleb128 0x55
 2266 000c 17       		.uleb128 0x17
 2267 000d 11       		.uleb128 0x11
 2268 000e 01       		.uleb128 0x1
 2269 000f 10       		.uleb128 0x10
 2270 0010 17       		.uleb128 0x17
 2271 0011 00       		.byte	0
 2272 0012 00       		.byte	0
 2273 0013 02       		.uleb128 0x2
 2274 0014 24       		.uleb128 0x24
 2275 0015 00       		.byte	0
 2276 0016 0B       		.uleb128 0xb
 2277 0017 0B       		.uleb128 0xb
 2278 0018 3E       		.uleb128 0x3e
 2279 0019 0B       		.uleb128 0xb
 2280 001a 03       		.uleb128 0x3
 2281 001b 08       		.uleb128 0x8
 2282 001c 00       		.byte	0
 2283 001d 00       		.byte	0
 2284 001e 03       		.uleb128 0x3
 2285 001f 24       		.uleb128 0x24
 2286 0020 00       		.byte	0
 2287 0021 0B       		.uleb128 0xb
 2288 0022 0B       		.uleb128 0xb
 2289 0023 3E       		.uleb128 0x3e
 2290 0024 0B       		.uleb128 0xb
 2291 0025 03       		.uleb128 0x3
 2292 0026 0E       		.uleb128 0xe
 2293 0027 00       		.byte	0
 2294 0028 00       		.byte	0
 2295 0029 04       		.uleb128 0x4
 2296 002a 16       		.uleb128 0x16
 2297 002b 00       		.byte	0
 2298 002c 03       		.uleb128 0x3
 2299 002d 0E       		.uleb128 0xe
 2300 002e 3A       		.uleb128 0x3a
 2301 002f 0B       		.uleb128 0xb
 2302 0030 3B       		.uleb128 0x3b
 2303 0031 0B       		.uleb128 0xb
 2304 0032 49       		.uleb128 0x49
 2305 0033 13       		.uleb128 0x13
 2306 0034 00       		.byte	0
 2307 0035 00       		.byte	0
 2308 0036 05       		.uleb128 0x5
 2309 0037 35       		.uleb128 0x35
ARM GAS  /tmp/ccRZ3kKI.s 			page 42


 2310 0038 00       		.byte	0
 2311 0039 49       		.uleb128 0x49
 2312 003a 13       		.uleb128 0x13
 2313 003b 00       		.byte	0
 2314 003c 00       		.byte	0
 2315 003d 06       		.uleb128 0x6
 2316 003e 0F       		.uleb128 0xf
 2317 003f 00       		.byte	0
 2318 0040 0B       		.uleb128 0xb
 2319 0041 0B       		.uleb128 0xb
 2320 0042 49       		.uleb128 0x49
 2321 0043 13       		.uleb128 0x13
 2322 0044 00       		.byte	0
 2323 0045 00       		.byte	0
 2324 0046 07       		.uleb128 0x7
 2325 0047 26       		.uleb128 0x26
 2326 0048 00       		.byte	0
 2327 0049 49       		.uleb128 0x49
 2328 004a 13       		.uleb128 0x13
 2329 004b 00       		.byte	0
 2330 004c 00       		.byte	0
 2331 004d 08       		.uleb128 0x8
 2332 004e 01       		.uleb128 0x1
 2333 004f 01       		.byte	0x1
 2334 0050 49       		.uleb128 0x49
 2335 0051 13       		.uleb128 0x13
 2336 0052 01       		.uleb128 0x1
 2337 0053 13       		.uleb128 0x13
 2338 0054 00       		.byte	0
 2339 0055 00       		.byte	0
 2340 0056 09       		.uleb128 0x9
 2341 0057 21       		.uleb128 0x21
 2342 0058 00       		.byte	0
 2343 0059 49       		.uleb128 0x49
 2344 005a 13       		.uleb128 0x13
 2345 005b 2F       		.uleb128 0x2f
 2346 005c 0B       		.uleb128 0xb
 2347 005d 00       		.byte	0
 2348 005e 00       		.byte	0
 2349 005f 0A       		.uleb128 0xa
 2350 0060 13       		.uleb128 0x13
 2351 0061 01       		.byte	0x1
 2352 0062 0B       		.uleb128 0xb
 2353 0063 0B       		.uleb128 0xb
 2354 0064 3A       		.uleb128 0x3a
 2355 0065 0B       		.uleb128 0xb
 2356 0066 3B       		.uleb128 0x3b
 2357 0067 05       		.uleb128 0x5
 2358 0068 01       		.uleb128 0x1
 2359 0069 13       		.uleb128 0x13
 2360 006a 00       		.byte	0
 2361 006b 00       		.byte	0
 2362 006c 0B       		.uleb128 0xb
 2363 006d 0D       		.uleb128 0xd
 2364 006e 00       		.byte	0
 2365 006f 03       		.uleb128 0x3
 2366 0070 08       		.uleb128 0x8
ARM GAS  /tmp/ccRZ3kKI.s 			page 43


 2367 0071 3A       		.uleb128 0x3a
 2368 0072 0B       		.uleb128 0xb
 2369 0073 3B       		.uleb128 0x3b
 2370 0074 05       		.uleb128 0x5
 2371 0075 49       		.uleb128 0x49
 2372 0076 13       		.uleb128 0x13
 2373 0077 38       		.uleb128 0x38
 2374 0078 0B       		.uleb128 0xb
 2375 0079 00       		.byte	0
 2376 007a 00       		.byte	0
 2377 007b 0C       		.uleb128 0xc
 2378 007c 0D       		.uleb128 0xd
 2379 007d 00       		.byte	0
 2380 007e 03       		.uleb128 0x3
 2381 007f 0E       		.uleb128 0xe
 2382 0080 3A       		.uleb128 0x3a
 2383 0081 0B       		.uleb128 0xb
 2384 0082 3B       		.uleb128 0x3b
 2385 0083 05       		.uleb128 0x5
 2386 0084 49       		.uleb128 0x49
 2387 0085 13       		.uleb128 0x13
 2388 0086 38       		.uleb128 0x38
 2389 0087 0B       		.uleb128 0xb
 2390 0088 00       		.byte	0
 2391 0089 00       		.byte	0
 2392 008a 0D       		.uleb128 0xd
 2393 008b 16       		.uleb128 0x16
 2394 008c 00       		.byte	0
 2395 008d 03       		.uleb128 0x3
 2396 008e 0E       		.uleb128 0xe
 2397 008f 3A       		.uleb128 0x3a
 2398 0090 0B       		.uleb128 0xb
 2399 0091 3B       		.uleb128 0x3b
 2400 0092 05       		.uleb128 0x5
 2401 0093 49       		.uleb128 0x49
 2402 0094 13       		.uleb128 0x13
 2403 0095 00       		.byte	0
 2404 0096 00       		.byte	0
 2405 0097 0E       		.uleb128 0xe
 2406 0098 13       		.uleb128 0x13
 2407 0099 01       		.byte	0x1
 2408 009a 0B       		.uleb128 0xb
 2409 009b 0B       		.uleb128 0xb
 2410 009c 3A       		.uleb128 0x3a
 2411 009d 0B       		.uleb128 0xb
 2412 009e 3B       		.uleb128 0x3b
 2413 009f 0B       		.uleb128 0xb
 2414 00a0 01       		.uleb128 0x1
 2415 00a1 13       		.uleb128 0x13
 2416 00a2 00       		.byte	0
 2417 00a3 00       		.byte	0
 2418 00a4 0F       		.uleb128 0xf
 2419 00a5 0D       		.uleb128 0xd
 2420 00a6 00       		.byte	0
 2421 00a7 03       		.uleb128 0x3
 2422 00a8 08       		.uleb128 0x8
 2423 00a9 3A       		.uleb128 0x3a
ARM GAS  /tmp/ccRZ3kKI.s 			page 44


 2424 00aa 0B       		.uleb128 0xb
 2425 00ab 3B       		.uleb128 0x3b
 2426 00ac 0B       		.uleb128 0xb
 2427 00ad 49       		.uleb128 0x49
 2428 00ae 13       		.uleb128 0x13
 2429 00af 38       		.uleb128 0x38
 2430 00b0 0B       		.uleb128 0xb
 2431 00b1 00       		.byte	0
 2432 00b2 00       		.byte	0
 2433 00b3 10       		.uleb128 0x10
 2434 00b4 0D       		.uleb128 0xd
 2435 00b5 00       		.byte	0
 2436 00b6 03       		.uleb128 0x3
 2437 00b7 0E       		.uleb128 0xe
 2438 00b8 3A       		.uleb128 0x3a
 2439 00b9 0B       		.uleb128 0xb
 2440 00ba 3B       		.uleb128 0x3b
 2441 00bb 0B       		.uleb128 0xb
 2442 00bc 49       		.uleb128 0x49
 2443 00bd 13       		.uleb128 0x13
 2444 00be 38       		.uleb128 0x38
 2445 00bf 0B       		.uleb128 0xb
 2446 00c0 00       		.byte	0
 2447 00c1 00       		.byte	0
 2448 00c2 11       		.uleb128 0x11
 2449 00c3 04       		.uleb128 0x4
 2450 00c4 01       		.byte	0x1
 2451 00c5 0B       		.uleb128 0xb
 2452 00c6 0B       		.uleb128 0xb
 2453 00c7 3A       		.uleb128 0x3a
 2454 00c8 0B       		.uleb128 0xb
 2455 00c9 3B       		.uleb128 0x3b
 2456 00ca 0B       		.uleb128 0xb
 2457 00cb 01       		.uleb128 0x1
 2458 00cc 13       		.uleb128 0x13
 2459 00cd 00       		.byte	0
 2460 00ce 00       		.byte	0
 2461 00cf 12       		.uleb128 0x12
 2462 00d0 28       		.uleb128 0x28
 2463 00d1 00       		.byte	0
 2464 00d2 03       		.uleb128 0x3
 2465 00d3 0E       		.uleb128 0xe
 2466 00d4 1C       		.uleb128 0x1c
 2467 00d5 0D       		.uleb128 0xd
 2468 00d6 00       		.byte	0
 2469 00d7 00       		.byte	0
 2470 00d8 13       		.uleb128 0x13
 2471 00d9 13       		.uleb128 0x13
 2472 00da 01       		.byte	0x1
 2473 00db 03       		.uleb128 0x3
 2474 00dc 0E       		.uleb128 0xe
 2475 00dd 0B       		.uleb128 0xb
 2476 00de 0B       		.uleb128 0xb
 2477 00df 3A       		.uleb128 0x3a
 2478 00e0 0B       		.uleb128 0xb
 2479 00e1 3B       		.uleb128 0x3b
 2480 00e2 05       		.uleb128 0x5
ARM GAS  /tmp/ccRZ3kKI.s 			page 45


 2481 00e3 01       		.uleb128 0x1
 2482 00e4 13       		.uleb128 0x13
 2483 00e5 00       		.byte	0
 2484 00e6 00       		.byte	0
 2485 00e7 14       		.uleb128 0x14
 2486 00e8 15       		.uleb128 0x15
 2487 00e9 01       		.byte	0x1
 2488 00ea 27       		.uleb128 0x27
 2489 00eb 19       		.uleb128 0x19
 2490 00ec 01       		.uleb128 0x1
 2491 00ed 13       		.uleb128 0x13
 2492 00ee 00       		.byte	0
 2493 00ef 00       		.byte	0
 2494 00f0 15       		.uleb128 0x15
 2495 00f1 05       		.uleb128 0x5
 2496 00f2 00       		.byte	0
 2497 00f3 49       		.uleb128 0x49
 2498 00f4 13       		.uleb128 0x13
 2499 00f5 00       		.byte	0
 2500 00f6 00       		.byte	0
 2501 00f7 16       		.uleb128 0x16
 2502 00f8 2E       		.uleb128 0x2e
 2503 00f9 01       		.byte	0x1
 2504 00fa 03       		.uleb128 0x3
 2505 00fb 0E       		.uleb128 0xe
 2506 00fc 3A       		.uleb128 0x3a
 2507 00fd 0B       		.uleb128 0xb
 2508 00fe 3B       		.uleb128 0x3b
 2509 00ff 0B       		.uleb128 0xb
 2510 0100 27       		.uleb128 0x27
 2511 0101 19       		.uleb128 0x19
 2512 0102 11       		.uleb128 0x11
 2513 0103 01       		.uleb128 0x1
 2514 0104 12       		.uleb128 0x12
 2515 0105 06       		.uleb128 0x6
 2516 0106 40       		.uleb128 0x40
 2517 0107 18       		.uleb128 0x18
 2518 0108 9742     		.uleb128 0x2117
 2519 010a 19       		.uleb128 0x19
 2520 010b 01       		.uleb128 0x1
 2521 010c 13       		.uleb128 0x13
 2522 010d 00       		.byte	0
 2523 010e 00       		.byte	0
 2524 010f 17       		.uleb128 0x17
 2525 0110 05       		.uleb128 0x5
 2526 0111 00       		.byte	0
 2527 0112 03       		.uleb128 0x3
 2528 0113 0E       		.uleb128 0xe
 2529 0114 3A       		.uleb128 0x3a
 2530 0115 0B       		.uleb128 0xb
 2531 0116 3B       		.uleb128 0x3b
 2532 0117 0B       		.uleb128 0xb
 2533 0118 49       		.uleb128 0x49
 2534 0119 13       		.uleb128 0x13
 2535 011a 02       		.uleb128 0x2
 2536 011b 17       		.uleb128 0x17
 2537 011c 00       		.byte	0
ARM GAS  /tmp/ccRZ3kKI.s 			page 46


 2538 011d 00       		.byte	0
 2539 011e 18       		.uleb128 0x18
 2540 011f 34       		.uleb128 0x34
 2541 0120 00       		.byte	0
 2542 0121 03       		.uleb128 0x3
 2543 0122 08       		.uleb128 0x8
 2544 0123 3A       		.uleb128 0x3a
 2545 0124 0B       		.uleb128 0xb
 2546 0125 3B       		.uleb128 0x3b
 2547 0126 0B       		.uleb128 0xb
 2548 0127 49       		.uleb128 0x49
 2549 0128 13       		.uleb128 0x13
 2550 0129 02       		.uleb128 0x2
 2551 012a 17       		.uleb128 0x17
 2552 012b 00       		.byte	0
 2553 012c 00       		.byte	0
 2554 012d 19       		.uleb128 0x19
 2555 012e 0B       		.uleb128 0xb
 2556 012f 01       		.byte	0x1
 2557 0130 11       		.uleb128 0x11
 2558 0131 01       		.uleb128 0x1
 2559 0132 12       		.uleb128 0x12
 2560 0133 06       		.uleb128 0x6
 2561 0134 01       		.uleb128 0x1
 2562 0135 13       		.uleb128 0x13
 2563 0136 00       		.byte	0
 2564 0137 00       		.byte	0
 2565 0138 1A       		.uleb128 0x1a
 2566 0139 34       		.uleb128 0x34
 2567 013a 00       		.byte	0
 2568 013b 03       		.uleb128 0x3
 2569 013c 0E       		.uleb128 0xe
 2570 013d 3A       		.uleb128 0x3a
 2571 013e 0B       		.uleb128 0xb
 2572 013f 3B       		.uleb128 0x3b
 2573 0140 0B       		.uleb128 0xb
 2574 0141 49       		.uleb128 0x49
 2575 0142 13       		.uleb128 0x13
 2576 0143 02       		.uleb128 0x2
 2577 0144 17       		.uleb128 0x17
 2578 0145 00       		.byte	0
 2579 0146 00       		.byte	0
 2580 0147 1B       		.uleb128 0x1b
 2581 0148 898201   		.uleb128 0x4109
 2582 014b 01       		.byte	0x1
 2583 014c 11       		.uleb128 0x11
 2584 014d 01       		.uleb128 0x1
 2585 014e 00       		.byte	0
 2586 014f 00       		.byte	0
 2587 0150 1C       		.uleb128 0x1c
 2588 0151 8A8201   		.uleb128 0x410a
 2589 0154 00       		.byte	0
 2590 0155 02       		.uleb128 0x2
 2591 0156 18       		.uleb128 0x18
 2592 0157 9142     		.uleb128 0x2111
 2593 0159 18       		.uleb128 0x18
 2594 015a 00       		.byte	0
ARM GAS  /tmp/ccRZ3kKI.s 			page 47


 2595 015b 00       		.byte	0
 2596 015c 1D       		.uleb128 0x1d
 2597 015d 898201   		.uleb128 0x4109
 2598 0160 01       		.byte	0x1
 2599 0161 11       		.uleb128 0x11
 2600 0162 01       		.uleb128 0x1
 2601 0163 01       		.uleb128 0x1
 2602 0164 13       		.uleb128 0x13
 2603 0165 00       		.byte	0
 2604 0166 00       		.byte	0
 2605 0167 1E       		.uleb128 0x1e
 2606 0168 2E       		.uleb128 0x2e
 2607 0169 01       		.byte	0x1
 2608 016a 3F       		.uleb128 0x3f
 2609 016b 19       		.uleb128 0x19
 2610 016c 03       		.uleb128 0x3
 2611 016d 0E       		.uleb128 0xe
 2612 016e 3A       		.uleb128 0x3a
 2613 016f 0B       		.uleb128 0xb
 2614 0170 3B       		.uleb128 0x3b
 2615 0171 0B       		.uleb128 0xb
 2616 0172 27       		.uleb128 0x27
 2617 0173 19       		.uleb128 0x19
 2618 0174 11       		.uleb128 0x11
 2619 0175 01       		.uleb128 0x1
 2620 0176 12       		.uleb128 0x12
 2621 0177 06       		.uleb128 0x6
 2622 0178 40       		.uleb128 0x40
 2623 0179 18       		.uleb128 0x18
 2624 017a 9742     		.uleb128 0x2117
 2625 017c 19       		.uleb128 0x19
 2626 017d 01       		.uleb128 0x1
 2627 017e 13       		.uleb128 0x13
 2628 017f 00       		.byte	0
 2629 0180 00       		.byte	0
 2630 0181 1F       		.uleb128 0x1f
 2631 0182 898201   		.uleb128 0x4109
 2632 0185 00       		.byte	0
 2633 0186 11       		.uleb128 0x11
 2634 0187 01       		.uleb128 0x1
 2635 0188 31       		.uleb128 0x31
 2636 0189 13       		.uleb128 0x13
 2637 018a 00       		.byte	0
 2638 018b 00       		.byte	0
 2639 018c 20       		.uleb128 0x20
 2640 018d 898201   		.uleb128 0x4109
 2641 0190 01       		.byte	0x1
 2642 0191 11       		.uleb128 0x11
 2643 0192 01       		.uleb128 0x1
 2644 0193 31       		.uleb128 0x31
 2645 0194 13       		.uleb128 0x13
 2646 0195 01       		.uleb128 0x1
 2647 0196 13       		.uleb128 0x13
 2648 0197 00       		.byte	0
 2649 0198 00       		.byte	0
 2650 0199 21       		.uleb128 0x21
 2651 019a 898201   		.uleb128 0x4109
ARM GAS  /tmp/ccRZ3kKI.s 			page 48


 2652 019d 00       		.byte	0
 2653 019e 11       		.uleb128 0x11
 2654 019f 01       		.uleb128 0x1
 2655 01a0 9542     		.uleb128 0x2115
 2656 01a2 19       		.uleb128 0x19
 2657 01a3 31       		.uleb128 0x31
 2658 01a4 13       		.uleb128 0x13
 2659 01a5 00       		.byte	0
 2660 01a6 00       		.byte	0
 2661 01a7 22       		.uleb128 0x22
 2662 01a8 2E       		.uleb128 0x2e
 2663 01a9 01       		.byte	0x1
 2664 01aa 3F       		.uleb128 0x3f
 2665 01ab 19       		.uleb128 0x19
 2666 01ac 03       		.uleb128 0x3
 2667 01ad 0E       		.uleb128 0xe
 2668 01ae 3A       		.uleb128 0x3a
 2669 01af 0B       		.uleb128 0xb
 2670 01b0 3B       		.uleb128 0x3b
 2671 01b1 05       		.uleb128 0x5
 2672 01b2 27       		.uleb128 0x27
 2673 01b3 19       		.uleb128 0x19
 2674 01b4 11       		.uleb128 0x11
 2675 01b5 01       		.uleb128 0x1
 2676 01b6 12       		.uleb128 0x12
 2677 01b7 06       		.uleb128 0x6
 2678 01b8 40       		.uleb128 0x40
 2679 01b9 18       		.uleb128 0x18
 2680 01ba 9742     		.uleb128 0x2117
 2681 01bc 19       		.uleb128 0x19
 2682 01bd 01       		.uleb128 0x1
 2683 01be 13       		.uleb128 0x13
 2684 01bf 00       		.byte	0
 2685 01c0 00       		.byte	0
 2686 01c1 23       		.uleb128 0x23
 2687 01c2 898201   		.uleb128 0x4109
 2688 01c5 01       		.byte	0x1
 2689 01c6 11       		.uleb128 0x11
 2690 01c7 01       		.uleb128 0x1
 2691 01c8 31       		.uleb128 0x31
 2692 01c9 13       		.uleb128 0x13
 2693 01ca 00       		.byte	0
 2694 01cb 00       		.byte	0
 2695 01cc 24       		.uleb128 0x24
 2696 01cd 05       		.uleb128 0x5
 2697 01ce 00       		.byte	0
 2698 01cf 03       		.uleb128 0x3
 2699 01d0 0E       		.uleb128 0xe
 2700 01d1 3A       		.uleb128 0x3a
 2701 01d2 0B       		.uleb128 0xb
 2702 01d3 3B       		.uleb128 0x3b
 2703 01d4 05       		.uleb128 0x5
 2704 01d5 49       		.uleb128 0x49
 2705 01d6 13       		.uleb128 0x13
 2706 01d7 02       		.uleb128 0x2
 2707 01d8 17       		.uleb128 0x17
 2708 01d9 00       		.byte	0
ARM GAS  /tmp/ccRZ3kKI.s 			page 49


 2709 01da 00       		.byte	0
 2710 01db 25       		.uleb128 0x25
 2711 01dc 34       		.uleb128 0x34
 2712 01dd 00       		.byte	0
 2713 01de 03       		.uleb128 0x3
 2714 01df 08       		.uleb128 0x8
 2715 01e0 3A       		.uleb128 0x3a
 2716 01e1 0B       		.uleb128 0xb
 2717 01e2 3B       		.uleb128 0x3b
 2718 01e3 05       		.uleb128 0x5
 2719 01e4 49       		.uleb128 0x49
 2720 01e5 13       		.uleb128 0x13
 2721 01e6 02       		.uleb128 0x2
 2722 01e7 17       		.uleb128 0x17
 2723 01e8 00       		.byte	0
 2724 01e9 00       		.byte	0
 2725 01ea 26       		.uleb128 0x26
 2726 01eb 05       		.uleb128 0x5
 2727 01ec 00       		.byte	0
 2728 01ed 03       		.uleb128 0x3
 2729 01ee 0E       		.uleb128 0xe
 2730 01ef 3A       		.uleb128 0x3a
 2731 01f0 0B       		.uleb128 0xb
 2732 01f1 3B       		.uleb128 0x3b
 2733 01f2 05       		.uleb128 0x5
 2734 01f3 49       		.uleb128 0x49
 2735 01f4 13       		.uleb128 0x13
 2736 01f5 02       		.uleb128 0x2
 2737 01f6 18       		.uleb128 0x18
 2738 01f7 00       		.byte	0
 2739 01f8 00       		.byte	0
 2740 01f9 27       		.uleb128 0x27
 2741 01fa 34       		.uleb128 0x34
 2742 01fb 00       		.byte	0
 2743 01fc 03       		.uleb128 0x3
 2744 01fd 0E       		.uleb128 0xe
 2745 01fe 3A       		.uleb128 0x3a
 2746 01ff 0B       		.uleb128 0xb
 2747 0200 3B       		.uleb128 0x3b
 2748 0201 05       		.uleb128 0x5
 2749 0202 49       		.uleb128 0x49
 2750 0203 13       		.uleb128 0x13
 2751 0204 3F       		.uleb128 0x3f
 2752 0205 19       		.uleb128 0x19
 2753 0206 3C       		.uleb128 0x3c
 2754 0207 19       		.uleb128 0x19
 2755 0208 00       		.byte	0
 2756 0209 00       		.byte	0
 2757 020a 28       		.uleb128 0x28
 2758 020b 34       		.uleb128 0x34
 2759 020c 00       		.byte	0
 2760 020d 03       		.uleb128 0x3
 2761 020e 0E       		.uleb128 0xe
 2762 020f 3A       		.uleb128 0x3a
 2763 0210 0B       		.uleb128 0xb
 2764 0211 3B       		.uleb128 0x3b
 2765 0212 0B       		.uleb128 0xb
ARM GAS  /tmp/ccRZ3kKI.s 			page 50


 2766 0213 49       		.uleb128 0x49
 2767 0214 13       		.uleb128 0x13
 2768 0215 3F       		.uleb128 0x3f
 2769 0216 19       		.uleb128 0x19
 2770 0217 02       		.uleb128 0x2
 2771 0218 18       		.uleb128 0x18
 2772 0219 00       		.byte	0
 2773 021a 00       		.byte	0
 2774 021b 29       		.uleb128 0x29
 2775 021c 2E       		.uleb128 0x2e
 2776 021d 00       		.byte	0
 2777 021e 3F       		.uleb128 0x3f
 2778 021f 19       		.uleb128 0x19
 2779 0220 03       		.uleb128 0x3
 2780 0221 0E       		.uleb128 0xe
 2781 0222 3A       		.uleb128 0x3a
 2782 0223 0B       		.uleb128 0xb
 2783 0224 3B       		.uleb128 0x3b
 2784 0225 0B       		.uleb128 0xb
 2785 0226 27       		.uleb128 0x27
 2786 0227 19       		.uleb128 0x19
 2787 0228 3C       		.uleb128 0x3c
 2788 0229 19       		.uleb128 0x19
 2789 022a 00       		.byte	0
 2790 022b 00       		.byte	0
 2791 022c 2A       		.uleb128 0x2a
 2792 022d 2E       		.uleb128 0x2e
 2793 022e 00       		.byte	0
 2794 022f 3F       		.uleb128 0x3f
 2795 0230 19       		.uleb128 0x19
 2796 0231 03       		.uleb128 0x3
 2797 0232 0E       		.uleb128 0xe
 2798 0233 3A       		.uleb128 0x3a
 2799 0234 0B       		.uleb128 0xb
 2800 0235 3B       		.uleb128 0x3b
 2801 0236 05       		.uleb128 0x5
 2802 0237 27       		.uleb128 0x27
 2803 0238 19       		.uleb128 0x19
 2804 0239 3C       		.uleb128 0x3c
 2805 023a 19       		.uleb128 0x19
 2806 023b 00       		.byte	0
 2807 023c 00       		.byte	0
 2808 023d 2B       		.uleb128 0x2b
 2809 023e 2E       		.uleb128 0x2e
 2810 023f 01       		.byte	0x1
 2811 0240 3F       		.uleb128 0x3f
 2812 0241 19       		.uleb128 0x19
 2813 0242 03       		.uleb128 0x3
 2814 0243 0E       		.uleb128 0xe
 2815 0244 3A       		.uleb128 0x3a
 2816 0245 0B       		.uleb128 0xb
 2817 0246 3B       		.uleb128 0x3b
 2818 0247 0B       		.uleb128 0xb
 2819 0248 27       		.uleb128 0x27
 2820 0249 19       		.uleb128 0x19
 2821 024a 3C       		.uleb128 0x3c
 2822 024b 19       		.uleb128 0x19
ARM GAS  /tmp/ccRZ3kKI.s 			page 51


 2823 024c 01       		.uleb128 0x1
 2824 024d 13       		.uleb128 0x13
 2825 024e 00       		.byte	0
 2826 024f 00       		.byte	0
 2827 0250 2C       		.uleb128 0x2c
 2828 0251 2E       		.uleb128 0x2e
 2829 0252 01       		.byte	0x1
 2830 0253 3F       		.uleb128 0x3f
 2831 0254 19       		.uleb128 0x19
 2832 0255 03       		.uleb128 0x3
 2833 0256 0E       		.uleb128 0xe
 2834 0257 3A       		.uleb128 0x3a
 2835 0258 0B       		.uleb128 0xb
 2836 0259 3B       		.uleb128 0x3b
 2837 025a 05       		.uleb128 0x5
 2838 025b 27       		.uleb128 0x27
 2839 025c 19       		.uleb128 0x19
 2840 025d 3C       		.uleb128 0x3c
 2841 025e 19       		.uleb128 0x19
 2842 025f 01       		.uleb128 0x1
 2843 0260 13       		.uleb128 0x13
 2844 0261 00       		.byte	0
 2845 0262 00       		.byte	0
 2846 0263 2D       		.uleb128 0x2d
 2847 0264 2E       		.uleb128 0x2e
 2848 0265 01       		.byte	0x1
 2849 0266 3F       		.uleb128 0x3f
 2850 0267 19       		.uleb128 0x19
 2851 0268 03       		.uleb128 0x3
 2852 0269 0E       		.uleb128 0xe
 2853 026a 3A       		.uleb128 0x3a
 2854 026b 0B       		.uleb128 0xb
 2855 026c 3B       		.uleb128 0x3b
 2856 026d 05       		.uleb128 0x5
 2857 026e 27       		.uleb128 0x27
 2858 026f 19       		.uleb128 0x19
 2859 0270 3C       		.uleb128 0x3c
 2860 0271 19       		.uleb128 0x19
 2861 0272 00       		.byte	0
 2862 0273 00       		.byte	0
 2863 0274 00       		.byte	0
 2864              		.section	.debug_loc,"",%progbits
 2865              	.Ldebug_loc0:
 2866              	.LLST0:
 2867 0000 00000000 		.4byte	.LVL0
 2868 0004 2B000000 		.4byte	.LVL6-1
 2869 0008 0100     		.2byte	0x1
 2870 000a 50       		.byte	0x50
 2871 000b 2B000000 		.4byte	.LVL6-1
 2872 000f 3E000000 		.4byte	.LVL8
 2873 0013 0100     		.2byte	0x1
 2874 0015 54       		.byte	0x54
 2875 0016 3E000000 		.4byte	.LVL8
 2876 001a 46000000 		.4byte	.LVL9
 2877 001e 0100     		.2byte	0x1
 2878 0020 50       		.byte	0x50
 2879 0021 46000000 		.4byte	.LVL9
ARM GAS  /tmp/ccRZ3kKI.s 			page 52


 2880 0025 5A000000 		.4byte	.LVL14
 2881 0029 0100     		.2byte	0x1
 2882 002b 54       		.byte	0x54
 2883 002c 5A000000 		.4byte	.LVL14
 2884 0030 61000000 		.4byte	.LVL15-1
 2885 0034 0100     		.2byte	0x1
 2886 0036 50       		.byte	0x50
 2887 0037 61000000 		.4byte	.LVL15-1
 2888 003b 76000000 		.4byte	.LFE118
 2889 003f 0100     		.2byte	0x1
 2890 0041 54       		.byte	0x54
 2891 0042 00000000 		.4byte	0
 2892 0046 00000000 		.4byte	0
 2893              	.LLST1:
 2894 004a 08000000 		.4byte	.LVL1
 2895 004e 10000000 		.4byte	.LVL2
 2896 0052 0100     		.2byte	0x1
 2897 0054 56       		.byte	0x56
 2898 0055 10000000 		.4byte	.LVL2
 2899 0059 76000000 		.4byte	.LFE118
 2900 005d 0100     		.2byte	0x1
 2901 005f 55       		.byte	0x55
 2902 0060 00000000 		.4byte	0
 2903 0064 00000000 		.4byte	0
 2904              	.LLST2:
 2905 0068 20000000 		.4byte	.LVL3
 2906 006c 26000000 		.4byte	.LVL4
 2907 0070 0200     		.2byte	0x2
 2908 0072 70       		.byte	0x70
 2909 0073 00       		.sleb128 0
 2910 0074 26000000 		.4byte	.LVL4
 2911 0078 2A000000 		.4byte	.LVL5
 2912 007c 0100     		.2byte	0x1
 2913 007e 53       		.byte	0x53
 2914 007f 00000000 		.4byte	0
 2915 0083 00000000 		.4byte	0
 2916              	.LLST3:
 2917 0087 48000000 		.4byte	.LVL10
 2918 008b 4E000000 		.4byte	.LVL11
 2919 008f 0200     		.2byte	0x2
 2920 0091 74       		.byte	0x74
 2921 0092 00       		.sleb128 0
 2922 0093 4E000000 		.4byte	.LVL11
 2923 0097 52000000 		.4byte	.LVL12
 2924 009b 0100     		.2byte	0x1
 2925 009d 53       		.byte	0x53
 2926 009e 00000000 		.4byte	0
 2927 00a2 00000000 		.4byte	0
 2928              	.LLST4:
 2929 00a6 00000000 		.4byte	.LVL45
 2930 00aa 0E000000 		.4byte	.LVL46
 2931 00ae 0100     		.2byte	0x1
 2932 00b0 50       		.byte	0x50
 2933 00b1 0E000000 		.4byte	.LVL46
 2934 00b5 68010000 		.4byte	.LFE126
 2935 00b9 0100     		.2byte	0x1
 2936 00bb 54       		.byte	0x54
ARM GAS  /tmp/ccRZ3kKI.s 			page 53


 2937 00bc 00000000 		.4byte	0
 2938 00c0 00000000 		.4byte	0
 2939              	.LLST5:
 2940 00c4 34000000 		.4byte	.LVL48
 2941 00c8 52000000 		.4byte	.LVL50
 2942 00cc 0100     		.2byte	0x1
 2943 00ce 55       		.byte	0x55
 2944 00cf 00000000 		.4byte	0
 2945 00d3 00000000 		.4byte	0
 2946              	.LLST6:
 2947 00d7 00000000 		.4byte	.LVL58
 2948 00db 08000000 		.4byte	.LVL59
 2949 00df 0100     		.2byte	0x1
 2950 00e1 50       		.byte	0x50
 2951 00e2 08000000 		.4byte	.LVL59
 2952 00e6 0A000000 		.4byte	.LVL60
 2953 00ea 0400     		.2byte	0x4
 2954 00ec F3       		.byte	0xf3
 2955 00ed 01       		.uleb128 0x1
 2956 00ee 50       		.byte	0x50
 2957 00ef 9F       		.byte	0x9f
 2958 00f0 0A000000 		.4byte	.LVL60
 2959 00f4 2E000000 		.4byte	.LVL61
 2960 00f8 0100     		.2byte	0x1
 2961 00fa 50       		.byte	0x50
 2962 00fb 2E000000 		.4byte	.LVL61
 2963 00ff 44000000 		.4byte	.LVL64
 2964 0103 0400     		.2byte	0x4
 2965 0105 F3       		.byte	0xf3
 2966 0106 01       		.uleb128 0x1
 2967 0107 50       		.byte	0x50
 2968 0108 9F       		.byte	0x9f
 2969 0109 44000000 		.4byte	.LVL64
 2970 010d 46000000 		.4byte	.LVL65
 2971 0111 0100     		.2byte	0x1
 2972 0113 50       		.byte	0x50
 2973 0114 46000000 		.4byte	.LVL65
 2974 0118 5C000000 		.4byte	.LVL68
 2975 011c 0400     		.2byte	0x4
 2976 011e F3       		.byte	0xf3
 2977 011f 01       		.uleb128 0x1
 2978 0120 50       		.byte	0x50
 2979 0121 9F       		.byte	0x9f
 2980 0122 5C000000 		.4byte	.LVL68
 2981 0126 5E000000 		.4byte	.LVL69
 2982 012a 0100     		.2byte	0x1
 2983 012c 50       		.byte	0x50
 2984 012d 5E000000 		.4byte	.LVL69
 2985 0131 6E000000 		.4byte	.LVL71
 2986 0135 0400     		.2byte	0x4
 2987 0137 F3       		.byte	0xf3
 2988 0138 01       		.uleb128 0x1
 2989 0139 50       		.byte	0x50
 2990 013a 9F       		.byte	0x9f
 2991 013b 6E000000 		.4byte	.LVL71
 2992 013f 70000000 		.4byte	.LVL72
 2993 0143 0100     		.2byte	0x1
ARM GAS  /tmp/ccRZ3kKI.s 			page 54


 2994 0145 50       		.byte	0x50
 2995 0146 70000000 		.4byte	.LVL72
 2996 014a 94000000 		.4byte	.LFE127
 2997 014e 0400     		.2byte	0x4
 2998 0150 F3       		.byte	0xf3
 2999 0151 01       		.uleb128 0x1
 3000 0152 50       		.byte	0x50
 3001 0153 9F       		.byte	0x9f
 3002 0154 00000000 		.4byte	0
 3003 0158 00000000 		.4byte	0
 3004              		.section	.debug_aranges,"",%progbits
 3005 0000 74000000 		.4byte	0x74
 3006 0004 0200     		.2byte	0x2
 3007 0006 00000000 		.4byte	.Ldebug_info0
 3008 000a 04       		.byte	0x4
 3009 000b 00       		.byte	0
 3010 000c 0000     		.2byte	0
 3011 000e 0000     		.2byte	0
 3012 0010 00000000 		.4byte	.LFB118
 3013 0014 76000000 		.4byte	.LFE118-.LFB118
 3014 0018 00000000 		.4byte	.LFB119
 3015 001c 1C000000 		.4byte	.LFE119-.LFB119
 3016 0020 00000000 		.4byte	.LFB120
 3017 0024 1C000000 		.4byte	.LFE120-.LFB120
 3018 0028 00000000 		.4byte	.LFB121
 3019 002c 1C000000 		.4byte	.LFE121-.LFB121
 3020 0030 00000000 		.4byte	.LFB122
 3021 0034 1C000000 		.4byte	.LFE122-.LFB122
 3022 0038 00000000 		.4byte	.LFB123
 3023 003c 1C000000 		.4byte	.LFE123-.LFB123
 3024 0040 00000000 		.4byte	.LFB124
 3025 0044 1C000000 		.4byte	.LFE124-.LFB124
 3026 0048 00000000 		.4byte	.LFB125
 3027 004c 54000000 		.4byte	.LFE125-.LFB125
 3028 0050 00000000 		.4byte	.LFB126
 3029 0054 68010000 		.4byte	.LFE126-.LFB126
 3030 0058 00000000 		.4byte	.LFB127
 3031 005c 94000000 		.4byte	.LFE127-.LFB127
 3032 0060 00000000 		.4byte	.LFB128
 3033 0064 58000000 		.4byte	.LFE128-.LFB128
 3034 0068 00000000 		.4byte	.LFB129
 3035 006c 0C000000 		.4byte	.LFE129-.LFB129
 3036 0070 00000000 		.4byte	0
 3037 0074 00000000 		.4byte	0
 3038              		.section	.debug_ranges,"",%progbits
 3039              	.Ldebug_ranges0:
 3040 0000 00000000 		.4byte	.LFB118
 3041 0004 76000000 		.4byte	.LFE118
 3042 0008 00000000 		.4byte	.LFB119
 3043 000c 1C000000 		.4byte	.LFE119
 3044 0010 00000000 		.4byte	.LFB120
 3045 0014 1C000000 		.4byte	.LFE120
 3046 0018 00000000 		.4byte	.LFB121
 3047 001c 1C000000 		.4byte	.LFE121
 3048 0020 00000000 		.4byte	.LFB122
 3049 0024 1C000000 		.4byte	.LFE122
 3050 0028 00000000 		.4byte	.LFB123
ARM GAS  /tmp/ccRZ3kKI.s 			page 55


 3051 002c 1C000000 		.4byte	.LFE123
 3052 0030 00000000 		.4byte	.LFB124
 3053 0034 1C000000 		.4byte	.LFE124
 3054 0038 00000000 		.4byte	.LFB125
 3055 003c 54000000 		.4byte	.LFE125
 3056 0040 00000000 		.4byte	.LFB126
 3057 0044 68010000 		.4byte	.LFE126
 3058 0048 00000000 		.4byte	.LFB127
 3059 004c 94000000 		.4byte	.LFE127
 3060 0050 00000000 		.4byte	.LFB128
 3061 0054 58000000 		.4byte	.LFE128
 3062 0058 00000000 		.4byte	.LFB129
 3063 005c 0C000000 		.4byte	.LFE129
 3064 0060 00000000 		.4byte	0
 3065 0064 00000000 		.4byte	0
 3066              		.section	.debug_line,"",%progbits
 3067              	.Ldebug_line0:
 3068 0000 A1030000 		.section	.debug_str,"MS",%progbits,1
 3068      0200CC01 
 3068      00000201 
 3068      FB0E0D00 
 3068      01010101 
 3069              	.LASF66:
 3070 0000 4943555F 		.ascii	"ICU_INPUT_ACTIVE_HIGH\000"
 3070      494E5055 
 3070      545F4143 
 3070      54495645 
 3070      5F484947 
 3071              	.LASF77:
 3072 0016 6F766572 		.ascii	"overflow_cb\000"
 3072      666C6F77 
 3072      5F636200 
 3073              	.LASF52:
 3074 0022 4943555F 		.ascii	"ICU_UNINIT\000"
 3074      554E494E 
 3074      495400
 3075              	.LASF33:
 3076 002d 44494552 		.ascii	"DIER\000"
 3076      00
 3077              	.LASF102:
 3078 0032 63684462 		.ascii	"chDbgPanic\000"
 3078      6750616E 
 3078      696300
 3079              	.LASF29:
 3080 003d 5F726573 		.ascii	"_resvd0\000"
 3080      76643000 
 3081              	.LASF30:
 3082 0045 5F726573 		.ascii	"_resvd1\000"
 3082      76643100 
 3083              	.LASF56:
 3084 004d 4943555F 		.ascii	"ICU_ACTIVE\000"
 3084      41435449 
 3084      564500
 3085              	.LASF82:
 3086 0058 56656374 		.ascii	"VectorAC\000"
 3086      6F724143 
 3086      00
ARM GAS  /tmp/ccRZ3kKI.s 			page 56


 3087              	.LASF35:
 3088 0061 5F726573 		.ascii	"_resvd4\000"
 3088      76643400 
 3089              	.LASF36:
 3090 0069 5F726573 		.ascii	"_resvd5\000"
 3090      76643500 
 3091              	.LASF38:
 3092 0071 5F726573 		.ascii	"_resvd6\000"
 3092      76643600 
 3093              	.LASF40:
 3094 0079 5F726573 		.ascii	"_resvd7\000"
 3094      76643700 
 3095              	.LASF42:
 3096 0081 5F726573 		.ascii	"_resvd8\000"
 3096      76643800 
 3097              	.LASF43:
 3098 0089 5F726573 		.ascii	"_resvd9\000"
 3098      76643900 
 3099              	.LASF46:
 3100 0091 5F726573 		.ascii	"_resvd11\000"
 3100      76643131 
 3100      00
 3101              	.LASF58:
 3102 009a 69637573 		.ascii	"icustate_t\000"
 3102      74617465 
 3102      5F7400
 3103              	.LASF49:
 3104 00a5 5F726573 		.ascii	"_resvd13\000"
 3104      76643133 
 3104      00
 3105              	.LASF11:
 3106 00ae 6C6F6E67 		.ascii	"long long unsigned int\000"
 3106      206C6F6E 
 3106      6720756E 
 3106      7369676E 
 3106      65642069 
 3107              	.LASF93:
 3108 00c5 49544D5F 		.ascii	"ITM_RxBuffer\000"
 3108      52784275 
 3108      66666572 
 3108      00
 3109              	.LASF45:
 3110 00d2 42445452 		.ascii	"BDTR\000"
 3110      00
 3111              	.LASF74:
 3112 00d7 66726571 		.ascii	"frequency\000"
 3112      75656E63 
 3112      7900
 3113              	.LASF57:
 3114 00e1 4943555F 		.ascii	"ICU_IDLE\000"
 3114      49444C45 
 3114      00
 3115              	.LASF103:
 3116 00ea 6E766963 		.ascii	"nvicEnableVector\000"
 3116      456E6162 
 3116      6C655665 
 3116      63746F72 
ARM GAS  /tmp/ccRZ3kKI.s 			page 57


 3116      00
 3117              	.LASF37:
 3118 00fb 43434D52 		.ascii	"CCMR1\000"
 3118      3100
 3119              	.LASF39:
 3120 0101 43434D52 		.ascii	"CCMR2\000"
 3120      3200
 3121              	.LASF10:
 3122 0107 6C6F6E67 		.ascii	"long long int\000"
 3122      206C6F6E 
 3122      6720696E 
 3122      7400
 3123              	.LASF1:
 3124 0115 7369676E 		.ascii	"signed char\000"
 3124      65642063 
 3124      68617200 
 3125              	.LASF83:
 3126 0121 56656374 		.ascii	"VectorB4\000"
 3126      6F724234 
 3126      00
 3127              	.LASF44:
 3128 012a 5F726573 		.ascii	"_resvd10\000"
 3128      76643130 
 3128      00
 3129              	.LASF60:
 3130 0133 73746174 		.ascii	"state\000"
 3130      6500
 3131              	.LASF47:
 3132 0139 5F726573 		.ascii	"_resvd12\000"
 3132      76643132 
 3132      00
 3133              	.LASF7:
 3134 0142 6C6F6E67 		.ascii	"long int\000"
 3134      20696E74 
 3134      00
 3135              	.LASF50:
 3136 014b 5F726573 		.ascii	"_resvd14\000"
 3136      76643134 
 3136      00
 3137              	.LASF19:
 3138 0154 41504232 		.ascii	"APB2RSTR\000"
 3138      52535452 
 3138      00
 3139              	.LASF41:
 3140 015d 43434552 		.ascii	"CCER\000"
 3140      00
 3141              	.LASF12:
 3142 0162 75696E74 		.ascii	"uint16_t\000"
 3142      31365F74 
 3142      00
 3143              	.LASF79:
 3144 016b 49435543 		.ascii	"ICUConfig\000"
 3144      6F6E6669 
 3144      6700
 3145              	.LASF5:
 3146 0175 5F5F7569 		.ascii	"__uint16_t\000"
 3146      6E743136 
ARM GAS  /tmp/ccRZ3kKI.s 			page 58


 3146      5F7400
 3147              	.LASF105:
 3148 0180 2E2E2F2E 		.ascii	"../../../../os/hal/platforms/STM32/icu_lld.c\000"
 3148      2E2F2E2E 
 3148      2F2E2E2F 
 3148      6F732F68 
 3148      616C2F70 
 3149              	.LASF84:
 3150 01ad 56656374 		.ascii	"VectorB8\000"
 3150      6F724238 
 3150      00
 3151              	.LASF8:
 3152 01b6 5F5F7569 		.ascii	"__uint32_t\000"
 3152      6E743332 
 3152      5F7400
 3153              	.LASF98:
 3154 01c1 6462675F 		.ascii	"dbg_check_enter_isr\000"
 3154      63686563 
 3154      6B5F656E 
 3154      7465725F 
 3154      69737200 
 3155              	.LASF0:
 3156 01d5 756E7369 		.ascii	"unsigned int\000"
 3156      676E6564 
 3156      20696E74 
 3156      00
 3157              	.LASF94:
 3158 01e2 49435544 		.ascii	"ICUD1\000"
 3158      3100
 3159              	.LASF108:
 3160 01e8 6E766963 		.ascii	"nvicDisableVector\000"
 3160      44697361 
 3160      626C6556 
 3160      6563746F 
 3160      7200
 3161              	.LASF9:
 3162 01fa 6C6F6E67 		.ascii	"long unsigned int\000"
 3162      20756E73 
 3162      69676E65 
 3162      6420696E 
 3162      7400
 3163              	.LASF65:
 3164 020c 69637563 		.ascii	"icucallback_t\000"
 3164      616C6C62 
 3164      61636B5F 
 3164      7400
 3165              	.LASF28:
 3166 021a 5243435F 		.ascii	"RCC_TypeDef\000"
 3166      54797065 
 3166      44656600 
 3167              	.LASF76:
 3168 0226 70657269 		.ascii	"period_cb\000"
 3168      6F645F63 
 3168      6200
 3169              	.LASF107:
 3170 0230 6963755F 		.ascii	"icu_lld_serve_interrupt\000"
 3170      6C6C645F 
ARM GAS  /tmp/ccRZ3kKI.s 			page 59


 3170      73657276 
 3170      655F696E 
 3170      74657272 
 3171              	.LASF31:
 3172 0248 534D4352 		.ascii	"SMCR\000"
 3172      00
 3173              	.LASF100:
 3174 024d 5F706F72 		.ascii	"_port_irq_epilogue\000"
 3174      745F6972 
 3174      715F6570 
 3174      696C6F67 
 3174      756500
 3175              	.LASF59:
 3176 0260 49435544 		.ascii	"ICUDriver\000"
 3176      72697665 
 3176      7200
 3177              	.LASF51:
 3178 026a 73746D33 		.ascii	"stm32_tim_t\000"
 3178      325F7469 
 3178      6D5F7400 
 3179              	.LASF64:
 3180 0276 70636372 		.ascii	"pccrp\000"
 3180      7000
 3181              	.LASF55:
 3182 027c 4943555F 		.ascii	"ICU_WAITING\000"
 3182      57414954 
 3182      494E4700 
 3183              	.LASF54:
 3184 0288 4943555F 		.ascii	"ICU_READY\000"
 3184      52454144 
 3184      5900
 3185              	.LASF16:
 3186 0292 73697A65 		.ascii	"sizetype\000"
 3186      74797065 
 3186      00
 3187              	.LASF75:
 3188 029b 77696474 		.ascii	"width_cb\000"
 3188      685F6362 
 3188      00
 3189              	.LASF53:
 3190 02a4 4943555F 		.ascii	"ICU_STOP\000"
 3190      53544F50 
 3190      00
 3191              	.LASF67:
 3192 02ad 4943555F 		.ascii	"ICU_INPUT_ACTIVE_LOW\000"
 3192      494E5055 
 3192      545F4143 
 3192      54495645 
 3192      5F4C4F57 
 3193              	.LASF25:
 3194 02c2 41484252 		.ascii	"AHBRSTR\000"
 3194      53545200 
 3195              	.LASF20:
 3196 02ca 41504231 		.ascii	"APB1RSTR\000"
 3196      52535452 
 3196      00
 3197              	.LASF92:
ARM GAS  /tmp/ccRZ3kKI.s 			page 60


 3198 02d3 6963755F 		.ascii	"icu_lld_disable\000"
 3198      6C6C645F 
 3198      64697361 
 3198      626C6500 
 3199              	.LASF95:
 3200 02e3 49435544 		.ascii	"ICUD3\000"
 3200      3300
 3201              	.LASF96:
 3202 02e9 49435544 		.ascii	"ICUD4\000"
 3202      3400
 3203              	.LASF89:
 3204 02ef 69637570 		.ascii	"icup\000"
 3204      00
 3205              	.LASF97:
 3206 02f4 49435544 		.ascii	"ICUD8\000"
 3206      3800
 3207              	.LASF15:
 3208 02fa 5F426F6F 		.ascii	"_Bool\000"
 3208      6C00
 3209              	.LASF13:
 3210 0300 696E7433 		.ascii	"int32_t\000"
 3210      325F7400 
 3211              	.LASF2:
 3212 0308 756E7369 		.ascii	"unsigned char\000"
 3212      676E6564 
 3212      20636861 
 3212      7200
 3213              	.LASF91:
 3214 0316 6963755F 		.ascii	"icu_lld_enable\000"
 3214      6C6C645F 
 3214      656E6162 
 3214      6C6500
 3215              	.LASF3:
 3216 0325 73686F72 		.ascii	"short int\000"
 3216      7420696E 
 3216      7400
 3217              	.LASF68:
 3218 032f 6963756D 		.ascii	"icumode_t\000"
 3218      6F64655F 
 3218      7400
 3219              	.LASF4:
 3220 0339 73686F72 		.ascii	"short unsigned int\000"
 3220      7420756E 
 3220      7369676E 
 3220      65642069 
 3220      6E7400
 3221              	.LASF85:
 3222 034c 56656374 		.ascii	"VectorF0\000"
 3222      6F724630 
 3222      00
 3223              	.LASF22:
 3224 0355 41504232 		.ascii	"APB2ENR\000"
 3224      454E5200 
 3225              	.LASF72:
 3226 035d 69637563 		.ascii	"icuchannel_t\000"
 3226      68616E6E 
 3226      656C5F74 
ARM GAS  /tmp/ccRZ3kKI.s 			page 61


 3226      00
 3227              	.LASF78:
 3228 036a 6368616E 		.ascii	"channel\000"
 3228      6E656C00 
 3229              	.LASF86:
 3230 0372 56656374 		.ascii	"VectorF8\000"
 3230      6F724638 
 3230      00
 3231              	.LASF101:
 3232 037b 6963754F 		.ascii	"icuObjectInit\000"
 3232      626A6563 
 3232      74496E69 
 3232      7400
 3233              	.LASF80:
 3234 0389 70726576 		.ascii	"previous_state\000"
 3234      696F7573 
 3234      5F737461 
 3234      746500
 3235              	.LASF32:
 3236 0398 5F726573 		.ascii	"_resvd2\000"
 3236      76643200 
 3237              	.LASF34:
 3238 03a0 5F726573 		.ascii	"_resvd3\000"
 3238      76643300 
 3239              	.LASF17:
 3240 03a8 63686172 		.ascii	"char\000"
 3240      00
 3241              	.LASF73:
 3242 03ad 6D6F6465 		.ascii	"mode\000"
 3242      00
 3243              	.LASF61:
 3244 03b2 636F6E66 		.ascii	"config\000"
 3244      696700
 3245              	.LASF48:
 3246 03b9 444D4152 		.ascii	"DMAR\000"
 3246      00
 3247              	.LASF6:
 3248 03be 5F5F696E 		.ascii	"__int32_t\000"
 3248      7433325F 
 3248      7400
 3249              	.LASF23:
 3250 03c8 41504231 		.ascii	"APB1ENR\000"
 3250      454E5200 
 3251              	.LASF90:
 3252 03d0 6963755F 		.ascii	"icu_lld_stop\000"
 3252      6C6C645F 
 3252      73746F70 
 3252      00
 3253              	.LASF87:
 3254 03dd 6963755F 		.ascii	"icu_lld_init\000"
 3254      6C6C645F 
 3254      696E6974 
 3254      00
 3255              	.LASF69:
 3256 03ea 69637566 		.ascii	"icufreq_t\000"
 3256      7265715F 
 3256      7400
ARM GAS  /tmp/ccRZ3kKI.s 			page 62


 3257              	.LASF99:
 3258 03f4 6462675F 		.ascii	"dbg_check_leave_isr\000"
 3258      63686563 
 3258      6B5F6C65 
 3258      6176655F 
 3258      69737200 
 3259              	.LASF104:
 3260 0408 474E5520 		.ascii	"GNU C 4.8.3 -mcpu=cortex-m4 -mfloat-abi=softfp -mfp"
 3260      4320342E 
 3260      382E3320 
 3260      2D6D6370 
 3260      753D636F 
 3261 043b 753D6670 		.ascii	"u=fpv4-sp-d16 -mno-thumb-interwork -mthumb -ggdb -O"
 3261      76342D73 
 3261      702D6431 
 3261      36202D6D 
 3261      6E6F2D74 
 3262 046e 32202D66 		.ascii	"2 -fomit-frame-pointer -falign-functions=16 -fsingl"
 3262      6F6D6974 
 3262      2D667261 
 3262      6D652D70 
 3262      6F696E74 
 3263 04a1 652D7072 		.ascii	"e-precision-constant -ffunction-sections -fdata-sec"
 3263      65636973 
 3263      696F6E2D 
 3263      636F6E73 
 3263      74616E74 
 3264 04d4 74696F6E 		.ascii	"tions -fno-common\000"
 3264      73202D66 
 3264      6E6F2D63 
 3264      6F6D6D6F 
 3264      6E00
 3265              	.LASF106:
 3266 04e6 2F686F6D 		.ascii	"/home/jordyaw/Documents/referensi/coba/ChibiOS_2.5."
 3266      652F6A6F 
 3266      72647961 
 3266      772F446F 
 3266      63756D65 
 3267 0519 32782F74 		.ascii	"2x/testhal/STM32F30x/WSC Juara Bismillah/program sc"
 3267      65737468 
 3267      616C2F53 
 3267      544D3332 
 3267      46333078 
 3268 054c 616E6E69 		.ascii	"anning data controller\000"
 3268      6E672064 
 3268      61746120 
 3268      636F6E74 
 3268      726F6C6C 
 3269              	.LASF14:
 3270 0563 75696E74 		.ascii	"uint32_t\000"
 3270      33325F74 
 3270      00
 3271              	.LASF24:
 3272 056c 42444352 		.ascii	"BDCR\000"
 3272      00
 3273              	.LASF70:
 3274 0571 4943555F 		.ascii	"ICU_CHANNEL_1\000"
ARM GAS  /tmp/ccRZ3kKI.s 			page 63


 3274      4348414E 
 3274      4E454C5F 
 3274      3100
 3275              	.LASF71:
 3276 057f 4943555F 		.ascii	"ICU_CHANNEL_2\000"
 3276      4348414E 
 3276      4E454C5F 
 3276      3200
 3277              	.LASF26:
 3278 058d 43464752 		.ascii	"CFGR2\000"
 3278      3200
 3279              	.LASF27:
 3280 0593 43464752 		.ascii	"CFGR3\000"
 3280      3300
 3281              	.LASF18:
 3282 0599 43464752 		.ascii	"CFGR\000"
 3282      00
 3283              	.LASF88:
 3284 059e 6963755F 		.ascii	"icu_lld_start\000"
 3284      6C6C645F 
 3284      73746172 
 3284      7400
 3285              	.LASF62:
 3286 05ac 636C6F63 		.ascii	"clock\000"
 3286      6B00
 3287              	.LASF63:
 3288 05b2 77636372 		.ascii	"wccrp\000"
 3288      7000
 3289              	.LASF21:
 3290 05b8 41484245 		.ascii	"AHBENR\000"
 3290      4E5200
 3291              	.LASF81:
 3292 05bf 56656374 		.ascii	"VectorA4\000"
 3292      6F724134 
 3292      00
 3293              		.ident	"GCC: (4.8.3-18ubuntu2+12) 4.8.3"
ARM GAS  /tmp/ccRZ3kKI.s 			page 64


DEFINED SYMBOLS
                            *ABS*:0000000000000000 icu_lld.c
     /tmp/ccRZ3kKI.s:20     .text.icu_lld_serve_interrupt:0000000000000000 $t
     /tmp/ccRZ3kKI.s:25     .text.icu_lld_serve_interrupt:0000000000000000 icu_lld_serve_interrupt
     /tmp/ccRZ3kKI.s:152    .text.VectorA4:0000000000000000 $t
     /tmp/ccRZ3kKI.s:158    .text.VectorA4:0000000000000000 VectorA4
     /tmp/ccRZ3kKI.s:186    .text.VectorA4:0000000000000018 $d
     /tmp/ccRZ3kKI.s:191    .text.VectorAC:0000000000000000 $t
     /tmp/ccRZ3kKI.s:197    .text.VectorAC:0000000000000000 VectorAC
     /tmp/ccRZ3kKI.s:225    .text.VectorAC:0000000000000018 $d
     /tmp/ccRZ3kKI.s:230    .text.VectorB4:0000000000000000 $t
     /tmp/ccRZ3kKI.s:236    .text.VectorB4:0000000000000000 VectorB4
     /tmp/ccRZ3kKI.s:264    .text.VectorB4:0000000000000018 $d
     /tmp/ccRZ3kKI.s:269    .text.VectorB8:0000000000000000 $t
     /tmp/ccRZ3kKI.s:275    .text.VectorB8:0000000000000000 VectorB8
     /tmp/ccRZ3kKI.s:303    .text.VectorB8:0000000000000018 $d
     /tmp/ccRZ3kKI.s:308    .text.VectorF0:0000000000000000 $t
     /tmp/ccRZ3kKI.s:314    .text.VectorF0:0000000000000000 VectorF0
     /tmp/ccRZ3kKI.s:342    .text.VectorF0:0000000000000018 $d
     /tmp/ccRZ3kKI.s:347    .text.VectorF8:0000000000000000 $t
     /tmp/ccRZ3kKI.s:353    .text.VectorF8:0000000000000000 VectorF8
     /tmp/ccRZ3kKI.s:381    .text.VectorF8:0000000000000018 $d
     /tmp/ccRZ3kKI.s:386    .text.icu_lld_init:0000000000000000 $t
     /tmp/ccRZ3kKI.s:392    .text.icu_lld_init:0000000000000000 icu_lld_init
     /tmp/ccRZ3kKI.s:446    .text.icu_lld_init:0000000000000034 $d
     /tmp/ccRZ3kKI.s:458    .text.icu_lld_start:0000000000000000 $t
     /tmp/ccRZ3kKI.s:464    .text.icu_lld_start:0000000000000000 icu_lld_start
     /tmp/ccRZ3kKI.s:720    .text.icu_lld_start:000000000000014c $d
     /tmp/ccRZ3kKI.s:731    .text.icu_lld_stop:0000000000000000 $t
     /tmp/ccRZ3kKI.s:737    .text.icu_lld_stop:0000000000000000 icu_lld_stop
     /tmp/ccRZ3kKI.s:845    .text.icu_lld_stop:0000000000000080 $d
     /tmp/ccRZ3kKI.s:854    .text.icu_lld_enable:0000000000000000 $t
     /tmp/ccRZ3kKI.s:860    .text.icu_lld_enable:0000000000000000 icu_lld_enable
     /tmp/ccRZ3kKI.s:936    .text.icu_lld_disable:0000000000000000 $t
     /tmp/ccRZ3kKI.s:942    .text.icu_lld_disable:0000000000000000 icu_lld_disable
     /tmp/ccRZ3kKI.s:985    .bss.ICUD8:0000000000000000 ICUD8
     /tmp/ccRZ3kKI.s:978    .bss.ICUD4:0000000000000000 ICUD4
     /tmp/ccRZ3kKI.s:971    .bss.ICUD3:0000000000000000 ICUD3
     /tmp/ccRZ3kKI.s:996    .bss.ICUD1:0000000000000000 ICUD1
     /tmp/ccRZ3kKI.s:967    .bss.ICUD3:0000000000000000 $d
     /tmp/ccRZ3kKI.s:974    .bss.ICUD4:0000000000000000 $d
     /tmp/ccRZ3kKI.s:981    .bss.ICUD8:0000000000000000 $d
     /tmp/ccRZ3kKI.s:988    .rodata.str1.4:0000000000000000 $d
     /tmp/ccRZ3kKI.s:992    .bss.ICUD1:0000000000000000 $d
                     .debug_frame:0000000000000010 $d
     /tmp/ccRZ3kKI.s:190    .text.VectorA4:000000000000001c $t
     /tmp/ccRZ3kKI.s:229    .text.VectorAC:000000000000001c $t
     /tmp/ccRZ3kKI.s:268    .text.VectorB4:000000000000001c $t
     /tmp/ccRZ3kKI.s:307    .text.VectorB8:000000000000001c $t
     /tmp/ccRZ3kKI.s:346    .text.VectorF0:000000000000001c $t
     /tmp/ccRZ3kKI.s:385    .text.VectorF8:000000000000001c $t
     /tmp/ccRZ3kKI.s:457    .text.icu_lld_init:0000000000000054 $t
     /tmp/ccRZ3kKI.s:730    .text.icu_lld_start:0000000000000168 $t
     /tmp/ccRZ3kKI.s:853    .text.icu_lld_stop:0000000000000094 $t

UNDEFINED SYMBOLS
dbg_check_enter_isr
ARM GAS  /tmp/ccRZ3kKI.s 			page 65


dbg_check_leave_isr
_port_irq_epilogue
icuObjectInit
chDbgPanic
nvicEnableVector
nvicDisableVector
