ARM GAS  /tmp/ccg0MrMf.s 			page 1


   1              		.syntax unified
   2              		.cpu cortex-m4
   3              		.eabi_attribute 27, 3
   4              		.fpu fpv4-sp-d16
   5              		.eabi_attribute 20, 1
   6              		.eabi_attribute 21, 1
   7              		.eabi_attribute 23, 3
   8              		.eabi_attribute 24, 1
   9              		.eabi_attribute 25, 1
  10              		.eabi_attribute 26, 1
  11              		.eabi_attribute 30, 2
  12              		.eabi_attribute 34, 1
  13              		.eabi_attribute 18, 4
  14              		.thumb
  15              		.file	"main.c"
  16              		.text
  17              	.Ltext0:
  18              		.cfi_sections	.debug_frame
  19              		.section	.text.send_data,"ax",%progbits
  20              		.align	2
  21              		.p2align 4,,15
  22              		.global	send_data
  23              		.thumb
  24              		.thumb_func
  25              		.type	send_data, %function
  26              	send_data:
  27              	.LFB120:
  28              		.file 1 "main.c"
  29              		.loc 1 32 0
  30              		.cfi_startproc
  31              		@ args = 0, pretend = 0, frame = 0
  32              		@ frame_needed = 0, uses_anonymous_args = 0
  33              		@ link register save eliminated.
  34              	.LVL0:
  35 0000 7047     		bx	lr
  36              		.cfi_endproc
  37              	.LFE120:
  38              		.size	send_data, .-send_data
  39 0002 00BFAFF3 		.section	.text.chprintf.constprop.0,"ax",%progbits
  39      0080AFF3 
  39      0080AFF3 
  39      0080
  40              		.align	2
  41              		.p2align 4,,15
  42              		.thumb
  43              		.thumb_func
  44              		.type	chprintf.constprop.0, %function
  45              	chprintf.constprop.0:
  46              	.LFB125:
  47              		.file 2 "../../../../os/various/chprintf.h"
  48              		.loc 2 69 0
  49              		.cfi_startproc
  50              		@ args = 4, pretend = 12, frame = 8
  51              		@ frame_needed = 0, uses_anonymous_args = 1
  52              	.LVL1:
  53              		.loc 2 69 0
  54 0000 0EB4     		push	{r1, r2, r3}
ARM GAS  /tmp/ccg0MrMf.s 			page 2


  55              		.cfi_def_cfa_offset 12
  56              		.cfi_offset 1, -12
  57              		.cfi_offset 2, -8
  58              		.cfi_offset 3, -4
  59 0002 00B5     		push	{lr}
  60              		.cfi_def_cfa_offset 16
  61              		.cfi_offset 14, -16
  62 0004 82B0     		sub	sp, sp, #8
  63              		.cfi_def_cfa_offset 24
  64              		.loc 2 69 0
  65 0006 03AA     		add	r2, sp, #12
  66              		.loc 2 73 0
  67 0008 0548     		ldr	r0, .L3
  68              	.LVL2:
  69              		.loc 2 69 0
  70 000a 52F8041B 		ldr	r1, [r2], #4
  71              		.loc 2 72 0
  72 000e 0192     		str	r2, [sp, #4]
  73              		.loc 2 73 0
  74 0010 FFF7FEFF 		bl	chvprintf
  75              	.LVL3:
  76              		.loc 2 75 0
  77 0014 02B0     		add	sp, sp, #8
  78              		@ sp needed
  79 0016 5DF804EB 		ldr	lr, [sp], #4
  80 001a 03B0     		add	sp, sp, #12
  81 001c 7047     		bx	lr
  82              	.L4:
  83 001e 00BF     		.align	2
  84              	.L3:
  85 0020 00000000 		.word	.LANCHOR0
  86              		.cfi_endproc
  87              	.LFE125:
  88              		.size	chprintf.constprop.0, .-chprintf.constprop.0
  89 0024 AFF30080 		.section	.text.startup.main,"ax",%progbits
  89      AFF30080 
  89      AFF30080 
  90              		.align	2
  91              		.p2align 4,,15
  92              		.global	main
  93              		.thumb
  94              		.thumb_func
  95              		.type	main, %function
  96              	main:
  97              	.LFB121:
  98              		.loc 1 55 0
  99              		.cfi_startproc
 100              		@ args = 0, pretend = 0, frame = 40
 101              		@ frame_needed = 0, uses_anonymous_args = 0
 102              	.LVL4:
 103 0000 2DE9F047 		push	{r4, r5, r6, r7, r8, r9, r10, lr}
 104              		.cfi_def_cfa_offset 32
 105              		.cfi_offset 4, -32
 106              		.cfi_offset 5, -28
 107              		.cfi_offset 6, -24
 108              		.cfi_offset 7, -20
 109              		.cfi_offset 8, -16
ARM GAS  /tmp/ccg0MrMf.s 			page 3


 110              		.cfi_offset 9, -12
 111              		.cfi_offset 10, -8
 112              		.cfi_offset 14, -4
 113 0004 8AB0     		sub	sp, sp, #40
 114              		.cfi_def_cfa_offset 72
 115              		.loc 1 58 0
 116 0006 FFF7FEFF 		bl	halInit
 117              	.LVL5:
 118              		.loc 1 61 0
 119 000a FFF7FEFF 		bl	chSysInit
 120              	.LVL6:
 121              		.loc 1 63 0
 122 000e 5D48     		ldr	r0, .L15
 123 0010 5D4E     		ldr	r6, .L15+4
 124              		.loc 1 73 0
 125 0012 DFF8A8A1 		ldr	r10, .L15+56
 126 0016 5D4F     		ldr	r7, .L15+8
 127 0018 5D4D     		ldr	r5, .L15+12
 128              		.loc 1 63 0
 129 001a 0021     		movs	r1, #0
 130 001c FFF7FEFF 		bl	sdStart
 131              	.LVL7:
 132              		.loc 1 64 0
 133 0020 5C48     		ldr	r0, .L15+16
 134 0022 0021     		movs	r1, #0
 135 0024 FFF7FEFF 		bl	sdStart
 136              	.LVL8:
 137              		.loc 1 66 0
 138 0028 4023     		movs	r3, #64
 139 002a 5B49     		ldr	r1, .L15+20
 140 002c 5B48     		ldr	r0, .L15+24
 141 002e 40F63812 		movw	r2, #2360
 142 0032 FFF7FEFF 		bl	shellCreateStatic
 143              	.LVL9:
 144              	.LBB4:
 145              	.LBB5:
 146              		.loc 1 150 0
 147 0036 5A48     		ldr	r0, .L15+28
 148 0038 0021     		movs	r1, #0
 149 003a 0722     		movs	r2, #7
 150 003c FFF7FEFF 		bl	GPIO_PinAFConfig
 151              	.LVL10:
 152              		.loc 1 151 0
 153 0040 0722     		movs	r2, #7
 154 0042 5748     		ldr	r0, .L15+28
 155 0044 0121     		movs	r1, #1
 156              		.loc 1 157 0
 157 0046 0024     		movs	r4, #0
 158              		.loc 1 151 0
 159 0048 FFF7FEFF 		bl	GPIO_PinAFConfig
 160              	.LVL11:
 161              		.loc 1 158 0
 162 004c 4FF00108 		mov	r8, #1
 163              		.loc 1 154 0
 164 0050 0323     		movs	r3, #3
 165              		.loc 1 155 0
 166 0052 4FF00209 		mov	r9, #2
ARM GAS  /tmp/ccg0MrMf.s 			page 4


 167              		.loc 1 159 0
 168 0056 5248     		ldr	r0, .L15+28
 169              		.loc 1 154 0
 170 0058 0193     		str	r3, [sp, #4]
 171              		.loc 1 159 0
 172 005a 01A9     		add	r1, sp, #4
 173              		.loc 1 156 0
 174 005c 8DF80930 		strb	r3, [sp, #9]
 175              		.loc 1 155 0
 176 0060 8DF80890 		strb	r9, [sp, #8]
 177              		.loc 1 157 0
 178 0064 8DF80A40 		strb	r4, [sp, #10]
 179              		.loc 1 158 0
 180 0068 8DF80B80 		strb	r8, [sp, #11]
 181              		.loc 1 159 0
 182 006c FFF7FEFF 		bl	GPIO_Init
 183              	.LVL12:
 184              		.loc 1 162 0
 185 0070 B021     		movs	r1, #176
 186 0072 1420     		movs	r0, #20
 187 0074 FFF7FEFF 		bl	nvicEnableVector
 188              	.LVL13:
 189              		.loc 1 167 0
 190 0078 4A4B     		ldr	r3, .L15+32
 191 007a DA69     		ldr	r2, [r3, #28]
 192 007c 42F00072 		orr	r2, r2, #33554432
 193 0080 DA61     		str	r2, [r3, #28]
 194              		.loc 1 172 0
 195 0082 03A8     		add	r0, sp, #12
 196 0084 FFF7FEFF 		bl	CAN_StructInit
 197              	.LVL14:
 198              		.loc 1 186 0
 199 0088 0723     		movs	r3, #7
 200              		.loc 1 185 0
 201 008a 0822     		movs	r2, #8
 202              		.loc 1 188 0
 203 008c 03A9     		add	r1, sp, #12
 204 008e 4648     		ldr	r0, .L15+36
 205              		.loc 1 186 0
 206 0090 8DF81130 		strb	r3, [sp, #17]
 207              		.loc 1 185 0
 208 0094 8DF81020 		strb	r2, [sp, #16]
 209              		.loc 1 175 0
 210 0098 8DF81240 		strb	r4, [sp, #18]
 211              		.loc 1 176 0
 212 009c 8DF81340 		strb	r4, [sp, #19]
 213              		.loc 1 177 0
 214 00a0 8DF81440 		strb	r4, [sp, #20]
 215              		.loc 1 178 0
 216 00a4 8DF81540 		strb	r4, [sp, #21]
 217              		.loc 1 179 0
 218 00a8 8DF81640 		strb	r4, [sp, #22]
 219              		.loc 1 180 0
 220 00ac 8DF81740 		strb	r4, [sp, #23]
 221              		.loc 1 181 0
 222 00b0 8DF80E40 		strb	r4, [sp, #14]
 223              		.loc 1 182 0
ARM GAS  /tmp/ccg0MrMf.s 			page 5


 224 00b4 8DF80F40 		strb	r4, [sp, #15]
 225              		.loc 1 187 0
 226 00b8 ADF80C90 		strh	r9, [sp, #12]	@ movhi
 227              		.loc 1 188 0
 228 00bc FFF7FEFF 		bl	CAN_Init
 229              	.LVL15:
 230              		.loc 1 200 0
 231 00c0 06A8     		add	r0, sp, #24
 232              		.loc 1 191 0
 233 00c2 8DF82240 		strb	r4, [sp, #34]
 234              		.loc 1 192 0
 235 00c6 8DF82340 		strb	r4, [sp, #35]
 236              		.loc 1 193 0
 237 00ca 8DF82480 		strb	r8, [sp, #36]
 238              		.loc 1 194 0
 239 00ce ADF81840 		strh	r4, [sp, #24]	@ movhi
 240              		.loc 1 195 0
 241 00d2 ADF81A40 		strh	r4, [sp, #26]	@ movhi
 242              		.loc 1 196 0
 243 00d6 ADF81C40 		strh	r4, [sp, #28]	@ movhi
 244              		.loc 1 197 0
 245 00da ADF81E40 		strh	r4, [sp, #30]	@ movhi
 246              		.loc 1 198 0
 247 00de ADF82040 		strh	r4, [sp, #32]	@ movhi
 248              		.loc 1 199 0
 249 00e2 8DF82580 		strb	r8, [sp, #37]
 250              		.loc 1 200 0
 251 00e6 FFF7FEFF 		bl	CAN_FilterInit
 252              	.LVL16:
 253              		.loc 1 203 0
 254 00ea 4246     		mov	r2, r8
 255 00ec 4946     		mov	r1, r9
 256 00ee 2E48     		ldr	r0, .L15+36
 257 00f0 FFF7FEFF 		bl	CAN_ITConfig
 258              	.LVL17:
 259              	.LBE5:
 260              	.LBE4:
 261              		.loc 1 72 0
 262 00f4 3046     		mov	r0, r6
 263 00f6 FFF7FEFF 		bl	sduObjectInit
 264              	.LVL18:
 265              		.loc 1 73 0
 266 00fa 5146     		mov	r1, r10
 267 00fc 3046     		mov	r0, r6
 268 00fe FFF7FEFF 		bl	sduStart
 269              	.LVL19:
 270              		.loc 1 77 0
 271 0102 C820     		movs	r0, #200
 272 0104 FFF7FEFF 		bl	chThdSleep
 273              	.LVL20:
 274              		.loc 1 78 0
 275 0108 DAF80000 		ldr	r0, [r10]
 276 010c 2749     		ldr	r1, .L15+40
 277 010e FFF7FEFF 		bl	usbStart
 278              	.LVL21:
 279              		.loc 1 81 0
 280 0112 FFF7FEFF 		bl	shellInit
ARM GAS  /tmp/ccg0MrMf.s 			page 6


 281              	.LVL22:
 282              	.L6:
 283              		.loc 1 85 0
 284 0116 2448     		ldr	r0, .L15+36
 285 0118 2549     		ldr	r1, .L15+44
 286 011a FFF7FEFF 		bl	CAN_Transmit
 287              	.LVL23:
 288              		.loc 1 87 0
 289 011e CCB1     		cbz	r4, .L12
 290              	.LVL24:
 291              	.L7:
 292              		.loc 1 93 0
 293 0120 94F82030 		ldrb	r3, [r4, #32]	@ zero_extendqisi2
 294 0124 0E2B     		cmp	r3, #14
 295 0126 28D0     		beq	.L13
 296              	.L8:
 297              	.LVL25:
 298              		.loc 1 98 0
 299 0128 224B     		ldr	r3, .L15+48
 300 012a 9A8A     		ldrh	r2, [r3, #20]
 301 012c 92B2     		uxth	r2, r2
 302 012e 82F40052 		eor	r2, r2, #8192
 303 0132 9A82     		strh	r2, [r3, #20]	@ movhi
 304              		.loc 1 99 0
 305 0134 4FF4FA70 		mov	r0, #500
 306 0138 FFF7FEFF 		bl	chThdSleep
 307              	.LVL26:
 308              		.loc 1 100 0
 309 013c 2B68     		ldr	r3, [r5]
 310 013e 144A     		ldr	r2, .L15+12
 311 0140 0133     		adds	r3, r3, #1
 312              		.loc 1 101 0
 313 0142 FF2B     		cmp	r3, #255
 314 0144 16D0     		beq	.L14
 315              		.loc 1 85 0
 316 0146 1848     		ldr	r0, .L15+36
 317 0148 1949     		ldr	r1, .L15+44
 318              		.loc 1 100 0
 319 014a 1360     		str	r3, [r2]
 320              		.loc 1 85 0
 321 014c FFF7FEFF 		bl	CAN_Transmit
 322              	.LVL27:
 323              		.loc 1 87 0
 324 0150 002C     		cmp	r4, #0
 325 0152 E5D1     		bne	.L7
 326              	.L12:
 327              	.LVL28:
 328              		.loc 1 87 0 is_stmt 0 discriminator 1
 329 0154 D6F85432 		ldr	r3, [r6, #596]
 330 0158 1B68     		ldr	r3, [r3]
 331 015a 1B78     		ldrb	r3, [r3]	@ zero_extendqisi2
 332 015c 042B     		cmp	r3, #4
 333 015e DFD1     		bne	.L7
 334              		.loc 1 89 0 is_stmt 1
 335 0160 1548     		ldr	r0, .L15+52
 336 0162 40F63811 		movw	r1, #2360
 337 0166 4022     		movs	r2, #64
ARM GAS  /tmp/ccg0MrMf.s 			page 7


 338 0168 FFF7FEFF 		bl	shellCreate
 339              	.LVL29:
 340              		.loc 1 90 0
 341 016c 0123     		movs	r3, #1
 342              		.loc 1 89 0
 343 016e 0446     		mov	r4, r0
 344              	.LVL30:
 345              		.loc 1 90 0
 346 0170 3B60     		str	r3, [r7]
 347 0172 D9E7     		b	.L8
 348              	.LVL31:
 349              	.L14:
 350              		.loc 1 101 0 discriminator 1
 351 0174 0023     		movs	r3, #0
 352 0176 1360     		str	r3, [r2]
 353 0178 CDE7     		b	.L6
 354              	.LVL32:
 355              	.L13:
 356              		.loc 1 95 0
 357 017a 2046     		mov	r0, r4
 358 017c FFF7FEFF 		bl	chThdRelease
 359              	.LVL33:
 360              		.loc 1 96 0
 361 0180 0024     		movs	r4, #0
 362 0182 D1E7     		b	.L8
 363              	.L16:
 364              		.align	2
 365              	.L15:
 366 0184 00000000 		.word	SD1
 367 0188 00000000 		.word	.LANCHOR0
 368 018c 00000000 		.word	.LANCHOR6
 369 0190 00000000 		.word	.LANCHOR3
 370 0194 00000000 		.word	SD2
 371 0198 00000000 		.word	.LANCHOR2
 372 019c 00000000 		.word	.LANCHOR1
 373 01a0 000C0048 		.word	1207962624
 374 01a4 00100240 		.word	1073876992
 375 01a8 00640040 		.word	1073767424
 376 01ac 00000000 		.word	usbcfg
 377 01b0 00000000 		.word	.LANCHOR4
 378 01b4 00100048 		.word	1207963648
 379 01b8 00000000 		.word	.LANCHOR5
 380 01bc 00000000 		.word	serusbcfg
 381              		.cfi_endproc
 382              	.LFE121:
 383              		.size	main, .-main
 384              		.section	.text.printCAN,"ax",%progbits
 385              		.align	2
 386              		.p2align 4,,15
 387              		.global	printCAN
 388              		.thumb
 389              		.thumb_func
 390              		.type	printCAN, %function
 391              	printCAN:
 392              	.LFB122:
 393              		.loc 1 108 0
 394              		.cfi_startproc
ARM GAS  /tmp/ccg0MrMf.s 			page 8


 395              		@ args = 0, pretend = 0, frame = 0
 396              		@ frame_needed = 0, uses_anonymous_args = 0
 397              	.LVL34:
 398 0000 70B5     		push	{r4, r5, r6, lr}
 399              		.cfi_def_cfa_offset 16
 400              		.cfi_offset 4, -16
 401              		.cfi_offset 5, -12
 402              		.cfi_offset 6, -8
 403              		.cfi_offset 14, -4
 404              		.loc 1 111 0
 405 0002 164D     		ldr	r5, .L25
 406 0004 1648     		ldr	r0, .L25+4
 407 0006 2A68     		ldr	r2, [r5]
 408 0008 1649     		ldr	r1, .L25+8
 409 000a FFF7FEFF 		bl	chprintf.constprop.0
 410              	.LVL35:
 411              		.loc 1 112 0
 412 000e AA7A     		ldrb	r2, [r5, #10]	@ zero_extendqisi2
 413 0010 1348     		ldr	r0, .L25+4
 414 0012 1549     		ldr	r1, .L25+12
 415 0014 FFF7FEFF 		bl	chprintf.constprop.0
 416              	.LVL36:
 417              		.loc 1 113 0
 418 0018 AB7A     		ldrb	r3, [r5, #10]	@ zero_extendqisi2
 419 001a 73B1     		cbz	r3, .L20
 420 001c 05F10A06 		add	r6, r5, #10
 421 0020 0024     		movs	r4, #0
 422              	.LVL37:
 423              	.L19:
 424              		.loc 1 114 0 discriminator 2
 425 0022 0F48     		ldr	r0, .L25+4
 426 0024 1149     		ldr	r1, .L25+16
 427 0026 36F8022F 		ldrh	r2, [r6, #2]!
 428 002a FFF7FEFF 		bl	chprintf.constprop.0
 429              	.LVL38:
 430              		.loc 1 113 0 discriminator 2
 431 002e AB7A     		ldrb	r3, [r5, #10]	@ zero_extendqisi2
 432 0030 0134     		adds	r4, r4, #1
 433              	.LVL39:
 434 0032 A342     		cmp	r3, r4
 435 0034 F5DC     		bgt	.L19
 436              		.loc 1 115 0
 437 0036 072B     		cmp	r3, #7
 438 0038 0FD8     		bhi	.L17
 439              	.LVL40:
 440              	.L20:
 441              		.loc 1 116 0 discriminator 1
 442 003a AB7A     		ldrb	r3, [r5, #10]	@ zero_extendqisi2
 443 003c C3F10803 		rsb	r3, r3, #8
 444 0040 002B     		cmp	r3, #0
 445 0042 0ADD     		ble	.L17
 446              		.loc 1 116 0 is_stmt 0
 447 0044 0024     		movs	r4, #0
 448              	.LVL41:
 449              	.L22:
 450              		.loc 1 117 0 is_stmt 1 discriminator 2
 451 0046 0648     		ldr	r0, .L25+4
ARM GAS  /tmp/ccg0MrMf.s 			page 9


 452 0048 0949     		ldr	r1, .L25+20
 453 004a FFF7FEFF 		bl	chprintf.constprop.0
 454              	.LVL42:
 455              		.loc 1 116 0 discriminator 2
 456 004e AB7A     		ldrb	r3, [r5, #10]	@ zero_extendqisi2
 457 0050 0134     		adds	r4, r4, #1
 458              	.LVL43:
 459 0052 C3F10803 		rsb	r3, r3, #8
 460 0056 A342     		cmp	r3, r4
 461 0058 F5DC     		bgt	.L22
 462              	.LVL44:
 463              	.L17:
 464 005a 70BD     		pop	{r4, r5, r6, pc}
 465              	.L26:
 466              		.align	2
 467              	.L25:
 468 005c 00000000 		.word	.LANCHOR7
 469 0060 00000000 		.word	.LANCHOR0
 470 0064 00000000 		.word	.LC0
 471 0068 08000000 		.word	.LC1
 472 006c 0C000000 		.word	.LC2
 473 0070 10000000 		.word	.LC3
 474              		.cfi_endproc
 475              	.LFE122:
 476              		.size	printCAN, .-printCAN
 477 0074 AFF30080 		.section	.text.sendCan,"ax",%progbits
 477      AFF30080 
 477      AFF30080 
 478              		.align	2
 479              		.p2align 4,,15
 480              		.global	sendCan
 481              		.thumb
 482              		.thumb_func
 483              		.type	sendCan, %function
 484              	sendCan:
 485              	.LFB119:
 486              		.loc 1 17 0
 487              		.cfi_startproc
 488              		@ args = 0, pretend = 0, frame = 0
 489              		@ frame_needed = 0, uses_anonymous_args = 0
 490              		@ link register save eliminated.
 491              	.LVL45:
 492              		.loc 1 29 0
 493 0000 FFF7FEBF 		b	printCAN
 494              	.LVL46:
 495              		.cfi_endproc
 496              	.LFE119:
 497              		.size	sendCan, .-sendCan
 498 0004 AFF30080 		.section	.text.Vector90,"ax",%progbits
 498      AFF30080 
 498      AFF30080 
 499              		.align	2
 500              		.p2align 4,,15
 501              		.global	Vector90
 502              		.thumb
 503              		.thumb_func
 504              		.type	Vector90, %function
ARM GAS  /tmp/ccg0MrMf.s 			page 10


 505              	Vector90:
 506              	.LFB123:
 507              		.loc 1 123 0
 508              		.cfi_startproc
 509              		@ args = 0, pretend = 0, frame = 0
 510              		@ frame_needed = 0, uses_anonymous_args = 0
 511 0000 08B5     		push	{r3, lr}
 512              		.cfi_def_cfa_offset 8
 513              		.cfi_offset 3, -8
 514              		.cfi_offset 14, -4
 515              		.loc 1 125 0
 516 0002 FFF7FEFF 		bl	dbg_check_enter_isr
 517              	.LVL47:
 518              		.loc 1 126 0
 519 0006 084B     		ldr	r3, .L29
 520              		.loc 1 127 0
 521 0008 0848     		ldr	r0, .L29+4
 522              		.loc 1 126 0
 523 000a 998A     		ldrh	r1, [r3, #20]
 524              		.loc 1 127 0
 525 000c 084A     		ldr	r2, .L29+8
 526              		.loc 1 126 0
 527 000e 89B2     		uxth	r1, r1
 528 0010 81F40071 		eor	r1, r1, #512
 529 0014 9982     		strh	r1, [r3, #20]	@ movhi
 530              		.loc 1 127 0
 531 0016 0021     		movs	r1, #0
 532 0018 FFF7FEFF 		bl	CAN_Receive
 533              	.LVL48:
 534              		.loc 1 136 0
 535 001c FFF7FEFF 		bl	dbg_check_leave_isr
 536              	.LVL49:
 537              		.loc 1 137 0
 538 0020 BDE80840 		pop	{r3, lr}
 539              		.loc 1 136 0
 540 0024 FFF7FEBF 		b	_port_irq_epilogue
 541              	.LVL50:
 542              	.L30:
 543              		.align	2
 544              	.L29:
 545 0028 00100048 		.word	1207963648
 546 002c 00640040 		.word	1073767424
 547 0030 00000000 		.word	.LANCHOR7
 548              		.cfi_endproc
 549              	.LFE123:
 550              		.size	Vector90, .-Vector90
 551              		.global	usb_flag
 552              		.global	chp
 553              		.global	SDU1
 554              		.global	energy3_wh
 555              		.global	energy2_wh
 556              		.global	energy1_wh
 557              		.global	daya3
 558              		.global	daya2
 559              		.global	daya1
 560              		.global	voltage3
 561              		.global	voltage2
ARM GAS  /tmp/ccg0MrMf.s 			page 11


 562              		.global	voltage1
 563              		.global	current3
 564              		.global	current2
 565              		.global	current1
 566              		.global	joule3
 567              		.global	joule2
 568              		.global	joule1
 569              		.global	watt3
 570              		.global	watt2
 571              		.global	watt1
 572              		.global	volt3
 573              		.global	volt2
 574              		.global	volt1
 575              		.global	arus3
 576              		.global	arus2
 577              		.global	arus1
 578              		.global	mppt15_i
 579              		.global	mppt14_i
 580              		.global	mppt13_i
 581              		.global	mppt12_i
 582              		.global	mppt11_i
 583              		.global	mppt10_i
 584              		.global	mppt9_i
 585              		.global	mppt8_i
 586              		.global	mppt7_i
 587              		.global	mppt6_i
 588              		.global	mppt5_i
 589              		.global	mppt4_i
 590              		.global	mppt3_i
 591              		.global	mppt2_i
 592              		.global	mppt1_i
 593              		.global	jam_2
 594              		.global	jam_1
 595              		.global	menit_2
 596              		.global	menit_1
 597              		.global	detik_2
 598              		.global	detik_1
 599              		.global	milidetik_2
 600              		.global	milidetik_1
 601              		.global	energijoule3_2
 602              		.global	energijoule3_1
 603              		.global	energijoule2_2
 604              		.global	energijoule2_1
 605              		.global	energijoule1_2
 606              		.global	energijoule1_1
 607              		.global	wattjoule3_2
 608              		.global	wattjoule3_1
 609              		.global	wattjoule2_2
 610              		.global	wattjoule2_1
 611              		.global	wattjoule1_2
 612              		.global	wattjoule1_1
 613              		.global	voltjoule3_2
 614              		.global	voltjoule3_1
 615              		.global	voltjoule2_2
 616              		.global	voltjoule2_1
 617              		.global	voltjoule1_2
 618              		.global	voltjoule1_1
ARM GAS  /tmp/ccg0MrMf.s 			page 12


 619              		.global	currentjoule3_2
 620              		.global	currentjoule3_1
 621              		.global	currentjoule2_2
 622              		.global	currentjoule2_1
 623              		.global	currentjoule1_2
 624              		.global	currentjoule1_1
 625              		.global	jam
 626              		.global	menit
 627              		.global	detik
 628              		.global	milidetik
 629              		.global	energijoule3
 630              		.global	energijoule2
 631              		.global	energijoule1
 632              		.global	wattjoule3
 633              		.global	wattjoule2
 634              		.global	wattjoule1
 635              		.global	voltjoule3
 636              		.global	voltjoule2
 637              		.global	voltjoule1
 638              		.global	currentjoule3
 639              		.global	currentjoule2
 640              		.global	currentjoule1
 641              		.global	currentMPPT15
 642              		.global	currentMPPT14
 643              		.global	currentMPPT13
 644              		.global	currentMPPT12
 645              		.global	currentMPPT11
 646              		.global	currentMPPT10
 647              		.global	currentMPPT9
 648              		.global	currentMPPT8
 649              		.global	currentMPPT7
 650              		.global	currentMPPT6
 651              		.global	currentMPPT5
 652              		.global	currentMPPT4
 653              		.global	currentMPPT3
 654              		.global	currentMPPT2
 655              		.global	currentMPPT1
 656              		.global	currentMPPT15_2
 657              		.global	currentMPPT15_1
 658              		.global	currentMPPT14_2
 659              		.global	currentMPPT14_1
 660              		.global	currentMPPT13_2
 661              		.global	currentMPPT13_1
 662              		.global	currentMPPT12_2
 663              		.global	currentMPPT12_1
 664              		.global	currentMPPT11_2
 665              		.global	currentMPPT11_1
 666              		.global	currentMPPT10_2
 667              		.global	currentMPPT10_1
 668              		.global	currentMPPT9_2
 669              		.global	currentMPPT9_1
 670              		.global	currentMPPT8_2
 671              		.global	currentMPPT8_1
 672              		.global	currentMPPT7_2
 673              		.global	currentMPPT7_1
 674              		.global	currentMPPT6_2
 675              		.global	currentMPPT6_1
ARM GAS  /tmp/ccg0MrMf.s 			page 13


 676              		.global	currentMPPT5_2
 677              		.global	currentMPPT5_1
 678              		.global	currentMPPT4_2
 679              		.global	currentMPPT4_1
 680              		.global	currentMPPT3_2
 681              		.global	currentMPPT3_1
 682              		.global	currentMPPT2_2
 683              		.global	currentMPPT2_1
 684              		.global	currentMPPT1_2
 685              		.global	currentMPPT1_1
 686              		.global	mppt16_v
 687              		.global	mppt15_v
 688              		.global	mppt13_v
 689              		.global	mppt12_v
 690              		.global	mppt11_v
 691              		.global	mppt10_v
 692              		.global	mppt9_v
 693              		.global	mppt8_v
 694              		.global	mppt7_v
 695              		.global	mppt6_v
 696              		.global	mppt5_v
 697              		.global	mppt4_v
 698              		.global	mppt3_v
 699              		.global	mppt2_v
 700              		.global	mppt1_v
 701              		.global	voltMPPT16
 702              		.global	voltMPPT15
 703              		.global	voltMPPT13
 704              		.global	voltMPPT12
 705              		.global	voltMPPT11
 706              		.global	voltMPPT10
 707              		.global	voltMPPT9
 708              		.global	voltMPPT8
 709              		.global	voltMPPT7
 710              		.global	voltMPPT6
 711              		.global	voltMPPT5
 712              		.global	voltMPPT4
 713              		.global	voltMPPT3
 714              		.global	voltMPPT2
 715              		.global	voltMPPT1
 716              		.global	voltMPPT16_2
 717              		.global	voltMPPT16_1
 718              		.global	voltMPPT15_2
 719              		.global	voltMPPT15_1
 720              		.global	voltMPPT13_2
 721              		.global	voltMPPT13_1
 722              		.global	voltMPPT12_2
 723              		.global	voltMPPT12_1
 724              		.global	voltMPPT11_2
 725              		.global	voltMPPT11_1
 726              		.global	voltMPPT10_2
 727              		.global	voltMPPT10_1
 728              		.global	voltMPPT9_2
 729              		.global	voltMPPT9_1
 730              		.global	voltMPPT8_2
 731              		.global	voltMPPT8_1
 732              		.global	voltMPPT7_2
ARM GAS  /tmp/ccg0MrMf.s 			page 14


 733              		.global	voltMPPT7_1
 734              		.global	voltMPPT6_2
 735              		.global	voltMPPT6_1
 736              		.global	voltMPPT5_2
 737              		.global	voltMPPT5_1
 738              		.global	voltMPPT4_2
 739              		.global	voltMPPT4_1
 740              		.global	voltMPPT3_2
 741              		.global	voltMPPT3_1
 742              		.global	voltMPPT2_2
 743              		.global	voltMPPT2_1
 744              		.global	voltMPPT1_2
 745              		.global	voltMPPT1_1
 746              		.global	cellvolt33
 747              		.global	cellvolt32
 748              		.global	cellvolt31
 749              		.global	cellvolt30
 750              		.global	cellvolt29
 751              		.global	cellvolt28
 752              		.global	cellvolt27
 753              		.global	cellvolt26
 754              		.global	cellvolt25
 755              		.global	cellvolt24
 756              		.global	cellvolt23
 757              		.global	cellvolt22
 758              		.global	cellvolt21
 759              		.global	cellvolt20
 760              		.global	cellvolt19
 761              		.global	cellvolt18
 762              		.global	cellvolt17
 763              		.global	cellvolt16
 764              		.global	cellvolt15
 765              		.global	cellvolt14
 766              		.global	cellvolt13
 767              		.global	cellvolt12
 768              		.global	cellvolt11
 769              		.global	cellvolt10
 770              		.global	cellvolt9
 771              		.global	cellvolt8
 772              		.global	cellvolt7
 773              		.global	cellvolt6
 774              		.global	cellvolt5
 775              		.global	cellvolt4
 776              		.global	cellvolt3
 777              		.global	cellvolt2
 778              		.global	cellvolt1
 779              		.global	cellvolt33raw
 780              		.global	cellvolt32raw
 781              		.global	cellvolt31raw
 782              		.global	cellvolt30raw
 783              		.global	cellvolt29raw
 784              		.global	cellvolt28raw
 785              		.global	cellvolt27raw
 786              		.global	cellvolt26raw
 787              		.global	cellvolt25raw
 788              		.global	cellvolt24raw
 789              		.global	cellvolt23raw
ARM GAS  /tmp/ccg0MrMf.s 			page 15


 790              		.global	cellvolt22raw
 791              		.global	cellvolt21raw
 792              		.global	cellvolt20raw
 793              		.global	cellvolt19raw
 794              		.global	cellvolt18raw
 795              		.global	cellvolt17raw
 796              		.global	cellvolt16raw
 797              		.global	cellvolt15raw
 798              		.global	cellvolt14raw
 799              		.global	cellvolt13raw
 800              		.global	cellvolt12raw
 801              		.global	cellvolt11raw
 802              		.global	cellvolt10raw
 803              		.global	cellvolt9raw
 804              		.global	cellvolt8raw
 805              		.global	cellvolt7raw
 806              		.global	cellvolt6raw
 807              		.global	cellvolt5raw
 808              		.global	cellvolt4raw
 809              		.global	cellvolt3raw
 810              		.global	cellvolt2raw
 811              		.global	cellvolt1raw
 812              		.global	cellvolt33_2
 813              		.global	cellvolt33_1
 814              		.global	cellvolt32_2
 815              		.global	cellvolt32_1
 816              		.global	cellvolt31_2
 817              		.global	cellvolt31_1
 818              		.global	cellvolt30_2
 819              		.global	cellvolt30_1
 820              		.global	cellvolt29_2
 821              		.global	cellvolt29_1
 822              		.global	cellvolt28_2
 823              		.global	cellvolt28_1
 824              		.global	cellvolt27_2
 825              		.global	cellvolt27_1
 826              		.global	cellvolt26_2
 827              		.global	cellvolt26_1
 828              		.global	cellvolt25_2
 829              		.global	cellvolt25_1
 830              		.global	cellvolt24_2
 831              		.global	cellvolt24_1
 832              		.global	cellvolt23_2
 833              		.global	cellvolt23_1
 834              		.global	cellvolt22_2
 835              		.global	cellvolt22_1
 836              		.global	cellvolt21_2
 837              		.global	cellvolt21_1
 838              		.global	cellvolt20_2
 839              		.global	cellvolt20_1
 840              		.global	cellvolt19_2
 841              		.global	cellvolt19_1
 842              		.global	cellvolt18_2
 843              		.global	cellvolt18_1
 844              		.global	cellvolt17_2
 845              		.global	cellvolt17_1
 846              		.global	cellvolt16_2
ARM GAS  /tmp/ccg0MrMf.s 			page 16


 847              		.global	cellvolt16_1
 848              		.global	cellvolt15_2
 849              		.global	cellvolt15_1
 850              		.global	cellvolt14_2
 851              		.global	cellvolt14_1
 852              		.global	cellvolt13_2
 853              		.global	cellvolt13_1
 854              		.global	cellvolt12_2
 855              		.global	cellvolt12_1
 856              		.global	cellvolt11_2
 857              		.global	cellvolt11_1
 858              		.global	cellvolt10_2
 859              		.global	cellvolt10_1
 860              		.global	cellvolt9_2
 861              		.global	cellvolt9_1
 862              		.global	cellvolt8_2
 863              		.global	cellvolt8_1
 864              		.global	cellvolt7_2
 865              		.global	cellvolt7_1
 866              		.global	cellvolt6_2
 867              		.global	cellvolt6_1
 868              		.global	cellvolt5_2
 869              		.global	cellvolt5_1
 870              		.global	cellvolt4_2
 871              		.global	cellvolt4_1
 872              		.global	cellvolt3_2
 873              		.global	cellvolt3_1
 874              		.global	cellvolt2_2
 875              		.global	cellvolt2_1
 876              		.global	cellvolt1_2
 877              		.global	cellvolt1_1
 878              		.global	cellvolt0_2
 879              		.global	cellvolt0_1
 880              		.global	speed
 881              		.global	packCCL
 882              		.global	packDCL
 883              		.global	lowtemp
 884              		.global	hightemp
 885              		.global	avgtemp
 886              		.global	packsoc
 887              		.global	highvoltcell
 888              		.global	lowvoltcell
 889              		.global	packvolt
 890              		.global	packcurrent
 891              		.global	amphours
 892              		.global	supply12v
 893              		.global	packDOD
 894              		.global	deltacellvolt
 895              		.global	avgcellvolt
 896              		.global	highvolt
 897              		.global	lowvolt
 898              		.global	packvoltraw
 899              		.global	packsocraw
 900              		.global	packcurrentraw
 901              		.global	amphoursraw
 902              		.global	supply12vraw
 903              		.global	avgcellvoltraw
ARM GAS  /tmp/ccg0MrMf.s 			page 17


 904              		.global	avgcellvolt2
 905              		.global	avgcellvolt1
 906              		.global	packDODraw
 907              		.global	amphours2
 908              		.global	amphours1
 909              		.global	packcurrent2
 910              		.global	packcurrent1
 911              		.global	packvolt2
 912              		.global	packvolt1
 913              		.global	highvolt2
 914              		.global	highvolt1
 915              		.global	lowvolt2
 916              		.global	lowvolt1
 917              		.global	rpm
 918              		.global	RxMessage444
 919              		.global	RxMessage333
 920              		.global	RxMessage222
 921              		.global	RxMessage111
 922              		.global	RxMessage36
 923              		.global	RxMessage3CB
 924              		.global	RxMessage6B2
 925              		.global	RxMessage3B
 926              		.global	RxMessage1B
 927              		.global	RxMessage11
 928              		.global	RxMessage99
 929              		.global	RxMessage88
 930              		.global	RxMessage77
 931              		.global	RxMessage66
 932              		.global	RxMessage55
 933              		.global	RxMessage44
 934              		.global	RxMessage33
 935              		.global	RxMessage137
 936              		.global	RxMessage12D
 937              		.global	RawMessage
 938              		.global	RxMessage
 939              		.global	TxMessage
 940 0034 AFF30080 		.section	.bss.packDOD,"aw",%nobits
 940      AFF30080 
 940      AFF30080 
 941              		.align	2
 942              		.type	packDOD, %object
 943              		.size	packDOD, 4
 944              	packDOD:
 945 0000 00000000 		.space	4
 946              		.section	.bss.currentMPPT4_1,"aw",%nobits
 947              		.align	2
 948              		.type	currentMPPT4_1, %object
 949              		.size	currentMPPT4_1, 4
 950              	currentMPPT4_1:
 951 0000 00000000 		.space	4
 952              		.section	.bss.cellvolt6raw,"aw",%nobits
 953              		.align	2
 954              		.type	cellvolt6raw, %object
 955              		.size	cellvolt6raw, 4
 956              	cellvolt6raw:
 957 0000 00000000 		.space	4
 958              		.section	.bss.cellvolt18raw,"aw",%nobits
ARM GAS  /tmp/ccg0MrMf.s 			page 18


 959              		.align	2
 960              		.type	cellvolt18raw, %object
 961              		.size	cellvolt18raw, 4
 962              	cellvolt18raw:
 963 0000 00000000 		.space	4
 964              		.section	.bss.menit,"aw",%nobits
 965              		.align	2
 966              		.type	menit, %object
 967              		.size	menit, 4
 968              	menit:
 969 0000 00000000 		.space	4
 970              		.section	.bss.joule1,"aw",%nobits
 971              		.align	2
 972              		.type	joule1, %object
 973              		.size	joule1, 4
 974              	joule1:
 975 0000 00000000 		.space	4
 976              		.section	.bss.joule2,"aw",%nobits
 977              		.align	2
 978              		.type	joule2, %object
 979              		.size	joule2, 4
 980              	joule2:
 981 0000 00000000 		.space	4
 982              		.section	.bss.voltMPPT3_1,"aw",%nobits
 983              		.align	2
 984              		.type	voltMPPT3_1, %object
 985              		.size	voltMPPT3_1, 4
 986              	voltMPPT3_1:
 987 0000 00000000 		.space	4
 988              		.section	.bss.RxMessage88,"aw",%nobits
 989              		.align	2
 990              		.type	RxMessage88, %object
 991              		.size	RxMessage88, 32
 992              	RxMessage88:
 993 0000 00000000 		.space	32
 993      00000000 
 993      00000000 
 993      00000000 
 993      00000000 
 994              		.section	.bss.highvolt1,"aw",%nobits
 995              		.align	2
 996              		.type	highvolt1, %object
 997              		.size	highvolt1, 4
 998              	highvolt1:
 999 0000 00000000 		.space	4
 1000              		.section	.bss.highvolt2,"aw",%nobits
 1001              		.align	2
 1002              		.type	highvolt2, %object
 1003              		.size	highvolt2, 4
 1004              	highvolt2:
 1005 0000 00000000 		.space	4
 1006              		.section	.bss.mppt11_i,"aw",%nobits
 1007              		.align	2
 1008              		.type	mppt11_i, %object
 1009              		.size	mppt11_i, 4
 1010              	mppt11_i:
 1011 0000 00000000 		.space	4
ARM GAS  /tmp/ccg0MrMf.s 			page 19


 1012              		.section	.bss.cellvolt20raw,"aw",%nobits
 1013              		.align	2
 1014              		.type	cellvolt20raw, %object
 1015              		.size	cellvolt20raw, 4
 1016              	cellvolt20raw:
 1017 0000 00000000 		.space	4
 1018              		.section	.bss.mppt11_v,"aw",%nobits
 1019              		.align	2
 1020              		.type	mppt11_v, %object
 1021              		.size	mppt11_v, 4
 1022              	mppt11_v:
 1023 0000 00000000 		.space	4
 1024              		.section	.bss.arus1,"aw",%nobits
 1025              		.align	2
 1026              		.type	arus1, %object
 1027              		.size	arus1, 4
 1028              	arus1:
 1029 0000 00000000 		.space	4
 1030              		.section	.bss.currentMPPT8_1,"aw",%nobits
 1031              		.align	2
 1032              		.type	currentMPPT8_1, %object
 1033              		.size	currentMPPT8_1, 4
 1034              	currentMPPT8_1:
 1035 0000 00000000 		.space	4
 1036              		.section	.bss.currentMPPT8_2,"aw",%nobits
 1037              		.align	2
 1038              		.type	currentMPPT8_2, %object
 1039              		.size	currentMPPT8_2, 4
 1040              	currentMPPT8_2:
 1041 0000 00000000 		.space	4
 1042              		.section	.bss.mppt16_v,"aw",%nobits
 1043              		.align	2
 1044              		.type	mppt16_v, %object
 1045              		.size	mppt16_v, 4
 1046              	mppt16_v:
 1047 0000 00000000 		.space	4
 1048              		.section	.bss.joule3,"aw",%nobits
 1049              		.align	2
 1050              		.type	joule3, %object
 1051              		.size	joule3, 4
 1052              	joule3:
 1053 0000 00000000 		.space	4
 1054              		.section	.bss.cellvolt16_2,"aw",%nobits
 1055              		.align	2
 1056              		.type	cellvolt16_2, %object
 1057              		.size	cellvolt16_2, 4
 1058              	cellvolt16_2:
 1059 0000 00000000 		.space	4
 1060              		.section	.bss.currentMPPT3_1,"aw",%nobits
 1061              		.align	2
 1062              		.type	currentMPPT3_1, %object
 1063              		.size	currentMPPT3_1, 4
 1064              	currentMPPT3_1:
 1065 0000 00000000 		.space	4
 1066              		.section	.bss.currentMPPT3_2,"aw",%nobits
 1067              		.align	2
 1068              		.type	currentMPPT3_2, %object
ARM GAS  /tmp/ccg0MrMf.s 			page 20


 1069              		.size	currentMPPT3_2, 4
 1070              	currentMPPT3_2:
 1071 0000 00000000 		.space	4
 1072              		.section	.bss.usb_flag,"aw",%nobits
 1073              		.align	2
 1074              		.set	.LANCHOR6,. + 0
 1075              		.type	usb_flag, %object
 1076              		.size	usb_flag, 4
 1077              	usb_flag:
 1078 0000 00000000 		.space	4
 1079              		.section	.bss.RxMessage99,"aw",%nobits
 1080              		.align	2
 1081              		.type	RxMessage99, %object
 1082              		.size	RxMessage99, 32
 1083              	RxMessage99:
 1084 0000 00000000 		.space	32
 1084      00000000 
 1084      00000000 
 1084      00000000 
 1084      00000000 
 1085              		.section	.bss.cellvolt27_1,"aw",%nobits
 1086              		.align	2
 1087              		.type	cellvolt27_1, %object
 1088              		.size	cellvolt27_1, 4
 1089              	cellvolt27_1:
 1090 0000 00000000 		.space	4
 1091              		.section	.bss.cellvolt27_2,"aw",%nobits
 1092              		.align	2
 1093              		.type	cellvolt27_2, %object
 1094              		.size	cellvolt27_2, 4
 1095              	cellvolt27_2:
 1096 0000 00000000 		.space	4
 1097              		.section	.bss.cellvolt9_1,"aw",%nobits
 1098              		.align	2
 1099              		.type	cellvolt9_1, %object
 1100              		.size	cellvolt9_1, 4
 1101              	cellvolt9_1:
 1102 0000 00000000 		.space	4
 1103              		.section	.bss.cellvolt9_2,"aw",%nobits
 1104              		.align	2
 1105              		.type	cellvolt9_2, %object
 1106              		.size	cellvolt9_2, 4
 1107              	cellvolt9_2:
 1108 0000 00000000 		.space	4
 1109              		.section	.bss.detik_1,"aw",%nobits
 1110              		.align	2
 1111              		.type	detik_1, %object
 1112              		.size	detik_1, 4
 1113              	detik_1:
 1114 0000 00000000 		.space	4
 1115              		.section	.bss.detik_2,"aw",%nobits
 1116              		.align	2
 1117              		.type	detik_2, %object
 1118              		.size	detik_2, 4
 1119              	detik_2:
 1120 0000 00000000 		.space	4
 1121              		.section	.bss.cellvolt22_1,"aw",%nobits
ARM GAS  /tmp/ccg0MrMf.s 			page 21


 1122              		.align	2
 1123              		.type	cellvolt22_1, %object
 1124              		.size	cellvolt22_1, 4
 1125              	cellvolt22_1:
 1126 0000 00000000 		.space	4
 1127              		.section	.bss.cellvolt22_2,"aw",%nobits
 1128              		.align	2
 1129              		.type	cellvolt22_2, %object
 1130              		.size	cellvolt22_2, 4
 1131              	cellvolt22_2:
 1132 0000 00000000 		.space	4
 1133              		.section	.bss.cellvolt4_1,"aw",%nobits
 1134              		.align	2
 1135              		.type	cellvolt4_1, %object
 1136              		.size	cellvolt4_1, 4
 1137              	cellvolt4_1:
 1138 0000 00000000 		.space	4
 1139              		.section	.bss.voltMPPT5_1,"aw",%nobits
 1140              		.align	2
 1141              		.type	voltMPPT5_1, %object
 1142              		.size	voltMPPT5_1, 4
 1143              	voltMPPT5_1:
 1144 0000 00000000 		.space	4
 1145              		.section	.bss.voltMPPT5_2,"aw",%nobits
 1146              		.align	2
 1147              		.type	voltMPPT5_2, %object
 1148              		.size	voltMPPT5_2, 4
 1149              	voltMPPT5_2:
 1150 0000 00000000 		.space	4
 1151              		.section	.bss.cellvolt1raw,"aw",%nobits
 1152              		.align	2
 1153              		.type	cellvolt1raw, %object
 1154              		.size	cellvolt1raw, 4
 1155              	cellvolt1raw:
 1156 0000 00000000 		.space	4
 1157              		.section	.bss.supply12vraw,"aw",%nobits
 1158              		.align	2
 1159              		.type	supply12vraw, %object
 1160              		.size	supply12vraw, 4
 1161              	supply12vraw:
 1162 0000 00000000 		.space	4
 1163              		.section	.bss.cellvolt13raw,"aw",%nobits
 1164              		.align	2
 1165              		.type	cellvolt13raw, %object
 1166              		.size	cellvolt13raw, 4
 1167              	cellvolt13raw:
 1168 0000 00000000 		.space	4
 1169              		.section	.bss.currentMPPT13_1,"aw",%nobits
 1170              		.align	2
 1171              		.type	currentMPPT13_1, %object
 1172              		.size	currentMPPT13_1, 4
 1173              	currentMPPT13_1:
 1174 0000 00000000 		.space	4
 1175              		.section	.bss.currentMPPT13_2,"aw",%nobits
 1176              		.align	2
 1177              		.type	currentMPPT13_2, %object
 1178              		.size	currentMPPT13_2, 4
ARM GAS  /tmp/ccg0MrMf.s 			page 22


 1179              	currentMPPT13_2:
 1180 0000 00000000 		.space	4
 1181              		.section	.bss.cellvolt11_1,"aw",%nobits
 1182              		.align	2
 1183              		.type	cellvolt11_1, %object
 1184              		.size	cellvolt11_1, 4
 1185              	cellvolt11_1:
 1186 0000 00000000 		.space	4
 1187              		.section	.bss.cellvolt11_2,"aw",%nobits
 1188              		.align	2
 1189              		.type	cellvolt11_2, %object
 1190              		.size	cellvolt11_2, 4
 1191              	cellvolt11_2:
 1192 0000 00000000 		.space	4
 1193              		.section	.bss.energijoule3,"aw",%nobits
 1194              		.align	2
 1195              		.type	energijoule3, %object
 1196              		.size	energijoule3, 4
 1197              	energijoule3:
 1198 0000 00000000 		.space	4
 1199              		.section	.bss.RxMessage33,"aw",%nobits
 1200              		.align	2
 1201              		.type	RxMessage33, %object
 1202              		.size	RxMessage33, 32
 1203              	RxMessage33:
 1204 0000 00000000 		.space	32
 1204      00000000 
 1204      00000000 
 1204      00000000 
 1204      00000000 
 1205              		.section	.bss.current1,"aw",%nobits
 1206              		.align	2
 1207              		.type	current1, %object
 1208              		.size	current1, 4
 1209              	current1:
 1210 0000 00000000 		.space	4
 1211              		.section	.bss.current2,"aw",%nobits
 1212              		.align	2
 1213              		.type	current2, %object
 1214              		.size	current2, 4
 1215              	current2:
 1216 0000 00000000 		.space	4
 1217              		.section	.bss.current3,"aw",%nobits
 1218              		.align	2
 1219              		.type	current3, %object
 1220              		.size	current3, 4
 1221              	current3:
 1222 0000 00000000 		.space	4
 1223              		.section	.bss.watt2,"aw",%nobits
 1224              		.align	2
 1225              		.type	watt2, %object
 1226              		.size	watt2, 4
 1227              	watt2:
 1228 0000 00000000 		.space	4
 1229              		.section	.bss.watt3,"aw",%nobits
 1230              		.align	2
 1231              		.type	watt3, %object
ARM GAS  /tmp/ccg0MrMf.s 			page 23


 1232              		.size	watt3, 4
 1233              	watt3:
 1234 0000 00000000 		.space	4
 1235              		.section	.bss.mppt5_i,"aw",%nobits
 1236              		.align	2
 1237              		.type	mppt5_i, %object
 1238              		.size	mppt5_i, 4
 1239              	mppt5_i:
 1240 0000 00000000 		.space	4
 1241              		.section	.bss.cellvolt8raw,"aw",%nobits
 1242              		.align	2
 1243              		.type	cellvolt8raw, %object
 1244              		.size	cellvolt8raw, 4
 1245              	cellvolt8raw:
 1246 0000 00000000 		.space	4
 1247              		.section	.bss.currentjoule1_1,"aw",%nobits
 1248              		.align	2
 1249              		.type	currentjoule1_1, %object
 1250              		.size	currentjoule1_1, 4
 1251              	currentjoule1_1:
 1252 0000 00000000 		.space	4
 1253              		.section	.bss.currentjoule1_2,"aw",%nobits
 1254              		.align	2
 1255              		.type	currentjoule1_2, %object
 1256              		.size	currentjoule1_2, 4
 1257              	currentjoule1_2:
 1258 0000 00000000 		.space	4
 1259              		.section	.bss.mppt5_v,"aw",%nobits
 1260              		.align	2
 1261              		.type	mppt5_v, %object
 1262              		.size	mppt5_v, 4
 1263              	mppt5_v:
 1264 0000 00000000 		.space	4
 1265              		.section	.bss.voltMPPT13_1,"aw",%nobits
 1266              		.align	2
 1267              		.type	voltMPPT13_1, %object
 1268              		.size	voltMPPT13_1, 4
 1269              	voltMPPT13_1:
 1270 0000 00000000 		.space	4
 1271              		.section	.bss.voltMPPT13_2,"aw",%nobits
 1272              		.align	2
 1273              		.type	voltMPPT13_2, %object
 1274              		.size	voltMPPT13_2, 4
 1275              	voltMPPT13_2:
 1276 0000 00000000 		.space	4
 1277              		.section	.bss.mppt15_i,"aw",%nobits
 1278              		.align	2
 1279              		.type	mppt15_i, %object
 1280              		.size	mppt15_i, 4
 1281              	mppt15_i:
 1282 0000 00000000 		.space	4
 1283              		.section	.bss.cellvolt28raw,"aw",%nobits
 1284              		.align	2
 1285              		.type	cellvolt28raw, %object
 1286              		.size	cellvolt28raw, 4
 1287              	cellvolt28raw:
 1288 0000 00000000 		.space	4
ARM GAS  /tmp/ccg0MrMf.s 			page 24


 1289              		.section	.bss.mppt15_v,"aw",%nobits
 1290              		.align	2
 1291              		.type	mppt15_v, %object
 1292              		.size	mppt15_v, 4
 1293              	mppt15_v:
 1294 0000 00000000 		.space	4
 1295              		.section	.bss.amphours2,"aw",%nobits
 1296              		.align	2
 1297              		.type	amphours2, %object
 1298              		.size	amphours2, 4
 1299              	amphours2:
 1300 0000 00000000 		.space	4
 1301              		.section	.bss.mppt10_i,"aw",%nobits
 1302              		.align	2
 1303              		.type	mppt10_i, %object
 1304              		.size	mppt10_i, 4
 1305              	mppt10_i:
 1306 0000 00000000 		.space	4
 1307              		.section	.bss.packDODraw,"aw",%nobits
 1308              		.align	2
 1309              		.type	packDODraw, %object
 1310              		.size	packDODraw, 4
 1311              	packDODraw:
 1312 0000 00000000 		.space	4
 1313              		.section	.bss.cellvolt13_2,"aw",%nobits
 1314              		.align	2
 1315              		.type	cellvolt13_2, %object
 1316              		.size	cellvolt13_2, 4
 1317              	cellvolt13_2:
 1318 0000 00000000 		.space	4
 1319              		.section	.bss.energy2_wh,"aw",%nobits
 1320              		.align	2
 1321              		.type	energy2_wh, %object
 1322              		.size	energy2_wh, 4
 1323              	energy2_wh:
 1324 0000 00000000 		.space	4
 1325              		.section	.bss.cellvolt22raw,"aw",%nobits
 1326              		.align	2
 1327              		.type	cellvolt22raw, %object
 1328              		.size	cellvolt22raw, 4
 1329              	cellvolt22raw:
 1330 0000 00000000 		.space	4
 1331              		.section	.bss.voltjoule1_1,"aw",%nobits
 1332              		.align	2
 1333              		.type	voltjoule1_1, %object
 1334              		.size	voltjoule1_1, 4
 1335              	voltjoule1_1:
 1336 0000 00000000 		.space	4
 1337              		.section	.bss.mppt10_v,"aw",%nobits
 1338              		.align	2
 1339              		.type	mppt10_v, %object
 1340              		.size	mppt10_v, 4
 1341              	mppt10_v:
 1342 0000 00000000 		.space	4
 1343              		.section	.bss.cellvolt9raw,"aw",%nobits
 1344              		.align	2
 1345              		.type	cellvolt9raw, %object
ARM GAS  /tmp/ccg0MrMf.s 			page 25


 1346              		.size	cellvolt9raw, 4
 1347              	cellvolt9raw:
 1348 0000 00000000 		.space	4
 1349              		.section	.bss.highvoltcell,"aw",%nobits
 1350              		.align	2
 1351              		.type	highvoltcell, %object
 1352              		.size	highvoltcell, 4
 1353              	highvoltcell:
 1354 0000 00000000 		.space	4
 1355              		.section	.bss.cellvolt14raw,"aw",%nobits
 1356              		.align	2
 1357              		.type	cellvolt14raw, %object
 1358              		.size	cellvolt14raw, 4
 1359              	cellvolt14raw:
 1360 0000 00000000 		.space	4
 1361              		.section	.bss.avgtemp,"aw",%nobits
 1362              		.align	2
 1363              		.type	avgtemp, %object
 1364              		.size	avgtemp, 4
 1365              	avgtemp:
 1366 0000 00000000 		.space	4
 1367              		.section	.bss.voltMPPT2_1,"aw",%nobits
 1368              		.align	2
 1369              		.type	voltMPPT2_1, %object
 1370              		.size	voltMPPT2_1, 4
 1371              	voltMPPT2_1:
 1372 0000 00000000 		.space	4
 1373              		.section	.bss.voltMPPT2_2,"aw",%nobits
 1374              		.align	2
 1375              		.type	voltMPPT2_2, %object
 1376              		.size	voltMPPT2_2, 4
 1377              	voltMPPT2_2:
 1378 0000 00000000 		.space	4
 1379              		.section	.bss.packDCL,"aw",%nobits
 1380              		.align	2
 1381              		.type	packDCL, %object
 1382              		.size	packDCL, 4
 1383              	packDCL:
 1384 0000 00000000 		.space	4
 1385              		.section	.bss.cellvolt26_2,"aw",%nobits
 1386              		.align	2
 1387              		.type	cellvolt26_2, %object
 1388              		.size	cellvolt26_2, 4
 1389              	cellvolt26_2:
 1390 0000 00000000 		.space	4
 1391              		.section	.bss.packcurrent,"aw",%nobits
 1392              		.align	2
 1393              		.type	packcurrent, %object
 1394              		.size	packcurrent, 4
 1395              	packcurrent:
 1396 0000 00000000 		.space	4
 1397              		.section	.bss.energijoule1,"aw",%nobits
 1398              		.align	2
 1399              		.type	energijoule1, %object
 1400              		.size	energijoule1, 4
 1401              	energijoule1:
 1402 0000 00000000 		.space	4
ARM GAS  /tmp/ccg0MrMf.s 			page 26


 1403              		.section	.bss.cellvolt29raw,"aw",%nobits
 1404              		.align	2
 1405              		.type	cellvolt29raw, %object
 1406              		.size	cellvolt29raw, 4
 1407              	cellvolt29raw:
 1408 0000 00000000 		.space	4
 1409              		.section	.bss.wattjoule2_1,"aw",%nobits
 1410              		.align	2
 1411              		.type	wattjoule2_1, %object
 1412              		.size	wattjoule2_1, 4
 1413              	wattjoule2_1:
 1414 0000 00000000 		.space	4
 1415              		.section	.bss.wattjoule2_2,"aw",%nobits
 1416              		.align	2
 1417              		.type	wattjoule2_2, %object
 1418              		.size	wattjoule2_2, 4
 1419              	wattjoule2_2:
 1420 0000 00000000 		.space	4
 1421              		.section	.bss.mppt9_i,"aw",%nobits
 1422              		.align	2
 1423              		.type	mppt9_i, %object
 1424              		.size	mppt9_i, 4
 1425              	mppt9_i:
 1426 0000 00000000 		.space	4
 1427              		.section	.bss.cellvolt4_2,"aw",%nobits
 1428              		.align	2
 1429              		.type	cellvolt4_2, %object
 1430              		.size	cellvolt4_2, 4
 1431              	cellvolt4_2:
 1432 0000 00000000 		.space	4
 1433              		.section	.bss.currentMPPT14_2,"aw",%nobits
 1434              		.align	2
 1435              		.type	currentMPPT14_2, %object
 1436              		.size	currentMPPT14_2, 4
 1437              	currentMPPT14_2:
 1438 0000 00000000 		.space	4
 1439              		.section	.bss.currentMPPT6_1,"aw",%nobits
 1440              		.align	2
 1441              		.type	currentMPPT6_1, %object
 1442              		.size	currentMPPT6_1, 4
 1443              	currentMPPT6_1:
 1444 0000 00000000 		.space	4
 1445              		.section	.bss.cellvolt31raw,"aw",%nobits
 1446              		.align	2
 1447              		.type	cellvolt31raw, %object
 1448              		.size	cellvolt31raw, 4
 1449              	cellvolt31raw:
 1450 0000 00000000 		.space	4
 1451              		.section	.bss.mppt4_v,"aw",%nobits
 1452              		.align	2
 1453              		.type	mppt4_v, %object
 1454              		.size	mppt4_v, 4
 1455              	mppt4_v:
 1456 0000 00000000 		.space	4
 1457              		.section	.bss.cellvolt15raw,"aw",%nobits
 1458              		.align	2
 1459              		.type	cellvolt15raw, %object
ARM GAS  /tmp/ccg0MrMf.s 			page 27


 1460              		.size	cellvolt15raw, 4
 1461              	cellvolt15raw:
 1462 0000 00000000 		.space	4
 1463              		.section	.bss.voltMPPT10_1,"aw",%nobits
 1464              		.align	2
 1465              		.type	voltMPPT10_1, %object
 1466              		.size	voltMPPT10_1, 4
 1467              	voltMPPT10_1:
 1468 0000 00000000 		.space	4
 1469              		.section	.bss.cellvolt31_1,"aw",%nobits
 1470              		.align	2
 1471              		.type	cellvolt31_1, %object
 1472              		.size	cellvolt31_1, 4
 1473              	cellvolt31_1:
 1474 0000 00000000 		.space	4
 1475              		.section	.bss.cellvolt31_2,"aw",%nobits
 1476              		.align	2
 1477              		.type	cellvolt31_2, %object
 1478              		.size	cellvolt31_2, 4
 1479              	cellvolt31_2:
 1480 0000 00000000 		.space	4
 1481              		.section	.bss.cellvolt6_2,"aw",%nobits
 1482              		.align	2
 1483              		.type	cellvolt6_2, %object
 1484              		.size	cellvolt6_2, 4
 1485              	cellvolt6_2:
 1486 0000 00000000 		.space	4
 1487              		.section	.bss.voltage1,"aw",%nobits
 1488              		.align	2
 1489              		.type	voltage1, %object
 1490              		.size	voltage1, 4
 1491              	voltage1:
 1492 0000 00000000 		.space	4
 1493              		.section	.bss.voltage2,"aw",%nobits
 1494              		.align	2
 1495              		.type	voltage2, %object
 1496              		.size	voltage2, 4
 1497              	voltage2:
 1498 0000 00000000 		.space	4
 1499              		.section	.bss.voltage3,"aw",%nobits
 1500              		.align	2
 1501              		.type	voltage3, %object
 1502              		.size	voltage3, 4
 1503              	voltage3:
 1504 0000 00000000 		.space	4
 1505              		.section	.bss.cellvolt25_1,"aw",%nobits
 1506              		.align	2
 1507              		.type	cellvolt25_1, %object
 1508              		.size	cellvolt25_1, 4
 1509              	cellvolt25_1:
 1510 0000 00000000 		.space	4
 1511              		.section	.bss.cellvolt25_2,"aw",%nobits
 1512              		.align	2
 1513              		.type	cellvolt25_2, %object
 1514              		.size	cellvolt25_2, 4
 1515              	cellvolt25_2:
 1516 0000 00000000 		.space	4
ARM GAS  /tmp/ccg0MrMf.s 			page 28


 1517              		.section	.bss.cellvolt7_1,"aw",%nobits
 1518              		.align	2
 1519              		.type	cellvolt7_1, %object
 1520              		.size	cellvolt7_1, 4
 1521              	cellvolt7_1:
 1522 0000 00000000 		.space	4
 1523              		.section	.bss.voltMPPT8_1,"aw",%nobits
 1524              		.align	2
 1525              		.type	voltMPPT8_1, %object
 1526              		.size	voltMPPT8_1, 4
 1527              	voltMPPT8_1:
 1528 0000 00000000 		.space	4
 1529              		.section	.bss.voltMPPT8_2,"aw",%nobits
 1530              		.align	2
 1531              		.type	voltMPPT8_2, %object
 1532              		.size	voltMPPT8_2, 4
 1533              	voltMPPT8_2:
 1534 0000 00000000 		.space	4
 1535              		.section	.bss.cellvolt19_1,"aw",%nobits
 1536              		.align	2
 1537              		.type	cellvolt19_1, %object
 1538              		.size	cellvolt19_1, 4
 1539              	cellvolt19_1:
 1540 0000 00000000 		.space	4
 1541              		.section	.bss.cellvolt19_2,"aw",%nobits
 1542              		.align	2
 1543              		.type	cellvolt19_2, %object
 1544              		.size	cellvolt19_2, 4
 1545              	cellvolt19_2:
 1546 0000 00000000 		.space	4
 1547              		.section	.bss.speed,"aw",%nobits
 1548              		.align	2
 1549              		.type	speed, %object
 1550              		.size	speed, 4
 1551              	speed:
 1552 0000 00000000 		.space	4
 1553              		.section	.bss.cellvolt20_1,"aw",%nobits
 1554              		.align	2
 1555              		.type	cellvolt20_1, %object
 1556              		.size	cellvolt20_1, 4
 1557              	cellvolt20_1:
 1558 0000 00000000 		.space	4
 1559              		.section	.bss.cellvolt20_2,"aw",%nobits
 1560              		.align	2
 1561              		.type	cellvolt20_2, %object
 1562              		.size	cellvolt20_2, 4
 1563              	cellvolt20_2:
 1564 0000 00000000 		.space	4
 1565              		.section	.bss.cellvolt2_1,"aw",%nobits
 1566              		.align	2
 1567              		.type	cellvolt2_1, %object
 1568              		.size	cellvolt2_1, 4
 1569              	cellvolt2_1:
 1570 0000 00000000 		.space	4
 1571              		.section	.bss.cellvolt2_2,"aw",%nobits
 1572              		.align	2
 1573              		.type	cellvolt2_2, %object
ARM GAS  /tmp/ccg0MrMf.s 			page 29


 1574              		.size	cellvolt2_2, 4
 1575              	cellvolt2_2:
 1576 0000 00000000 		.space	4
 1577              		.section	.bss.voltMPPT3_2,"aw",%nobits
 1578              		.align	2
 1579              		.type	voltMPPT3_2, %object
 1580              		.size	voltMPPT3_2, 4
 1581              	voltMPPT3_2:
 1582 0000 00000000 		.space	4
 1583              		.section	.bss.packcurrent1,"aw",%nobits
 1584              		.align	2
 1585              		.type	packcurrent1, %object
 1586              		.size	packcurrent1, 4
 1587              	packcurrent1:
 1588 0000 00000000 		.space	4
 1589              		.section	.bss.packcurrent2,"aw",%nobits
 1590              		.align	2
 1591              		.type	packcurrent2, %object
 1592              		.size	packcurrent2, 4
 1593              	packcurrent2:
 1594 0000 00000000 		.space	4
 1595              		.section	.rodata.shell_cfg1,"a",%progbits
 1596              		.align	2
 1597              		.set	.LANCHOR5,. + 0
 1598              		.type	shell_cfg1, %object
 1599              		.size	shell_cfg1, 8
 1600              	shell_cfg1:
 1601 0000 00000000 		.word	SDU1
 1602 0004 00000000 		.word	commands
 1603              		.section	.bss.cellvolt14_2,"aw",%nobits
 1604              		.align	2
 1605              		.type	cellvolt14_2, %object
 1606              		.size	cellvolt14_2, 4
 1607              	cellvolt14_2:
 1608 0000 00000000 		.space	4
 1609              		.section	.bss.cellvolt26_1,"aw",%nobits
 1610              		.align	2
 1611              		.type	cellvolt26_1, %object
 1612              		.size	cellvolt26_1, 4
 1613              	cellvolt26_1:
 1614 0000 00000000 		.space	4
 1615              		.section	.bss.packcurrentraw,"aw",%nobits
 1616              		.align	2
 1617              		.type	packcurrentraw, %object
 1618              		.size	packcurrentraw, 4
 1619              	packcurrentraw:
 1620 0000 00000000 		.space	4
 1621              		.section	.bss.currentMPPT11_1,"aw",%nobits
 1622              		.align	2
 1623              		.type	currentMPPT11_1, %object
 1624              		.size	currentMPPT11_1, 4
 1625              	currentMPPT11_1:
 1626 0000 00000000 		.space	4
 1627              		.section	.bss.currentMPPT11_2,"aw",%nobits
 1628              		.align	2
 1629              		.type	currentMPPT11_2, %object
 1630              		.size	currentMPPT11_2, 4
ARM GAS  /tmp/ccg0MrMf.s 			page 30


 1631              	currentMPPT11_2:
 1632 0000 00000000 		.space	4
 1633              		.section	.bss.cellvolt23_1,"aw",%nobits
 1634              		.align	2
 1635              		.type	cellvolt23_1, %object
 1636              		.size	cellvolt23_1, 4
 1637              	cellvolt23_1:
 1638 0000 00000000 		.space	4
 1639              		.section	.bss.packsocraw,"aw",%nobits
 1640              		.align	2
 1641              		.type	packsocraw, %object
 1642              		.size	packsocraw, 4
 1643              	packsocraw:
 1644 0000 00000000 		.space	4
 1645              		.section	.bss.mppt8_i,"aw",%nobits
 1646              		.align	2
 1647              		.type	mppt8_i, %object
 1648              		.size	mppt8_i, 4
 1649              	mppt8_i:
 1650 0000 00000000 		.space	4
 1651              		.section	.bss.cellvolt24raw,"aw",%nobits
 1652              		.align	2
 1653              		.type	cellvolt24raw, %object
 1654              		.size	cellvolt24raw, 4
 1655              	cellvolt24raw:
 1656 0000 00000000 		.space	4
 1657              		.section	.bss.mppt8_v,"aw",%nobits
 1658              		.align	2
 1659              		.type	mppt8_v, %object
 1660              		.size	mppt8_v, 4
 1661              	mppt8_v:
 1662 0000 00000000 		.space	4
 1663              		.section	.bss.voltMPPT16_1,"aw",%nobits
 1664              		.align	2
 1665              		.type	voltMPPT16_1, %object
 1666              		.size	voltMPPT16_1, 4
 1667              	voltMPPT16_1:
 1668 0000 00000000 		.space	4
 1669              		.section	.bss.voltMPPT16_2,"aw",%nobits
 1670              		.align	2
 1671              		.type	voltMPPT16_2, %object
 1672              		.size	voltMPPT16_2, 4
 1673              	voltMPPT16_2:
 1674 0000 00000000 		.space	4
 1675              		.section	.bss.cellvolt3,"aw",%nobits
 1676              		.align	2
 1677              		.type	cellvolt3, %object
 1678              		.size	cellvolt3, 4
 1679              	cellvolt3:
 1680 0000 00000000 		.space	4
 1681              		.section	.bss.mppt3_i,"aw",%nobits
 1682              		.align	2
 1683              		.type	mppt3_i, %object
 1684              		.size	mppt3_i, 4
 1685              	mppt3_i:
 1686 0000 00000000 		.space	4
 1687              		.section	.bss.cellvolt5,"aw",%nobits
ARM GAS  /tmp/ccg0MrMf.s 			page 31


 1688              		.align	2
 1689              		.type	cellvolt5, %object
 1690              		.size	cellvolt5, 4
 1691              	cellvolt5:
 1692 0000 00000000 		.space	4
 1693              		.section	.bss.cellvolt6,"aw",%nobits
 1694              		.align	2
 1695              		.type	cellvolt6, %object
 1696              		.size	cellvolt6, 4
 1697              	cellvolt6:
 1698 0000 00000000 		.space	4
 1699              		.section	.bss.avgcellvoltraw,"aw",%nobits
 1700              		.align	2
 1701              		.type	avgcellvoltraw, %object
 1702              		.size	avgcellvoltraw, 4
 1703              	avgcellvoltraw:
 1704 0000 00000000 		.space	4
 1705              		.section	.bss.cellvolt8,"aw",%nobits
 1706              		.align	2
 1707              		.type	cellvolt8, %object
 1708              		.size	cellvolt8, 4
 1709              	cellvolt8:
 1710 0000 00000000 		.space	4
 1711              		.section	.bss.cellvolt9,"aw",%nobits
 1712              		.align	2
 1713              		.type	cellvolt9, %object
 1714              		.size	cellvolt9, 4
 1715              	cellvolt9:
 1716 0000 00000000 		.space	4
 1717              		.section	.bss.energijoule2_1,"aw",%nobits
 1718              		.align	2
 1719              		.type	energijoule2_1, %object
 1720              		.size	energijoule2_1, 4
 1721              	energijoule2_1:
 1722 0000 00000000 		.space	4
 1723              		.section	.bss.energijoule2_2,"aw",%nobits
 1724              		.align	2
 1725              		.type	energijoule2_2, %object
 1726              		.size	energijoule2_2, 4
 1727              	energijoule2_2:
 1728 0000 00000000 		.space	4
 1729              		.section	.bss.waShellsd1.9668,"aw",%nobits
 1730              		.align	3
 1731              		.set	.LANCHOR2,. + 0
 1732              		.type	waShellsd1.9668, %object
 1733              		.size	waShellsd1.9668, 2360
 1734              	waShellsd1.9668:
 1735 0000 00000000 		.space	2360
 1735      00000000 
 1735      00000000 
 1735      00000000 
 1735      00000000 
 1736              		.section	.bss.mppt3_v,"aw",%nobits
 1737              		.align	2
 1738              		.type	mppt3_v, %object
 1739              		.size	mppt3_v, 4
 1740              	mppt3_v:
ARM GAS  /tmp/ccg0MrMf.s 			page 32


 1741 0000 00000000 		.space	4
 1742              		.section	.bss.voltMPPT11_1,"aw",%nobits
 1743              		.align	2
 1744              		.type	voltMPPT11_1, %object
 1745              		.size	voltMPPT11_1, 4
 1746              	voltMPPT11_1:
 1747 0000 00000000 		.space	4
 1748              		.section	.bss.voltMPPT11_2,"aw",%nobits
 1749              		.align	2
 1750              		.type	voltMPPT11_2, %object
 1751              		.size	voltMPPT11_2, 4
 1752              	voltMPPT11_2:
 1753 0000 00000000 		.space	4
 1754              		.section	.bss.mppt13_i,"aw",%nobits
 1755              		.align	2
 1756              		.type	mppt13_i, %object
 1757              		.size	mppt13_i, 4
 1758              	mppt13_i:
 1759 0000 00000000 		.space	4
 1760              		.section	.bss.energy1_wh,"aw",%nobits
 1761              		.align	2
 1762              		.type	energy1_wh, %object
 1763              		.size	energy1_wh, 4
 1764              	energy1_wh:
 1765 0000 00000000 		.space	4
 1766              		.section	.bss.mppt13_v,"aw",%nobits
 1767              		.align	2
 1768              		.type	mppt13_v, %object
 1769              		.size	mppt13_v, 4
 1770              	mppt13_v:
 1771 0000 00000000 		.space	4
 1772              		.section	.bss.cellvolt10raw,"aw",%nobits
 1773              		.align	2
 1774              		.type	cellvolt10raw, %object
 1775              		.size	cellvolt10raw, 4
 1776              	cellvolt10raw:
 1777 0000 00000000 		.space	4
 1778              		.section	.bss.cellvolt17_1,"aw",%nobits
 1779              		.align	2
 1780              		.type	cellvolt17_1, %object
 1781              		.size	cellvolt17_1, 4
 1782              	cellvolt17_1:
 1783 0000 00000000 		.space	4
 1784              		.section	.bss.RxMessage333,"aw",%nobits
 1785              		.align	2
 1786              		.type	RxMessage333, %object
 1787              		.size	RxMessage333, 32
 1788              	RxMessage333:
 1789 0000 00000000 		.space	32
 1789      00000000 
 1789      00000000 
 1789      00000000 
 1789      00000000 
 1790              		.section	.bss.volt2,"aw",%nobits
 1791              		.align	2
 1792              		.type	volt2, %object
 1793              		.size	volt2, 4
ARM GAS  /tmp/ccg0MrMf.s 			page 33


 1794              	volt2:
 1795 0000 00000000 		.space	4
 1796              		.section	.bss.volt3,"aw",%nobits
 1797              		.align	2
 1798              		.type	volt3, %object
 1799              		.size	volt3, 4
 1800              	volt3:
 1801 0000 00000000 		.space	4
 1802              		.section	.bss.SDU1,"aw",%nobits
 1803              		.align	2
 1804              		.set	.LANCHOR0,. + 0
 1805              		.type	SDU1, %object
 1806              		.size	SDU1, 600
 1807              	SDU1:
 1808 0000 00000000 		.space	600
 1808      00000000 
 1808      00000000 
 1808      00000000 
 1808      00000000 
 1809              		.section	.bss.cellvolt5raw,"aw",%nobits
 1810              		.align	2
 1811              		.type	cellvolt5raw, %object
 1812              		.size	cellvolt5raw, 4
 1813              	cellvolt5raw:
 1814 0000 00000000 		.space	4
 1815              		.section	.bss.cellvolt33raw,"aw",%nobits
 1816              		.align	2
 1817              		.type	cellvolt33raw, %object
 1818              		.size	cellvolt33raw, 4
 1819              	cellvolt33raw:
 1820 0000 00000000 		.space	4
 1821              		.section	.bss.cellvolt17raw,"aw",%nobits
 1822              		.align	2
 1823              		.type	cellvolt17raw, %object
 1824              		.size	cellvolt17raw, 4
 1825              	cellvolt17raw:
 1826 0000 00000000 		.space	4
 1827              		.section	.bss.currentMPPT10_1,"aw",%nobits
 1828              		.align	2
 1829              		.type	currentMPPT10_1, %object
 1830              		.size	currentMPPT10_1, 4
 1831              	currentMPPT10_1:
 1832 0000 00000000 		.space	4
 1833              		.section	.bss.cellvolt27raw,"aw",%nobits
 1834              		.align	2
 1835              		.type	cellvolt27raw, %object
 1836              		.size	cellvolt27raw, 4
 1837              	cellvolt27raw:
 1838 0000 00000000 		.space	4
 1839              		.section	.bss.jam,"aw",%nobits
 1840              		.align	2
 1841              		.type	jam, %object
 1842              		.size	jam, 4
 1843              	jam:
 1844 0000 00000000 		.space	4
 1845              		.section	.bss.voltMPPT1,"aw",%nobits
 1846              		.align	2
ARM GAS  /tmp/ccg0MrMf.s 			page 34


 1847              		.type	voltMPPT1, %object
 1848              		.size	voltMPPT1, 4
 1849              	voltMPPT1:
 1850 0000 00000000 		.space	4
 1851              		.section	.bss.voltMPPT2,"aw",%nobits
 1852              		.align	2
 1853              		.type	voltMPPT2, %object
 1854              		.size	voltMPPT2, 4
 1855              	voltMPPT2:
 1856 0000 00000000 		.space	4
 1857              		.section	.bss.voltMPPT3,"aw",%nobits
 1858              		.align	2
 1859              		.type	voltMPPT3, %object
 1860              		.size	voltMPPT3, 4
 1861              	voltMPPT3:
 1862 0000 00000000 		.space	4
 1863              		.section	.bss.voltMPPT4,"aw",%nobits
 1864              		.align	2
 1865              		.type	voltMPPT4, %object
 1866              		.size	voltMPPT4, 4
 1867              	voltMPPT4:
 1868 0000 00000000 		.space	4
 1869              		.section	.bss.voltMPPT5,"aw",%nobits
 1870              		.align	2
 1871              		.type	voltMPPT5, %object
 1872              		.size	voltMPPT5, 4
 1873              	voltMPPT5:
 1874 0000 00000000 		.space	4
 1875              		.section	.bss.voltMPPT6,"aw",%nobits
 1876              		.align	2
 1877              		.type	voltMPPT6, %object
 1878              		.size	voltMPPT6, 4
 1879              	voltMPPT6:
 1880 0000 00000000 		.space	4
 1881              		.section	.bss.voltMPPT7,"aw",%nobits
 1882              		.align	2
 1883              		.type	voltMPPT7, %object
 1884              		.size	voltMPPT7, 4
 1885              	voltMPPT7:
 1886 0000 00000000 		.space	4
 1887              		.section	.bss.voltMPPT8,"aw",%nobits
 1888              		.align	2
 1889              		.type	voltMPPT8, %object
 1890              		.size	voltMPPT8, 4
 1891              	voltMPPT8:
 1892 0000 00000000 		.space	4
 1893              		.section	.bss.voltMPPT9,"aw",%nobits
 1894              		.align	2
 1895              		.type	voltMPPT9, %object
 1896              		.size	voltMPPT9, 4
 1897              	voltMPPT9:
 1898 0000 00000000 		.space	4
 1899              		.section	.bss.currentMPPT9_1,"aw",%nobits
 1900              		.align	2
 1901              		.type	currentMPPT9_1, %object
 1902              		.size	currentMPPT9_1, 4
 1903              	currentMPPT9_1:
ARM GAS  /tmp/ccg0MrMf.s 			page 35


 1904 0000 00000000 		.space	4
 1905              		.section	.bss.currentMPPT9_2,"aw",%nobits
 1906              		.align	2
 1907              		.type	currentMPPT9_2, %object
 1908              		.size	currentMPPT9_2, 4
 1909              	currentMPPT9_2:
 1910 0000 00000000 		.space	4
 1911              		.section	.bss.RxMessage3CB,"aw",%nobits
 1912              		.align	2
 1913              		.type	RxMessage3CB, %object
 1914              		.size	RxMessage3CB, 32
 1915              	RxMessage3CB:
 1916 0000 00000000 		.space	32
 1916      00000000 
 1916      00000000 
 1916      00000000 
 1916      00000000 
 1917              		.section	.bss.currentMPPT15_1,"aw",%nobits
 1918              		.align	2
 1919              		.type	currentMPPT15_1, %object
 1920              		.size	currentMPPT15_1, 4
 1921              	currentMPPT15_1:
 1922 0000 00000000 		.space	4
 1923              		.section	.bss.currentjoule1,"aw",%nobits
 1924              		.align	2
 1925              		.type	currentjoule1, %object
 1926              		.size	currentjoule1, 4
 1927              	currentjoule1:
 1928 0000 00000000 		.space	4
 1929              		.section	.bss.currentjoule2,"aw",%nobits
 1930              		.align	2
 1931              		.type	currentjoule2, %object
 1932              		.size	currentjoule2, 4
 1933              	currentjoule2:
 1934 0000 00000000 		.space	4
 1935              		.section	.bss.currentjoule3,"aw",%nobits
 1936              		.align	2
 1937              		.type	currentjoule3, %object
 1938              		.size	currentjoule3, 4
 1939              	currentjoule3:
 1940 0000 00000000 		.space	4
 1941              		.section	.bss.cellvolt0_2,"aw",%nobits
 1942              		.align	2
 1943              		.type	cellvolt0_2, %object
 1944              		.size	cellvolt0_2, 4
 1945              	cellvolt0_2:
 1946 0000 00000000 		.space	4
 1947              		.section	.bss.currentMPPT4_2,"aw",%nobits
 1948              		.align	2
 1949              		.type	currentMPPT4_2, %object
 1950              		.size	currentMPPT4_2, 4
 1951              	currentMPPT4_2:
 1952 0000 00000000 		.space	4
 1953              		.section	.bss.cellvolt18,"aw",%nobits
 1954              		.align	2
 1955              		.type	cellvolt18, %object
 1956              		.size	cellvolt18, 4
ARM GAS  /tmp/ccg0MrMf.s 			page 36


 1957              	cellvolt18:
 1958 0000 00000000 		.space	4
 1959              		.section	.bss.cellvolt5_1,"aw",%nobits
 1960              		.align	2
 1961              		.type	cellvolt5_1, %object
 1962              		.size	cellvolt5_1, 4
 1963              	cellvolt5_1:
 1964 0000 00000000 		.space	4
 1965              		.section	.bss.cellvolt5_2,"aw",%nobits
 1966              		.align	2
 1967              		.type	cellvolt5_2, %object
 1968              		.size	cellvolt5_2, 4
 1969              	cellvolt5_2:
 1970 0000 00000000 		.space	4
 1971              		.section	.bss.cellvolt28_2,"aw",%nobits
 1972              		.align	2
 1973              		.type	cellvolt28_2, %object
 1974              		.size	cellvolt28_2, 4
 1975              	cellvolt28_2:
 1976 0000 00000000 		.space	4
 1977              		.section	.bss.energijoule1_1,"aw",%nobits
 1978              		.align	2
 1979              		.type	energijoule1_1, %object
 1980              		.size	energijoule1_1, 4
 1981              	energijoule1_1:
 1982 0000 00000000 		.space	4
 1983              		.section	.bss.currentMPPT2_1,"aw",%nobits
 1984              		.align	2
 1985              		.type	currentMPPT2_1, %object
 1986              		.size	currentMPPT2_1, 4
 1987              	currentMPPT2_1:
 1988 0000 00000000 		.space	4
 1989              		.section	.bss.cellvolt23_2,"aw",%nobits
 1990              		.align	2
 1991              		.type	cellvolt23_2, %object
 1992              		.size	cellvolt23_2, 4
 1993              	cellvolt23_2:
 1994 0000 00000000 		.space	4
 1995              		.section	.bss.currentMPPT2_2,"aw",%nobits
 1996              		.align	2
 1997              		.type	currentMPPT2_2, %object
 1998              		.size	currentMPPT2_2, 4
 1999              	currentMPPT2_2:
 2000 0000 00000000 		.space	4
 2001              		.section	.bss.voltMPPT6_1,"aw",%nobits
 2002              		.align	2
 2003              		.type	voltMPPT6_1, %object
 2004              		.size	voltMPPT6_1, 4
 2005              	voltMPPT6_1:
 2006 0000 00000000 		.space	4
 2007              		.section	.bss.voltMPPT6_2,"aw",%nobits
 2008              		.align	2
 2009              		.type	voltMPPT6_2, %object
 2010              		.size	voltMPPT6_2, 4
 2011              	voltMPPT6_2:
 2012 0000 00000000 		.space	4
 2013              		.section	.bss.TxMessage,"aw",%nobits
ARM GAS  /tmp/ccg0MrMf.s 			page 37


 2014              		.align	2
 2015              		.set	.LANCHOR4,. + 0
 2016              		.type	TxMessage, %object
 2017              		.size	TxMessage, 28
 2018              	TxMessage:
 2019 0000 00000000 		.space	28
 2019      00000000 
 2019      00000000 
 2019      00000000 
 2019      00000000 
 2020              		.section	.bss.cellvolt17_2,"aw",%nobits
 2021              		.align	2
 2022              		.type	cellvolt17_2, %object
 2023              		.size	cellvolt17_2, 4
 2024              	cellvolt17_2:
 2025 0000 00000000 		.space	4
 2026              		.section	.bss.cellvolt23raw,"aw",%nobits
 2027              		.align	2
 2028              		.type	cellvolt23raw, %object
 2029              		.size	cellvolt23raw, 4
 2030              	cellvolt23raw:
 2031 0000 00000000 		.space	4
 2032              		.section	.bss.detik,"aw",%nobits
 2033              		.align	2
 2034              		.type	detik, %object
 2035              		.size	detik, 4
 2036              	detik:
 2037 0000 00000000 		.space	4
 2038              		.section	.bss.cellvolt0_1,"aw",%nobits
 2039              		.align	2
 2040              		.type	cellvolt0_1, %object
 2041              		.size	cellvolt0_1, 4
 2042              	cellvolt0_1:
 2043 0000 00000000 		.space	4
 2044              		.section	.bss.voltMPPT1_1,"aw",%nobits
 2045              		.align	2
 2046              		.type	voltMPPT1_1, %object
 2047              		.size	voltMPPT1_1, 4
 2048              	voltMPPT1_1:
 2049 0000 00000000 		.space	4
 2050              		.section	.bss.voltMPPT1_2,"aw",%nobits
 2051              		.align	2
 2052              		.type	voltMPPT1_2, %object
 2053              		.size	voltMPPT1_2, 4
 2054              	voltMPPT1_2:
 2055 0000 00000000 		.space	4
 2056              		.section	.bss.currentMPPT14_1,"aw",%nobits
 2057              		.align	2
 2058              		.type	currentMPPT14_1, %object
 2059              		.size	currentMPPT14_1, 4
 2060              	currentMPPT14_1:
 2061 0000 00000000 		.space	4
 2062              		.section	.bss.volt1,"aw",%nobits
 2063              		.align	2
 2064              		.type	volt1, %object
 2065              		.size	volt1, 4
 2066              	volt1:
ARM GAS  /tmp/ccg0MrMf.s 			page 38


 2067 0000 00000000 		.space	4
 2068              		.section	.bss.cellvolt12_1,"aw",%nobits
 2069              		.align	2
 2070              		.type	cellvolt12_1, %object
 2071              		.size	cellvolt12_1, 4
 2072              	cellvolt12_1:
 2073 0000 00000000 		.space	4
 2074              		.section	.bss.cellvolt12_2,"aw",%nobits
 2075              		.align	2
 2076              		.type	cellvolt12_2, %object
 2077              		.size	cellvolt12_2, 4
 2078              	cellvolt12_2:
 2079 0000 00000000 		.space	4
 2080              		.section	.bss.RxMessage3B,"aw",%nobits
 2081              		.align	2
 2082              		.type	RxMessage3B, %object
 2083              		.size	RxMessage3B, 32
 2084              	RxMessage3B:
 2085 0000 00000000 		.space	32
 2085      00000000 
 2085      00000000 
 2085      00000000 
 2085      00000000 
 2086              		.section	.bss.energy3_wh,"aw",%nobits
 2087              		.align	2
 2088              		.type	energy3_wh, %object
 2089              		.size	energy3_wh, 4
 2090              	energy3_wh:
 2091 0000 00000000 		.space	4
 2092              		.section	.bss.currentMPPT10,"aw",%nobits
 2093              		.align	2
 2094              		.type	currentMPPT10, %object
 2095              		.size	currentMPPT10, 4
 2096              	currentMPPT10:
 2097 0000 00000000 		.space	4
 2098              		.section	.bss.currentMPPT11,"aw",%nobits
 2099              		.align	2
 2100              		.type	currentMPPT11, %object
 2101              		.size	currentMPPT11, 4
 2102              	currentMPPT11:
 2103 0000 00000000 		.space	4
 2104              		.section	.bss.currentMPPT12,"aw",%nobits
 2105              		.align	2
 2106              		.type	currentMPPT12, %object
 2107              		.size	currentMPPT12, 4
 2108              	currentMPPT12:
 2109 0000 00000000 		.space	4
 2110              		.section	.bss.currentMPPT13,"aw",%nobits
 2111              		.align	2
 2112              		.type	currentMPPT13, %object
 2113              		.size	currentMPPT13, 4
 2114              	currentMPPT13:
 2115 0000 00000000 		.space	4
 2116              		.section	.bss.cellvolt12raw,"aw",%nobits
 2117              		.align	2
 2118              		.type	cellvolt12raw, %object
 2119              		.size	cellvolt12raw, 4
ARM GAS  /tmp/ccg0MrMf.s 			page 39


 2120              	cellvolt12raw:
 2121 0000 00000000 		.space	4
 2122              		.section	.bss.currentMPPT15,"aw",%nobits
 2123              		.align	2
 2124              		.type	currentMPPT15, %object
 2125              		.size	currentMPPT15, 4
 2126              	currentMPPT15:
 2127 0000 00000000 		.space	4
 2128              		.section	.bss.mppt6_i,"aw",%nobits
 2129              		.align	2
 2130              		.type	mppt6_i, %object
 2131              		.size	mppt6_i, 4
 2132              	mppt6_i:
 2133 0000 00000000 		.space	4
 2134              		.section	.bss.RxMessage11,"aw",%nobits
 2135              		.align	2
 2136              		.type	RxMessage11, %object
 2137              		.size	RxMessage11, 32
 2138              	RxMessage11:
 2139 0000 00000000 		.space	32
 2139      00000000 
 2139      00000000 
 2139      00000000 
 2139      00000000 
 2140              		.section	.bss.RxMessage12D,"aw",%nobits
 2141              		.align	2
 2142              		.type	RxMessage12D, %object
 2143              		.size	RxMessage12D, 32
 2144              	RxMessage12D:
 2145 0000 00000000 		.space	32
 2145      00000000 
 2145      00000000 
 2145      00000000 
 2145      00000000 
 2146              		.section	.bss.currentjoule2_1,"aw",%nobits
 2147              		.align	2
 2148              		.type	currentjoule2_1, %object
 2149              		.size	currentjoule2_1, 4
 2150              	currentjoule2_1:
 2151 0000 00000000 		.space	4
 2152              		.section	.bss.currentjoule2_2,"aw",%nobits
 2153              		.align	2
 2154              		.type	currentjoule2_2, %object
 2155              		.size	currentjoule2_2, 4
 2156              	currentjoule2_2:
 2157 0000 00000000 		.space	4
 2158              		.section	.bss.mppt6_v,"aw",%nobits
 2159              		.align	2
 2160              		.type	mppt6_v, %object
 2161              		.size	mppt6_v, 4
 2162              	mppt6_v:
 2163 0000 00000000 		.space	4
 2164              		.section	.bss.mppt1_i,"aw",%nobits
 2165              		.align	2
 2166              		.type	mppt1_i, %object
 2167              		.size	mppt1_i, 4
 2168              	mppt1_i:
ARM GAS  /tmp/ccg0MrMf.s 			page 40


 2169 0000 00000000 		.space	4
 2170              		.section	.bss.arus2,"aw",%nobits
 2171              		.align	2
 2172              		.type	arus2, %object
 2173              		.size	arus2, 4
 2174              	arus2:
 2175 0000 00000000 		.space	4
 2176              		.section	.bss.RxMessage1B,"aw",%nobits
 2177              		.align	2
 2178              		.type	RxMessage1B, %object
 2179              		.size	RxMessage1B, 32
 2180              	RxMessage1B:
 2181 0000 00000000 		.space	32
 2181      00000000 
 2181      00000000 
 2181      00000000 
 2181      00000000 
 2182              		.section	.bss.arus3,"aw",%nobits
 2183              		.align	2
 2184              		.type	arus3, %object
 2185              		.size	arus3, 4
 2186              	arus3:
 2187 0000 00000000 		.space	4
 2188              		.section	.bss.RxMessage6B2,"aw",%nobits
 2189              		.align	2
 2190              		.type	RxMessage6B2, %object
 2191              		.size	RxMessage6B2, 32
 2192              	RxMessage6B2:
 2193 0000 00000000 		.space	32
 2193      00000000 
 2193      00000000 
 2193      00000000 
 2193      00000000 
 2194              		.section	.bss.cellvolt3raw,"aw",%nobits
 2195              		.align	2
 2196              		.type	cellvolt3raw, %object
 2197              		.size	cellvolt3raw, 4
 2198              	cellvolt3raw:
 2199 0000 00000000 		.space	4
 2200              		.section	.bss.cellvolt7raw,"aw",%nobits
 2201              		.align	2
 2202              		.type	cellvolt7raw, %object
 2203              		.size	cellvolt7raw, 4
 2204              	cellvolt7raw:
 2205 0000 00000000 		.space	4
 2206              		.section	.bss.lowtemp,"aw",%nobits
 2207              		.align	2
 2208              		.type	lowtemp, %object
 2209              		.size	lowtemp, 4
 2210              	lowtemp:
 2211 0000 00000000 		.space	4
 2212              		.section	.bss.cellvolt29_2,"aw",%nobits
 2213              		.align	2
 2214              		.type	cellvolt29_2, %object
 2215              		.size	cellvolt29_2, 4
 2216              	cellvolt29_2:
 2217 0000 00000000 		.space	4
ARM GAS  /tmp/ccg0MrMf.s 			page 41


 2218              		.section	.bss.cellvolt19raw,"aw",%nobits
 2219              		.align	2
 2220              		.type	cellvolt19raw, %object
 2221              		.size	cellvolt19raw, 4
 2222              	cellvolt19raw:
 2223 0000 00000000 		.space	4
 2224              		.section	.bss.cellvolt16_1,"aw",%nobits
 2225              		.align	2
 2226              		.type	cellvolt16_1, %object
 2227              		.size	cellvolt16_1, 4
 2228              	cellvolt16_1:
 2229 0000 00000000 		.space	4
 2230              		.section	.bss.voltjoule2_1,"aw",%nobits
 2231              		.align	2
 2232              		.type	voltjoule2_1, %object
 2233              		.size	voltjoule2_1, 4
 2234              	voltjoule2_1:
 2235 0000 00000000 		.space	4
 2236              		.section	.bss.voltjoule2_2,"aw",%nobits
 2237              		.align	2
 2238              		.type	voltjoule2_2, %object
 2239              		.size	voltjoule2_2, 4
 2240              	voltjoule2_2:
 2241 0000 00000000 		.space	4
 2242              		.section	.bss.voltMPPT10_2,"aw",%nobits
 2243              		.align	2
 2244              		.type	voltMPPT10_2, %object
 2245              		.size	voltMPPT10_2, 4
 2246              	voltMPPT10_2:
 2247 0000 00000000 		.space	4
 2248              		.section	.bss.rpm,"aw",%nobits
 2249              		.align	2
 2250              		.set	.LANCHOR3,. + 0
 2251              		.type	rpm, %object
 2252              		.size	rpm, 4
 2253              	rpm:
 2254 0000 00000000 		.space	4
 2255              		.section	.bss.RxMessage137,"aw",%nobits
 2256              		.align	2
 2257              		.type	RxMessage137, %object
 2258              		.size	RxMessage137, 32
 2259              	RxMessage137:
 2260 0000 00000000 		.space	32
 2260      00000000 
 2260      00000000 
 2260      00000000 
 2260      00000000 
 2261              		.section	.bss.daya1,"aw",%nobits
 2262              		.align	2
 2263              		.type	daya1, %object
 2264              		.size	daya1, 4
 2265              	daya1:
 2266 0000 00000000 		.space	4
 2267              		.section	.bss.daya2,"aw",%nobits
 2268              		.align	2
 2269              		.type	daya2, %object
 2270              		.size	daya2, 4
ARM GAS  /tmp/ccg0MrMf.s 			page 42


 2271              	daya2:
 2272 0000 00000000 		.space	4
 2273              		.section	.bss.daya3,"aw",%nobits
 2274              		.align	2
 2275              		.type	daya3, %object
 2276              		.size	daya3, 4
 2277              	daya3:
 2278 0000 00000000 		.space	4
 2279              		.section	.bss.cellvolt21raw,"aw",%nobits
 2280              		.align	2
 2281              		.type	cellvolt21raw, %object
 2282              		.size	cellvolt21raw, 4
 2283              	cellvolt21raw:
 2284 0000 00000000 		.space	4
 2285              		.section	.bss.jam_1,"aw",%nobits
 2286              		.align	2
 2287              		.type	jam_1, %object
 2288              		.size	jam_1, 4
 2289              	jam_1:
 2290 0000 00000000 		.space	4
 2291              		.section	.bss.jam_2,"aw",%nobits
 2292              		.align	2
 2293              		.type	jam_2, %object
 2294              		.size	jam_2, 4
 2295              	jam_2:
 2296 0000 00000000 		.space	4
 2297              		.section	.bss.avgcellvolt1,"aw",%nobits
 2298              		.align	2
 2299              		.type	avgcellvolt1, %object
 2300              		.size	avgcellvolt1, 4
 2301              	avgcellvolt1:
 2302 0000 00000000 		.space	4
 2303              		.section	.bss.lowvolt,"aw",%nobits
 2304              		.align	2
 2305              		.type	lowvolt, %object
 2306              		.size	lowvolt, 4
 2307              	lowvolt:
 2308 0000 00000000 		.space	4
 2309              		.section	.bss.wattjoule3_1,"aw",%nobits
 2310              		.align	2
 2311              		.type	wattjoule3_1, %object
 2312              		.size	wattjoule3_1, 4
 2313              	wattjoule3_1:
 2314 0000 00000000 		.space	4
 2315              		.section	.bss.wattjoule3_2,"aw",%nobits
 2316              		.align	2
 2317              		.type	wattjoule3_2, %object
 2318              		.size	wattjoule3_2, 4
 2319              	wattjoule3_2:
 2320 0000 00000000 		.space	4
 2321              		.section	.rodata.commands,"a",%progbits
 2322              		.align	2
 2323              		.type	commands, %object
 2324              		.size	commands, 24
 2325              	commands:
 2326 0000 14000000 		.word	.LC4
 2327 0004 00000000 		.word	sendCan
ARM GAS  /tmp/ccg0MrMf.s 			page 43


 2328 0008 18000000 		.word	.LC5
 2329 000c 00000000 		.word	send_data
 2330 0010 00000000 		.word	0
 2331 0014 00000000 		.word	0
 2332              		.section	.bss.cellvolt33_1,"aw",%nobits
 2333              		.align	2
 2334              		.type	cellvolt33_1, %object
 2335              		.size	cellvolt33_1, 4
 2336              	cellvolt33_1:
 2337 0000 00000000 		.space	4
 2338              		.section	.bss.cellvolt33_2,"aw",%nobits
 2339              		.align	2
 2340              		.type	cellvolt33_2, %object
 2341              		.size	cellvolt33_2, 4
 2342              	cellvolt33_2:
 2343 0000 00000000 		.space	4
 2344              		.section	.bss.currentMPPT1,"aw",%nobits
 2345              		.align	2
 2346              		.type	currentMPPT1, %object
 2347              		.size	currentMPPT1, 4
 2348              	currentMPPT1:
 2349 0000 00000000 		.space	4
 2350              		.section	.bss.currentMPPT2,"aw",%nobits
 2351              		.align	2
 2352              		.type	currentMPPT2, %object
 2353              		.size	currentMPPT2, 4
 2354              	currentMPPT2:
 2355 0000 00000000 		.space	4
 2356              		.section	.bss.currentMPPT3,"aw",%nobits
 2357              		.align	2
 2358              		.type	currentMPPT3, %object
 2359              		.size	currentMPPT3, 4
 2360              	currentMPPT3:
 2361 0000 00000000 		.space	4
 2362              		.section	.bss.currentMPPT4,"aw",%nobits
 2363              		.align	2
 2364              		.type	currentMPPT4, %object
 2365              		.size	currentMPPT4, 4
 2366              	currentMPPT4:
 2367 0000 00000000 		.space	4
 2368              		.section	.bss.currentMPPT5,"aw",%nobits
 2369              		.align	2
 2370              		.type	currentMPPT5, %object
 2371              		.size	currentMPPT5, 4
 2372              	currentMPPT5:
 2373 0000 00000000 		.space	4
 2374              		.section	.bss.currentMPPT6,"aw",%nobits
 2375              		.align	2
 2376              		.type	currentMPPT6, %object
 2377              		.size	currentMPPT6, 4
 2378              	currentMPPT6:
 2379 0000 00000000 		.space	4
 2380              		.section	.bss.currentMPPT7,"aw",%nobits
 2381              		.align	2
 2382              		.type	currentMPPT7, %object
 2383              		.size	currentMPPT7, 4
 2384              	currentMPPT7:
ARM GAS  /tmp/ccg0MrMf.s 			page 44


 2385 0000 00000000 		.space	4
 2386              		.section	.bss.currentMPPT8,"aw",%nobits
 2387              		.align	2
 2388              		.type	currentMPPT8, %object
 2389              		.size	currentMPPT8, 4
 2390              	currentMPPT8:
 2391 0000 00000000 		.space	4
 2392              		.section	.bss.currentMPPT9,"aw",%nobits
 2393              		.align	2
 2394              		.type	currentMPPT9, %object
 2395              		.size	currentMPPT9, 4
 2396              	currentMPPT9:
 2397 0000 00000000 		.space	4
 2398              		.section	.bss.cellvolt19,"aw",%nobits
 2399              		.align	2
 2400              		.type	cellvolt19, %object
 2401              		.size	cellvolt19, 4
 2402              	cellvolt19:
 2403 0000 00000000 		.space	4
 2404              		.section	.bss.currentMPPT7_1,"aw",%nobits
 2405              		.align	2
 2406              		.type	currentMPPT7_1, %object
 2407              		.size	currentMPPT7_1, 4
 2408              	currentMPPT7_1:
 2409 0000 00000000 		.space	4
 2410              		.section	.bss.currentMPPT7_2,"aw",%nobits
 2411              		.align	2
 2412              		.type	currentMPPT7_2, %object
 2413              		.size	currentMPPT7_2, 4
 2414              	currentMPPT7_2:
 2415 0000 00000000 		.space	4
 2416              		.section	.bss.cellvolt26,"aw",%nobits
 2417              		.align	2
 2418              		.type	cellvolt26, %object
 2419              		.size	cellvolt26, 4
 2420              	cellvolt26:
 2421 0000 00000000 		.space	4
 2422              		.section	.bss.packvoltraw,"aw",%nobits
 2423              		.align	2
 2424              		.type	packvoltraw, %object
 2425              		.size	packvoltraw, 4
 2426              	packvoltraw:
 2427 0000 00000000 		.space	4
 2428              		.section	.bss.amphours,"aw",%nobits
 2429              		.align	2
 2430              		.type	amphours, %object
 2431              		.size	amphours, 4
 2432              	amphours:
 2433 0000 00000000 		.space	4
 2434              		.section	.bss.cellvolt32_1,"aw",%nobits
 2435              		.align	2
 2436              		.type	cellvolt32_1, %object
 2437              		.size	cellvolt32_1, 4
 2438              	cellvolt32_1:
 2439 0000 00000000 		.space	4
 2440              		.section	.bss.cellvolt32_2,"aw",%nobits
 2441              		.align	2
ARM GAS  /tmp/ccg0MrMf.s 			page 45


 2442              		.type	cellvolt32_2, %object
 2443              		.size	cellvolt32_2, 4
 2444              	cellvolt32_2:
 2445 0000 00000000 		.space	4
 2446              		.section	.bss.energijoule2,"aw",%nobits
 2447              		.align	2
 2448              		.type	energijoule2, %object
 2449              		.size	energijoule2, 4
 2450              	energijoule2:
 2451 0000 00000000 		.space	4
 2452              		.section	.bss.RxMessage36,"aw",%nobits
 2453              		.align	2
 2454              		.type	RxMessage36, %object
 2455              		.size	RxMessage36, 32
 2456              	RxMessage36:
 2457 0000 00000000 		.space	32
 2457      00000000 
 2457      00000000 
 2457      00000000 
 2457      00000000 
 2458              		.section	.bss.cellvolt2raw,"aw",%nobits
 2459              		.align	2
 2460              		.type	cellvolt2raw, %object
 2461              		.size	cellvolt2raw, 4
 2462              	cellvolt2raw:
 2463 0000 00000000 		.space	4
 2464              		.section	.bss.cellvolt30raw,"aw",%nobits
 2465              		.align	2
 2466              		.type	cellvolt30raw, %object
 2467              		.size	cellvolt30raw, 4
 2468              	cellvolt30raw:
 2469 0000 00000000 		.space	4
 2470              		.section	.bss.cellvolt8_1,"aw",%nobits
 2471              		.align	2
 2472              		.type	cellvolt8_1, %object
 2473              		.size	cellvolt8_1, 4
 2474              	cellvolt8_1:
 2475 0000 00000000 		.space	4
 2476              		.section	.bss.cellvolt8_2,"aw",%nobits
 2477              		.align	2
 2478              		.type	cellvolt8_2, %object
 2479              		.size	cellvolt8_2, 4
 2480              	cellvolt8_2:
 2481 0000 00000000 		.space	4
 2482              		.section	.bss.voltMPPT9_2,"aw",%nobits
 2483              		.align	2
 2484              		.type	voltMPPT9_2, %object
 2485              		.size	voltMPPT9_2, 4
 2486              	voltMPPT9_2:
 2487 0000 00000000 		.space	4
 2488              		.section	.bss.lowvolt1,"aw",%nobits
 2489              		.align	2
 2490              		.type	lowvolt1, %object
 2491              		.size	lowvolt1, 4
 2492              	lowvolt1:
 2493 0000 00000000 		.space	4
 2494              		.section	.bss.lowvolt2,"aw",%nobits
ARM GAS  /tmp/ccg0MrMf.s 			page 46


 2495              		.align	2
 2496              		.type	lowvolt2, %object
 2497              		.size	lowvolt2, 4
 2498              	lowvolt2:
 2499 0000 00000000 		.space	4
 2500              		.section	.bss.amphours1,"aw",%nobits
 2501              		.align	2
 2502              		.type	amphours1, %object
 2503              		.size	amphours1, 4
 2504              	amphours1:
 2505 0000 00000000 		.space	4
 2506              		.section	.bss.currentMPPT1_1,"aw",%nobits
 2507              		.align	2
 2508              		.type	currentMPPT1_1, %object
 2509              		.size	currentMPPT1_1, 4
 2510              	currentMPPT1_1:
 2511 0000 00000000 		.space	4
 2512              		.section	.bss.currentMPPT1_2,"aw",%nobits
 2513              		.align	2
 2514              		.type	currentMPPT1_2, %object
 2515              		.size	currentMPPT1_2, 4
 2516              	currentMPPT1_2:
 2517 0000 00000000 		.space	4
 2518              		.section	.bss.cellvolt21_1,"aw",%nobits
 2519              		.align	2
 2520              		.type	cellvolt21_1, %object
 2521              		.size	cellvolt21_1, 4
 2522              	cellvolt21_1:
 2523 0000 00000000 		.space	4
 2524              		.section	.bss.cellvolt21_2,"aw",%nobits
 2525              		.align	2
 2526              		.type	cellvolt21_2, %object
 2527              		.size	cellvolt21_2, 4
 2528              	cellvolt21_2:
 2529 0000 00000000 		.space	4
 2530              		.section	.bss.cellvolt3_1,"aw",%nobits
 2531              		.align	2
 2532              		.type	cellvolt3_1, %object
 2533              		.size	cellvolt3_1, 4
 2534              	cellvolt3_1:
 2535 0000 00000000 		.space	4
 2536              		.section	.bss.voltMPPT4_1,"aw",%nobits
 2537              		.align	2
 2538              		.type	voltMPPT4_1, %object
 2539              		.size	voltMPPT4_1, 4
 2540              	voltMPPT4_1:
 2541 0000 00000000 		.space	4
 2542              		.section	.bss.currentMPPT6_2,"aw",%nobits
 2543              		.align	2
 2544              		.type	currentMPPT6_2, %object
 2545              		.size	currentMPPT6_2, 4
 2546              	currentMPPT6_2:
 2547 0000 00000000 		.space	4
 2548              		.section	.bss.cellvolt26raw,"aw",%nobits
 2549              		.align	2
 2550              		.type	cellvolt26raw, %object
 2551              		.size	cellvolt26raw, 4
ARM GAS  /tmp/ccg0MrMf.s 			page 47


 2552              	cellvolt26raw:
 2553 0000 00000000 		.space	4
 2554              		.section	.bss.hightemp,"aw",%nobits
 2555              		.align	2
 2556              		.type	hightemp, %object
 2557              		.size	hightemp, 4
 2558              	hightemp:
 2559 0000 00000000 		.space	4
 2560              		.section	.bss.avgcellvolt2,"aw",%nobits
 2561              		.align	2
 2562              		.type	avgcellvolt2, %object
 2563              		.size	avgcellvolt2, 4
 2564              	avgcellvolt2:
 2565 0000 00000000 		.space	4
 2566              		.section	.bss.cellvolt15_1,"aw",%nobits
 2567              		.align	2
 2568              		.type	cellvolt15_1, %object
 2569              		.size	cellvolt15_1, 4
 2570              	cellvolt15_1:
 2571 0000 00000000 		.space	4
 2572              		.section	.bss.cellvolt15_2,"aw",%nobits
 2573              		.align	2
 2574              		.type	cellvolt15_2, %object
 2575              		.size	cellvolt15_2, 4
 2576              	cellvolt15_2:
 2577 0000 00000000 		.space	4
 2578              		.section	.bss.cellvolt7,"aw",%nobits
 2579              		.align	2
 2580              		.type	cellvolt7, %object
 2581              		.size	cellvolt7, 4
 2582              	cellvolt7:
 2583 0000 00000000 		.space	4
 2584              		.section	.bss.milidetik_1,"aw",%nobits
 2585              		.align	2
 2586              		.type	milidetik_1, %object
 2587              		.size	milidetik_1, 4
 2588              	milidetik_1:
 2589 0000 00000000 		.space	4
 2590              		.section	.bss.milidetik_2,"aw",%nobits
 2591              		.align	2
 2592              		.type	milidetik_2, %object
 2593              		.size	milidetik_2, 4
 2594              	milidetik_2:
 2595 0000 00000000 		.space	4
 2596              		.section	.bss.voltjoule1,"aw",%nobits
 2597              		.align	2
 2598              		.type	voltjoule1, %object
 2599              		.size	voltjoule1, 4
 2600              	voltjoule1:
 2601 0000 00000000 		.space	4
 2602              		.section	.bss.voltjoule2,"aw",%nobits
 2603              		.align	2
 2604              		.type	voltjoule2, %object
 2605              		.size	voltjoule2, 4
 2606              	voltjoule2:
 2607 0000 00000000 		.space	4
 2608              		.section	.bss.voltjoule3,"aw",%nobits
ARM GAS  /tmp/ccg0MrMf.s 			page 48


 2609              		.align	2
 2610              		.type	voltjoule3, %object
 2611              		.size	voltjoule3, 4
 2612              	voltjoule3:
 2613 0000 00000000 		.space	4
 2614              		.section	.bss.watt1,"aw",%nobits
 2615              		.align	2
 2616              		.type	watt1, %object
 2617              		.size	watt1, 4
 2618              	watt1:
 2619 0000 00000000 		.space	4
 2620              		.section	.bss.RawMessage,"aw",%nobits
 2621              		.align	2
 2622              		.type	RawMessage, %object
 2623              		.size	RawMessage, 32
 2624              	RawMessage:
 2625 0000 00000000 		.space	32
 2625      00000000 
 2625      00000000 
 2625      00000000 
 2625      00000000 
 2626              		.section	.bss.cellvolt10_1,"aw",%nobits
 2627              		.align	2
 2628              		.type	cellvolt10_1, %object
 2629              		.size	cellvolt10_1, 4
 2630              	cellvolt10_1:
 2631 0000 00000000 		.space	4
 2632              		.section	.bss.cellvolt10_2,"aw",%nobits
 2633              		.align	2
 2634              		.type	cellvolt10_2, %object
 2635              		.size	cellvolt10_2, 4
 2636              	cellvolt10_2:
 2637 0000 00000000 		.space	4
 2638              		.section	.bss.energijoule1_2,"aw",%nobits
 2639              		.align	2
 2640              		.type	energijoule1_2, %object
 2641              		.size	energijoule1_2, 4
 2642              	energijoule1_2:
 2643 0000 00000000 		.space	4
 2644              		.section	.bss.mppt9_v,"aw",%nobits
 2645              		.align	2
 2646              		.type	mppt9_v, %object
 2647              		.size	mppt9_v, 4
 2648              	mppt9_v:
 2649 0000 00000000 		.space	4
 2650              		.section	.bss.RxMessage44,"aw",%nobits
 2651              		.align	2
 2652              		.type	RxMessage44, %object
 2653              		.size	RxMessage44, 32
 2654              	RxMessage44:
 2655 0000 00000000 		.space	32
 2655      00000000 
 2655      00000000 
 2655      00000000 
 2655      00000000 
 2656              		.section	.bss.mppt4_i,"aw",%nobits
 2657              		.align	2
ARM GAS  /tmp/ccg0MrMf.s 			page 49


 2658              		.type	mppt4_i, %object
 2659              		.size	mppt4_i, 4
 2660              	mppt4_i:
 2661 0000 00000000 		.space	4
 2662              		.section	.bss.energijoule3_1,"aw",%nobits
 2663              		.align	2
 2664              		.type	energijoule3_1, %object
 2665              		.size	energijoule3_1, 4
 2666              	energijoule3_1:
 2667 0000 00000000 		.space	4
 2668              		.section	.bss.energijoule3_2,"aw",%nobits
 2669              		.align	2
 2670              		.type	energijoule3_2, %object
 2671              		.size	energijoule3_2, 4
 2672              	energijoule3_2:
 2673 0000 00000000 		.space	4
 2674              		.section	.bss.RxMessage444,"aw",%nobits
 2675              		.align	2
 2676              		.type	RxMessage444, %object
 2677              		.size	RxMessage444, 32
 2678              	RxMessage444:
 2679 0000 00000000 		.space	32
 2679      00000000 
 2679      00000000 
 2679      00000000 
 2679      00000000 
 2680              		.section	.bss.packvolt,"aw",%nobits
 2681              		.align	2
 2682              		.type	packvolt, %object
 2683              		.size	packvolt, 4
 2684              	packvolt:
 2685 0000 00000000 		.space	4
 2686              		.section	.bss.voltMPPT12_2,"aw",%nobits
 2687              		.align	2
 2688              		.type	voltMPPT12_2, %object
 2689              		.size	voltMPPT12_2, 4
 2690              	voltMPPT12_2:
 2691 0000 00000000 		.space	4
 2692              		.section	.bss.packsoc,"aw",%nobits
 2693              		.align	2
 2694              		.type	packsoc, %object
 2695              		.size	packsoc, 4
 2696              	packsoc:
 2697 0000 00000000 		.space	4
 2698              		.section	.bss.mppt14_i,"aw",%nobits
 2699              		.align	2
 2700              		.type	mppt14_i, %object
 2701              		.size	mppt14_i, 4
 2702              	mppt14_i:
 2703 0000 00000000 		.space	4
 2704              		.section	.data.chp,"aw",%progbits
 2705              		.align	2
 2706              		.type	chp, %object
 2707              		.size	chp, 4
 2708              	chp:
 2709 0000 00000000 		.word	SDU1
 2710              		.section	.bss.highvolt,"aw",%nobits
ARM GAS  /tmp/ccg0MrMf.s 			page 50


 2711              		.align	2
 2712              		.type	highvolt, %object
 2713              		.size	highvolt, 4
 2714              	highvolt:
 2715 0000 00000000 		.space	4
 2716              		.section	.bss.cellvolt25,"aw",%nobits
 2717              		.align	2
 2718              		.type	cellvolt25, %object
 2719              		.size	cellvolt25, 4
 2720              	cellvolt25:
 2721 0000 00000000 		.space	4
 2722              		.section	.bss.currentMPPT12_1,"aw",%nobits
 2723              		.align	2
 2724              		.type	currentMPPT12_1, %object
 2725              		.size	currentMPPT12_1, 4
 2726              	currentMPPT12_1:
 2727 0000 00000000 		.space	4
 2728              		.section	.bss.currentMPPT12_2,"aw",%nobits
 2729              		.align	2
 2730              		.type	currentMPPT12_2, %object
 2731              		.size	currentMPPT12_2, 4
 2732              	currentMPPT12_2:
 2733 0000 00000000 		.space	4
 2734              		.section	.rodata.shell_sd1,"a",%progbits
 2735              		.align	2
 2736              		.set	.LANCHOR1,. + 0
 2737              		.type	shell_sd1, %object
 2738              		.size	shell_sd1, 8
 2739              	shell_sd1:
 2740 0000 00000000 		.word	SD1
 2741 0004 00000000 		.word	commands
 2742              		.section	.bss.voltMPPT10,"aw",%nobits
 2743              		.align	2
 2744              		.type	voltMPPT10, %object
 2745              		.size	voltMPPT10, 4
 2746              	voltMPPT10:
 2747 0000 00000000 		.space	4
 2748              		.section	.bss.voltMPPT11,"aw",%nobits
 2749              		.align	2
 2750              		.type	voltMPPT11, %object
 2751              		.size	voltMPPT11, 4
 2752              	voltMPPT11:
 2753 0000 00000000 		.space	4
 2754              		.section	.bss.voltMPPT12,"aw",%nobits
 2755              		.align	2
 2756              		.type	voltMPPT12, %object
 2757              		.size	voltMPPT12, 4
 2758              	voltMPPT12:
 2759 0000 00000000 		.space	4
 2760              		.section	.bss.voltMPPT13,"aw",%nobits
 2761              		.align	2
 2762              		.type	voltMPPT13, %object
 2763              		.size	voltMPPT13, 4
 2764              	voltMPPT13:
 2765 0000 00000000 		.space	4
 2766              		.section	.bss.voltMPPT15,"aw",%nobits
 2767              		.align	2
ARM GAS  /tmp/ccg0MrMf.s 			page 51


 2768              		.type	voltMPPT15, %object
 2769              		.size	voltMPPT15, 4
 2770              	voltMPPT15:
 2771 0000 00000000 		.space	4
 2772              		.section	.bss.voltMPPT16,"aw",%nobits
 2773              		.align	2
 2774              		.type	voltMPPT16, %object
 2775              		.size	voltMPPT16, 4
 2776              	voltMPPT16:
 2777 0000 00000000 		.space	4
 2778              		.section	.bss.RxMessage55,"aw",%nobits
 2779              		.align	2
 2780              		.type	RxMessage55, %object
 2781              		.size	RxMessage55, 32
 2782              	RxMessage55:
 2783 0000 00000000 		.space	32
 2783      00000000 
 2783      00000000 
 2783      00000000 
 2783      00000000 
 2784              		.section	.bss.voltMPPT4_2,"aw",%nobits
 2785              		.align	2
 2786              		.type	voltMPPT4_2, %object
 2787              		.size	voltMPPT4_2, 4
 2788              	voltMPPT4_2:
 2789 0000 00000000 		.space	4
 2790              		.section	.bss.packCCL,"aw",%nobits
 2791              		.align	2
 2792              		.type	packCCL, %object
 2793              		.size	packCCL, 4
 2794              	packCCL:
 2795 0000 00000000 		.space	4
 2796              		.section	.bss.milidetik,"aw",%nobits
 2797              		.align	2
 2798              		.type	milidetik, %object
 2799              		.size	milidetik, 4
 2800              	milidetik:
 2801 0000 00000000 		.space	4
 2802              		.section	.bss.voltMPPT9_1,"aw",%nobits
 2803              		.align	2
 2804              		.type	voltMPPT9_1, %object
 2805              		.size	voltMPPT9_1, 4
 2806              	voltMPPT9_1:
 2807 0000 00000000 		.space	4
 2808              		.section	.bss.cellvolt1,"aw",%nobits
 2809              		.align	2
 2810              		.type	cellvolt1, %object
 2811              		.size	cellvolt1, 4
 2812              	cellvolt1:
 2813 0000 00000000 		.space	4
 2814              		.section	.bss.cellvolt2,"aw",%nobits
 2815              		.align	2
 2816              		.type	cellvolt2, %object
 2817              		.size	cellvolt2, 4
 2818              	cellvolt2:
 2819 0000 00000000 		.space	4
 2820              		.section	.bss.cellvolt4,"aw",%nobits
ARM GAS  /tmp/ccg0MrMf.s 			page 52


 2821              		.align	2
 2822              		.type	cellvolt4, %object
 2823              		.size	cellvolt4, 4
 2824              	cellvolt4:
 2825 0000 00000000 		.space	4
 2826              		.section	.bss.menit_1,"aw",%nobits
 2827              		.align	2
 2828              		.type	menit_1, %object
 2829              		.size	menit_1, 4
 2830              	menit_1:
 2831 0000 00000000 		.space	4
 2832              		.section	.bss.menit_2,"aw",%nobits
 2833              		.align	2
 2834              		.type	menit_2, %object
 2835              		.size	menit_2, 4
 2836              	menit_2:
 2837 0000 00000000 		.space	4
 2838              		.section	.bss.cellvolt10,"aw",%nobits
 2839              		.align	2
 2840              		.type	cellvolt10, %object
 2841              		.size	cellvolt10, 4
 2842              	cellvolt10:
 2843 0000 00000000 		.space	4
 2844              		.section	.bss.cellvolt11,"aw",%nobits
 2845              		.align	2
 2846              		.type	cellvolt11, %object
 2847              		.size	cellvolt11, 4
 2848              	cellvolt11:
 2849 0000 00000000 		.space	4
 2850              		.section	.bss.cellvolt12,"aw",%nobits
 2851              		.align	2
 2852              		.type	cellvolt12, %object
 2853              		.size	cellvolt12, 4
 2854              	cellvolt12:
 2855 0000 00000000 		.space	4
 2856              		.section	.bss.cellvolt13,"aw",%nobits
 2857              		.align	2
 2858              		.type	cellvolt13, %object
 2859              		.size	cellvolt13, 4
 2860              	cellvolt13:
 2861 0000 00000000 		.space	4
 2862              		.section	.bss.cellvolt14,"aw",%nobits
 2863              		.align	2
 2864              		.type	cellvolt14, %object
 2865              		.size	cellvolt14, 4
 2866              	cellvolt14:
 2867 0000 00000000 		.space	4
 2868              		.section	.bss.cellvolt15,"aw",%nobits
 2869              		.align	2
 2870              		.type	cellvolt15, %object
 2871              		.size	cellvolt15, 4
 2872              	cellvolt15:
 2873 0000 00000000 		.space	4
 2874              		.section	.bss.cellvolt16,"aw",%nobits
 2875              		.align	2
 2876              		.type	cellvolt16, %object
 2877              		.size	cellvolt16, 4
ARM GAS  /tmp/ccg0MrMf.s 			page 53


 2878              	cellvolt16:
 2879 0000 00000000 		.space	4
 2880              		.section	.bss.cellvolt17,"aw",%nobits
 2881              		.align	2
 2882              		.type	cellvolt17, %object
 2883              		.size	cellvolt17, 4
 2884              	cellvolt17:
 2885 0000 00000000 		.space	4
 2886              		.section	.bss.cellvolt4raw,"aw",%nobits
 2887              		.align	2
 2888              		.type	cellvolt4raw, %object
 2889              		.size	cellvolt4raw, 4
 2890              	cellvolt4raw:
 2891 0000 00000000 		.space	4
 2892              		.section	.bss.cellvolt32raw,"aw",%nobits
 2893              		.align	2
 2894              		.type	cellvolt32raw, %object
 2895              		.size	cellvolt32raw, 4
 2896              	cellvolt32raw:
 2897 0000 00000000 		.space	4
 2898              		.section	.bss.wattjoule1_1,"aw",%nobits
 2899              		.align	2
 2900              		.type	wattjoule1_1, %object
 2901              		.size	wattjoule1_1, 4
 2902              	wattjoule1_1:
 2903 0000 00000000 		.space	4
 2904              		.section	.bss.wattjoule1_2,"aw",%nobits
 2905              		.align	2
 2906              		.type	wattjoule1_2, %object
 2907              		.size	wattjoule1_2, 4
 2908              	wattjoule1_2:
 2909 0000 00000000 		.space	4
 2910              		.section	.bss.cellvolt16raw,"aw",%nobits
 2911              		.align	2
 2912              		.type	cellvolt16raw, %object
 2913              		.size	cellvolt16raw, 4
 2914              	cellvolt16raw:
 2915 0000 00000000 		.space	4
 2916              		.section	.bss.mppt12_v,"aw",%nobits
 2917              		.align	2
 2918              		.type	mppt12_v, %object
 2919              		.size	mppt12_v, 4
 2920              	mppt12_v:
 2921 0000 00000000 		.space	4
 2922              		.section	.bss.amphoursraw,"aw",%nobits
 2923              		.align	2
 2924              		.type	amphoursraw, %object
 2925              		.size	amphoursraw, 4
 2926              	amphoursraw:
 2927 0000 00000000 		.space	4
 2928              		.section	.bss.mppt1_v,"aw",%nobits
 2929              		.align	2
 2930              		.type	mppt1_v, %object
 2931              		.size	mppt1_v, 4
 2932              	mppt1_v:
 2933 0000 00000000 		.space	4
 2934              		.section	.bss.currentMPPT5_1,"aw",%nobits
ARM GAS  /tmp/ccg0MrMf.s 			page 54


 2935              		.align	2
 2936              		.type	currentMPPT5_1, %object
 2937              		.size	currentMPPT5_1, 4
 2938              	currentMPPT5_1:
 2939 0000 00000000 		.space	4
 2940              		.section	.bss.currentMPPT5_2,"aw",%nobits
 2941              		.align	2
 2942              		.type	currentMPPT5_2, %object
 2943              		.size	currentMPPT5_2, 4
 2944              	currentMPPT5_2:
 2945 0000 00000000 		.space	4
 2946              		.section	.bss.cellvolt7_2,"aw",%nobits
 2947              		.align	2
 2948              		.type	cellvolt7_2, %object
 2949              		.size	cellvolt7_2, 4
 2950              	cellvolt7_2:
 2951 0000 00000000 		.space	4
 2952              		.section	.bss.cellvolt29_1,"aw",%nobits
 2953              		.align	2
 2954              		.type	cellvolt29_1, %object
 2955              		.size	cellvolt29_1, 4
 2956              	cellvolt29_1:
 2957 0000 00000000 		.space	4
 2958              		.section	.bss.cellvolt3_2,"aw",%nobits
 2959              		.align	2
 2960              		.type	cellvolt3_2, %object
 2961              		.size	cellvolt3_2, 4
 2962              	cellvolt3_2:
 2963 0000 00000000 		.space	4
 2964              		.section	.bss.RxMessage66,"aw",%nobits
 2965              		.align	2
 2966              		.type	RxMessage66, %object
 2967              		.size	RxMessage66, 32
 2968              	RxMessage66:
 2969 0000 00000000 		.space	32
 2969      00000000 
 2969      00000000 
 2969      00000000 
 2969      00000000 
 2970              		.section	.bss.voltMPPT12_1,"aw",%nobits
 2971              		.align	2
 2972              		.type	voltMPPT12_1, %object
 2973              		.size	voltMPPT12_1, 4
 2974              	voltMPPT12_1:
 2975 0000 00000000 		.space	4
 2976              		.section	.bss.cellvolt30_1,"aw",%nobits
 2977              		.align	2
 2978              		.type	cellvolt30_1, %object
 2979              		.size	cellvolt30_1, 4
 2980              	cellvolt30_1:
 2981 0000 00000000 		.space	4
 2982              		.section	.bss.cellvolt30_2,"aw",%nobits
 2983              		.align	2
 2984              		.type	cellvolt30_2, %object
 2985              		.size	cellvolt30_2, 4
 2986              	cellvolt30_2:
 2987 0000 00000000 		.space	4
ARM GAS  /tmp/ccg0MrMf.s 			page 55


 2988              		.section	.bss.cellvolt24_1,"aw",%nobits
 2989              		.align	2
 2990              		.type	cellvolt24_1, %object
 2991              		.size	cellvolt24_1, 4
 2992              	cellvolt24_1:
 2993 0000 00000000 		.space	4
 2994              		.section	.bss.cellvolt24_2,"aw",%nobits
 2995              		.align	2
 2996              		.type	cellvolt24_2, %object
 2997              		.size	cellvolt24_2, 4
 2998              	cellvolt24_2:
 2999 0000 00000000 		.space	4
 3000              		.section	.bss.cellvolt6_1,"aw",%nobits
 3001              		.align	2
 3002              		.type	cellvolt6_1, %object
 3003              		.size	cellvolt6_1, 4
 3004              	cellvolt6_1:
 3005 0000 00000000 		.space	4
 3006              		.section	.bss.voltMPPT7_1,"aw",%nobits
 3007              		.align	2
 3008              		.type	voltMPPT7_1, %object
 3009              		.size	voltMPPT7_1, 4
 3010              	voltMPPT7_1:
 3011 0000 00000000 		.space	4
 3012              		.section	.bss.voltMPPT7_2,"aw",%nobits
 3013              		.align	2
 3014              		.type	voltMPPT7_2, %object
 3015              		.size	voltMPPT7_2, 4
 3016              	voltMPPT7_2:
 3017 0000 00000000 		.space	4
 3018              		.section	.bss.cellvolt20,"aw",%nobits
 3019              		.align	2
 3020              		.type	cellvolt20, %object
 3021              		.size	cellvolt20, 4
 3022              	cellvolt20:
 3023 0000 00000000 		.space	4
 3024              		.section	.bss.cellvolt21,"aw",%nobits
 3025              		.align	2
 3026              		.type	cellvolt21, %object
 3027              		.size	cellvolt21, 4
 3028              	cellvolt21:
 3029 0000 00000000 		.space	4
 3030              		.section	.bss.cellvolt22,"aw",%nobits
 3031              		.align	2
 3032              		.type	cellvolt22, %object
 3033              		.size	cellvolt22, 4
 3034              	cellvolt22:
 3035 0000 00000000 		.space	4
 3036              		.section	.bss.cellvolt23,"aw",%nobits
 3037              		.align	2
 3038              		.type	cellvolt23, %object
 3039              		.size	cellvolt23, 4
 3040              	cellvolt23:
 3041 0000 00000000 		.space	4
 3042              		.section	.bss.cellvolt24,"aw",%nobits
 3043              		.align	2
 3044              		.type	cellvolt24, %object
ARM GAS  /tmp/ccg0MrMf.s 			page 56


 3045              		.size	cellvolt24, 4
 3046              	cellvolt24:
 3047 0000 00000000 		.space	4
 3048              		.section	.bss.cellvolt18_1,"aw",%nobits
 3049              		.align	2
 3050              		.type	cellvolt18_1, %object
 3051              		.size	cellvolt18_1, 4
 3052              	cellvolt18_1:
 3053 0000 00000000 		.space	4
 3054              		.section	.bss.cellvolt18_2,"aw",%nobits
 3055              		.align	2
 3056              		.type	cellvolt18_2, %object
 3057              		.size	cellvolt18_2, 4
 3058              	cellvolt18_2:
 3059 0000 00000000 		.space	4
 3060              		.section	.bss.cellvolt27,"aw",%nobits
 3061              		.align	2
 3062              		.type	cellvolt27, %object
 3063              		.size	cellvolt27, 4
 3064              	cellvolt27:
 3065 0000 00000000 		.space	4
 3066              		.section	.bss.cellvolt28,"aw",%nobits
 3067              		.align	2
 3068              		.type	cellvolt28, %object
 3069              		.size	cellvolt28, 4
 3070              	cellvolt28:
 3071 0000 00000000 		.space	4
 3072              		.section	.bss.cellvolt29,"aw",%nobits
 3073              		.align	2
 3074              		.type	cellvolt29, %object
 3075              		.size	cellvolt29, 4
 3076              	cellvolt29:
 3077 0000 00000000 		.space	4
 3078              		.section	.bss.deltacellvolt,"aw",%nobits
 3079              		.align	2
 3080              		.type	deltacellvolt, %object
 3081              		.size	deltacellvolt, 4
 3082              	deltacellvolt:
 3083 0000 00000000 		.space	4
 3084              		.section	.bss.cellvolt1_1,"aw",%nobits
 3085              		.align	2
 3086              		.type	cellvolt1_1, %object
 3087              		.size	cellvolt1_1, 4
 3088              	cellvolt1_1:
 3089 0000 00000000 		.space	4
 3090              		.section	.bss.cellvolt1_2,"aw",%nobits
 3091              		.align	2
 3092              		.type	cellvolt1_2, %object
 3093              		.size	cellvolt1_2, 4
 3094              	cellvolt1_2:
 3095 0000 00000000 		.space	4
 3096              		.section	.bss.currentMPPT14,"aw",%nobits
 3097              		.align	2
 3098              		.type	currentMPPT14, %object
 3099              		.size	currentMPPT14, 4
 3100              	currentMPPT14:
 3101 0000 00000000 		.space	4
ARM GAS  /tmp/ccg0MrMf.s 			page 57


 3102              		.section	.bss.lowvoltcell,"aw",%nobits
 3103              		.align	2
 3104              		.type	lowvoltcell, %object
 3105              		.size	lowvoltcell, 4
 3106              	lowvoltcell:
 3107 0000 00000000 		.space	4
 3108              		.section	.bss.currentMPPT15_2,"aw",%nobits
 3109              		.align	2
 3110              		.type	currentMPPT15_2, %object
 3111              		.size	currentMPPT15_2, 4
 3112              	currentMPPT15_2:
 3113 0000 00000000 		.space	4
 3114              		.section	.bss.supply12v,"aw",%nobits
 3115              		.align	2
 3116              		.type	supply12v, %object
 3117              		.size	supply12v, 4
 3118              	supply12v:
 3119 0000 00000000 		.space	4
 3120              		.section	.bss.cellvolt13_1,"aw",%nobits
 3121              		.align	2
 3122              		.type	cellvolt13_1, %object
 3123              		.size	cellvolt13_1, 4
 3124              	cellvolt13_1:
 3125 0000 00000000 		.space	4
 3126              		.section	.bss.cellvolt25raw,"aw",%nobits
 3127              		.align	2
 3128              		.type	cellvolt25raw, %object
 3129              		.size	cellvolt25raw, 4
 3130              	cellvolt25raw:
 3131 0000 00000000 		.space	4
 3132              		.section	.bss.cellvolt28_1,"aw",%nobits
 3133              		.align	2
 3134              		.type	cellvolt28_1, %object
 3135              		.size	cellvolt28_1, 4
 3136              	cellvolt28_1:
 3137 0000 00000000 		.space	4
 3138              		.section	.bss.RxMessage222,"aw",%nobits
 3139              		.align	2
 3140              		.type	RxMessage222, %object
 3141              		.size	RxMessage222, 32
 3142              	RxMessage222:
 3143 0000 00000000 		.space	32
 3143      00000000 
 3143      00000000 
 3143      00000000 
 3143      00000000 
 3144              		.section	.bss.RxMessage,"aw",%nobits
 3145              		.align	2
 3146              		.set	.LANCHOR7,. + 0
 3147              		.type	RxMessage, %object
 3148              		.size	RxMessage, 32
 3149              	RxMessage:
 3150 0000 00000000 		.space	32
 3150      00000000 
 3150      00000000 
 3150      00000000 
 3150      00000000 
ARM GAS  /tmp/ccg0MrMf.s 			page 58


 3151              		.section	.bss.currentMPPT10_2,"aw",%nobits
 3152              		.align	2
 3153              		.type	currentMPPT10_2, %object
 3154              		.size	currentMPPT10_2, 4
 3155              	currentMPPT10_2:
 3156 0000 00000000 		.space	4
 3157              		.section	.bss.avgcellvolt,"aw",%nobits
 3158              		.align	2
 3159              		.type	avgcellvolt, %object
 3160              		.size	avgcellvolt, 4
 3161              	avgcellvolt:
 3162 0000 00000000 		.space	4
 3163              		.section	.bss.wattjoule1,"aw",%nobits
 3164              		.align	2
 3165              		.type	wattjoule1, %object
 3166              		.size	wattjoule1, 4
 3167              	wattjoule1:
 3168 0000 00000000 		.space	4
 3169              		.section	.bss.wattjoule2,"aw",%nobits
 3170              		.align	2
 3171              		.type	wattjoule2, %object
 3172              		.size	wattjoule2, 4
 3173              	wattjoule2:
 3174 0000 00000000 		.space	4
 3175              		.section	.bss.wattjoule3,"aw",%nobits
 3176              		.align	2
 3177              		.type	wattjoule3, %object
 3178              		.size	wattjoule3, 4
 3179              	wattjoule3:
 3180 0000 00000000 		.space	4
 3181              		.section	.bss.mppt7_i,"aw",%nobits
 3182              		.align	2
 3183              		.type	mppt7_i, %object
 3184              		.size	mppt7_i, 4
 3185              	mppt7_i:
 3186 0000 00000000 		.space	4
 3187              		.section	.rodata.str1.4,"aMS",%progbits,1
 3188              		.align	2
 3189              	.LC0:
 3190 0000 3C25582C 		.ascii	"<%X,\000"
 3190      00
 3191 0005 000000   		.space	3
 3192              	.LC1:
 3193 0008 25642C00 		.ascii	"%d,\000"
 3194              	.LC2:
 3195 000c 25582C00 		.ascii	"%X,\000"
 3196              	.LC3:
 3197 0010 302C00   		.ascii	"0,\000"
 3198 0013 00       		.space	1
 3199              	.LC4:
 3200 0014 6300     		.ascii	"c\000"
 3201 0016 0000     		.space	2
 3202              	.LC5:
 3203 0018 7800     		.ascii	"x\000"
 3204 001a 0000     		.section	.bss.RxMessage77,"aw",%nobits
 3205              		.align	2
 3206              		.type	RxMessage77, %object
ARM GAS  /tmp/ccg0MrMf.s 			page 59


 3207              		.size	RxMessage77, 32
 3208              	RxMessage77:
 3209 0000 00000000 		.space	32
 3209      00000000 
 3209      00000000 
 3209      00000000 
 3209      00000000 
 3210              		.section	.bss.currentjoule3_1,"aw",%nobits
 3211              		.align	2
 3212              		.type	currentjoule3_1, %object
 3213              		.size	currentjoule3_1, 4
 3214              	currentjoule3_1:
 3215 0000 00000000 		.space	4
 3216              		.section	.bss.currentjoule3_2,"aw",%nobits
 3217              		.align	2
 3218              		.type	currentjoule3_2, %object
 3219              		.size	currentjoule3_2, 4
 3220              	currentjoule3_2:
 3221 0000 00000000 		.space	4
 3222              		.section	.bss.mppt7_v,"aw",%nobits
 3223              		.align	2
 3224              		.type	mppt7_v, %object
 3225              		.size	mppt7_v, 4
 3226              	mppt7_v:
 3227 0000 00000000 		.space	4
 3228              		.section	.bss.voltMPPT15_1,"aw",%nobits
 3229              		.align	2
 3230              		.type	voltMPPT15_1, %object
 3231              		.size	voltMPPT15_1, 4
 3232              	voltMPPT15_1:
 3233 0000 00000000 		.space	4
 3234              		.section	.bss.voltMPPT15_2,"aw",%nobits
 3235              		.align	2
 3236              		.type	voltMPPT15_2, %object
 3237              		.size	voltMPPT15_2, 4
 3238              	voltMPPT15_2:
 3239 0000 00000000 		.space	4
 3240              		.section	.bss.mppt2_i,"aw",%nobits
 3241              		.align	2
 3242              		.type	mppt2_i, %object
 3243              		.size	mppt2_i, 4
 3244              	mppt2_i:
 3245 0000 00000000 		.space	4
 3246              		.section	.bss.RxMessage111,"aw",%nobits
 3247              		.align	2
 3248              		.type	RxMessage111, %object
 3249              		.size	RxMessage111, 32
 3250              	RxMessage111:
 3251 0000 00000000 		.space	32
 3251      00000000 
 3251      00000000 
 3251      00000000 
 3251      00000000 
 3252              		.section	.bss.cellvolt11raw,"aw",%nobits
 3253              		.align	2
 3254              		.type	cellvolt11raw, %object
 3255              		.size	cellvolt11raw, 4
ARM GAS  /tmp/ccg0MrMf.s 			page 60


 3256              	cellvolt11raw:
 3257 0000 00000000 		.space	4
 3258              		.section	.bss.cellvolt30,"aw",%nobits
 3259              		.align	2
 3260              		.type	cellvolt30, %object
 3261              		.size	cellvolt30, 4
 3262              	cellvolt30:
 3263 0000 00000000 		.space	4
 3264              		.section	.bss.cellvolt31,"aw",%nobits
 3265              		.align	2
 3266              		.type	cellvolt31, %object
 3267              		.size	cellvolt31, 4
 3268              	cellvolt31:
 3269 0000 00000000 		.space	4
 3270              		.section	.bss.cellvolt32,"aw",%nobits
 3271              		.align	2
 3272              		.type	cellvolt32, %object
 3273              		.size	cellvolt32, 4
 3274              	cellvolt32:
 3275 0000 00000000 		.space	4
 3276              		.section	.bss.cellvolt33,"aw",%nobits
 3277              		.align	2
 3278              		.type	cellvolt33, %object
 3279              		.size	cellvolt33, 4
 3280              	cellvolt33:
 3281 0000 00000000 		.space	4
 3282              		.section	.bss.mppt2_v,"aw",%nobits
 3283              		.align	2
 3284              		.type	mppt2_v, %object
 3285              		.size	mppt2_v, 4
 3286              	mppt2_v:
 3287 0000 00000000 		.space	4
 3288              		.section	.bss.packvolt1,"aw",%nobits
 3289              		.align	2
 3290              		.type	packvolt1, %object
 3291              		.size	packvolt1, 4
 3292              	packvolt1:
 3293 0000 00000000 		.space	4
 3294              		.section	.bss.packvolt2,"aw",%nobits
 3295              		.align	2
 3296              		.type	packvolt2, %object
 3297              		.size	packvolt2, 4
 3298              	packvolt2:
 3299 0000 00000000 		.space	4
 3300              		.section	.bss.mppt12_i,"aw",%nobits
 3301              		.align	2
 3302              		.type	mppt12_i, %object
 3303              		.size	mppt12_i, 4
 3304              	mppt12_i:
 3305 0000 00000000 		.space	4
 3306              		.section	.bss.voltjoule1_2,"aw",%nobits
 3307              		.align	2
 3308              		.type	voltjoule1_2, %object
 3309              		.size	voltjoule1_2, 4
 3310              	voltjoule1_2:
 3311 0000 00000000 		.space	4
 3312              		.section	.bss.cellvolt14_1,"aw",%nobits
ARM GAS  /tmp/ccg0MrMf.s 			page 61


 3313              		.align	2
 3314              		.type	cellvolt14_1, %object
 3315              		.size	cellvolt14_1, 4
 3316              	cellvolt14_1:
 3317 0000 00000000 		.space	4
 3318              		.section	.bss.voltjoule3_1,"aw",%nobits
 3319              		.align	2
 3320              		.type	voltjoule3_1, %object
 3321              		.size	voltjoule3_1, 4
 3322              	voltjoule3_1:
 3323 0000 00000000 		.space	4
 3324              		.section	.bss.voltjoule3_2,"aw",%nobits
 3325              		.align	2
 3326              		.type	voltjoule3_2, %object
 3327              		.size	voltjoule3_2, 4
 3328              	voltjoule3_2:
 3329 0000 00000000 		.space	4
 3330              		.text
 3331              	.Letext0:
 3332              		.file 3 "/usr/lib/gcc/arm-none-eabi/4.8/include/stddef.h"
 3333              		.file 4 "/usr/include/newlib/machine/_default_types.h"
 3334              		.file 5 "/usr/include/newlib/stdint.h"
 3335              		.file 6 "../../../../os/ports/GCC/ARMCMx/chtypes.h"
 3336              		.file 7 "../../../../os/kernel/include/chlists.h"
 3337              		.file 8 "../../../../os/kernel/include/chthreads.h"
 3338              		.file 9 "../../../../os/ports/GCC/ARMCMx/chcore_v7m.h"
 3339              		.file 10 "../../../../os/kernel/include/chmtx.h"
 3340              		.file 11 "../../../../os/kernel/include/chevents.h"
 3341              		.file 12 "../../../../os/kernel/include/chqueues.h"
 3342              		.file 13 "../../../../os/kernel/include/chstreams.h"
 3343              		.file 14 "../../../../os/hal/platforms/STM32F30x/stm32f30x.h"
 3344              		.file 15 "../../../../ext/stm32lib/inc/stm32f30x_can.h"
 3345              		.file 16 "../../../../ext/stm32lib/inc/stm32f30x_gpio.h"
 3346              		.file 17 "../../../../os/hal/include/serial.h"
 3347              		.file 18 "../../../../os/hal/platforms/STM32/USARTv2/serial_lld.h"
 3348              		.file 19 "../../../../os/hal/include/usb.h"
 3349              		.file 20 "../../../../os/hal/platforms/STM32/USBv1/usb_lld.h"
 3350              		.file 21 "../../../../os/hal/include/serial_usb.h"
 3351              		.file 22 "../../../../os/various/shell.h"
 3352              		.file 23 "/usr/lib/gcc/arm-none-eabi/4.8/include/stdarg.h"
 3353              		.file 24 "<built-in>"
 3354              		.file 25 "../../../../os/ports/common/ARMCMx/CMSIS/include/core_cm4.h"
 3355              		.file 26 "usbcfg.h"
 3356              		.file 27 "main.h"
 3357              		.file 28 "../../../../os/ports/common/ARMCMx/nvic.h"
 3358              		.file 29 "../../../../os/hal/include/hal.h"
 3359              		.file 30 "../../../../os/kernel/include/chsys.h"
 3360              		.file 31 "../../../../os/kernel/include/chdynamic.h"
 3361              		.file 32 "../../../../os/kernel/include/chdebug.h"