ARM GAS  /tmp/ccVsdPN2.s 			page 1


   1              		.syntax unified
   2              		.cpu cortex-m4
   3              		.eabi_attribute 27, 3
   4              		.fpu fpv4-sp-d16
   5              		.eabi_attribute 20, 1
   6              		.eabi_attribute 21, 1
   7              		.eabi_attribute 23, 3
   8              		.eabi_attribute 24, 1
   9              		.eabi_attribute 25, 1
  10              		.eabi_attribute 26, 1
  11              		.eabi_attribute 30, 2
  12              		.eabi_attribute 34, 1
  13              		.eabi_attribute 18, 4
  14              		.thumb
  15              		.file	"pal_lld.c"
  16              		.text
  17              	.Ltext0:
  18              		.cfi_sections	.debug_frame
  19              		.section	.text._pal_lld_init,"ax",%progbits
  20              		.align	2
  21              		.p2align 4,,15
  22              		.global	_pal_lld_init
  23              		.thumb
  24              		.thumb_func
  25              		.type	_pal_lld_init, %function
  26              	_pal_lld_init:
  27              	.LFB119:
  28              		.file 1 "../../../../os/hal/platforms/STM32/pal_lld.c"
  29              		.loc 1 104 0
  30              		.cfi_startproc
  31              		@ args = 0, pretend = 0, frame = 0
  32              		@ frame_needed = 0, uses_anonymous_args = 0
  33              		@ link register save eliminated.
  34              	.LVL0:
  35 0000 F0B4     		push	{r4, r5, r6, r7}
  36              		.cfi_def_cfa_offset 16
  37              		.cfi_offset 4, -16
  38              		.cfi_offset 5, -12
  39              		.cfi_offset 6, -8
  40              		.cfi_offset 7, -4
  41              		.loc 1 115 0
  42 0002 364E     		ldr	r6, .L2
  43              	.LBB14:
  44              	.LBB15:
  45              		.loc 1 79 0
  46 0004 364D     		ldr	r5, .L2+4
  47              	.LBE15:
  48              	.LBE14:
  49              		.loc 1 115 0
  50 0006 7769     		ldr	r7, [r6, #20]
  51              	.LBB17:
  52              	.LBB18:
  53              		.loc 1 79 0
  54 0008 364C     		ldr	r4, .L2+8
  55              	.LBE18:
  56              	.LBE17:
  57              	.LBB20:
ARM GAS  /tmp/ccVsdPN2.s 			page 2


  58              	.LBB21:
  59 000a 3749     		ldr	r1, .L2+12
  60              	.LBE21:
  61              	.LBE20:
  62              	.LBB23:
  63              	.LBB24:
  64 000c 374A     		ldr	r2, .L2+16
  65              	.LBE24:
  66              	.LBE23:
  67              	.LBB26:
  68              	.LBB27:
  69 000e 384B     		ldr	r3, .L2+20
  70              	.LBE27:
  71              	.LBE26:
  72              		.loc 1 115 0
  73 0010 47F4FC07 		orr	r7, r7, #8257536
  74 0014 7761     		str	r7, [r6, #20]
  75              	.LVL1:
  76              	.LBB29:
  77              	.LBB30:
  78              		.loc 1 79 0
  79 0016 4FF09046 		mov	r6, #1207959552
  80 001a 4768     		ldr	r7, [r0, #4]
  81 001c 7760     		str	r7, [r6, #4]
  82              		.loc 1 80 0
  83 001e 8768     		ldr	r7, [r0, #8]
  84 0020 B760     		str	r7, [r6, #8]
  85              		.loc 1 81 0
  86 0022 C768     		ldr	r7, [r0, #12]
  87 0024 F760     		str	r7, [r6, #12]
  88              		.loc 1 82 0
  89 0026 0769     		ldr	r7, [r0, #16]
  90 0028 7761     		str	r7, [r6, #20]
  91              		.loc 1 83 0
  92 002a 4769     		ldr	r7, [r0, #20]
  93 002c 3762     		str	r7, [r6, #32]
  94              		.loc 1 84 0
  95 002e 8769     		ldr	r7, [r0, #24]
  96 0030 7762     		str	r7, [r6, #36]
  97              		.loc 1 85 0
  98 0032 0768     		ldr	r7, [r0]
  99 0034 3760     		str	r7, [r6]
 100              	.LVL2:
 101              	.LBE30:
 102              	.LBE29:
 103              	.LBB31:
 104              	.LBB16:
 105              		.loc 1 79 0
 106 0036 066A     		ldr	r6, [r0, #32]
 107 0038 6E60     		str	r6, [r5, #4]
 108              		.loc 1 80 0
 109 003a 466A     		ldr	r6, [r0, #36]
 110 003c AE60     		str	r6, [r5, #8]
 111              		.loc 1 81 0
 112 003e 866A     		ldr	r6, [r0, #40]
 113 0040 EE60     		str	r6, [r5, #12]
 114              		.loc 1 82 0
ARM GAS  /tmp/ccVsdPN2.s 			page 3


 115 0042 C66A     		ldr	r6, [r0, #44]
 116 0044 6E61     		str	r6, [r5, #20]
 117              		.loc 1 83 0
 118 0046 066B     		ldr	r6, [r0, #48]
 119 0048 2E62     		str	r6, [r5, #32]
 120              		.loc 1 84 0
 121 004a 466B     		ldr	r6, [r0, #52]
 122 004c 6E62     		str	r6, [r5, #36]
 123              		.loc 1 85 0
 124 004e C669     		ldr	r6, [r0, #28]
 125 0050 2E60     		str	r6, [r5]
 126              	.LVL3:
 127              	.LBE16:
 128              	.LBE31:
 129              	.LBB32:
 130              	.LBB19:
 131              		.loc 1 79 0
 132 0052 C56B     		ldr	r5, [r0, #60]
 133 0054 6560     		str	r5, [r4, #4]
 134              		.loc 1 80 0
 135 0056 056C     		ldr	r5, [r0, #64]
 136 0058 A560     		str	r5, [r4, #8]
 137              		.loc 1 81 0
 138 005a 456C     		ldr	r5, [r0, #68]
 139 005c E560     		str	r5, [r4, #12]
 140              		.loc 1 82 0
 141 005e 856C     		ldr	r5, [r0, #72]
 142 0060 6561     		str	r5, [r4, #20]
 143              		.loc 1 83 0
 144 0062 C56C     		ldr	r5, [r0, #76]
 145 0064 2562     		str	r5, [r4, #32]
 146              		.loc 1 84 0
 147 0066 056D     		ldr	r5, [r0, #80]
 148 0068 6562     		str	r5, [r4, #36]
 149              		.loc 1 85 0
 150 006a 856B     		ldr	r5, [r0, #56]
 151 006c 2560     		str	r5, [r4]
 152              	.LVL4:
 153              	.LBE19:
 154              	.LBE32:
 155              	.LBB33:
 156              	.LBB22:
 157              		.loc 1 79 0
 158 006e 846D     		ldr	r4, [r0, #88]
 159 0070 4C60     		str	r4, [r1, #4]
 160              		.loc 1 80 0
 161 0072 C46D     		ldr	r4, [r0, #92]
 162 0074 8C60     		str	r4, [r1, #8]
 163              		.loc 1 81 0
 164 0076 046E     		ldr	r4, [r0, #96]
 165 0078 CC60     		str	r4, [r1, #12]
 166              		.loc 1 82 0
 167 007a 446E     		ldr	r4, [r0, #100]
 168 007c 4C61     		str	r4, [r1, #20]
 169              		.loc 1 83 0
 170 007e 846E     		ldr	r4, [r0, #104]
 171 0080 0C62     		str	r4, [r1, #32]
ARM GAS  /tmp/ccVsdPN2.s 			page 4


 172              		.loc 1 84 0
 173 0082 C46E     		ldr	r4, [r0, #108]
 174 0084 4C62     		str	r4, [r1, #36]
 175              		.loc 1 85 0
 176 0086 446D     		ldr	r4, [r0, #84]
 177 0088 0C60     		str	r4, [r1]
 178              	.LVL5:
 179              	.LBE22:
 180              	.LBE33:
 181              	.LBB34:
 182              	.LBB25:
 183              		.loc 1 79 0
 184 008a 416F     		ldr	r1, [r0, #116]
 185 008c 5160     		str	r1, [r2, #4]
 186              		.loc 1 80 0
 187 008e 816F     		ldr	r1, [r0, #120]
 188 0090 9160     		str	r1, [r2, #8]
 189              		.loc 1 81 0
 190 0092 C16F     		ldr	r1, [r0, #124]
 191 0094 D160     		str	r1, [r2, #12]
 192              		.loc 1 82 0
 193 0096 D0F88010 		ldr	r1, [r0, #128]
 194 009a 5161     		str	r1, [r2, #20]
 195              		.loc 1 83 0
 196 009c D0F88410 		ldr	r1, [r0, #132]
 197 00a0 1162     		str	r1, [r2, #32]
 198              		.loc 1 84 0
 199 00a2 D0F88810 		ldr	r1, [r0, #136]
 200 00a6 5162     		str	r1, [r2, #36]
 201              		.loc 1 85 0
 202 00a8 016F     		ldr	r1, [r0, #112]
 203 00aa 1160     		str	r1, [r2]
 204              	.LVL6:
 205              	.LBE25:
 206              	.LBE34:
 207              	.LBB35:
 208              	.LBB28:
 209              		.loc 1 79 0
 210 00ac D0F89020 		ldr	r2, [r0, #144]
 211 00b0 5A60     		str	r2, [r3, #4]
 212              		.loc 1 80 0
 213 00b2 D0F89420 		ldr	r2, [r0, #148]
 214 00b6 9A60     		str	r2, [r3, #8]
 215              		.loc 1 81 0
 216 00b8 D0F89820 		ldr	r2, [r0, #152]
 217 00bc DA60     		str	r2, [r3, #12]
 218              		.loc 1 82 0
 219 00be D0F89C20 		ldr	r2, [r0, #156]
 220 00c2 5A61     		str	r2, [r3, #20]
 221              		.loc 1 83 0
 222 00c4 D0F8A020 		ldr	r2, [r0, #160]
 223 00c8 1A62     		str	r2, [r3, #32]
 224              		.loc 1 84 0
 225 00ca D0F8A420 		ldr	r2, [r0, #164]
 226 00ce 5A62     		str	r2, [r3, #36]
 227              		.loc 1 85 0
 228 00d0 D0F88C20 		ldr	r2, [r0, #140]
ARM GAS  /tmp/ccVsdPN2.s 			page 5


 229 00d4 1A60     		str	r2, [r3]
 230              	.LBE28:
 231              	.LBE35:
 232              		.loc 1 143 0
 233 00d6 F0BC     		pop	{r4, r5, r6, r7}
 234 00d8 7047     		bx	lr
 235              	.L3:
 236 00da 00BF     		.align	2
 237              	.L2:
 238 00dc 00100240 		.word	1073876992
 239 00e0 00040048 		.word	1207960576
 240 00e4 00080048 		.word	1207961600
 241 00e8 000C0048 		.word	1207962624
 242 00ec 00100048 		.word	1207963648
 243 00f0 00140048 		.word	1207964672
 244              		.cfi_endproc
 245              	.LFE119:
 246              		.size	_pal_lld_init, .-_pal_lld_init
 247 00f4 AFF30080 		.section	.text._pal_lld_setgroupmode,"ax",%progbits
 247      AFF30080 
 247      AFF30080 
 248              		.align	2
 249              		.p2align 4,,15
 250              		.global	_pal_lld_setgroupmode
 251              		.thumb
 252              		.thumb_func
 253              		.type	_pal_lld_setgroupmode, %function
 254              	_pal_lld_setgroupmode:
 255              	.LFB120:
 256              		.loc 1 161 0
 257              		.cfi_startproc
 258              		@ args = 0, pretend = 0, frame = 0
 259              		@ frame_needed = 0, uses_anonymous_args = 0
 260              		@ link register save eliminated.
 261              	.LVL7:
 262 0000 2DE9F00F 		push	{r4, r5, r6, r7, r8, r9, r10, fp}
 263              		.cfi_def_cfa_offset 32
 264              		.cfi_offset 4, -32
 265              		.cfi_offset 5, -28
 266              		.cfi_offset 6, -24
 267              		.cfi_offset 7, -20
 268              		.cfi_offset 8, -16
 269              		.cfi_offset 9, -12
 270              		.cfi_offset 10, -8
 271              		.cfi_offset 11, -4
 272              		.loc 1 168 0
 273 0004 0023     		movs	r3, #0
 274              		.loc 1 163 0
 275 0006 02F00307 		and	r7, r2, #3
 276              	.LVL8:
 277              		.loc 1 164 0
 278 000a C2F38006 		ubfx	r6, r2, #2, #1
 279              	.LVL9:
 280              		.loc 1 165 0
 281 000e C2F3C105 		ubfx	r5, r2, #3, #2
 282              	.LVL10:
 283              		.loc 1 166 0
ARM GAS  /tmp/ccVsdPN2.s 			page 6


 284 0012 C2F34114 		ubfx	r4, r2, #5, #2
 285              	.LVL11:
 286              	.LBB36:
 287              		.loc 1 174 0
 288 0016 4FF00F09 		mov	r9, #15
 289              	.LBE36:
 290              		.loc 1 167 0
 291 001a C2F3C312 		ubfx	r2, r2, #7, #4
 292              	.LVL12:
 293              	.LBB37:
 294              		.loc 1 179 0
 295 001e 4FF0010A 		mov	r10, #1
 296 0022 38E0     		b	.L9
 297              	.LVL13:
 298              	.L14:
 299              		.loc 1 176 0
 300 0024 D0F820B0 		ldr	fp, [r0, #32]
 301 0028 2BEA0C0C 		bic	ip, fp, ip
 302              	.LVL14:
 303 002c 4CEA0808 		orr	r8, ip, r8
 304              	.LVL15:
 305 0030 C0F82080 		str	r8, [r0, #32]
 306              	.L7:
 307              	.LVL16:
 308              		.loc 1 180 0
 309 0034 D0F804C0 		ldr	ip, [r0, #4]
 310              		.loc 1 179 0
 311 0038 0AFA03F8 		lsl	r8, r10, r3
 312              		.loc 1 180 0
 313 003c 2CEA080C 		bic	ip, ip, r8
 314 0040 4CEA060C 		orr	ip, ip, r6
 315 0044 C0F804C0 		str	ip, [r0, #4]
 316              	.LVL17:
 317              		.loc 1 181 0
 318 0048 4FF0030B 		mov	fp, #3
 319 004c 4FEA430C 		lsl	ip, r3, #1
 320              		.loc 1 182 0
 321 0050 D0F80880 		ldr	r8, [r0, #8]
 322              		.loc 1 181 0
 323 0054 0BFA0CFC 		lsl	ip, fp, ip
 324              	.LVL18:
 325              		.loc 1 182 0
 326 0058 6FEA0C0C 		mvn	ip, ip
 327              	.LVL19:
 328 005c 0CEA0808 		and	r8, ip, r8
 329 0060 48EA0508 		orr	r8, r8, r5
 330 0064 C0F80880 		str	r8, [r0, #8]
 331              		.loc 1 183 0
 332 0068 D0F80C80 		ldr	r8, [r0, #12]
 333 006c 0CEA0808 		and	r8, ip, r8
 334 0070 48EA0408 		orr	r8, r8, r4
 335 0074 C0F80C80 		str	r8, [r0, #12]
 336              		.loc 1 184 0
 337 0078 D0F80080 		ldr	r8, [r0]
 338 007c 0CEA080C 		and	ip, ip, r8
 339              	.LVL20:
 340 0080 4CEA070C 		orr	ip, ip, r7
ARM GAS  /tmp/ccVsdPN2.s 			page 7


 341 0084 C0F800C0 		str	ip, [r0]
 342              	.LVL21:
 343              	.L5:
 344              	.LBE37:
 345              		.loc 1 187 0
 346 0088 4908     		lsrs	r1, r1, #1
 347              	.LVL22:
 348 008a 1AD0     		beq	.L4
 349              		.loc 1 189 0
 350 008c 7600     		lsls	r6, r6, #1
 351              	.LVL23:
 352              		.loc 1 190 0
 353 008e AD00     		lsls	r5, r5, #2
 354              	.LVL24:
 355              		.loc 1 191 0
 356 0090 A400     		lsls	r4, r4, #2
 357              	.LVL25:
 358              		.loc 1 192 0
 359 0092 BF00     		lsls	r7, r7, #2
 360              	.LVL26:
 361              		.loc 1 193 0
 362 0094 0133     		adds	r3, r3, #1
 363              	.LVL27:
 364              	.L9:
 365              	.LBB38:
 366              		.loc 1 173 0
 367 0096 03F0070C 		and	ip, r3, #7
 368 009a 4FEA8C0C 		lsl	ip, ip, #2
 369              	.LBE38:
 370              		.loc 1 170 0
 371 009e 11F0010F 		tst	r1, #1
 372              	.LBB39:
 373              		.loc 1 173 0
 374 00a2 02FA0CF8 		lsl	r8, r2, ip
 375              	.LVL28:
 376              		.loc 1 174 0
 377 00a6 09FA0CFC 		lsl	ip, r9, ip
 378              	.LVL29:
 379              	.LBE39:
 380              		.loc 1 170 0
 381 00aa EDD0     		beq	.L5
 382              	.LBB40:
 383              		.loc 1 175 0
 384 00ac 072B     		cmp	r3, #7
 385 00ae B9D9     		bls	.L14
 386              		.loc 1 178 0
 387 00b0 D0F824B0 		ldr	fp, [r0, #36]
 388 00b4 2BEA0C0C 		bic	ip, fp, ip
 389              	.LVL30:
 390 00b8 4CEA0808 		orr	r8, ip, r8
 391              	.LVL31:
 392 00bc C0F82480 		str	r8, [r0, #36]
 393 00c0 B8E7     		b	.L7
 394              	.L4:
 395              	.LBE40:
 396              		.loc 1 195 0
 397 00c2 BDE8F00F 		pop	{r4, r5, r6, r7, r8, r9, r10, fp}
ARM GAS  /tmp/ccVsdPN2.s 			page 8


 398              	.LVL32:
 399 00c6 7047     		bx	lr
 400              		.cfi_endproc
 401              	.LFE120:
 402              		.size	_pal_lld_setgroupmode, .-_pal_lld_setgroupmode
 403 00c8 AFF30080 		.text
 403      AFF30080 
 404              	.Letext0:
 405              		.file 2 "/usr/include/newlib/machine/_default_types.h"
 406              		.file 3 "/usr/include/newlib/stdint.h"
 407              		.file 4 "../../../../os/hal/platforms/STM32F30x/stm32f30x.h"
 408              		.file 5 "../../../../os/hal/platforms/STM32/pal_lld.h"
 409              		.file 6 "../../../../os/ports/common/ARMCMx/CMSIS/include/core_cm4.h"