ARM GAS  /tmp/ccBxcGqo.s 			page 1


   1              		.syntax unified
   2              		.cpu cortex-m4
   3              		.eabi_attribute 27, 3
   4              		.fpu fpv4-sp-d16
   5              		.eabi_attribute 20, 1
   6              		.eabi_attribute 21, 1
   7              		.eabi_attribute 23, 3
   8              		.eabi_attribute 24, 1
   9              		.eabi_attribute 25, 1
  10              		.eabi_attribute 26, 1
  11              		.eabi_attribute 30, 2
  12              		.eabi_attribute 34, 1
  13              		.eabi_attribute 18, 4
  14              		.thumb
  15              		.file	"serial.c"
  16              		.text
  17              	.Ltext0:
  18              		.cfi_sections	.debug_frame
  19              		.section	.text.readt,"ax",%progbits
  20              		.align	2
  21              		.p2align 4,,15
  22              		.thumb
  23              		.thumb_func
  24              		.type	readt, %function
  25              	readt:
  26              	.LFB125:
  27              		.file 1 "../../../../os/hal/src/serial.c"
  28              		.loc 1 92 0
  29              		.cfi_startproc
  30              		@ args = 0, pretend = 0, frame = 0
  31              		@ frame_needed = 0, uses_anonymous_args = 0
  32              		@ link register save eliminated.
  33              	.LVL0:
  34              		.loc 1 94 0
  35 0000 0C30     		adds	r0, r0, #12
  36              	.LVL1:
  37 0002 FFF7FEBF 		b	chIQReadTimeout
  38              	.LVL2:
  39              		.cfi_endproc
  40              	.LFE125:
  41              		.size	readt, .-readt
  42 0006 00BFAFF3 		.section	.text.read,"ax",%progbits
  42      0080AFF3 
  42      0080
  43              		.align	2
  44              		.p2align 4,,15
  45              		.thumb
  46              		.thumb_func
  47              		.type	read, %function
  48              	read:
  49              	.LFB119:
  50              		.loc 1 61 0
  51              		.cfi_startproc
  52              		@ args = 0, pretend = 0, frame = 0
  53              		@ frame_needed = 0, uses_anonymous_args = 0
  54              		@ link register save eliminated.
  55              	.LVL3:
ARM GAS  /tmp/ccBxcGqo.s 			page 2


  56              		.loc 1 63 0
  57 0000 0C30     		adds	r0, r0, #12
  58              	.LVL4:
  59 0002 4FF0FF33 		mov	r3, #-1
  60 0006 FFF7FEBF 		b	chIQReadTimeout
  61              	.LVL5:
  62              		.cfi_endproc
  63              	.LFE119:
  64              		.size	read, .-read
  65 000a 00BFAFF3 		.section	.text.writet,"ax",%progbits
  65      0080
  66              		.align	2
  67              		.p2align 4,,15
  68              		.thumb
  69              		.thumb_func
  70              		.type	writet, %function
  71              	writet:
  72              	.LFB124:
  73              		.loc 1 87 0
  74              		.cfi_startproc
  75              		@ args = 0, pretend = 0, frame = 0
  76              		@ frame_needed = 0, uses_anonymous_args = 0
  77              		@ link register save eliminated.
  78              	.LVL6:
  79              		.loc 1 89 0
  80 0000 3030     		adds	r0, r0, #48
  81              	.LVL7:
  82 0002 FFF7FEBF 		b	chOQWriteTimeout
  83              	.LVL8:
  84              		.cfi_endproc
  85              	.LFE124:
  86              		.size	writet, .-writet
  87 0006 00BFAFF3 		.section	.text.write,"ax",%progbits
  87      0080AFF3 
  87      0080
  88              		.align	2
  89              		.p2align 4,,15
  90              		.thumb
  91              		.thumb_func
  92              		.type	write, %function
  93              	write:
  94              	.LFB118:
  95              		.loc 1 55 0
  96              		.cfi_startproc
  97              		@ args = 0, pretend = 0, frame = 0
  98              		@ frame_needed = 0, uses_anonymous_args = 0
  99              		@ link register save eliminated.
 100              	.LVL9:
 101              		.loc 1 57 0
 102 0000 3030     		adds	r0, r0, #48
 103              	.LVL10:
 104 0002 4FF0FF33 		mov	r3, #-1
 105 0006 FFF7FEBF 		b	chOQWriteTimeout
 106              	.LVL11:
 107              		.cfi_endproc
 108              	.LFE118:
 109              		.size	write, .-write
ARM GAS  /tmp/ccBxcGqo.s 			page 3


 110 000a 00BFAFF3 		.section	.text.gett,"ax",%progbits
 110      0080
 111              		.align	2
 112              		.p2align 4,,15
 113              		.thumb
 114              		.thumb_func
 115              		.type	gett, %function
 116              	gett:
 117              	.LFB123:
 118              		.loc 1 82 0
 119              		.cfi_startproc
 120              		@ args = 0, pretend = 0, frame = 0
 121              		@ frame_needed = 0, uses_anonymous_args = 0
 122              		@ link register save eliminated.
 123              	.LVL12:
 124              		.loc 1 84 0
 125 0000 0C30     		adds	r0, r0, #12
 126              	.LVL13:
 127 0002 FFF7FEBF 		b	chIQGetTimeout
 128              	.LVL14:
 129              		.cfi_endproc
 130              	.LFE123:
 131              		.size	gett, .-gett
 132 0006 00BFAFF3 		.section	.text.get,"ax",%progbits
 132      0080AFF3 
 132      0080
 133              		.align	2
 134              		.p2align 4,,15
 135              		.thumb
 136              		.thumb_func
 137              		.type	get, %function
 138              	get:
 139              	.LFB121:
 140              		.loc 1 72 0
 141              		.cfi_startproc
 142              		@ args = 0, pretend = 0, frame = 0
 143              		@ frame_needed = 0, uses_anonymous_args = 0
 144              		@ link register save eliminated.
 145              	.LVL15:
 146              		.loc 1 74 0
 147 0000 0C30     		adds	r0, r0, #12
 148              	.LVL16:
 149 0002 4FF0FF31 		mov	r1, #-1
 150 0006 FFF7FEBF 		b	chIQGetTimeout
 151              	.LVL17:
 152              		.cfi_endproc
 153              	.LFE121:
 154              		.size	get, .-get
 155 000a 00BFAFF3 		.section	.text.putt,"ax",%progbits
 155      0080
 156              		.align	2
 157              		.p2align 4,,15
 158              		.thumb
 159              		.thumb_func
 160              		.type	putt, %function
 161              	putt:
 162              	.LFB122:
ARM GAS  /tmp/ccBxcGqo.s 			page 4


 163              		.loc 1 77 0
 164              		.cfi_startproc
 165              		@ args = 0, pretend = 0, frame = 0
 166              		@ frame_needed = 0, uses_anonymous_args = 0
 167              		@ link register save eliminated.
 168              	.LVL18:
 169              		.loc 1 79 0
 170 0000 3030     		adds	r0, r0, #48
 171              	.LVL19:
 172 0002 FFF7FEBF 		b	chOQPutTimeout
 173              	.LVL20:
 174              		.cfi_endproc
 175              	.LFE122:
 176              		.size	putt, .-putt
 177 0006 00BFAFF3 		.section	.text.put,"ax",%progbits
 177      0080AFF3 
 177      0080
 178              		.align	2
 179              		.p2align 4,,15
 180              		.thumb
 181              		.thumb_func
 182              		.type	put, %function
 183              	put:
 184              	.LFB120:
 185              		.loc 1 67 0
 186              		.cfi_startproc
 187              		@ args = 0, pretend = 0, frame = 0
 188              		@ frame_needed = 0, uses_anonymous_args = 0
 189              		@ link register save eliminated.
 190              	.LVL21:
 191              		.loc 1 69 0
 192 0000 3030     		adds	r0, r0, #48
 193              	.LVL22:
 194 0002 4FF0FF32 		mov	r2, #-1
 195 0006 FFF7FEBF 		b	chOQPutTimeout
 196              	.LVL23:
 197              		.cfi_endproc
 198              	.LFE120:
 199              		.size	put, .-put
 200 000a 00BFAFF3 		.section	.text.sdInit,"ax",%progbits
 200      0080
 201              		.align	2
 202              		.p2align 4,,15
 203              		.global	sdInit
 204              		.thumb
 205              		.thumb_func
 206              		.type	sdInit, %function
 207              	sdInit:
 208              	.LFB126:
 209              		.loc 1 113 0
 210              		.cfi_startproc
 211              		@ args = 0, pretend = 0, frame = 0
 212              		@ frame_needed = 0, uses_anonymous_args = 0
 213              		@ link register save eliminated.
 214              		.loc 1 115 0
 215 0000 FFF7FEBF 		b	sd_lld_init
 216              	.LVL24:
ARM GAS  /tmp/ccBxcGqo.s 			page 5


 217              		.cfi_endproc
 218              	.LFE126:
 219              		.size	sdInit, .-sdInit
 220 0004 AFF30080 		.section	.text.sdObjectInit,"ax",%progbits
 220      AFF30080 
 220      AFF30080 
 221              		.align	2
 222              		.p2align 4,,15
 223              		.global	sdObjectInit
 224              		.thumb
 225              		.thumb_func
 226              		.type	sdObjectInit, %function
 227              	sdObjectInit:
 228              	.LFB127:
 229              		.loc 1 133 0
 230              		.cfi_startproc
 231              		@ args = 0, pretend = 0, frame = 0
 232              		@ frame_needed = 0, uses_anonymous_args = 0
 233              	.LVL25:
 234 0000 70B5     		push	{r4, r5, r6, lr}
 235              		.cfi_def_cfa_offset 16
 236              		.cfi_offset 4, -16
 237              		.cfi_offset 5, -12
 238              		.cfi_offset 6, -8
 239              		.cfi_offset 14, -4
 240              		.loc 1 135 0
 241 0002 0E4B     		ldr	r3, .L11
 242              		.loc 1 133 0
 243 0004 0446     		mov	r4, r0
 244 0006 82B0     		sub	sp, sp, #8
 245              		.cfi_def_cfa_offset 24
 246              		.loc 1 135 0
 247 0008 40F8043B 		str	r3, [r0], #4
 248              	.LVL26:
 249              		.loc 1 137 0
 250 000c 0126     		movs	r6, #1
 251              		.loc 1 138 0
 252 000e 0094     		str	r4, [sp]
 253              		.loc 1 133 0
 254 0010 0B46     		mov	r3, r1
 255 0012 1546     		mov	r5, r2
 256              		.loc 1 136 0
 257 0014 6060     		str	r0, [r4, #4]
 258              		.loc 1 138 0
 259 0016 04F15401 		add	r1, r4, #84
 260              	.LVL27:
 261 001a 04F10C00 		add	r0, r4, #12
 262              		.loc 1 137 0
 263 001e 2672     		strb	r6, [r4, #8]
 264              		.loc 1 138 0
 265 0020 1022     		movs	r2, #16
 266              	.LVL28:
 267 0022 FFF7FEFF 		bl	chIQInit
 268              	.LVL29:
 269              		.loc 1 139 0
 270 0026 0094     		str	r4, [sp]
 271 0028 2B46     		mov	r3, r5
ARM GAS  /tmp/ccBxcGqo.s 			page 6


 272 002a 04F13000 		add	r0, r4, #48
 273 002e 04F16401 		add	r1, r4, #100
 274 0032 1022     		movs	r2, #16
 275 0034 FFF7FEFF 		bl	chOQInit
 276              	.LVL30:
 277              		.loc 1 140 0
 278 0038 02B0     		add	sp, sp, #8
 279              		@ sp needed
 280 003a 70BD     		pop	{r4, r5, r6, pc}
 281              	.LVL31:
 282              	.L12:
 283              		.align	2
 284              	.L11:
 285 003c 00000000 		.word	.LANCHOR0
 286              		.cfi_endproc
 287              	.LFE127:
 288              		.size	sdObjectInit, .-sdObjectInit
 289              		.section	.text.sdStart,"ax",%progbits
 290              		.align	2
 291              		.p2align 4,,15
 292              		.global	sdStart
 293              		.thumb
 294              		.thumb_func
 295              		.type	sdStart, %function
 296              	sdStart:
 297              	.LFB128:
 298              		.loc 1 152 0
 299              		.cfi_startproc
 300              		@ args = 0, pretend = 0, frame = 0
 301              		@ frame_needed = 0, uses_anonymous_args = 0
 302              	.LVL32:
 303 0000 38B5     		push	{r3, r4, r5, lr}
 304              		.cfi_def_cfa_offset 16
 305              		.cfi_offset 3, -16
 306              		.cfi_offset 4, -12
 307              		.cfi_offset 5, -8
 308              		.cfi_offset 14, -4
 309              		.loc 1 154 0
 310 0002 0446     		mov	r4, r0
 311              		.loc 1 152 0
 312 0004 0D46     		mov	r5, r1
 313              		.loc 1 154 0
 314 0006 B8B1     		cbz	r0, .L17
 315              	.LVL33:
 316              	.L14:
 317              	.LBB2:
 318              		.loc 1 156 0
 319 0008 2023     		movs	r3, #32
 320              	@ 156 "../../../../os/hal/src/serial.c" 1
 321 000a 83F31188 		msr     BASEPRI, r3
 322              	@ 0 "" 2
 323              		.thumb
 324              	.LBE2:
 325 000e FFF7FEFF 		bl	dbg_check_lock
 326              	.LVL34:
 327              		.loc 1 157 0
 328 0012 237A     		ldrb	r3, [r4, #8]	@ zero_extendqisi2
ARM GAS  /tmp/ccBxcGqo.s 			page 7


 329 0014 013B     		subs	r3, r3, #1
 330 0016 012B     		cmp	r3, #1
 331 0018 02D9     		bls	.L15
 332              		.loc 1 157 0 is_stmt 0 discriminator 1
 333 001a 0948     		ldr	r0, .L18
 334 001c FFF7FEFF 		bl	chDbgPanic
 335              	.LVL35:
 336              	.L15:
 337              		.loc 1 160 0 is_stmt 1
 338 0020 2946     		mov	r1, r5
 339 0022 2046     		mov	r0, r4
 340 0024 FFF7FEFF 		bl	sd_lld_start
 341              	.LVL36:
 342              		.loc 1 161 0
 343 0028 0223     		movs	r3, #2
 344 002a 2372     		strb	r3, [r4, #8]
 345              		.loc 1 162 0
 346 002c FFF7FEFF 		bl	dbg_check_unlock
 347              	.LVL37:
 348              	.LBB3:
 349 0030 0023     		movs	r3, #0
 350              	@ 162 "../../../../os/hal/src/serial.c" 1
 351 0032 83F31188 		msr     BASEPRI, r3
 352              	@ 0 "" 2
 353              		.thumb
 354 0036 38BD     		pop	{r3, r4, r5, pc}
 355              	.LVL38:
 356              	.L17:
 357              	.LBE3:
 358              		.loc 1 154 0 discriminator 1
 359 0038 0248     		ldr	r0, .L18+4
 360              	.LVL39:
 361 003a FFF7FEFF 		bl	chDbgPanic
 362              	.LVL40:
 363 003e E3E7     		b	.L14
 364              	.L19:
 365              		.align	2
 366              	.L18:
 367 0040 0C000000 		.word	.LC1
 368 0044 00000000 		.word	.LC0
 369              		.cfi_endproc
 370              	.LFE128:
 371              		.size	sdStart, .-sdStart
 372 0048 AFF30080 		.section	.text.sdStop,"ax",%progbits
 372      AFF30080 
 373              		.align	2
 374              		.p2align 4,,15
 375              		.global	sdStop
 376              		.thumb
 377              		.thumb_func
 378              		.type	sdStop, %function
 379              	sdStop:
 380              	.LFB129:
 381              		.loc 1 174 0
 382              		.cfi_startproc
 383              		@ args = 0, pretend = 0, frame = 0
 384              		@ frame_needed = 0, uses_anonymous_args = 0
ARM GAS  /tmp/ccBxcGqo.s 			page 8


 385              	.LVL41:
 386 0000 10B5     		push	{r4, lr}
 387              		.cfi_def_cfa_offset 8
 388              		.cfi_offset 4, -8
 389              		.cfi_offset 14, -4
 390              		.loc 1 176 0
 391 0002 0446     		mov	r4, r0
 392 0004 00B3     		cbz	r0, .L23
 393              	.LVL42:
 394              	.L21:
 395              	.LBB4:
 396              		.loc 1 178 0
 397 0006 2023     		movs	r3, #32
 398              	@ 178 "../../../../os/hal/src/serial.c" 1
 399 0008 83F31188 		msr     BASEPRI, r3
 400              	@ 0 "" 2
 401              		.thumb
 402              	.LBE4:
 403 000c FFF7FEFF 		bl	dbg_check_lock
 404              	.LVL43:
 405              		.loc 1 179 0
 406 0010 237A     		ldrb	r3, [r4, #8]	@ zero_extendqisi2
 407 0012 013B     		subs	r3, r3, #1
 408 0014 012B     		cmp	r3, #1
 409 0016 02D9     		bls	.L22
 410              		.loc 1 179 0 is_stmt 0 discriminator 1
 411 0018 0D48     		ldr	r0, .L24
 412 001a FFF7FEFF 		bl	chDbgPanic
 413              	.LVL44:
 414              	.L22:
 415              		.loc 1 182 0 is_stmt 1
 416 001e 2046     		mov	r0, r4
 417 0020 FFF7FEFF 		bl	sd_lld_stop
 418              	.LVL45:
 419              		.loc 1 183 0
 420 0024 0123     		movs	r3, #1
 421 0026 2372     		strb	r3, [r4, #8]
 422              		.loc 1 184 0
 423 0028 04F13000 		add	r0, r4, #48
 424 002c FFF7FEFF 		bl	chOQResetI
 425              	.LVL46:
 426              		.loc 1 185 0
 427 0030 04F10C00 		add	r0, r4, #12
 428 0034 FFF7FEFF 		bl	chIQResetI
 429              	.LVL47:
 430              		.loc 1 186 0
 431 0038 FFF7FEFF 		bl	chSchRescheduleS
 432              	.LVL48:
 433              		.loc 1 187 0
 434 003c FFF7FEFF 		bl	dbg_check_unlock
 435              	.LVL49:
 436              	.LBB5:
 437 0040 0023     		movs	r3, #0
 438              	@ 187 "../../../../os/hal/src/serial.c" 1
 439 0042 83F31188 		msr     BASEPRI, r3
 440              	@ 0 "" 2
 441              		.thumb
ARM GAS  /tmp/ccBxcGqo.s 			page 9


 442 0046 10BD     		pop	{r4, pc}
 443              	.LVL50:
 444              	.L23:
 445              	.LBE5:
 446              		.loc 1 176 0 discriminator 1
 447 0048 0248     		ldr	r0, .L24+4
 448              	.LVL51:
 449 004a FFF7FEFF 		bl	chDbgPanic
 450              	.LVL52:
 451 004e DAE7     		b	.L21
 452              	.L25:
 453              		.align	2
 454              	.L24:
 455 0050 28000000 		.word	.LC3
 456 0054 1C000000 		.word	.LC2
 457              		.cfi_endproc
 458              	.LFE129:
 459              		.size	sdStop, .-sdStop
 460 0058 AFF30080 		.section	.text.sdIncomingDataI,"ax",%progbits
 460      AFF30080 
 461              		.align	2
 462              		.p2align 4,,15
 463              		.global	sdIncomingDataI
 464              		.thumb
 465              		.thumb_func
 466              		.type	sdIncomingDataI, %function
 467              	sdIncomingDataI:
 468              	.LFB130:
 469              		.loc 1 206 0
 470              		.cfi_startproc
 471              		@ args = 0, pretend = 0, frame = 0
 472              		@ frame_needed = 0, uses_anonymous_args = 0
 473              	.LVL53:
 474 0000 38B5     		push	{r3, r4, r5, lr}
 475              		.cfi_def_cfa_offset 16
 476              		.cfi_offset 3, -16
 477              		.cfi_offset 4, -12
 478              		.cfi_offset 5, -8
 479              		.cfi_offset 14, -4
 480              		.loc 1 206 0
 481 0002 0446     		mov	r4, r0
 482 0004 0D46     		mov	r5, r1
 483              		.loc 1 208 0
 484 0006 FFF7FEFF 		bl	chDbgCheckClassI
 485              	.LVL54:
 486              		.loc 1 209 0
 487 000a D4B1     		cbz	r4, .L30
 488              	.L27:
 489              		.loc 1 211 0
 490 000c 6369     		ldr	r3, [r4, #20]
 491 000e 3BB1     		cbz	r3, .L31
 492              		.loc 1 213 0
 493 0010 2946     		mov	r1, r5
 494 0012 04F10C00 		add	r0, r4, #12
 495 0016 FFF7FEFF 		bl	chIQPutI
 496              	.LVL55:
 497 001a 0028     		cmp	r0, #0
ARM GAS  /tmp/ccBxcGqo.s 			page 10


 498 001c 0BDB     		blt	.L32
 499              	.L26:
 500 001e 38BD     		pop	{r3, r4, r5, pc}
 501              	.LVL56:
 502              	.L31:
 503              		.loc 1 212 0
 504 0020 201D     		adds	r0, r4, #4
 505 0022 0421     		movs	r1, #4
 506 0024 FFF7FEFF 		bl	chEvtBroadcastFlagsI
 507              	.LVL57:
 508              		.loc 1 213 0
 509 0028 2946     		mov	r1, r5
 510 002a 04F10C00 		add	r0, r4, #12
 511 002e FFF7FEFF 		bl	chIQPutI
 512              	.LVL58:
 513 0032 0028     		cmp	r0, #0
 514 0034 F3DA     		bge	.L26
 515              	.L32:
 516              		.loc 1 214 0
 517 0036 201D     		adds	r0, r4, #4
 518 0038 8021     		movs	r1, #128
 519              		.loc 1 215 0
 520 003a BDE83840 		pop	{r3, r4, r5, lr}
 521              	.LVL59:
 522              		.loc 1 214 0
 523 003e FFF7FEBF 		b	chEvtBroadcastFlagsI
 524              	.LVL60:
 525              	.L30:
 526              		.loc 1 209 0 discriminator 1
 527 0042 0248     		ldr	r0, .L33
 528 0044 FFF7FEFF 		bl	chDbgPanic
 529              	.LVL61:
 530 0048 E0E7     		b	.L27
 531              	.L34:
 532 004a 00BF     		.align	2
 533              	.L33:
 534 004c 38000000 		.word	.LC4
 535              		.cfi_endproc
 536              	.LFE130:
 537              		.size	sdIncomingDataI, .-sdIncomingDataI
 538              		.section	.text.sdRequestDataI,"ax",%progbits
 539              		.align	2
 540              		.p2align 4,,15
 541              		.global	sdRequestDataI
 542              		.thumb
 543              		.thumb_func
 544              		.type	sdRequestDataI, %function
 545              	sdRequestDataI:
 546              	.LFB131:
 547              		.loc 1 232 0
 548              		.cfi_startproc
 549              		@ args = 0, pretend = 0, frame = 0
 550              		@ frame_needed = 0, uses_anonymous_args = 0
 551              	.LVL62:
 552 0000 38B5     		push	{r3, r4, r5, lr}
 553              		.cfi_def_cfa_offset 16
 554              		.cfi_offset 3, -16
ARM GAS  /tmp/ccBxcGqo.s 			page 11


 555              		.cfi_offset 4, -12
 556              		.cfi_offset 5, -8
 557              		.cfi_offset 14, -4
 558              		.loc 1 232 0
 559 0002 0446     		mov	r4, r0
 560              		.loc 1 235 0
 561 0004 FFF7FEFF 		bl	chDbgCheckClassI
 562              	.LVL63:
 563              		.loc 1 236 0
 564 0008 6CB1     		cbz	r4, .L38
 565              	.L36:
 566              		.loc 1 238 0
 567 000a 04F13000 		add	r0, r4, #48
 568 000e FFF7FEFF 		bl	chOQGetI
 569              	.LVL64:
 570              		.loc 1 239 0
 571 0012 051E     		subs	r5, r0, #0
 572 0014 01DB     		blt	.L39
 573              		.loc 1 242 0
 574 0016 2846     		mov	r0, r5
 575 0018 38BD     		pop	{r3, r4, r5, pc}
 576              	.LVL65:
 577              	.L39:
 578              		.loc 1 240 0
 579 001a 201D     		adds	r0, r4, #4
 580              	.LVL66:
 581 001c 0821     		movs	r1, #8
 582 001e FFF7FEFF 		bl	chEvtBroadcastFlagsI
 583              	.LVL67:
 584              		.loc 1 242 0
 585 0022 2846     		mov	r0, r5
 586 0024 38BD     		pop	{r3, r4, r5, pc}
 587              	.LVL68:
 588              	.L38:
 589              		.loc 1 236 0 discriminator 1
 590 0026 0248     		ldr	r0, .L40
 591 0028 FFF7FEFF 		bl	chDbgPanic
 592              	.LVL69:
 593 002c EDE7     		b	.L36
 594              	.L41:
 595 002e 00BF     		.align	2
 596              	.L40:
 597 0030 4C000000 		.word	.LC5
 598              		.cfi_endproc
 599              	.LFE131:
 600              		.size	sdRequestDataI, .-sdRequestDataI
 601 0034 AFF30080 		.section	.rodata.str1.4,"aMS",%progbits,1
 601      AFF30080 
 601      AFF30080 
 602              		.align	2
 603              	.LC0:
 604 0000 22736453 		.ascii	"\"sdStart\"()\000"
 604      74617274 
 604      22282900 
 605              	.LC1:
 606 000c 73645374 		.ascii	"sdStart(), #1\000"
 606      61727428 
ARM GAS  /tmp/ccBxcGqo.s 			page 12


 606      292C2023 
 606      3100
 607 001a 0000     		.space	2
 608              	.LC2:
 609 001c 22736453 		.ascii	"\"sdStop\"()\000"
 609      746F7022 
 609      282900
 610 0027 00       		.space	1
 611              	.LC3:
 612 0028 73645374 		.ascii	"sdStop(), #1\000"
 612      6F702829 
 612      2C202331 
 612      00
 613 0035 000000   		.space	3
 614              	.LC4:
 615 0038 22736449 		.ascii	"\"sdIncomingDataI\"()\000"
 615      6E636F6D 
 615      696E6744 
 615      61746149 
 615      22282900 
 616              	.LC5:
 617 004c 22736452 		.ascii	"\"sdRequestDataI\"()\000"
 617      65717565 
 617      73744461 
 617      74614922 
 617      282900
 618 005f 00       		.section	.rodata.vmt,"a",%progbits
 619              		.align	2
 620              		.set	.LANCHOR0,. + 0
 621              		.type	vmt, %object
 622              		.size	vmt, 32
 623              	vmt:
 624 0000 00000000 		.word	write
 625 0004 00000000 		.word	read
 626 0008 00000000 		.word	put
 627 000c 00000000 		.word	get
 628 0010 00000000 		.word	putt
 629 0014 00000000 		.word	gett
 630 0018 00000000 		.word	writet
 631 001c 00000000 		.word	readt
 632              		.text
 633              	.Letext0:
 634              		.file 2 "/usr/lib/gcc/arm-none-eabi/4.8/include/stddef.h"
 635              		.file 3 "/usr/include/newlib/machine/_default_types.h"
 636              		.file 4 "/usr/include/newlib/stdint.h"
 637              		.file 5 "../../../../os/ports/GCC/ARMCMx/chtypes.h"
 638              		.file 6 "../../../../os/kernel/include/chlists.h"
 639              		.file 7 "../../../../os/kernel/include/chthreads.h"
 640              		.file 8 "../../../../os/ports/GCC/ARMCMx/chcore_v7m.h"
 641              		.file 9 "../../../../os/kernel/include/chmtx.h"
 642              		.file 10 "../../../../os/kernel/include/chevents.h"
 643              		.file 11 "../../../../os/kernel/include/chqueues.h"
 644              		.file 12 "../../../../os/hal/platforms/STM32F30x/stm32f30x.h"
 645              		.file 13 "../../../../os/hal/include/serial.h"
 646              		.file 14 "../../../../os/hal/platforms/STM32/USARTv2/serial_lld.h"
 647              		.file 15 "../../../../os/kernel/include/chdebug.h"
 648              		.file 16 "../../../../os/kernel/include/chschd.h"
ARM GAS  /tmp/ccBxcGqo.s 			page 13


 649              		.file 17 "../../../../os/ports/common/ARMCMx/CMSIS/include/core_cm4.h"