ARM GAS  /tmp/ccGcz1Nm.s 			page 1


   1              		.syntax unified
   2              		.cpu cortex-m4
   3              		.eabi_attribute 27, 3
   4              		.fpu fpv4-sp-d16
   5              		.eabi_attribute 20, 1
   6              		.eabi_attribute 21, 1
   7              		.eabi_attribute 23, 3
   8              		.eabi_attribute 24, 1
   9              		.eabi_attribute 25, 1
  10              		.eabi_attribute 26, 1
  11              		.eabi_attribute 30, 2
  12              		.eabi_attribute 34, 1
  13              		.eabi_attribute 18, 4
  14              		.thumb
  15              		.file	"serial_lld.c"
  16              		.text
  17              	.Ltext0:
  18              		.cfi_sections	.debug_frame
  19              		.section	.text.notify1,"ax",%progbits
  20              		.align	2
  21              		.p2align 4,,15
  22              		.thumb
  23              		.thumb_func
  24              		.type	notify1, %function
  25              	notify1:
  26              	.LFB122:
  27              		.file 1 "../../../../os/hal/platforms/STM32/USARTv2/serial_lld.c"
  28              		.loc 1 194 0
  29              		.cfi_startproc
  30              		@ args = 0, pretend = 0, frame = 0
  31              		@ frame_needed = 0, uses_anonymous_args = 0
  32              		@ link register save eliminated.
  33              	.LVL0:
  34              		.loc 1 197 0
  35 0000 024B     		ldr	r3, .L2
  36 0002 1A68     		ldr	r2, [r3]
  37 0004 42F08002 		orr	r2, r2, #128
  38 0008 1A60     		str	r2, [r3]
  39 000a 7047     		bx	lr
  40              	.L3:
  41              		.align	2
  42              	.L2:
  43 000c 00380140 		.word	1073821696
  44              		.cfi_endproc
  45              	.LFE122:
  46              		.size	notify1, .-notify1
  47              		.section	.text.notify2,"ax",%progbits
  48              		.align	2
  49              		.p2align 4,,15
  50              		.thumb
  51              		.thumb_func
  52              		.type	notify2, %function
  53              	notify2:
  54              	.LFB123:
  55              		.loc 1 202 0
  56              		.cfi_startproc
  57              		@ args = 0, pretend = 0, frame = 0
ARM GAS  /tmp/ccGcz1Nm.s 			page 2


  58              		@ frame_needed = 0, uses_anonymous_args = 0
  59              		@ link register save eliminated.
  60              	.LVL1:
  61              		.loc 1 205 0
  62 0000 024B     		ldr	r3, .L5
  63 0002 1A68     		ldr	r2, [r3]
  64 0004 42F08002 		orr	r2, r2, #128
  65 0008 1A60     		str	r2, [r3]
  66 000a 7047     		bx	lr
  67              	.L6:
  68              		.align	2
  69              	.L5:
  70 000c 00440040 		.word	1073759232
  71              		.cfi_endproc
  72              	.LFE123:
  73              		.size	notify2, .-notify2
  74              		.section	.text.notify3,"ax",%progbits
  75              		.align	2
  76              		.p2align 4,,15
  77              		.thumb
  78              		.thumb_func
  79              		.type	notify3, %function
  80              	notify3:
  81              	.LFB124:
  82              		.loc 1 210 0
  83              		.cfi_startproc
  84              		@ args = 0, pretend = 0, frame = 0
  85              		@ frame_needed = 0, uses_anonymous_args = 0
  86              		@ link register save eliminated.
  87              	.LVL2:
  88              		.loc 1 213 0
  89 0000 024B     		ldr	r3, .L8
  90 0002 1A68     		ldr	r2, [r3]
  91 0004 42F08002 		orr	r2, r2, #128
  92 0008 1A60     		str	r2, [r3]
  93 000a 7047     		bx	lr
  94              	.L9:
  95              		.align	2
  96              	.L8:
  97 000c 00480040 		.word	1073760256
  98              		.cfi_endproc
  99              	.LFE124:
 100              		.size	notify3, .-notify3
 101              		.section	.text.serve_interrupt,"ax",%progbits
 102              		.align	2
 103              		.p2align 4,,15
 104              		.thumb
 105              		.thumb_func
 106              		.type	serve_interrupt, %function
 107              	serve_interrupt:
 108              	.LFB121:
 109              		.loc 1 147 0
 110              		.cfi_startproc
 111              		@ args = 0, pretend = 0, frame = 0
 112              		@ frame_needed = 0, uses_anonymous_args = 0
 113              	.LVL3:
 114 0000 2DE9F041 		push	{r4, r5, r6, r7, r8, lr}
ARM GAS  /tmp/ccGcz1Nm.s 			page 3


 115              		.cfi_def_cfa_offset 24
 116              		.cfi_offset 4, -24
 117              		.cfi_offset 5, -20
 118              		.cfi_offset 6, -16
 119              		.cfi_offset 7, -12
 120              		.cfi_offset 8, -8
 121              		.cfi_offset 14, -4
 122              		.loc 1 148 0
 123 0004 456F     		ldr	r5, [r0, #116]
 124              	.LVL4:
 125              		.loc 1 149 0
 126 0006 2F68     		ldr	r7, [r5]
 127              	.LVL5:
 128              		.loc 1 153 0
 129 0008 EC69     		ldr	r4, [r5, #28]
 130              	.LVL6:
 131              		.loc 1 154 0
 132 000a 2C62     		str	r4, [r5, #32]
 133              		.loc 1 157 0
 134 000c 2307     		lsls	r3, r4, #28
 135              		.loc 1 147 0
 136 000e 0646     		mov	r6, r0
 137              		.loc 1 157 0
 138 0010 3CD1     		bne	.L51
 139              	.LVL7:
 140              	.L11:
 141              		.loc 1 160 0
 142 0012 E305     		lsls	r3, r4, #23
 143 0014 2AD4     		bmi	.L52
 144              	.L16:
 145              		.loc 1 166 0
 146 0016 A006     		lsls	r0, r4, #26
 147 0018 18D4     		bmi	.L53
 148              	.L17:
 149              		.loc 1 172 0
 150 001a 3906     		lsls	r1, r7, #24
 151 001c 01D5     		bpl	.L18
 152              		.loc 1 172 0 is_stmt 0 discriminator 1
 153 001e 2206     		lsls	r2, r4, #24
 154 0020 56D4     		bmi	.L54
 155              	.L18:
 156              		.loc 1 185 0 is_stmt 1
 157 0022 6306     		lsls	r3, r4, #25
 158 0024 10D5     		bpl	.L10
 159              	.LBB19:
 160              		.loc 1 186 0
 161 0026 2023     		movs	r3, #32
 162              	@ 186 "../../../../os/hal/platforms/STM32/USARTv2/serial_lld.c" 1
 163 0028 83F31188 		msr     BASEPRI, r3
 164              	@ 0 "" 2
 165              		.thumb
 166              	.LBE19:
 167 002c FFF7FEFF 		bl	dbg_check_lock_from_isr
 168              	.LVL8:
 169              		.loc 1 187 0
 170 0030 301D     		adds	r0, r6, #4
 171 0032 1021     		movs	r1, #16
ARM GAS  /tmp/ccGcz1Nm.s 			page 4


 172 0034 FFF7FEFF 		bl	chEvtBroadcastFlagsI
 173              	.LVL9:
 174              		.loc 1 188 0
 175 0038 FFF7FEFF 		bl	dbg_check_unlock_from_isr
 176              	.LVL10:
 177              	.LBB20:
 178 003c 0023     		movs	r3, #0
 179              	@ 188 "../../../../os/hal/platforms/STM32/USARTv2/serial_lld.c" 1
 180 003e 83F31188 		msr     BASEPRI, r3
 181              	@ 0 "" 2
 182              		.thumb
 183              	.LBE20:
 184              		.loc 1 189 0
 185 0042 27F04007 		bic	r7, r7, #64
 186              	.LVL11:
 187 0046 2F60     		str	r7, [r5]
 188              	.L10:
 189 0048 BDE8F081 		pop	{r4, r5, r6, r7, r8, pc}
 190              	.LVL12:
 191              	.L53:
 192              	.LBB21:
 193              		.loc 1 167 0
 194 004c 2023     		movs	r3, #32
 195              	@ 167 "../../../../os/hal/platforms/STM32/USARTv2/serial_lld.c" 1
 196 004e 83F31188 		msr     BASEPRI, r3
 197              	@ 0 "" 2
 198              		.thumb
 199              	.LBE21:
 200 0052 FFF7FEFF 		bl	dbg_check_lock_from_isr
 201              	.LVL13:
 202              		.loc 1 168 0
 203 0056 A98C     		ldrh	r1, [r5, #36]
 204 0058 3046     		mov	r0, r6
 205 005a C9B2     		uxtb	r1, r1
 206 005c FFF7FEFF 		bl	sdIncomingDataI
 207              	.LVL14:
 208              		.loc 1 169 0
 209 0060 FFF7FEFF 		bl	dbg_check_unlock_from_isr
 210              	.LVL15:
 211              	.LBB22:
 212 0064 0023     		movs	r3, #0
 213              	@ 169 "../../../../os/hal/platforms/STM32/USARTv2/serial_lld.c" 1
 214 0066 83F31188 		msr     BASEPRI, r3
 215              	@ 0 "" 2
 216              		.thumb
 217 006a D6E7     		b	.L17
 218              	.L52:
 219              	.LBE22:
 220              	.LBB23:
 221              		.loc 1 161 0
 222 006c 2023     		movs	r3, #32
 223              	@ 161 "../../../../os/hal/platforms/STM32/USARTv2/serial_lld.c" 1
 224 006e 83F31188 		msr     BASEPRI, r3
 225              	@ 0 "" 2
 226              		.thumb
 227              	.LBE23:
 228 0072 FFF7FEFF 		bl	dbg_check_lock_from_isr
ARM GAS  /tmp/ccGcz1Nm.s 			page 5


 229              	.LVL16:
 230              		.loc 1 162 0
 231 0076 301D     		adds	r0, r6, #4
 232 0078 4FF40071 		mov	r1, #512
 233 007c FFF7FEFF 		bl	chEvtBroadcastFlagsI
 234              	.LVL17:
 235              		.loc 1 163 0
 236 0080 FFF7FEFF 		bl	dbg_check_unlock_from_isr
 237              	.LVL18:
 238              	.LBB24:
 239 0084 0023     		movs	r3, #0
 240              	@ 163 "../../../../os/hal/platforms/STM32/USARTv2/serial_lld.c" 1
 241 0086 83F31188 		msr     BASEPRI, r3
 242              	@ 0 "" 2
 243              		.thumb
 244 008a C4E7     		b	.L16
 245              	.LVL19:
 246              	.L51:
 247              	.LBE24:
 248              	.LBB25:
 249              	.LBB26:
 250              		.loc 1 127 0
 251 008c 14F0080F 		tst	r4, #8
 252 0090 14BF     		ite	ne
 253 0092 4FF08008 		movne	r8, #128
 254 0096 4FF00008 		moveq	r8, #0
 255              	.LVL20:
 256              		.loc 1 131 0
 257 009a E007     		lsls	r0, r4, #31
 258              	.LVL21:
 259              		.loc 1 132 0
 260 009c 48BF     		it	mi
 261 009e 48F02008 		orrmi	r8, r8, #32
 262              	.LVL22:
 263              		.loc 1 133 0
 264 00a2 A107     		lsls	r1, r4, #30
 265              		.loc 1 134 0
 266 00a4 48BF     		it	mi
 267 00a6 48F04008 		orrmi	r8, r8, #64
 268              	.LVL23:
 269              		.loc 1 135 0
 270 00aa 6207     		lsls	r2, r4, #29
 271              		.loc 1 136 0
 272 00ac 48BF     		it	mi
 273 00ae 48F48078 		orrmi	r8, r8, #256
 274              	.LVL24:
 275              	.LBB27:
 276              		.loc 1 137 0
 277 00b2 2023     		movs	r3, #32
 278              	@ 137 "../../../../os/hal/platforms/STM32/USARTv2/serial_lld.c" 1
 279 00b4 83F31188 		msr     BASEPRI, r3
 280              	@ 0 "" 2
 281              		.thumb
 282              	.LBE27:
 283 00b8 FFF7FEFF 		bl	dbg_check_lock_from_isr
 284              	.LVL25:
 285              		.loc 1 138 0
ARM GAS  /tmp/ccGcz1Nm.s 			page 6


 286 00bc 4146     		mov	r1, r8
 287 00be 301D     		adds	r0, r6, #4
 288 00c0 FFF7FEFF 		bl	chEvtBroadcastFlagsI
 289              	.LVL26:
 290              		.loc 1 139 0
 291 00c4 FFF7FEFF 		bl	dbg_check_unlock_from_isr
 292              	.LVL27:
 293              	.LBB28:
 294 00c8 0023     		movs	r3, #0
 295              	@ 139 "../../../../os/hal/platforms/STM32/USARTv2/serial_lld.c" 1
 296 00ca 83F31188 		msr     BASEPRI, r3
 297              	@ 0 "" 2
 298              		.thumb
 299 00ce A0E7     		b	.L11
 300              	.LVL28:
 301              	.L54:
 302              	.LBE28:
 303              	.LBE26:
 304              	.LBE25:
 305              	.LBB29:
 306              	.LBB30:
 307              		.loc 1 174 0
 308 00d0 2023     		movs	r3, #32
 309              	@ 174 "../../../../os/hal/platforms/STM32/USARTv2/serial_lld.c" 1
 310 00d2 83F31188 		msr     BASEPRI, r3
 311              	@ 0 "" 2
 312              		.thumb
 313              	.LBE30:
 314 00d6 FFF7FEFF 		bl	dbg_check_lock_from_isr
 315              	.LVL29:
 316              		.loc 1 175 0
 317 00da 06F13000 		add	r0, r6, #48
 318 00de FFF7FEFF 		bl	chOQGetI
 319              	.LVL30:
 320              		.loc 1 176 0
 321 00e2 0028     		cmp	r0, #0
 322 00e4 07DB     		blt	.L55
 323              		.loc 1 181 0
 324 00e6 80B2     		uxth	r0, r0
 325              	.LVL31:
 326 00e8 2885     		strh	r0, [r5, #40]	@ movhi
 327              	.L20:
 328              		.loc 1 182 0
 329 00ea FFF7FEFF 		bl	dbg_check_unlock_from_isr
 330              	.LVL32:
 331              	.LBB31:
 332 00ee 0023     		movs	r3, #0
 333              	@ 182 "../../../../os/hal/platforms/STM32/USARTv2/serial_lld.c" 1
 334 00f0 83F31188 		msr     BASEPRI, r3
 335              	@ 0 "" 2
 336              		.thumb
 337 00f4 95E7     		b	.L18
 338              	.LVL33:
 339              	.L55:
 340              	.LBE31:
 341              		.loc 1 177 0
 342 00f6 301D     		adds	r0, r6, #4
ARM GAS  /tmp/ccGcz1Nm.s 			page 7


 343              	.LVL34:
 344 00f8 0821     		movs	r1, #8
 345 00fa FFF7FEFF 		bl	chEvtBroadcastFlagsI
 346              	.LVL35:
 347              		.loc 1 178 0
 348 00fe 27F0C003 		bic	r3, r7, #192
 349 0102 43F04003 		orr	r3, r3, #64
 350 0106 2B60     		str	r3, [r5]
 351 0108 EFE7     		b	.L20
 352              	.LBE29:
 353              		.cfi_endproc
 354              	.LFE121:
 355              		.size	serve_interrupt, .-serve_interrupt
 356 010a 00BFAFF3 		.section	.text.VectorD4,"ax",%progbits
 356      0080
 357              		.align	2
 358              		.p2align 4,,15
 359              		.global	VectorD4
 360              		.thumb
 361              		.thumb_func
 362              		.type	VectorD4, %function
 363              	VectorD4:
 364              	.LFB125:
 365              		.loc 1 254 0
 366              		.cfi_startproc
 367              		@ args = 0, pretend = 0, frame = 0
 368              		@ frame_needed = 0, uses_anonymous_args = 0
 369 0000 08B5     		push	{r3, lr}
 370              		.cfi_def_cfa_offset 8
 371              		.cfi_offset 3, -8
 372              		.cfi_offset 14, -4
 373              		.loc 1 256 0
 374 0002 FFF7FEFF 		bl	dbg_check_enter_isr
 375              	.LVL36:
 376              		.loc 1 258 0
 377 0006 0448     		ldr	r0, .L57
 378 0008 FFF7FEFF 		bl	serve_interrupt
 379              	.LVL37:
 380              		.loc 1 260 0
 381 000c FFF7FEFF 		bl	dbg_check_leave_isr
 382              	.LVL38:
 383              		.loc 1 261 0
 384 0010 BDE80840 		pop	{r3, lr}
 385              		.loc 1 260 0
 386 0014 FFF7FEBF 		b	_port_irq_epilogue
 387              	.LVL39:
 388              	.L58:
 389              		.align	2
 390              	.L57:
 391 0018 00000000 		.word	.LANCHOR0
 392              		.cfi_endproc
 393              	.LFE125:
 394              		.size	VectorD4, .-VectorD4
 395 001c AFF30080 		.section	.text.VectorD8,"ax",%progbits
 396              		.align	2
 397              		.p2align 4,,15
 398              		.global	VectorD8
ARM GAS  /tmp/ccGcz1Nm.s 			page 8


 399              		.thumb
 400              		.thumb_func
 401              		.type	VectorD8, %function
 402              	VectorD8:
 403              	.LFB126:
 404              		.loc 1 273 0
 405              		.cfi_startproc
 406              		@ args = 0, pretend = 0, frame = 0
 407              		@ frame_needed = 0, uses_anonymous_args = 0
 408 0000 08B5     		push	{r3, lr}
 409              		.cfi_def_cfa_offset 8
 410              		.cfi_offset 3, -8
 411              		.cfi_offset 14, -4
 412              		.loc 1 275 0
 413 0002 FFF7FEFF 		bl	dbg_check_enter_isr
 414              	.LVL40:
 415              		.loc 1 277 0
 416 0006 0448     		ldr	r0, .L60
 417 0008 FFF7FEFF 		bl	serve_interrupt
 418              	.LVL41:
 419              		.loc 1 279 0
 420 000c FFF7FEFF 		bl	dbg_check_leave_isr
 421              	.LVL42:
 422              		.loc 1 280 0
 423 0010 BDE80840 		pop	{r3, lr}
 424              		.loc 1 279 0
 425 0014 FFF7FEBF 		b	_port_irq_epilogue
 426              	.LVL43:
 427              	.L61:
 428              		.align	2
 429              	.L60:
 430 0018 00000000 		.word	.LANCHOR1
 431              		.cfi_endproc
 432              	.LFE126:
 433              		.size	VectorD8, .-VectorD8
 434 001c AFF30080 		.section	.text.VectorDC,"ax",%progbits
 435              		.align	2
 436              		.p2align 4,,15
 437              		.global	VectorDC
 438              		.thumb
 439              		.thumb_func
 440              		.type	VectorDC, %function
 441              	VectorDC:
 442              	.LFB127:
 443              		.loc 1 292 0
 444              		.cfi_startproc
 445              		@ args = 0, pretend = 0, frame = 0
 446              		@ frame_needed = 0, uses_anonymous_args = 0
 447 0000 08B5     		push	{r3, lr}
 448              		.cfi_def_cfa_offset 8
 449              		.cfi_offset 3, -8
 450              		.cfi_offset 14, -4
 451              		.loc 1 294 0
 452 0002 FFF7FEFF 		bl	dbg_check_enter_isr
 453              	.LVL44:
 454              		.loc 1 296 0
 455 0006 0448     		ldr	r0, .L63
ARM GAS  /tmp/ccGcz1Nm.s 			page 9


 456 0008 FFF7FEFF 		bl	serve_interrupt
 457              	.LVL45:
 458              		.loc 1 298 0
 459 000c FFF7FEFF 		bl	dbg_check_leave_isr
 460              	.LVL46:
 461              		.loc 1 299 0
 462 0010 BDE80840 		pop	{r3, lr}
 463              		.loc 1 298 0
 464 0014 FFF7FEBF 		b	_port_irq_epilogue
 465              	.LVL47:
 466              	.L64:
 467              		.align	2
 468              	.L63:
 469 0018 00000000 		.word	.LANCHOR2
 470              		.cfi_endproc
 471              	.LFE127:
 472              		.size	VectorDC, .-VectorDC
 473 001c AFF30080 		.section	.text.sd_lld_init,"ax",%progbits
 474              		.align	2
 475              		.p2align 4,,15
 476              		.global	sd_lld_init
 477              		.thumb
 478              		.thumb_func
 479              		.type	sd_lld_init, %function
 480              	sd_lld_init:
 481              	.LFB128:
 482              		.loc 1 368 0
 483              		.cfi_startproc
 484              		@ args = 0, pretend = 0, frame = 0
 485              		@ frame_needed = 0, uses_anonymous_args = 0
 486 0000 F8B5     		push	{r3, r4, r5, r6, r7, lr}
 487              		.cfi_def_cfa_offset 24
 488              		.cfi_offset 3, -24
 489              		.cfi_offset 4, -20
 490              		.cfi_offset 5, -16
 491              		.cfi_offset 6, -12
 492              		.cfi_offset 7, -8
 493              		.cfi_offset 14, -4
 494              		.loc 1 371 0
 495 0002 0E4F     		ldr	r7, .L66
 496              		.loc 1 377 0
 497 0004 0E4E     		ldr	r6, .L66+4
 498              		.loc 1 383 0
 499 0006 0F4D     		ldr	r5, .L66+8
 500              		.loc 1 371 0
 501 0008 0F4A     		ldr	r2, .L66+12
 502              		.loc 1 373 0
 503 000a 104C     		ldr	r4, .L66+16
 504              		.loc 1 371 0
 505 000c 3846     		mov	r0, r7
 506 000e 0021     		movs	r1, #0
 507 0010 FFF7FEFF 		bl	sdObjectInit
 508              	.LVL48:
 509              		.loc 1 372 0
 510 0014 0E4B     		ldr	r3, .L66+20
 511              		.loc 1 377 0
 512 0016 0F4A     		ldr	r2, .L66+24
ARM GAS  /tmp/ccGcz1Nm.s 			page 10


 513              		.loc 1 372 0
 514 0018 7B67     		str	r3, [r7, #116]
 515              		.loc 1 377 0
 516 001a 3046     		mov	r0, r6
 517 001c 0021     		movs	r1, #0
 518              		.loc 1 373 0
 519 001e BC67     		str	r4, [r7, #120]
 520              		.loc 1 377 0
 521 0020 FFF7FEFF 		bl	sdObjectInit
 522              	.LVL49:
 523              		.loc 1 378 0
 524 0024 0C4B     		ldr	r3, .L66+28
 525              		.loc 1 383 0
 526 0026 0D4A     		ldr	r2, .L66+32
 527              		.loc 1 378 0
 528 0028 7367     		str	r3, [r6, #116]
 529              		.loc 1 383 0
 530 002a 2846     		mov	r0, r5
 531 002c 0021     		movs	r1, #0
 532              		.loc 1 379 0
 533 002e B467     		str	r4, [r6, #120]
 534              		.loc 1 383 0
 535 0030 FFF7FEFF 		bl	sdObjectInit
 536              	.LVL50:
 537              		.loc 1 384 0
 538 0034 0A4B     		ldr	r3, .L66+36
 539              		.loc 1 385 0
 540 0036 AC67     		str	r4, [r5, #120]
 541              		.loc 1 384 0
 542 0038 6B67     		str	r3, [r5, #116]
 543 003a F8BD     		pop	{r3, r4, r5, r6, r7, pc}
 544              	.L67:
 545              		.align	2
 546              	.L66:
 547 003c 00000000 		.word	.LANCHOR0
 548 0040 00000000 		.word	.LANCHOR1
 549 0044 00000000 		.word	.LANCHOR2
 550 0048 00000000 		.word	notify1
 551 004c 00512502 		.word	36000000
 552 0050 00380140 		.word	1073821696
 553 0054 00000000 		.word	notify2
 554 0058 00440040 		.word	1073759232
 555 005c 00000000 		.word	notify3
 556 0060 00480040 		.word	1073760256
 557              		.cfi_endproc
 558              	.LFE128:
 559              		.size	sd_lld_init, .-sd_lld_init
 560 0064 AFF30080 		.section	.text.sd_lld_start,"ax",%progbits
 560      AFF30080 
 560      AFF30080 
 561              		.align	2
 562              		.p2align 4,,15
 563              		.global	sd_lld_start
 564              		.thumb
 565              		.thumb_func
 566              		.type	sd_lld_start, %function
 567              	sd_lld_start:
ARM GAS  /tmp/ccGcz1Nm.s 			page 11


 568              	.LFB129:
 569              		.loc 1 417 0
 570              		.cfi_startproc
 571              		@ args = 0, pretend = 0, frame = 0
 572              		@ frame_needed = 0, uses_anonymous_args = 0
 573              	.LVL51:
 574 0000 F8B5     		push	{r3, r4, r5, r6, r7, lr}
 575              		.cfi_def_cfa_offset 24
 576              		.cfi_offset 3, -24
 577              		.cfi_offset 4, -20
 578              		.cfi_offset 5, -16
 579              		.cfi_offset 6, -12
 580              		.cfi_offset 7, -8
 581              		.cfi_offset 14, -4
 582              		.loc 1 420 0
 583 0002 254D     		ldr	r5, .L77
 584              		.loc 1 422 0
 585 0004 037A     		ldrb	r3, [r0, #8]	@ zero_extendqisi2
 586              		.loc 1 420 0
 587 0006 0029     		cmp	r1, #0
 588 0008 18BF     		it	ne
 589 000a 0D46     		movne	r5, r1
 590              	.LVL52:
 591              		.loc 1 422 0
 592 000c 012B     		cmp	r3, #1
 593              		.loc 1 417 0
 594 000e 0446     		mov	r4, r0
 595              		.loc 1 422 0
 596 0010 1BD0     		beq	.L74
 597              	.LVL53:
 598              	.L70:
 599              	.LBB32:
 600              	.LBB33:
 601              		.loc 1 102 0
 602 0012 AA88     		ldrh	r2, [r5, #4]
 603              		.loc 1 99 0
 604 0014 E988     		ldrh	r1, [r5, #6]
 605              		.loc 1 96 0
 606 0016 A76F     		ldr	r7, [r4, #120]
 607              		.loc 1 100 0
 608 0018 2889     		ldrh	r0, [r5, #8]
 609              		.loc 1 96 0
 610 001a 2E68     		ldr	r6, [r5]
 611              	.LBE33:
 612              	.LBE32:
 613              		.loc 1 417 0
 614 001c 636F     		ldr	r3, [r4, #116]
 615              	.LVL54:
 616              	.LBB35:
 617              	.LBB34:
 618              		.loc 1 102 0
 619 001e 42F49672 		orr	r2, r2, #300
 620              		.loc 1 99 0
 621 0022 41F04004 		orr	r4, r1, #64
 622              	.LVL55:
 623              		.loc 1 96 0
 624 0026 B7FBF6F5 		udiv	r5, r7, r6
ARM GAS  /tmp/ccGcz1Nm.s 			page 12


 625              	.LVL56:
 626              		.loc 1 100 0
 627 002a 40F00100 		orr	r0, r0, #1
 628              		.loc 1 102 0
 629 002e 42F00102 		orr	r2, r2, #1
 630              		.loc 1 96 0
 631 0032 ADB2     		uxth	r5, r5
 632              		.loc 1 99 0
 633 0034 A4B2     		uxth	r4, r4
 634              		.loc 1 100 0
 635 0036 80B2     		uxth	r0, r0
 636              		.loc 1 102 0
 637 0038 92B2     		uxth	r2, r2
 638              		.loc 1 104 0
 639 003a 4FF0FF31 		mov	r1, #-1
 640              		.loc 1 96 0
 641 003e 9D81     		strh	r5, [r3, #12]	@ movhi
 642              		.loc 1 99 0
 643 0040 5C60     		str	r4, [r3, #4]
 644              		.loc 1 100 0
 645 0042 9860     		str	r0, [r3, #8]
 646              		.loc 1 101 0
 647 0044 1A60     		str	r2, [r3]
 648              		.loc 1 104 0
 649 0046 1962     		str	r1, [r3, #32]
 650 0048 F8BD     		pop	{r3, r4, r5, r6, r7, pc}
 651              	.LVL57:
 652              	.L74:
 653              	.LBE34:
 654              	.LBE35:
 655              		.loc 1 424 0
 656 004a 144B     		ldr	r3, .L77+4
 657 004c 9842     		cmp	r0, r3
 658 004e 0FD0     		beq	.L75
 659              		.loc 1 431 0
 660 0050 134B     		ldr	r3, .L77+8
 661 0052 9842     		cmp	r0, r3
 662 0054 16D0     		beq	.L76
 663              		.loc 1 438 0
 664 0056 134B     		ldr	r3, .L77+12
 665 0058 9842     		cmp	r0, r3
 666 005a DAD1     		bne	.L70
 667              		.loc 1 439 0
 668 005c 124B     		ldr	r3, .L77+16
 669 005e DA69     		ldr	r2, [r3, #28]
 670 0060 42F48022 		orr	r2, r2, #262144
 671 0064 DA61     		str	r2, [r3, #28]
 672              		.loc 1 440 0
 673 0066 2720     		movs	r0, #39
 674              	.LVL58:
 675 0068 C021     		movs	r1, #192
 676 006a FFF7FEFF 		bl	nvicEnableVector
 677              	.LVL59:
 678 006e D0E7     		b	.L70
 679              	.LVL60:
 680              	.L75:
 681              		.loc 1 425 0
ARM GAS  /tmp/ccGcz1Nm.s 			page 13


 682 0070 0D4B     		ldr	r3, .L77+16
 683 0072 9A69     		ldr	r2, [r3, #24]
 684 0074 42F48042 		orr	r2, r2, #16384
 685 0078 9A61     		str	r2, [r3, #24]
 686              		.loc 1 426 0
 687 007a 2520     		movs	r0, #37
 688              	.LVL61:
 689 007c C021     		movs	r1, #192
 690 007e FFF7FEFF 		bl	nvicEnableVector
 691              	.LVL62:
 692 0082 C6E7     		b	.L70
 693              	.LVL63:
 694              	.L76:
 695              		.loc 1 432 0
 696 0084 084B     		ldr	r3, .L77+16
 697 0086 DA69     		ldr	r2, [r3, #28]
 698 0088 42F40032 		orr	r2, r2, #131072
 699 008c DA61     		str	r2, [r3, #28]
 700              		.loc 1 433 0
 701 008e 2620     		movs	r0, #38
 702              	.LVL64:
 703 0090 C021     		movs	r1, #192
 704 0092 FFF7FEFF 		bl	nvicEnableVector
 705              	.LVL65:
 706 0096 BCE7     		b	.L70
 707              	.L78:
 708              		.align	2
 709              	.L77:
 710 0098 00000000 		.word	.LANCHOR3
 711 009c 00000000 		.word	.LANCHOR0
 712 00a0 00000000 		.word	.LANCHOR1
 713 00a4 00000000 		.word	.LANCHOR2
 714 00a8 00100240 		.word	1073876992
 715              		.cfi_endproc
 716              	.LFE129:
 717              		.size	sd_lld_start, .-sd_lld_start
 718 00ac AFF30080 		.section	.text.sd_lld_stop,"ax",%progbits
 719              		.align	2
 720              		.p2align 4,,15
 721              		.global	sd_lld_stop
 722              		.thumb
 723              		.thumb_func
 724              		.type	sd_lld_stop, %function
 725              	sd_lld_stop:
 726              	.LFB130:
 727              		.loc 1 478 0
 728              		.cfi_startproc
 729              		@ args = 0, pretend = 0, frame = 0
 730              		@ frame_needed = 0, uses_anonymous_args = 0
 731              		@ link register save eliminated.
 732              	.LVL66:
 733              		.loc 1 480 0
 734 0000 037A     		ldrb	r3, [r0, #8]	@ zero_extendqisi2
 735 0002 022B     		cmp	r3, #2
 736 0004 00D0     		beq	.L85
 737              	.L79:
 738 0006 7047     		bx	lr
ARM GAS  /tmp/ccGcz1Nm.s 			page 14


 739              	.L85:
 740              		.loc 1 483 0
 741 0008 1249     		ldr	r1, .L88
 742              		.loc 1 481 0
 743 000a 436F     		ldr	r3, [r0, #116]
 744              	.LVL67:
 745              	.LBB36:
 746              	.LBB37:
 747              		.loc 1 115 0
 748 000c 0022     		movs	r2, #0
 749              	.LBE37:
 750              	.LBE36:
 751              		.loc 1 483 0
 752 000e 8842     		cmp	r0, r1
 753              	.LBB39:
 754              	.LBB38:
 755              		.loc 1 115 0
 756 0010 1A60     		str	r2, [r3]
 757              		.loc 1 116 0
 758 0012 5A60     		str	r2, [r3, #4]
 759              		.loc 1 117 0
 760 0014 9A60     		str	r2, [r3, #8]
 761              	.LBE38:
 762              	.LBE39:
 763              		.loc 1 483 0
 764 0016 0DD0     		beq	.L86
 765              		.loc 1 490 0
 766 0018 0F4B     		ldr	r3, .L88+4
 767              	.LVL68:
 768 001a 9842     		cmp	r0, r3
 769 001c 12D0     		beq	.L87
 770              		.loc 1 497 0
 771 001e 0F4B     		ldr	r3, .L88+8
 772 0020 9842     		cmp	r0, r3
 773 0022 F0D1     		bne	.L79
 774              		.loc 1 498 0
 775 0024 0E4B     		ldr	r3, .L88+12
 776 0026 DA69     		ldr	r2, [r3, #28]
 777 0028 22F48022 		bic	r2, r2, #262144
 778 002c DA61     		str	r2, [r3, #28]
 779              		.loc 1 499 0
 780 002e 2720     		movs	r0, #39
 781              	.LVL69:
 782 0030 FFF7FEBF 		b	nvicDisableVector
 783              	.LVL70:
 784              	.L86:
 785              		.loc 1 484 0
 786 0034 0A4B     		ldr	r3, .L88+12
 787              	.LVL71:
 788 0036 9A69     		ldr	r2, [r3, #24]
 789 0038 22F48042 		bic	r2, r2, #16384
 790 003c 9A61     		str	r2, [r3, #24]
 791              		.loc 1 485 0
 792 003e 2520     		movs	r0, #37
 793              	.LVL72:
 794 0040 FFF7FEBF 		b	nvicDisableVector
 795              	.LVL73:
ARM GAS  /tmp/ccGcz1Nm.s 			page 15


 796              	.L87:
 797              		.loc 1 491 0
 798 0044 064B     		ldr	r3, .L88+12
 799 0046 DA69     		ldr	r2, [r3, #28]
 800 0048 22F40032 		bic	r2, r2, #131072
 801 004c DA61     		str	r2, [r3, #28]
 802              		.loc 1 492 0
 803 004e 2620     		movs	r0, #38
 804              	.LVL74:
 805 0050 FFF7FEBF 		b	nvicDisableVector
 806              	.LVL75:
 807              	.L89:
 808              		.align	2
 809              	.L88:
 810 0054 00000000 		.word	.LANCHOR0
 811 0058 00000000 		.word	.LANCHOR1
 812 005c 00000000 		.word	.LANCHOR2
 813 0060 00100240 		.word	1073876992
 814              		.cfi_endproc
 815              	.LFE130:
 816              		.size	sd_lld_stop, .-sd_lld_stop
 817              		.global	SD3
 818              		.global	SD2
 819              		.global	SD1
 820 0064 AFF30080 		.section	.rodata.default_config,"a",%progbits
 820      AFF30080 
 820      AFF30080 
 821              		.align	2
 822              		.set	.LANCHOR3,. + 0
 823              		.type	default_config, %object
 824              		.size	default_config, 12
 825              	default_config:
 826 0000 00960000 		.word	38400
 827 0004 0000     		.short	0
 828 0006 0040     		.short	16384
 829 0008 0000     		.short	0
 830 000a 0000     		.space	2
 831              		.section	.bss.SD1,"aw",%nobits
 832              		.align	2
 833              		.set	.LANCHOR0,. + 0
 834              		.type	SD1, %object
 835              		.size	SD1, 124
 836              	SD1:
 837 0000 00000000 		.space	124
 837      00000000 
 837      00000000 
 837      00000000 
 837      00000000 
 838              		.section	.bss.SD2,"aw",%nobits
 839              		.align	2
 840              		.set	.LANCHOR1,. + 0
 841              		.type	SD2, %object
 842              		.size	SD2, 124
 843              	SD2:
 844 0000 00000000 		.space	124
 844      00000000 
 844      00000000 
ARM GAS  /tmp/ccGcz1Nm.s 			page 16


 844      00000000 
 844      00000000 
 845              		.section	.bss.SD3,"aw",%nobits
 846              		.align	2
 847              		.set	.LANCHOR2,. + 0
 848              		.type	SD3, %object
 849              		.size	SD3, 124
 850              	SD3:
 851 0000 00000000 		.space	124
 851      00000000 
 851      00000000 
 851      00000000 
 851      00000000 
 852              		.text
 853              	.Letext0:
 854              		.file 2 "/usr/lib/gcc/arm-none-eabi/4.8/include/stddef.h"
 855              		.file 3 "/usr/include/newlib/machine/_default_types.h"
 856              		.file 4 "/usr/include/newlib/stdint.h"
 857              		.file 5 "../../../../os/ports/GCC/ARMCMx/chtypes.h"
 858              		.file 6 "../../../../os/kernel/include/chlists.h"
 859              		.file 7 "../../../../os/kernel/include/chthreads.h"
 860              		.file 8 "../../../../os/ports/GCC/ARMCMx/chcore_v7m.h"
 861              		.file 9 "../../../../os/kernel/include/chmtx.h"
 862              		.file 10 "../../../../os/kernel/include/chevents.h"
 863              		.file 11 "../../../../os/kernel/include/chqueues.h"
 864              		.file 12 "../../../../os/hal/platforms/STM32F30x/stm32f30x.h"
 865              		.file 13 "../../../../os/hal/include/serial.h"
 866              		.file 14 "../../../../os/hal/platforms/STM32/USARTv2/serial_lld.h"
 867              		.file 15 "../../../../os/kernel/include/chdebug.h"
 868              		.file 16 "../../../../os/ports/common/ARMCMx/nvic.h"
 869              		.file 17 "../../../../os/ports/common/ARMCMx/CMSIS/include/core_cm4.h"