ARM GAS  /tmp/ccStFa5I.s 			page 1


   1              		.syntax unified
   2              		.cpu cortex-m4
   3              		.eabi_attribute 27, 3
   4              		.fpu fpv4-sp-d16
   5              		.eabi_attribute 20, 1
   6              		.eabi_attribute 21, 1
   7              		.eabi_attribute 23, 3
   8              		.eabi_attribute 24, 1
   9              		.eabi_attribute 25, 1
  10              		.eabi_attribute 26, 1
  11              		.eabi_attribute 30, 2
  12              		.eabi_attribute 34, 1
  13              		.eabi_attribute 18, 4
  14              		.thumb
  15              		.file	"shell.c"
  16              		.text
  17              	.Ltext0:
  18              		.cfi_sections	.debug_frame
  19              		.section	.text.chprintf,"ax",%progbits
  20              		.align	2
  21              		.p2align 4,,15
  22              		.thumb
  23              		.thumb_func
  24              		.type	chprintf, %function
  25              	chprintf:
  26              	.LFB118:
  27              		.file 1 "../../../../os/various/chprintf.h"
  28              		.loc 1 69 0
  29              		.cfi_startproc
  30              		@ args = 4, pretend = 12, frame = 8
  31              		@ frame_needed = 0, uses_anonymous_args = 1
  32              	.LVL0:
  33 0000 0EB4     		push	{r1, r2, r3}
  34              		.cfi_def_cfa_offset 12
  35              		.cfi_offset 1, -12
  36              		.cfi_offset 2, -8
  37              		.cfi_offset 3, -4
  38 0002 00B5     		push	{lr}
  39              		.cfi_def_cfa_offset 16
  40              		.cfi_offset 14, -16
  41 0004 82B0     		sub	sp, sp, #8
  42              		.cfi_def_cfa_offset 24
  43              		.loc 1 69 0
  44 0006 03AA     		add	r2, sp, #12
  45 0008 52F8041B 		ldr	r1, [r2], #4
  46              		.loc 1 72 0
  47 000c 0192     		str	r2, [sp, #4]
  48              		.loc 1 73 0
  49 000e FFF7FEFF 		bl	chvprintf
  50              	.LVL1:
  51              		.loc 1 75 0
  52 0012 02B0     		add	sp, sp, #8
  53              		@ sp needed
  54 0014 5DF804EB 		ldr	lr, [sp], #4
  55 0018 03B0     		add	sp, sp, #12
  56 001a 7047     		bx	lr
  57              		.cfi_endproc
ARM GAS  /tmp/ccStFa5I.s 			page 2


  58              	.LFE118:
  59              		.size	chprintf, .-chprintf
  60 001c AFF30080 		.section	.text.cmd_systime,"ax",%progbits
  61              		.align	2
  62              		.p2align 4,,15
  63              		.thumb
  64              		.thumb_func
  65              		.type	cmd_systime, %function
  66              	cmd_systime:
  67              	.LFB123:
  68              		.file 2 "../../../../os/various/shell.c"
  69              		.loc 2 99 0
  70              		.cfi_startproc
  71              		@ args = 0, pretend = 0, frame = 0
  72              		@ frame_needed = 0, uses_anonymous_args = 0
  73              		@ link register save eliminated.
  74              	.LVL2:
  75              		.loc 2 102 0
  76 0000 0029     		cmp	r1, #0
  77 0002 03DD     		ble	.L3
  78              	.LVL3:
  79              	.LBB25:
  80              	.LBB26:
  81              		.loc 2 56 0
  82 0004 0449     		ldr	r1, .L5
  83              	.LVL4:
  84 0006 054A     		ldr	r2, .L5+4
  85              	.LVL5:
  86 0008 FFF7FEBF 		b	chprintf
  87              	.LVL6:
  88              	.L3:
  89              	.LBE26:
  90              	.LBE25:
  91              	.LBB27:
  92              	.LBB28:
  93              		.loc 2 106 0
  94 000c 044B     		ldr	r3, .L5+8
  95 000e 0549     		ldr	r1, .L5+12
  96              	.LVL7:
  97 0010 DA68     		ldr	r2, [r3, #12]
  98              	.LVL8:
  99 0012 FFF7FEBF 		b	chprintf
 100              	.LVL9:
 101              	.L6:
 102 0016 00BF     		.align	2
 103              	.L5:
 104 0018 00000000 		.word	.LC0
 105 001c 0C000000 		.word	.LC1
 106 0020 00000000 		.word	vtlist
 107 0024 14000000 		.word	.LC2
 108              	.LBE28:
 109              	.LBE27:
 110              		.cfi_endproc
 111              	.LFE123:
 112              		.size	cmd_systime, .-cmd_systime
 113 0028 AFF30080 		.section	.text.cmd_info,"ax",%progbits
 113      AFF30080 
ARM GAS  /tmp/ccStFa5I.s 			page 3


 114              		.align	2
 115              		.p2align 4,,15
 116              		.thumb
 117              		.thumb_func
 118              		.type	cmd_info, %function
 119              	cmd_info:
 120              	.LFB122:
 121              		.loc 2 67 0
 122              		.cfi_startproc
 123              		@ args = 0, pretend = 0, frame = 0
 124              		@ frame_needed = 0, uses_anonymous_args = 0
 125              	.LVL10:
 126 0000 10B5     		push	{r4, lr}
 127              		.cfi_def_cfa_offset 8
 128              		.cfi_offset 4, -8
 129              		.cfi_offset 14, -4
 130              		.loc 2 70 0
 131 0002 0029     		cmp	r1, #0
 132              		.loc 2 67 0
 133 0004 82B0     		sub	sp, sp, #8
 134              		.cfi_def_cfa_offset 16
 135              		.loc 2 67 0
 136 0006 0446     		mov	r4, r0
 137              		.loc 2 70 0
 138 0008 06DD     		ble	.L8
 139              	.LVL11:
 140              	.LBB35:
 141              	.LBB36:
 142              		.loc 2 56 0
 143 000a 1949     		ldr	r1, .L9
 144              	.LVL12:
 145 000c 194A     		ldr	r2, .L9+4
 146              	.LVL13:
 147              	.LBE36:
 148              	.LBE35:
 149              		.loc 2 97 0
 150 000e 02B0     		add	sp, sp, #8
 151              		@ sp needed
 152 0010 BDE81040 		pop	{r4, lr}
 153              	.LBB38:
 154              	.LBB37:
 155              		.loc 2 56 0
 156 0014 FFF7FEBF 		b	chprintf
 157              	.LVL14:
 158              	.L8:
 159              	.LBE37:
 160              	.LBE38:
 161              	.LBB39:
 162              	.LBB40:
 163              		.loc 2 75 0
 164 0018 1749     		ldr	r1, .L9+8
 165              	.LVL15:
 166 001a 184A     		ldr	r2, .L9+12
 167              	.LVL16:
 168 001c FFF7FEFF 		bl	chprintf
 169              	.LVL17:
 170              		.loc 2 77 0
ARM GAS  /tmp/ccStFa5I.s 			page 4


 171 0020 2046     		mov	r0, r4
 172 0022 1749     		ldr	r1, .L9+16
 173 0024 174A     		ldr	r2, .L9+20
 174 0026 FFF7FEFF 		bl	chprintf
 175              	.LVL18:
 176              		.loc 2 79 0
 177 002a 2046     		mov	r0, r4
 178 002c 1649     		ldr	r1, .L9+24
 179 002e 174A     		ldr	r2, .L9+28
 180 0030 FFF7FEFF 		bl	chprintf
 181              	.LVL19:
 182              		.loc 2 81 0
 183 0034 2046     		mov	r0, r4
 184 0036 1649     		ldr	r1, .L9+32
 185 0038 164A     		ldr	r2, .L9+36
 186 003a FFF7FEFF 		bl	chprintf
 187              	.LVL20:
 188              		.loc 2 84 0
 189 003e 2046     		mov	r0, r4
 190 0040 1549     		ldr	r1, .L9+40
 191 0042 164A     		ldr	r2, .L9+44
 192 0044 FFF7FEFF 		bl	chprintf
 193              	.LVL21:
 194              		.loc 2 87 0
 195 0048 2046     		mov	r0, r4
 196 004a 1549     		ldr	r1, .L9+48
 197 004c 154A     		ldr	r2, .L9+52
 198 004e FFF7FEFF 		bl	chprintf
 199              	.LVL22:
 200              		.loc 2 90 0
 201 0052 2046     		mov	r0, r4
 202 0054 1449     		ldr	r1, .L9+56
 203 0056 154A     		ldr	r2, .L9+60
 204 0058 FFF7FEFF 		bl	chprintf
 205              	.LVL23:
 206              		.loc 2 94 0
 207 005c 144B     		ldr	r3, .L9+64
 208 005e 0093     		str	r3, [sp]
 209 0060 2046     		mov	r0, r4
 210 0062 1449     		ldr	r1, .L9+68
 211 0064 144A     		ldr	r2, .L9+72
 212 0066 154B     		ldr	r3, .L9+76
 213 0068 FFF7FEFF 		bl	chprintf
 214              	.LVL24:
 215              	.LBE40:
 216              	.LBE39:
 217              		.loc 2 97 0
 218 006c 02B0     		add	sp, sp, #8
 219              		@ sp needed
 220 006e 10BD     		pop	{r4, pc}
 221              	.LVL25:
 222              	.L10:
 223              		.align	2
 224              	.L9:
 225 0070 00000000 		.word	.LC0
 226 0074 1C000000 		.word	.LC3
 227 0078 24000000 		.word	.LC4
ARM GAS  /tmp/ccStFa5I.s 			page 5


 228 007c 38000000 		.word	.LC5
 229 0080 48000000 		.word	.LC6
 230 0084 5C000000 		.word	.LC7
 231 0088 68000000 		.word	.LC8
 232 008c 7C000000 		.word	.LC9
 233 0090 88000000 		.word	.LC10
 234 0094 9C000000 		.word	.LC11
 235 0098 A8000000 		.word	.LC12
 236 009c BC000000 		.word	.LC13
 237 00a0 D4000000 		.word	.LC14
 238 00a4 E8000000 		.word	.LC15
 239 00a8 00010000 		.word	.LC16
 240 00ac 14010000 		.word	.LC17
 241 00b0 64010000 		.word	.LC21
 242 00b4 3C010000 		.word	.LC18
 243 00b8 54010000 		.word	.LC19
 244 00bc 60010000 		.word	.LC20
 245              		.cfi_endproc
 246              	.LFE122:
 247              		.size	cmd_info, .-cmd_info
 248              		.section	.text._strtok.constprop.2,"ax",%progbits
 249              		.align	2
 250              		.p2align 4,,15
 251              		.thumb
 252              		.thumb_func
 253              		.type	_strtok.constprop.2, %function
 254              	_strtok.constprop.2:
 255              	.LFB132:
 256              		.loc 2 37 0
 257              		.cfi_startproc
 258              		@ args = 0, pretend = 0, frame = 0
 259              		@ frame_needed = 0, uses_anonymous_args = 0
 260              	.LVL26:
 261 0000 38B5     		push	{r3, r4, r5, lr}
 262              		.cfi_def_cfa_offset 16
 263              		.cfi_offset 3, -16
 264              		.cfi_offset 4, -12
 265              		.cfi_offset 5, -8
 266              		.cfi_offset 14, -4
 267              		.loc 2 39 0
 268 0002 0446     		mov	r4, r0
 269              		.loc 2 37 0
 270 0004 0D46     		mov	r5, r1
 271              		.loc 2 39 0
 272 0006 90B1     		cbz	r0, .L12
 273              		.loc 2 40 0
 274 0008 2860     		str	r0, [r5]
 275              	.LVL27:
 276              	.L13:
 277              		.loc 2 46 0
 278 000a 2046     		mov	r0, r4
 279              	.LVL28:
 280 000c 0B49     		ldr	r1, .L22
 281              	.LVL29:
 282 000e FFF7FEFF 		bl	strspn
 283              	.LVL30:
 284 0012 0444     		add	r4, r4, r0
ARM GAS  /tmp/ccStFa5I.s 			page 6


 285              	.LVL31:
 286              		.loc 2 47 0
 287 0014 2046     		mov	r0, r4
 288 0016 0949     		ldr	r1, .L22
 289 0018 FFF7FEFF 		bl	strpbrk
 290              	.LVL32:
 291              		.loc 2 48 0
 292 001c 60B1     		cbz	r0, .L21
 293              		.loc 2 49 0
 294 001e 421C     		adds	r2, r0, #1
 295 0020 0023     		movs	r3, #0
 296 0022 2A60     		str	r2, [r5]
 297 0024 0370     		strb	r3, [r0]
 298              	.L16:
 299              		.loc 2 51 0
 300 0026 2378     		ldrb	r3, [r4]	@ zero_extendqisi2
 301 0028 23B1     		cbz	r3, .L17
 302 002a 2046     		mov	r0, r4
 303              		.loc 2 52 0
 304 002c 38BD     		pop	{r3, r4, r5, pc}
 305              	.LVL33:
 306              	.L12:
 307              		.loc 2 41 0
 308 002e 0C68     		ldr	r4, [r1]
 309              	.LVL34:
 310              		.loc 2 43 0
 311 0030 002C     		cmp	r4, #0
 312 0032 EAD1     		bne	.L13
 313              	.LVL35:
 314              	.L17:
 315              		.loc 2 44 0
 316 0034 0020     		movs	r0, #0
 317 0036 38BD     		pop	{r3, r4, r5, pc}
 318              	.LVL36:
 319              	.L21:
 320              		.loc 2 47 0
 321 0038 2860     		str	r0, [r5]
 322 003a F4E7     		b	.L16
 323              	.L23:
 324              		.align	2
 325              	.L22:
 326 003c 70010000 		.word	.LC22
 327              		.cfi_endproc
 328              	.LFE132:
 329              		.size	_strtok.constprop.2, .-_strtok.constprop.2
 330              		.section	.text.shellInit,"ax",%progbits
 331              		.align	2
 332              		.p2align 4,,15
 333              		.global	shellInit
 334              		.thumb
 335              		.thumb_func
 336              		.type	shellInit, %function
 337              	shellInit:
 338              	.LFB126:
 339              		.loc 2 204 0
 340              		.cfi_startproc
 341              		@ args = 0, pretend = 0, frame = 0
ARM GAS  /tmp/ccStFa5I.s 			page 7


 342              		@ frame_needed = 0, uses_anonymous_args = 0
 343              		@ link register save eliminated.
 344              		.loc 2 206 0
 345 0000 014B     		ldr	r3, .L25
 346 0002 1B60     		str	r3, [r3]
 347 0004 7047     		bx	lr
 348              	.L26:
 349 0006 00BF     		.align	2
 350              	.L25:
 351 0008 00000000 		.word	.LANCHOR0
 352              		.cfi_endproc
 353              	.LFE126:
 354              		.size	shellInit, .-shellInit
 355 000c AFF30080 		.section	.text.shellCreate,"ax",%progbits
 356              		.align	2
 357              		.p2align 4,,15
 358              		.global	shellCreate
 359              		.thumb
 360              		.thumb_func
 361              		.type	shellCreate, %function
 362              	shellCreate:
 363              	.LFB127:
 364              		.loc 2 220 0
 365              		.cfi_startproc
 366              		@ args = 0, pretend = 0, frame = 0
 367              		@ frame_needed = 0, uses_anonymous_args = 0
 368              	.LVL37:
 369 0000 00B5     		push	{lr}
 370              		.cfi_def_cfa_offset 4
 371              		.cfi_offset 14, -4
 372 0002 83B0     		sub	sp, sp, #12
 373              		.cfi_def_cfa_offset 16
 374              		.loc 2 222 0
 375 0004 034B     		ldr	r3, .L28
 376 0006 0090     		str	r0, [sp]
 377 0008 0020     		movs	r0, #0
 378              	.LVL38:
 379 000a FFF7FEFF 		bl	chThdCreateFromHeap
 380              	.LVL39:
 381              		.loc 2 223 0
 382 000e 03B0     		add	sp, sp, #12
 383              		@ sp needed
 384 0010 5DF804FB 		ldr	pc, [sp], #4
 385              	.L29:
 386              		.align	2
 387              	.L28:
 388 0014 00000000 		.word	shell_thread
 389              		.cfi_endproc
 390              	.LFE127:
 391              		.size	shellCreate, .-shellCreate
 392 0018 AFF30080 		.section	.text.shellCreateStatic,"ax",%progbits
 392      AFF30080 
 393              		.align	2
 394              		.p2align 4,,15
 395              		.global	shellCreateStatic
 396              		.thumb
 397              		.thumb_func
ARM GAS  /tmp/ccStFa5I.s 			page 8


 398              		.type	shellCreateStatic, %function
 399              	shellCreateStatic:
 400              	.LFB128:
 401              		.loc 2 236 0
 402              		.cfi_startproc
 403              		@ args = 0, pretend = 0, frame = 0
 404              		@ frame_needed = 0, uses_anonymous_args = 0
 405              	.LVL40:
 406 0000 00B5     		push	{lr}
 407              		.cfi_def_cfa_offset 4
 408              		.cfi_offset 14, -4
 409 0002 83B0     		sub	sp, sp, #12
 410              		.cfi_def_cfa_offset 16
 411              		.loc 2 238 0
 412 0004 0090     		str	r0, [sp]
 413 0006 0846     		mov	r0, r1
 414              	.LVL41:
 415 0008 1146     		mov	r1, r2
 416              	.LVL42:
 417 000a 1A46     		mov	r2, r3
 418              	.LVL43:
 419 000c 024B     		ldr	r3, .L31
 420              	.LVL44:
 421 000e FFF7FEFF 		bl	chThdCreateStatic
 422              	.LVL45:
 423              		.loc 2 239 0
 424 0012 03B0     		add	sp, sp, #12
 425              		@ sp needed
 426 0014 5DF804FB 		ldr	pc, [sp], #4
 427              	.L32:
 428              		.align	2
 429              	.L31:
 430 0018 00000000 		.word	shell_thread
 431              		.cfi_endproc
 432              	.LFE128:
 433              		.size	shellCreateStatic, .-shellCreateStatic
 434 001c AFF30080 		.section	.text.shellGetLine,"ax",%progbits
 435              		.align	2
 436              		.p2align 4,,15
 437              		.global	shellGetLine
 438              		.thumb
 439              		.thumb_func
 440              		.type	shellGetLine, %function
 441              	shellGetLine:
 442              	.LFB129:
 443              		.loc 2 251 0
 444              		.cfi_startproc
 445              		@ args = 0, pretend = 0, frame = 8
 446              		@ frame_needed = 0, uses_anonymous_args = 0
 447              	.LVL46:
 448 0000 F0B5     		push	{r4, r5, r6, r7, lr}
 449              		.cfi_def_cfa_offset 20
 450              		.cfi_offset 4, -20
 451              		.cfi_offset 5, -16
 452              		.cfi_offset 6, -12
 453              		.cfi_offset 7, -8
 454              		.cfi_offset 14, -4
ARM GAS  /tmp/ccStFa5I.s 			page 9


 455              	.LBB41:
 456              		.loc 2 279 0
 457 0002 013A     		subs	r2, r2, #1
 458              	.LVL47:
 459              	.LBE41:
 460              		.loc 2 251 0
 461 0004 83B0     		sub	sp, sp, #12
 462              		.cfi_def_cfa_offset 32
 463              		.loc 2 251 0
 464 0006 0E46     		mov	r6, r1
 465              	.LVL48:
 466              	.LBB42:
 467              		.loc 2 279 0
 468 0008 8F18     		adds	r7, r1, r2
 469              	.LBE42:
 470              		.loc 2 251 0
 471 000a 0446     		mov	r4, r0
 472              		.loc 2 252 0
 473 000c 0D46     		mov	r5, r1
 474              	.LVL49:
 475              	.L34:
 476              	.LBB43:
 477              		.loc 2 257 0
 478 000e 2368     		ldr	r3, [r4]
 479 0010 2046     		mov	r0, r4
 480 0012 5B68     		ldr	r3, [r3, #4]
 481 0014 0DF10701 		add	r1, sp, #7
 482 0018 0122     		movs	r2, #1
 483 001a 9847     		blx	r3
 484              	.LVL50:
 485 001c 38B3     		cbz	r0, .L42
 486              		.loc 2 259 0
 487 001e 9DF80710 		ldrb	r1, [sp, #7]	@ zero_extendqisi2
 488 0022 0429     		cmp	r1, #4
 489 0024 26D0     		beq	.L43
 490              		.loc 2 263 0
 491 0026 0829     		cmp	r1, #8
 492 0028 0ED0     		beq	.L44
 493              		.loc 2 272 0
 494 002a 0D29     		cmp	r1, #13
 495 002c 29D0     		beq	.L45
 496              		.loc 2 277 0
 497 002e 1F29     		cmp	r1, #31
 498 0030 EDD9     		bls	.L34
 499              		.loc 2 279 0
 500 0032 BD42     		cmp	r5, r7
 501 0034 EBD2     		bcs	.L34
 502              		.loc 2 280 0
 503 0036 2368     		ldr	r3, [r4]
 504 0038 2046     		mov	r0, r4
 505 003a 9B68     		ldr	r3, [r3, #8]
 506 003c 9847     		blx	r3
 507              	.LVL51:
 508              		.loc 2 281 0
 509 003e 9DF80730 		ldrb	r3, [sp, #7]	@ zero_extendqisi2
 510 0042 2B70     		strb	r3, [r5]
 511 0044 0135     		adds	r5, r5, #1
ARM GAS  /tmp/ccStFa5I.s 			page 10


 512              	.LVL52:
 513 0046 E2E7     		b	.L34
 514              	.L44:
 515              		.loc 2 264 0
 516 0048 B542     		cmp	r5, r6
 517              		.loc 2 265 0
 518 004a 2046     		mov	r0, r4
 519              		.loc 2 264 0
 520 004c DFD0     		beq	.L34
 521              	.LVL53:
 522              		.loc 2 265 0
 523 004e 2368     		ldr	r3, [r4]
 524 0050 9B68     		ldr	r3, [r3, #8]
 525 0052 9847     		blx	r3
 526              	.LVL54:
 527              		.loc 2 266 0
 528 0054 2368     		ldr	r3, [r4]
 529 0056 2046     		mov	r0, r4
 530 0058 9B68     		ldr	r3, [r3, #8]
 531 005a 2021     		movs	r1, #32
 532 005c 9847     		blx	r3
 533              	.LVL55:
 534              		.loc 2 267 0
 535 005e 2368     		ldr	r3, [r4]
 536 0060 9DF80710 		ldrb	r1, [sp, #7]	@ zero_extendqisi2
 537 0064 9B68     		ldr	r3, [r3, #8]
 538 0066 2046     		mov	r0, r4
 539              		.loc 2 268 0
 540 0068 013D     		subs	r5, r5, #1
 541              	.LVL56:
 542              		.loc 2 267 0
 543 006a 9847     		blx	r3
 544              	.LVL57:
 545 006c CFE7     		b	.L34
 546              	.L42:
 547              		.loc 2 258 0
 548 006e 0120     		movs	r0, #1
 549              	.LBE43:
 550              		.loc 2 284 0
 551 0070 03B0     		add	sp, sp, #12
 552              		@ sp needed
 553 0072 F0BD     		pop	{r4, r5, r6, r7, pc}
 554              	.LVL58:
 555              	.L43:
 556              	.LBB44:
 557              		.loc 2 260 0
 558 0074 2046     		mov	r0, r4
 559 0076 0749     		ldr	r1, .L46
 560 0078 FFF7FEFF 		bl	chprintf
 561              	.LVL59:
 562              		.loc 2 261 0
 563 007c 0120     		movs	r0, #1
 564              	.LBE44:
 565              		.loc 2 284 0
 566 007e 03B0     		add	sp, sp, #12
 567              		@ sp needed
 568 0080 F0BD     		pop	{r4, r5, r6, r7, pc}
ARM GAS  /tmp/ccStFa5I.s 			page 11


 569              	.LVL60:
 570              	.L45:
 571              	.LBB45:
 572              		.loc 2 273 0
 573 0082 2046     		mov	r0, r4
 574 0084 0449     		ldr	r1, .L46+4
 575 0086 FFF7FEFF 		bl	chprintf
 576              	.LVL61:
 577              		.loc 2 274 0
 578 008a 0020     		movs	r0, #0
 579 008c 2870     		strb	r0, [r5]
 580              	.LBE45:
 581              		.loc 2 284 0
 582 008e 03B0     		add	sp, sp, #12
 583              		@ sp needed
 584 0090 F0BD     		pop	{r4, r5, r6, r7, pc}
 585              	.LVL62:
 586              	.L47:
 587 0092 00BF     		.align	2
 588              	.L46:
 589 0094 74010000 		.word	.LC23
 590 0098 78010000 		.word	.LC24
 591              		.cfi_endproc
 592              	.LFE129:
 593              		.size	shellGetLine, .-shellGetLine
 594 009c AFF30080 		.section	.text.shell_thread,"ax",%progbits
 595              		.align	2
 596              		.p2align 4,,15
 597              		.thumb
 598              		.thumb_func
 599              		.type	shell_thread, %function
 600              	shell_thread:
 601              	.LFB125:
 602              		.loc 2 139 0
 603              		.cfi_startproc
 604              		@ args = 0, pretend = 0, frame = 88
 605              		@ frame_needed = 0, uses_anonymous_args = 0
 606              	.LVL63:
 607 0000 2DE9F041 		push	{r4, r5, r6, r7, r8, lr}
 608              		.cfi_def_cfa_offset 24
 609              		.cfi_offset 4, -24
 610              		.cfi_offset 5, -20
 611              		.cfi_offset 6, -16
 612              		.cfi_offset 7, -12
 613              		.cfi_offset 8, -8
 614              		.cfi_offset 14, -4
 615              		.loc 2 147 0
 616 0004 5C4B     		ldr	r3, .L104
 617              		.loc 2 142 0
 618 0006 0668     		ldr	r6, [r0]
 619              	.LVL64:
 620              		.loc 2 147 0
 621 0008 9B69     		ldr	r3, [r3, #24]
 622 000a 5C4A     		ldr	r2, .L104+4
 623              		.loc 2 143 0
 624 000c D0F80480 		ldr	r8, [r0, #4]
 625              	.LVL65:
ARM GAS  /tmp/ccStFa5I.s 			page 12


 626              		.loc 2 148 0
 627 0010 5B49     		ldr	r1, .L104+8
 628              		.loc 2 147 0
 629 0012 9A61     		str	r2, [r3, #24]
 630              		.loc 2 139 0
 631 0014 96B0     		sub	sp, sp, #88
 632              		.cfi_def_cfa_offset 112
 633              		.loc 2 148 0
 634 0016 3046     		mov	r0, r6
 635              	.LVL66:
 636 0018 FFF7FEFF 		bl	chprintf
 637              	.LVL67:
 638              	.L49:
 639              		.loc 2 150 0
 640 001c 3046     		mov	r0, r6
 641 001e 5949     		ldr	r1, .L104+12
 642 0020 FFF7FEFF 		bl	chprintf
 643              	.LVL68:
 644              		.loc 2 151 0
 645 0024 3046     		mov	r0, r6
 646 0026 06A9     		add	r1, sp, #24
 647 0028 4022     		movs	r2, #64
 648 002a FFF7FEFF 		bl	shellGetLine
 649              	.LVL69:
 650 002e 0446     		mov	r4, r0
 651 0030 0028     		cmp	r0, #0
 652 0032 2FD1     		bne	.L100
 653              		.loc 2 155 0
 654 0034 6946     		mov	r1, sp
 655 0036 06A8     		add	r0, sp, #24
 656 0038 FFF7FEFF 		bl	_strtok.constprop.2
 657              	.LVL70:
 658              		.loc 2 158 0
 659 003c 6946     		mov	r1, sp
 660              		.loc 2 155 0
 661 003e 0746     		mov	r7, r0
 662              	.LVL71:
 663              		.loc 2 158 0
 664 0040 0020     		movs	r0, #0
 665              	.LVL72:
 666 0042 6D46     		mov	r5, sp
 667 0044 FFF7FEFF 		bl	_strtok.constprop.2
 668              	.LVL73:
 669 0048 50B1     		cbz	r0, .L101
 670              	.L55:
 671              		.loc 2 159 0
 672 004a 042C     		cmp	r4, #4
 673 004c 1BD0     		beq	.L102
 674              		.loc 2 164 0
 675 004e 45F8040F 		str	r0, [r5, #4]!
 676              		.loc 2 158 0
 677 0052 6946     		mov	r1, sp
 678 0054 0020     		movs	r0, #0
 679              	.LVL74:
 680              		.loc 2 164 0
 681 0056 0134     		adds	r4, r4, #1
 682              	.LVL75:
ARM GAS  /tmp/ccStFa5I.s 			page 13


 683              		.loc 2 158 0
 684 0058 FFF7FEFF 		bl	_strtok.constprop.2
 685              	.LVL76:
 686 005c 0028     		cmp	r0, #0
 687 005e F4D1     		bne	.L55
 688              	.L101:
 689              		.loc 2 166 0
 690 0060 16AA     		add	r2, sp, #88
 691 0062 02EB8403 		add	r3, r2, r4, lsl #2
 692 0066 43F8540C 		str	r0, [r3, #-84]
 693              		.loc 2 167 0
 694 006a 002F     		cmp	r7, #0
 695 006c D6D0     		beq	.L49
 696              		.loc 2 168 0
 697 006e 3846     		mov	r0, r7
 698              	.LVL77:
 699 0070 4549     		ldr	r1, .L104+16
 700 0072 FFF7FEFF 		bl	strcasecmp
 701              	.LVL78:
 702 0076 08BB     		cbnz	r0, .L56
 703              		.loc 2 169 0
 704 0078 84B1     		cbz	r4, .L51
 705              	.LVL79:
 706              	.LBB59:
 707              	.LBB60:
 708              		.loc 2 56 0
 709 007a 3046     		mov	r0, r6
 710 007c 4349     		ldr	r1, .L104+20
 711 007e 424A     		ldr	r2, .L104+16
 712 0080 FFF7FEFF 		bl	chprintf
 713              	.LVL80:
 714              	.LBE60:
 715              	.LBE59:
 716              		.loc 2 171 0
 717 0084 CAE7     		b	.L49
 718              	.LVL81:
 719              	.L102:
 720              		.loc 2 160 0
 721 0086 3046     		mov	r0, r6
 722              	.LVL82:
 723 0088 4149     		ldr	r1, .L104+24
 724 008a FFF7FEFF 		bl	chprintf
 725              	.LVL83:
 726              		.loc 2 166 0
 727 008e 0023     		movs	r3, #0
 728 0090 0593     		str	r3, [sp, #20]
 729 0092 C3E7     		b	.L49
 730              	.LVL84:
 731              	.L100:
 732              		.loc 2 152 0
 733 0094 3046     		mov	r0, r6
 734 0096 3F49     		ldr	r1, .L104+28
 735 0098 FFF7FEFF 		bl	chprintf
 736              	.LVL85:
 737              	.L51:
 738              	.LBB61:
 739              		.loc 2 195 0
ARM GAS  /tmp/ccStFa5I.s 			page 14


 740 009c 2023     		movs	r3, #32
 741              	@ 195 "../../../../os/various/shell.c" 1
 742 009e 83F31188 		msr     BASEPRI, r3
 743              	@ 0 "" 2
 744              		.thumb
 745              	.LBE61:
 746 00a2 FFF7FEFF 		bl	dbg_check_lock
 747              	.LVL86:
 748              		.loc 2 196 0
 749 00a6 0021     		movs	r1, #0
 750 00a8 3B48     		ldr	r0, .L104+32
 751 00aa FFF7FEFF 		bl	chEvtBroadcastFlagsI
 752              	.LVL87:
 753              		.loc 2 197 0
 754 00ae 0020     		movs	r0, #0
 755 00b0 FFF7FEFF 		bl	chThdExitS
 756              	.LVL88:
 757              		.loc 2 199 0
 758 00b4 0020     		movs	r0, #0
 759 00b6 16B0     		add	sp, sp, #88
 760              		@ sp needed
 761 00b8 BDE8F081 		pop	{r4, r5, r6, r7, r8, pc}
 762              	.LVL89:
 763              	.L56:
 764              		.loc 2 175 0
 765 00bc 3846     		mov	r0, r7
 766 00be 3749     		ldr	r1, .L104+36
 767 00c0 FFF7FEFF 		bl	strcasecmp
 768              	.LVL90:
 769 00c4 30B9     		cbnz	r0, .L103
 770              	.LBB62:
 771              	.LBB63:
 772              		.loc 2 56 0
 773 00c6 3046     		mov	r0, r6
 774              	.LBE63:
 775              	.LBE62:
 776              		.loc 2 176 0
 777 00c8 BCB1     		cbz	r4, .L61
 778              	.LVL91:
 779              	.LBB65:
 780              	.LBB64:
 781              		.loc 2 56 0
 782 00ca 3049     		ldr	r1, .L104+20
 783 00cc 334A     		ldr	r2, .L104+36
 784 00ce FFF7FEFF 		bl	chprintf
 785              	.LVL92:
 786              	.LBE64:
 787              	.LBE65:
 788              		.loc 2 178 0
 789 00d2 A3E7     		b	.L49
 790              	.LVL93:
 791              	.L103:
 792              	.LBB66:
 793              	.LBB67:
 794              		.loc 2 121 0
 795 00d4 324D     		ldr	r5, .L104+40
 796 00d6 2868     		ldr	r0, [r5]
ARM GAS  /tmp/ccStFa5I.s 			page 15


 797 00d8 20B9     		cbnz	r0, .L69
 798 00da 31E0     		b	.L60
 799              	.LVL94:
 800              	.L68:
 801 00dc 55F8080F 		ldr	r0, [r5, #8]!
 802              	.LVL95:
 803 00e0 0028     		cmp	r0, #0
 804 00e2 2DD0     		beq	.L60
 805              	.LVL96:
 806              	.L69:
 807              		.loc 2 122 0
 808 00e4 3946     		mov	r1, r7
 809 00e6 FFF7FEFF 		bl	strcasecmp
 810              	.LVL97:
 811 00ea 0028     		cmp	r0, #0
 812 00ec F6D1     		bne	.L68
 813              	.LVL98:
 814              	.L99:
 815              	.LBE67:
 816              	.LBE66:
 817              	.LBB68:
 818              	.LBB69:
 819              		.loc 2 123 0
 820 00ee 6B68     		ldr	r3, [r5, #4]
 821 00f0 2146     		mov	r1, r4
 822 00f2 3046     		mov	r0, r6
 823 00f4 01AA     		add	r2, sp, #4
 824 00f6 9847     		blx	r3
 825              	.LVL99:
 826 00f8 90E7     		b	.L49
 827              	.LVL100:
 828              	.L61:
 829              	.LBE69:
 830              	.LBE68:
 831              	.LBB71:
 832              	.LBB72:
 833              		.loc 2 61 0
 834 00fa 294D     		ldr	r5, .L104+40
 835              	.LBE72:
 836              	.LBE71:
 837              		.loc 2 180 0
 838 00fc 2949     		ldr	r1, .L104+44
 839 00fe FFF7FEFF 		bl	chprintf
 840              	.LVL101:
 841              	.LBB74:
 842              	.LBB73:
 843              		.loc 2 61 0
 844 0102 2A68     		ldr	r2, [r5]
 845 0104 2C46     		mov	r4, r5
 846              	.LVL102:
 847 0106 3AB1     		cbz	r2, .L65
 848              	.LVL103:
 849              	.L66:
 850              		.loc 2 62 0
 851 0108 3046     		mov	r0, r6
 852 010a 2749     		ldr	r1, .L104+48
 853 010c FFF7FEFF 		bl	chprintf
ARM GAS  /tmp/ccStFa5I.s 			page 16


 854              	.LVL104:
 855              		.loc 2 61 0
 856 0110 54F8082F 		ldr	r2, [r4, #8]!
 857              	.LVL105:
 858 0114 002A     		cmp	r2, #0
 859 0116 F7D1     		bne	.L66
 860              	.LVL106:
 861              	.L65:
 862              	.LBE73:
 863              	.LBE74:
 864              		.loc 2 182 0
 865 0118 B8F1000F 		cmp	r8, #0
 866 011c 0BD0     		beq	.L64
 867              	.LVL107:
 868              	.LBB75:
 869              	.LBB76:
 870              		.loc 2 61 0
 871 011e D8F80020 		ldr	r2, [r8]
 872 0122 42B1     		cbz	r2, .L64
 873 0124 4446     		mov	r4, r8
 874              	.LVL108:
 875              	.L67:
 876              		.loc 2 62 0
 877 0126 3046     		mov	r0, r6
 878 0128 1F49     		ldr	r1, .L104+48
 879 012a FFF7FEFF 		bl	chprintf
 880              	.LVL109:
 881              		.loc 2 61 0
 882 012e 54F8082F 		ldr	r2, [r4, #8]!
 883              	.LVL110:
 884 0132 002A     		cmp	r2, #0
 885 0134 F7D1     		bne	.L67
 886              	.LVL111:
 887              	.L64:
 888              	.LBE76:
 889              	.LBE75:
 890              		.loc 2 184 0
 891 0136 3046     		mov	r0, r6
 892 0138 1C49     		ldr	r1, .L104+52
 893 013a FFF7FEFF 		bl	chprintf
 894              	.LVL112:
 895 013e 6DE7     		b	.L49
 896              	.LVL113:
 897              	.L60:
 898              		.loc 2 186 0
 899 0140 B8F1000F 		cmp	r8, #0
 900 0144 0DD0     		beq	.L72
 901              	.LVL114:
 902              	.LBB77:
 903              	.LBB70:
 904              		.loc 2 121 0
 905 0146 D8F80000 		ldr	r0, [r8]
 906 014a 50B1     		cbz	r0, .L72
 907 014c 4546     		mov	r5, r8
 908 014e 02E0     		b	.L73
 909              	.LVL115:
 910              	.L70:
ARM GAS  /tmp/ccStFa5I.s 			page 17


 911 0150 55F8080F 		ldr	r0, [r5, #8]!
 912              	.LVL116:
 913 0154 28B1     		cbz	r0, .L72
 914              	.LVL117:
 915              	.L73:
 916              		.loc 2 122 0
 917 0156 3946     		mov	r1, r7
 918 0158 FFF7FEFF 		bl	strcasecmp
 919              	.LVL118:
 920 015c 0028     		cmp	r0, #0
 921 015e F7D1     		bne	.L70
 922 0160 C5E7     		b	.L99
 923              	.LVL119:
 924              	.L72:
 925              	.LBE70:
 926              	.LBE77:
 927              		.loc 2 188 0
 928 0162 3046     		mov	r0, r6
 929 0164 3A46     		mov	r2, r7
 930 0166 1249     		ldr	r1, .L104+56
 931 0168 FFF7FEFF 		bl	chprintf
 932              	.LVL120:
 933              		.loc 2 189 0
 934 016c 3046     		mov	r0, r6
 935 016e 1149     		ldr	r1, .L104+60
 936 0170 FFF7FEFF 		bl	chprintf
 937              	.LVL121:
 938 0174 52E7     		b	.L49
 939              	.L105:
 940 0176 00BF     		.align	2
 941              	.L104:
 942 0178 00000000 		.word	rlist
 943 017c 7C010000 		.word	.LC25
 944 0180 84010000 		.word	.LC26
 945 0184 9C010000 		.word	.LC27
 946 0188 C8010000 		.word	.LC30
 947 018c 00000000 		.word	.LC0
 948 0190 B0010000 		.word	.LC29
 949 0194 A4010000 		.word	.LC28
 950 0198 00000000 		.word	.LANCHOR0
 951 019c D0010000 		.word	.LC31
 952 01a0 00000000 		.word	.LANCHOR1
 953 01a4 D8010000 		.word	.LC32
 954 01a8 F0010000 		.word	.LC33
 955 01ac 78010000 		.word	.LC24
 956 01b0 F4010000 		.word	.LC34
 957 01b4 F8010000 		.word	.LC35
 958              		.cfi_endproc
 959              	.LFE125:
 960              		.size	shell_thread, .-shell_thread
 961              		.global	shell_terminated
 962 01b8 AFF30080 		.section	.data.local_commands,"aw",%progbits
 962      AFF30080 
 963              		.align	2
 964              		.set	.LANCHOR1,. + 0
 965              		.type	local_commands, %object
 966              		.size	local_commands, 24
ARM GAS  /tmp/ccStFa5I.s 			page 18


 967              	local_commands:
 968 0000 1C000000 		.word	.LC3
 969 0004 00000000 		.word	cmd_info
 970 0008 0C000000 		.word	.LC1
 971 000c 00000000 		.word	cmd_systime
 972 0010 00000000 		.word	0
 973 0014 00000000 		.word	0
 974              		.section	.rodata.str1.4,"aMS",%progbits,1
 975              		.align	2
 976              	.LC0:
 977 0000 55736167 		.ascii	"Usage: %s\015\012\000"
 977      653A2025 
 977      730D0A00 
 978              	.LC1:
 979 000c 73797374 		.ascii	"systime\000"
 979      696D6500 
 980              	.LC2:
 981 0014 256C750D 		.ascii	"%lu\015\012\000"
 981      0A00
 982 001a 0000     		.space	2
 983              	.LC3:
 984 001c 696E666F 		.ascii	"info\000"
 984      00
 985 0021 000000   		.space	3
 986              	.LC4:
 987 0024 4B65726E 		.ascii	"Kernel:       %s\015\012\000"
 987      656C3A20 
 987      20202020 
 987      20202573 
 987      0D0A00
 988 0037 00       		.space	1
 989              	.LC5:
 990 0038 322E352E 		.ascii	"2.5.2unstable\000"
 990      32756E73 
 990      7461626C 
 990      6500
 991 0046 0000     		.space	2
 992              	.LC6:
 993 0048 436F6D70 		.ascii	"Compiler:     %s\015\012\000"
 993      696C6572 
 993      3A202020 
 993      20202573 
 993      0D0A00
 994 005b 00       		.space	1
 995              	.LC7:
 996 005c 47434320 		.ascii	"GCC 4.8.3\000"
 996      342E382E 
 996      3300
 997 0066 0000     		.space	2
 998              	.LC8:
 999 0068 41726368 		.ascii	"Architecture: %s\015\012\000"
 999      69746563 
 999      74757265 
 999      3A202573 
 999      0D0A00
 1000 007b 00       		.space	1
 1001              	.LC9:
ARM GAS  /tmp/ccStFa5I.s 			page 19


 1002 007c 41524D76 		.ascii	"ARMv7-ME\000"
 1002      372D4D45 
 1002      00
 1003 0085 000000   		.space	3
 1004              	.LC10:
 1005 0088 436F7265 		.ascii	"Core Variant: %s\015\012\000"
 1005      20566172 
 1005      69616E74 
 1005      3A202573 
 1005      0D0A00
 1006 009b 00       		.space	1
 1007              	.LC11:
 1008 009c 436F7274 		.ascii	"Cortex-M4F\000"
 1008      65782D4D 
 1008      344600
 1009 00a7 00       		.space	1
 1010              	.LC12:
 1011 00a8 506F7274 		.ascii	"Port Info:    %s\015\012\000"
 1011      20496E66 
 1011      6F3A2020 
 1011      20202573 
 1011      0D0A00
 1012 00bb 00       		.space	1
 1013              	.LC13:
 1014 00bc 41647661 		.ascii	"Advanced kernel mode\000"
 1014      6E636564 
 1014      206B6572 
 1014      6E656C20 
 1014      6D6F6465 
 1015 00d1 000000   		.space	3
 1016              	.LC14:
 1017 00d4 506C6174 		.ascii	"Platform:     %s\015\012\000"
 1017      666F726D 
 1017      3A202020 
 1017      20202573 
 1017      0D0A00
 1018 00e7 00       		.space	1
 1019              	.LC15:
 1020 00e8 53544D33 		.ascii	"STM32F30x Analog & DSP\000"
 1020      32463330 
 1020      7820416E 
 1020      616C6F67 
 1020      20262044 
 1021 00ff 00       		.space	1
 1022              	.LC16:
 1023 0100 426F6172 		.ascii	"Board:        %s\015\012\000"
 1023      643A2020 
 1023      20202020 
 1023      20202573 
 1023      0D0A00
 1024 0113 00       		.space	1
 1025              	.LC17:
 1026 0114 53544D69 		.ascii	"STMicroelectronics STM32F3-Discovery\000"
 1026      63726F65 
 1026      6C656374 
 1026      726F6E69 
 1026      63732053 
ARM GAS  /tmp/ccStFa5I.s 			page 20


 1027 0139 000000   		.space	3
 1028              	.LC18:
 1029 013c 4275696C 		.ascii	"Build time:   %s%s%s\015\012\000"
 1029      64207469 
 1029      6D653A20 
 1029      20202573 
 1029      25732573 
 1030 0153 00       		.space	1
 1031              	.LC19:
 1032 0154 53657020 		.ascii	"Sep 15 2015\000"
 1032      31352032 
 1032      30313500 
 1033              	.LC20:
 1034 0160 202D2000 		.ascii	" - \000"
 1035              	.LC21:
 1036 0164 32303A32 		.ascii	"20:24:28\000"
 1036      343A3238 
 1036      00
 1037 016d 000000   		.space	3
 1038              	.LC22:
 1039 0170 200900   		.ascii	" \011\000"
 1040 0173 00       		.space	1
 1041              	.LC23:
 1042 0174 5E4400   		.ascii	"^D\000"
 1043 0177 00       		.space	1
 1044              	.LC24:
 1045 0178 0D0A00   		.ascii	"\015\012\000"
 1046 017b 00       		.space	1
 1047              	.LC25:
 1048 017c 7368656C 		.ascii	"shell\000"
 1048      6C00
 1049 0182 0000     		.space	2
 1050              	.LC26:
 1051 0184 0D0A4368 		.ascii	"\015\012ChibiOS/RT Shell\015\012\000"
 1051      6962694F 
 1051      532F5254 
 1051      20536865 
 1051      6C6C0D0A 
 1052 0199 000000   		.space	3
 1053              	.LC27:
 1054 019c 63683E20 		.ascii	"ch> \000"
 1054      00
 1055 01a1 000000   		.space	3
 1056              	.LC28:
 1057 01a4 0D0A6C6F 		.ascii	"\015\012logout\000"
 1057      676F7574 
 1057      00
 1058 01ad 000000   		.space	3
 1059              	.LC29:
 1060 01b0 746F6F20 		.ascii	"too many arguments\015\012\000"
 1060      6D616E79 
 1060      20617267 
 1060      756D656E 
 1060      74730D0A 
 1061 01c5 000000   		.space	3
 1062              	.LC30:
 1063 01c8 65786974 		.ascii	"exit\000"
ARM GAS  /tmp/ccStFa5I.s 			page 21


 1063      00
 1064 01cd 000000   		.space	3
 1065              	.LC31:
 1066 01d0 68656C70 		.ascii	"help\000"
 1066      00
 1067 01d5 000000   		.space	3
 1068              	.LC32:
 1069 01d8 436F6D6D 		.ascii	"Commands: help exit \000"
 1069      616E6473 
 1069      3A206865 
 1069      6C702065 
 1069      78697420 
 1070 01ed 000000   		.space	3
 1071              	.LC33:
 1072 01f0 25732000 		.ascii	"%s \000"
 1073              	.LC34:
 1074 01f4 257300   		.ascii	"%s\000"
 1075 01f7 00       		.space	1
 1076              	.LC35:
 1077 01f8 203F0D0A 		.ascii	" ?\015\012\000"
 1077      00
 1078 01fd 000000   		.section	.bss.shell_terminated,"aw",%nobits
 1079              		.align	2
 1080              		.set	.LANCHOR0,. + 0
 1081              		.type	shell_terminated, %object
 1082              		.size	shell_terminated, 4
 1083              	shell_terminated:
 1084 0000 00000000 		.space	4
 1085              		.text
 1086              	.Letext0:
 1087              		.file 3 "/usr/lib/gcc/arm-none-eabi/4.8/include/stddef.h"
 1088              		.file 4 "/usr/include/newlib/machine/_default_types.h"
 1089              		.file 5 "/usr/include/newlib/stdint.h"
 1090              		.file 6 "../../../../os/ports/GCC/ARMCMx/chtypes.h"
 1091              		.file 7 "../../../../os/kernel/include/chlists.h"
 1092              		.file 8 "../../../../os/kernel/include/chthreads.h"
 1093              		.file 9 "../../../../os/ports/GCC/ARMCMx/chcore_v7m.h"
 1094              		.file 10 "../../../../os/kernel/include/chvt.h"
 1095              		.file 11 "../../../../os/kernel/include/chschd.h"
 1096              		.file 12 "../../../../os/kernel/include/chmtx.h"
 1097              		.file 13 "../../../../os/kernel/include/chevents.h"
 1098              		.file 14 "../../../../os/kernel/include/chmemcore.h"
 1099              		.file 15 "../../../../os/kernel/include/chheap.h"
 1100              		.file 16 "../../../../os/kernel/include/chstreams.h"
 1101              		.file 17 "../../../../os/various/shell.h"
 1102              		.file 18 "/usr/lib/gcc/arm-none-eabi/4.8/include/stdarg.h"
 1103              		.file 19 "<built-in>"
 1104              		.file 20 "../../../../os/ports/common/ARMCMx/CMSIS/include/core_cm4.h"
 1105              		.file 21 "/usr/include/newlib/string.h"
 1106              		.file 22 "../../../../os/kernel/include/chdynamic.h"
 1107              		.file 23 "../../../../os/kernel/include/chdebug.h"