ARM GAS  /tmp/cc6n0OG9.s 			page 1


   1              		.syntax unified
   2              		.cpu cortex-m4
   3              		.eabi_attribute 27, 3
   4              		.fpu fpv4-sp-d16
   5              		.eabi_attribute 20, 1
   6              		.eabi_attribute 21, 1
   7              		.eabi_attribute 23, 3
   8              		.eabi_attribute 24, 1
   9              		.eabi_attribute 25, 1
  10              		.eabi_attribute 26, 1
  11              		.eabi_attribute 30, 2
  12              		.eabi_attribute 34, 1
  13              		.eabi_attribute 18, 4
  14              		.thumb
  15              		.file	"stm32f30x_exti.c"
  16              		.text
  17              	.Ltext0:
  18              		.cfi_sections	.debug_frame
  19              		.section	.text.EXTI_DeInit,"ax",%progbits
  20              		.align	2
  21              		.p2align 4,,15
  22              		.global	EXTI_DeInit
  23              		.thumb
  24              		.thumb_func
  25              		.type	EXTI_DeInit, %function
  26              	EXTI_DeInit:
  27              	.LFB111:
  28              		.file 1 "../../../../ext/stm32lib/src/stm32f30x_exti.c"
  29              		.loc 1 125 0
  30              		.cfi_startproc
  31              		@ args = 0, pretend = 0, frame = 0
  32              		@ frame_needed = 0, uses_anonymous_args = 0
  33              		@ link register save eliminated.
  34 0000 30B4     		push	{r4, r5}
  35              		.cfi_def_cfa_offset 8
  36              		.cfi_offset 4, -8
  37              		.cfi_offset 5, -4
  38              		.loc 1 126 0
  39 0002 0B4B     		ldr	r3, .L2
  40              		.loc 1 127 0
  41 0004 0022     		movs	r2, #0
  42              		.loc 1 126 0
  43 0006 4FF0FC55 		mov	r5, #528482304
  44              		.loc 1 131 0
  45 000a 6FF0FC54 		mvn	r4, #528482304
  46              		.loc 1 132 0
  47 000e 0C20     		movs	r0, #12
  48              		.loc 1 137 0
  49 0010 0321     		movs	r1, #3
  50              		.loc 1 126 0
  51 0012 1D60     		str	r5, [r3]
  52              		.loc 1 127 0
  53 0014 5A60     		str	r2, [r3, #4]
  54              		.loc 1 128 0
  55 0016 9A60     		str	r2, [r3, #8]
  56              		.loc 1 129 0
  57 0018 DA60     		str	r2, [r3, #12]
ARM GAS  /tmp/cc6n0OG9.s 			page 2


  58              		.loc 1 130 0
  59 001a 1A61     		str	r2, [r3, #16]
  60              		.loc 1 131 0
  61 001c 5C61     		str	r4, [r3, #20]
  62              		.loc 1 132 0
  63 001e 1862     		str	r0, [r3, #32]
  64              		.loc 1 138 0
  65 0020 30BC     		pop	{r4, r5}
  66              		.loc 1 133 0
  67 0022 5A62     		str	r2, [r3, #36]
  68              		.loc 1 134 0
  69 0024 9A62     		str	r2, [r3, #40]
  70              		.loc 1 135 0
  71 0026 DA62     		str	r2, [r3, #44]
  72              		.loc 1 136 0
  73 0028 1A63     		str	r2, [r3, #48]
  74              		.loc 1 137 0
  75 002a 5963     		str	r1, [r3, #52]
  76              		.loc 1 138 0
  77 002c 7047     		bx	lr
  78              	.L3:
  79 002e 00BF     		.align	2
  80              	.L2:
  81 0030 00040140 		.word	1073808384
  82              		.cfi_endproc
  83              	.LFE111:
  84              		.size	EXTI_DeInit, .-EXTI_DeInit
  85 0034 AFF30080 		.section	.text.EXTI_Init,"ax",%progbits
  85      AFF30080 
  85      AFF30080 
  86              		.align	2
  87              		.p2align 4,,15
  88              		.global	EXTI_Init
  89              		.thumb
  90              		.thumb_func
  91              		.type	EXTI_Init, %function
  92              	EXTI_Init:
  93              	.LFB112:
  94              		.loc 1 155 0
  95              		.cfi_startproc
  96              		@ args = 0, pretend = 0, frame = 0
  97              		@ frame_needed = 0, uses_anonymous_args = 0
  98              		@ link register save eliminated.
  99              	.LVL0:
 100              		.loc 1 166 0
 101 0000 8379     		ldrb	r3, [r0, #6]	@ zero_extendqisi2
 102              		.loc 1 155 0
 103 0002 2DE9F001 		push	{r4, r5, r6, r7, r8}
 104              		.cfi_def_cfa_offset 20
 105              		.cfi_offset 4, -20
 106              		.cfi_offset 5, -16
 107              		.cfi_offset 6, -12
 108              		.cfi_offset 7, -8
 109              		.cfi_offset 8, -4
 110              		.loc 1 166 0
 111 0006 002B     		cmp	r3, #0
 112 0008 58D0     		beq	.L5
ARM GAS  /tmp/cc6n0OG9.s 			page 3


 113              		.loc 1 169 0
 114 000a 0368     		ldr	r3, [r0]
 115              		.loc 1 172 0
 116 000c 90F804C0 		ldrb	ip, [r0, #4]	@ zero_extendqisi2
 117              		.loc 1 183 0
 118 0010 4779     		ldrb	r7, [r0, #5]	@ zero_extendqisi2
 119              		.loc 1 170 0
 120 0012 3F4E     		ldr	r6, .L10
 121              		.loc 1 179 0
 122 0014 3F4D     		ldr	r5, .L10+4
 123              		.loc 1 180 0
 124 0016 404C     		ldr	r4, .L10+8
 125              		.loc 1 169 0
 126 0018 23F01F01 		bic	r1, r3, #31
 127 001c 01F18041 		add	r1, r1, #1073741824
 128 0020 01F58231 		add	r1, r1, #66560
 129 0024 03F01F08 		and	r8, r3, #31
 130 0028 0A68     		ldr	r2, [r1]
 131 002a 0123     		movs	r3, #1
 132 002c 03FA08F8 		lsl	r8, r3, r8
 133 0030 22EA0802 		bic	r2, r2, r8
 134 0034 0A60     		str	r2, [r1]
 135              		.loc 1 170 0
 136 0036 0268     		ldr	r2, [r0]
 137 0038 22F01F01 		bic	r1, r2, #31
 138 003c 02F01F08 		and	r8, r2, #31
 139 0040 8A59     		ldr	r2, [r1, r6]
 140 0042 03FA08F8 		lsl	r8, r3, r8
 141 0046 22EA0802 		bic	r2, r2, r8
 142 004a 8A51     		str	r2, [r1, r6]
 143              		.loc 1 172 0
 144 004c 0668     		ldr	r6, [r0]
 145              	.LVL1:
 146 004e 0CF18042 		add	r2, ip, #1073741824
 147 0052 26F01F01 		bic	r1, r6, #31
 148 0056 02F58232 		add	r2, r2, #66560
 149              		.loc 1 174 0
 150 005a 06F01F06 		and	r6, r6, #31
 151              	.LVL2:
 152 005e 52F801C0 		ldr	ip, [r2, r1]
 153 0062 03FA06F6 		lsl	r6, r3, r6
 154 0066 4CEA0606 		orr	r6, ip, r6
 155 006a 5650     		str	r6, [r2, r1]
 156              	.LVL3:
 157              		.loc 1 179 0
 158 006c 0668     		ldr	r6, [r0]
 159 006e 26F01F01 		bic	r1, r6, #31
 160 0072 06F01F06 		and	r6, r6, #31
 161 0076 4A59     		ldr	r2, [r1, r5]
 162 0078 03FA06F6 		lsl	r6, r3, r6
 163 007c 22EA0606 		bic	r6, r2, r6
 164 0080 4E51     		str	r6, [r1, r5]
 165              		.loc 1 180 0
 166 0082 0668     		ldr	r6, [r0]
 167 0084 26F01F01 		bic	r1, r6, #31
 168 0088 06F01F06 		and	r6, r6, #31
 169 008c 0A59     		ldr	r2, [r1, r4]
ARM GAS  /tmp/cc6n0OG9.s 			page 4


 170 008e 03FA06F6 		lsl	r6, r3, r6
 171 0092 22EA0606 		bic	r6, r2, r6
 172              		.loc 1 183 0
 173 0096 102F     		cmp	r7, #16
 174              		.loc 1 180 0
 175 0098 0E51     		str	r6, [r1, r4]
 176              		.loc 1 183 0
 177 009a 23D0     		beq	.L9
 178              		.loc 1 191 0
 179 009c 0068     		ldr	r0, [r0]
 180              	.LVL4:
 181 009e 07F18042 		add	r2, r7, #1073741824
 182 00a2 20F01F01 		bic	r1, r0, #31
 183 00a6 02F58232 		add	r2, r2, #66560
 184              		.loc 1 193 0
 185 00aa 00F01F00 		and	r0, r0, #31
 186              	.LVL5:
 187 00ae 5458     		ldr	r4, [r2, r1]
 188 00b0 8340     		lsls	r3, r3, r0
 189 00b2 2343     		orrs	r3, r3, r4
 190 00b4 5350     		str	r3, [r2, r1]
 191              	.LVL6:
 192              		.loc 1 205 0
 193 00b6 BDE8F001 		pop	{r4, r5, r6, r7, r8}
 194 00ba 7047     		bx	lr
 195              	.LVL7:
 196              	.L5:
 197              		.loc 1 199 0
 198 00bc 0379     		ldrb	r3, [r0, #4]	@ zero_extendqisi2
 199 00be 0168     		ldr	r1, [r0]
 200              	.LVL8:
 201 00c0 03F18043 		add	r3, r3, #1073741824
 202 00c4 21F01F02 		bic	r2, r1, #31
 203 00c8 03F58233 		add	r3, r3, #66560
 204              		.loc 1 202 0
 205 00cc 0124     		movs	r4, #1
 206 00ce 9858     		ldr	r0, [r3, r2]
 207              	.LVL9:
 208 00d0 01F01F01 		and	r1, r1, #31
 209              	.LVL10:
 210 00d4 04FA01F1 		lsl	r1, r4, r1
 211 00d8 20EA0101 		bic	r1, r0, r1
 212 00dc 9950     		str	r1, [r3, r2]
 213              	.LVL11:
 214              		.loc 1 205 0
 215 00de BDE8F001 		pop	{r4, r5, r6, r7, r8}
 216 00e2 7047     		bx	lr
 217              	.LVL12:
 218              	.L9:
 219              		.loc 1 186 0
 220 00e4 0168     		ldr	r1, [r0]
 221 00e6 21F01F02 		bic	r2, r1, #31
 222 00ea 01F01F01 		and	r1, r1, #31
 223 00ee 5659     		ldr	r6, [r2, r5]
 224 00f0 03FA01F1 		lsl	r1, r3, r1
 225 00f4 3143     		orrs	r1, r1, r6
 226 00f6 5151     		str	r1, [r2, r5]
ARM GAS  /tmp/cc6n0OG9.s 			page 5


 227              		.loc 1 187 0
 228 00f8 0168     		ldr	r1, [r0]
 229 00fa 21F01F02 		bic	r2, r1, #31
 230 00fe 01F01F01 		and	r1, r1, #31
 231 0102 1059     		ldr	r0, [r2, r4]
 232              	.LVL13:
 233 0104 8B40     		lsls	r3, r3, r1
 234 0106 0343     		orrs	r3, r3, r0
 235 0108 1351     		str	r3, [r2, r4]
 236              		.loc 1 205 0
 237 010a BDE8F001 		pop	{r4, r5, r6, r7, r8}
 238 010e 7047     		bx	lr
 239              	.L11:
 240              		.align	2
 241              	.L10:
 242 0110 04040140 		.word	1073808388
 243 0114 08040140 		.word	1073808392
 244 0118 0C040140 		.word	1073808396
 245              		.cfi_endproc
 246              	.LFE112:
 247              		.size	EXTI_Init, .-EXTI_Init
 248 011c AFF30080 		.section	.text.EXTI_StructInit,"ax",%progbits
 249              		.align	2
 250              		.p2align 4,,15
 251              		.global	EXTI_StructInit
 252              		.thumb
 253              		.thumb_func
 254              		.type	EXTI_StructInit, %function
 255              	EXTI_StructInit:
 256              	.LFB113:
 257              		.loc 1 214 0
 258              		.cfi_startproc
 259              		@ args = 0, pretend = 0, frame = 0
 260              		@ frame_needed = 0, uses_anonymous_args = 0
 261              		@ link register save eliminated.
 262              	.LVL14:
 263              		.loc 1 215 0
 264 0000 0023     		movs	r3, #0
 265              		.loc 1 217 0
 266 0002 1022     		movs	r2, #16
 267 0004 4271     		strb	r2, [r0, #5]
 268              		.loc 1 215 0
 269 0006 0360     		str	r3, [r0]
 270              		.loc 1 216 0
 271 0008 0371     		strb	r3, [r0, #4]
 272              		.loc 1 218 0
 273 000a 8371     		strb	r3, [r0, #6]
 274 000c 7047     		bx	lr
 275              		.cfi_endproc
 276              	.LFE113:
 277              		.size	EXTI_StructInit, .-EXTI_StructInit
 278 000e 00BF     		.section	.text.EXTI_GenerateSWInterrupt,"ax",%progbits
 279              		.align	2
 280              		.p2align 4,,15
 281              		.global	EXTI_GenerateSWInterrupt
 282              		.thumb
 283              		.thumb_func
ARM GAS  /tmp/cc6n0OG9.s 			page 6


 284              		.type	EXTI_GenerateSWInterrupt, %function
 285              	EXTI_GenerateSWInterrupt:
 286              	.LFB114:
 287              		.loc 1 229 0
 288              		.cfi_startproc
 289              		@ args = 0, pretend = 0, frame = 0
 290              		@ frame_needed = 0, uses_anonymous_args = 0
 291              		@ link register save eliminated.
 292              	.LVL15:
 293              		.loc 1 233 0
 294 0000 20F01F02 		bic	r2, r0, #31
 295 0004 064B     		ldr	r3, .L14
 296              		.loc 1 229 0
 297 0006 10B4     		push	{r4}
 298              		.cfi_def_cfa_offset 4
 299              		.cfi_offset 4, -4
 300              		.loc 1 233 0
 301 0008 D158     		ldr	r1, [r2, r3]
 302 000a 0124     		movs	r4, #1
 303 000c 00F01F00 		and	r0, r0, #31
 304              	.LVL16:
 305 0010 04FA00F0 		lsl	r0, r4, r0
 306 0014 0843     		orrs	r0, r0, r1
 307 0016 D050     		str	r0, [r2, r3]
 308              		.loc 1 235 0
 309 0018 5DF8044B 		ldr	r4, [sp], #4
 310 001c 7047     		bx	lr
 311              	.L15:
 312 001e 00BF     		.align	2
 313              	.L14:
 314 0020 10040140 		.word	1073808400
 315              		.cfi_endproc
 316              	.LFE114:
 317              		.size	EXTI_GenerateSWInterrupt, .-EXTI_GenerateSWInterrupt
 318 0024 AFF30080 		.section	.text.EXTI_GetFlagStatus,"ax",%progbits
 318      AFF30080 
 318      AFF30080 
 319              		.align	2
 320              		.p2align 4,,15
 321              		.global	EXTI_GetFlagStatus
 322              		.thumb
 323              		.thumb_func
 324              		.type	EXTI_GetFlagStatus, %function
 325              	EXTI_GetFlagStatus:
 326              	.LFB115:
 327              		.loc 1 263 0
 328              		.cfi_startproc
 329              		@ args = 0, pretend = 0, frame = 0
 330              		@ frame_needed = 0, uses_anonymous_args = 0
 331              		@ link register save eliminated.
 332              	.LVL17:
 333              		.loc 1 269 0
 334 0000 20F01F02 		bic	r2, r0, #31
 335 0004 054B     		ldr	r3, .L17
 336 0006 00F01F00 		and	r0, r0, #31
 337              	.LVL18:
 338 000a D358     		ldr	r3, [r2, r3]
ARM GAS  /tmp/cc6n0OG9.s 			page 7


 339              	.LVL19:
 340 000c 0122     		movs	r2, #1
 341 000e 02FA00F0 		lsl	r0, r2, r0
 342 0012 0342     		tst	r3, r0
 343              		.loc 1 278 0
 344 0014 0CBF     		ite	eq
 345 0016 0020     		moveq	r0, #0
 346 0018 0120     		movne	r0, #1
 347 001a 7047     		bx	lr
 348              	.L18:
 349              		.align	2
 350              	.L17:
 351 001c 14040140 		.word	1073808404
 352              		.cfi_endproc
 353              	.LFE115:
 354              		.size	EXTI_GetFlagStatus, .-EXTI_GetFlagStatus
 355              		.section	.text.EXTI_ClearFlag,"ax",%progbits
 356              		.align	2
 357              		.p2align 4,,15
 358              		.global	EXTI_ClearFlag
 359              		.thumb
 360              		.thumb_func
 361              		.type	EXTI_ClearFlag, %function
 362              	EXTI_ClearFlag:
 363              	.LFB116:
 364              		.loc 1 287 0
 365              		.cfi_startproc
 366              		@ args = 0, pretend = 0, frame = 0
 367              		@ frame_needed = 0, uses_anonymous_args = 0
 368              		@ link register save eliminated.
 369              	.LVL20:
 370              		.loc 1 291 0
 371 0000 00F01F02 		and	r2, r0, #31
 372 0004 0121     		movs	r1, #1
 373 0006 20F01F00 		bic	r0, r0, #31
 374              	.LVL21:
 375 000a 024B     		ldr	r3, .L20
 376 000c 01FA02F2 		lsl	r2, r1, r2
 377 0010 C250     		str	r2, [r0, r3]
 378 0012 7047     		bx	lr
 379              	.L21:
 380              		.align	2
 381              	.L20:
 382 0014 14040140 		.word	1073808404
 383              		.cfi_endproc
 384              	.LFE116:
 385              		.size	EXTI_ClearFlag, .-EXTI_ClearFlag
 386 0018 AFF30080 		.section	.text.EXTI_GetITStatus,"ax",%progbits
 386      AFF30080 
 387              		.align	2
 388              		.p2align 4,,15
 389              		.global	EXTI_GetITStatus
 390              		.thumb
 391              		.thumb_func
 392              		.type	EXTI_GetITStatus, %function
 393              	EXTI_GetITStatus:
 394              	.LFB117:
ARM GAS  /tmp/cc6n0OG9.s 			page 8


 395              		.loc 1 301 0
 396              		.cfi_startproc
 397              		@ args = 0, pretend = 0, frame = 0
 398              		@ frame_needed = 0, uses_anonymous_args = 0
 399              		@ link register save eliminated.
 400              	.LVL22:
 401              		.loc 1 308 0
 402 0000 20F01F03 		bic	r3, r0, #31
 403 0004 03F18043 		add	r3, r3, #1073741824
 404 0008 03F58233 		add	r3, r3, #66560
 405 000c 00F01F02 		and	r2, r0, #31
 406              		.loc 1 301 0
 407 0010 10B4     		push	{r4}
 408              		.cfi_def_cfa_offset 4
 409              		.cfi_offset 4, -4
 410              		.loc 1 308 0
 411 0012 0121     		movs	r1, #1
 412 0014 1C68     		ldr	r4, [r3]
 413              		.loc 1 310 0
 414 0016 5869     		ldr	r0, [r3, #20]
 415              	.LVL23:
 416              		.loc 1 308 0
 417 0018 01FA02F3 		lsl	r3, r1, r2
 418              	.LVL24:
 419              		.loc 1 310 0
 420 001c 1840     		ands	r0, r0, r3
 421 001e 03D0     		beq	.L23
 422              		.loc 1 310 0 is_stmt 0 discriminator 1
 423 0020 1C42     		tst	r4, r3
 424              		.loc 1 312 0 is_stmt 1 discriminator 1
 425 0022 0CBF     		ite	eq
 426 0024 0020     		moveq	r0, #0
 427 0026 0120     		movne	r0, #1
 428              	.L23:
 429              	.LVL25:
 430              		.loc 1 320 0
 431 0028 5DF8044B 		ldr	r4, [sp], #4
 432              	.LVL26:
 433 002c 7047     		bx	lr
 434              		.cfi_endproc
 435              	.LFE117:
 436              		.size	EXTI_GetITStatus, .-EXTI_GetITStatus
 437 002e 00BF     		.section	.text.EXTI_ClearITPendingBit,"ax",%progbits
 438              		.align	2
 439              		.p2align 4,,15
 440              		.global	EXTI_ClearITPendingBit
 441              		.thumb
 442              		.thumb_func
 443              		.type	EXTI_ClearITPendingBit, %function
 444              	EXTI_ClearITPendingBit:
 445              	.LFB118:
 446              		.loc 1 329 0
 447              		.cfi_startproc
 448              		@ args = 0, pretend = 0, frame = 0
 449              		@ frame_needed = 0, uses_anonymous_args = 0
 450              		@ link register save eliminated.
 451              	.LVL27:
ARM GAS  /tmp/cc6n0OG9.s 			page 9


 452              		.loc 1 333 0
 453 0000 00F01F02 		and	r2, r0, #31
 454 0004 0121     		movs	r1, #1
 455 0006 20F01F00 		bic	r0, r0, #31
 456              	.LVL28:
 457 000a 024B     		ldr	r3, .L26
 458 000c 01FA02F2 		lsl	r2, r1, r2
 459 0010 C250     		str	r2, [r0, r3]
 460 0012 7047     		bx	lr
 461              	.L27:
 462              		.align	2
 463              	.L26:
 464 0014 14040140 		.word	1073808404
 465              		.cfi_endproc
 466              	.LFE118:
 467              		.size	EXTI_ClearITPendingBit, .-EXTI_ClearITPendingBit
 468 0018 AFF30080 		.text
 468      AFF30080 
 469              	.Letext0:
 470              		.file 2 "/usr/include/newlib/machine/_default_types.h"
 471              		.file 3 "/usr/include/newlib/stdint.h"
 472              		.file 4 "../../../../os/hal/platforms/STM32F30x/stm32f30x.h"
 473              		.file 5 "../../../../ext/stm32lib/inc/stm32f30x_exti.h"
 474              		.file 6 "../../../../os/ports/common/ARMCMx/CMSIS/include/core_cm4.h"
 475              		.section	.debug_info,"",%progbits
 476              	.Ldebug_info0:
 477 0000 BD030000 		.4byte	0x3bd
 478 0004 0400     		.2byte	0x4
 479 0006 00000000 		.4byte	.Ldebug_abbrev0
 480 000a 04       		.byte	0x4
 481 000b 01       		.uleb128 0x1
 482 000c 1B020000 		.4byte	.LASF53
 483 0010 01       		.byte	0x1
 484 0011 29000000 		.4byte	.LASF54
 485 0015 A7000000 		.4byte	.LASF55
 486 0019 00000000 		.4byte	.Ldebug_ranges0+0
 487 001d 00000000 		.4byte	0
 488 0021 00000000 		.4byte	.Ldebug_line0
 489 0025 02       		.uleb128 0x2
 490 0026 01       		.byte	0x1
 491 0027 06       		.byte	0x6
 492 0028 F9020000 		.4byte	.LASF0
 493 002c 02       		.uleb128 0x2
 494 002d 01       		.byte	0x1
 495 002e 08       		.byte	0x8
 496 002f 0D020000 		.4byte	.LASF1
 497 0033 02       		.uleb128 0x2
 498 0034 02       		.byte	0x2
 499 0035 05       		.byte	0x5
 500 0036 43010000 		.4byte	.LASF2
 501 003a 02       		.uleb128 0x2
 502 003b 02       		.byte	0x2
 503 003c 07       		.byte	0x7
 504 003d 58030000 		.4byte	.LASF3
 505 0041 03       		.uleb128 0x3
 506 0042 C5030000 		.4byte	.LASF5
 507 0046 02       		.byte	0x2
ARM GAS  /tmp/cc6n0OG9.s 			page 10


 508 0047 3F       		.byte	0x3f
 509 0048 4C000000 		.4byte	0x4c
 510 004c 02       		.uleb128 0x2
 511 004d 04       		.byte	0x4
 512 004e 05       		.byte	0x5
 513 004f F0010000 		.4byte	.LASF4
 514 0053 03       		.uleb128 0x3
 515 0054 9C000000 		.4byte	.LASF6
 516 0058 02       		.byte	0x2
 517 0059 41       		.byte	0x41
 518 005a 5E000000 		.4byte	0x5e
 519 005e 02       		.uleb128 0x2
 520 005f 04       		.byte	0x4
 521 0060 07       		.byte	0x7
 522 0061 9E030000 		.4byte	.LASF7
 523 0065 02       		.uleb128 0x2
 524 0066 08       		.byte	0x8
 525 0067 05       		.byte	0x5
 526 0068 CC010000 		.4byte	.LASF8
 527 006c 02       		.uleb128 0x2
 528 006d 08       		.byte	0x8
 529 006e 07       		.byte	0x7
 530 006f 1C030000 		.4byte	.LASF9
 531 0073 04       		.uleb128 0x4
 532 0074 04       		.byte	0x4
 533 0075 05       		.byte	0x5
 534 0076 696E7400 		.ascii	"int\000"
 535 007a 02       		.uleb128 0x2
 536 007b 04       		.byte	0x4
 537 007c 07       		.byte	0x7
 538 007d 46030000 		.4byte	.LASF10
 539 0081 03       		.uleb128 0x3
 540 0082 6B030000 		.4byte	.LASF11
 541 0086 03       		.byte	0x3
 542 0087 41       		.byte	0x41
 543 0088 41000000 		.4byte	0x41
 544 008c 03       		.uleb128 0x3
 545 008d 33030000 		.4byte	.LASF12
 546 0091 03       		.byte	0x3
 547 0092 42       		.byte	0x42
 548 0093 53000000 		.4byte	0x53
 549 0097 02       		.uleb128 0x2
 550 0098 04       		.byte	0x4
 551 0099 07       		.byte	0x7
 552 009a 77000000 		.4byte	.LASF13
 553 009e 05       		.uleb128 0x5
 554 009f 8C000000 		.4byte	0x8c
 555 00a3 05       		.uleb128 0x5
 556 00a4 81000000 		.4byte	0x81
 557 00a8 06       		.uleb128 0x6
 558 00a9 01       		.byte	0x1
 559 00aa 04       		.byte	0x4
 560 00ab 2201     		.2byte	0x122
 561 00ad BE000000 		.4byte	0xbe
 562 00b1 07       		.uleb128 0x7
 563 00b2 CF030000 		.4byte	.LASF14
 564 00b6 00       		.sleb128 0
ARM GAS  /tmp/cc6n0OG9.s 			page 11


 565 00b7 08       		.uleb128 0x8
 566 00b8 53455400 		.ascii	"SET\000"
 567 00bc 01       		.sleb128 1
 568 00bd 00       		.byte	0
 569 00be 09       		.uleb128 0x9
 570 00bf 24010000 		.4byte	.LASF15
 571 00c3 04       		.byte	0x4
 572 00c4 2201     		.2byte	0x122
 573 00c6 A8000000 		.4byte	0xa8
 574 00ca 09       		.uleb128 0x9
 575 00cb DA010000 		.4byte	.LASF16
 576 00cf 04       		.byte	0x4
 577 00d0 2201     		.2byte	0x122
 578 00d2 A8000000 		.4byte	0xa8
 579 00d6 06       		.uleb128 0x6
 580 00d7 01       		.byte	0x1
 581 00d8 04       		.byte	0x4
 582 00d9 2401     		.2byte	0x124
 583 00db EC000000 		.4byte	0xec
 584 00df 07       		.uleb128 0x7
 585 00e0 8D010000 		.4byte	.LASF17
 586 00e4 00       		.sleb128 0
 587 00e5 07       		.uleb128 0x7
 588 00e6 33040000 		.4byte	.LASF18
 589 00ea 01       		.sleb128 1
 590 00eb 00       		.byte	0
 591 00ec 09       		.uleb128 0x9
 592 00ed B5030000 		.4byte	.LASF19
 593 00f1 04       		.byte	0x4
 594 00f2 2401     		.2byte	0x124
 595 00f4 D6000000 		.4byte	0xd6
 596 00f8 0A       		.uleb128 0xa
 597 00f9 38       		.byte	0x38
 598 00fa 04       		.byte	0x4
 599 00fb F701     		.2byte	0x1f7
 600 00fd B7010000 		.4byte	0x1b7
 601 0101 0B       		.uleb128 0xb
 602 0102 494D5200 		.ascii	"IMR\000"
 603 0106 04       		.byte	0x4
 604 0107 F901     		.2byte	0x1f9
 605 0109 9E000000 		.4byte	0x9e
 606 010d 00       		.byte	0
 607 010e 0B       		.uleb128 0xb
 608 010f 454D5200 		.ascii	"EMR\000"
 609 0113 04       		.byte	0x4
 610 0114 FA01     		.2byte	0x1fa
 611 0116 9E000000 		.4byte	0x9e
 612 011a 04       		.byte	0x4
 613 011b 0C       		.uleb128 0xc
 614 011c 80030000 		.4byte	.LASF20
 615 0120 04       		.byte	0x4
 616 0121 FB01     		.2byte	0x1fb
 617 0123 9E000000 		.4byte	0x9e
 618 0127 08       		.byte	0x8
 619 0128 0C       		.uleb128 0xc
 620 0129 53030000 		.4byte	.LASF21
 621 012d 04       		.byte	0x4
ARM GAS  /tmp/cc6n0OG9.s 			page 12


 622 012e FC01     		.2byte	0x1fc
 623 0130 9E000000 		.4byte	0x9e
 624 0134 0C       		.byte	0xc
 625 0135 0C       		.uleb128 0xc
 626 0136 47040000 		.4byte	.LASF22
 627 013a 04       		.byte	0x4
 628 013b FD01     		.2byte	0x1fd
 629 013d 9E000000 		.4byte	0x9e
 630 0141 10       		.byte	0x10
 631 0142 0B       		.uleb128 0xb
 632 0143 505200   		.ascii	"PR\000"
 633 0146 04       		.byte	0x4
 634 0147 FE01     		.2byte	0x1fe
 635 0149 9E000000 		.4byte	0x9e
 636 014d 14       		.byte	0x14
 637 014e 0C       		.uleb128 0xc
 638 014f 8A030000 		.4byte	.LASF23
 639 0153 04       		.byte	0x4
 640 0154 FF01     		.2byte	0x1ff
 641 0156 8C000000 		.4byte	0x8c
 642 015a 18       		.byte	0x18
 643 015b 0C       		.uleb128 0xc
 644 015c 94030000 		.4byte	.LASF24
 645 0160 04       		.byte	0x4
 646 0161 0002     		.2byte	0x200
 647 0163 8C000000 		.4byte	0x8c
 648 0167 1C       		.byte	0x1c
 649 0168 0C       		.uleb128 0xc
 650 0169 B0030000 		.4byte	.LASF25
 651 016d 04       		.byte	0x4
 652 016e 0102     		.2byte	0x201
 653 0170 9E000000 		.4byte	0x9e
 654 0174 20       		.byte	0x20
 655 0175 0C       		.uleb128 0xc
 656 0176 85030000 		.4byte	.LASF26
 657 017a 04       		.byte	0x4
 658 017b 0202     		.2byte	0x202
 659 017d 9E000000 		.4byte	0x9e
 660 0181 24       		.byte	0x24
 661 0182 0C       		.uleb128 0xc
 662 0183 23000000 		.4byte	.LASF27
 663 0187 04       		.byte	0x4
 664 0188 0302     		.2byte	0x203
 665 018a 9E000000 		.4byte	0x9e
 666 018e 28       		.byte	0x28
 667 018f 0C       		.uleb128 0xc
 668 0190 E5030000 		.4byte	.LASF28
 669 0194 04       		.byte	0x4
 670 0195 0402     		.2byte	0x204
 671 0197 9E000000 		.4byte	0x9e
 672 019b 2C       		.byte	0x2c
 673 019c 0C       		.uleb128 0xc
 674 019d 86010000 		.4byte	.LASF29
 675 01a1 04       		.byte	0x4
 676 01a2 0502     		.2byte	0x205
 677 01a4 9E000000 		.4byte	0x9e
 678 01a8 30       		.byte	0x30
ARM GAS  /tmp/cc6n0OG9.s 			page 13


 679 01a9 0B       		.uleb128 0xb
 680 01aa 50523200 		.ascii	"PR2\000"
 681 01ae 04       		.byte	0x4
 682 01af 0602     		.2byte	0x206
 683 01b1 9E000000 		.4byte	0x9e
 684 01b5 34       		.byte	0x34
 685 01b6 00       		.byte	0
 686 01b7 09       		.uleb128 0x9
 687 01b8 E3010000 		.4byte	.LASF30
 688 01bc 04       		.byte	0x4
 689 01bd 0702     		.2byte	0x207
 690 01bf F8000000 		.4byte	0xf8
 691 01c3 0D       		.uleb128 0xd
 692 01c4 01       		.byte	0x1
 693 01c5 05       		.byte	0x5
 694 01c6 37       		.byte	0x37
 695 01c7 D8010000 		.4byte	0x1d8
 696 01cb 07       		.uleb128 0x7
 697 01cc 5E010000 		.4byte	.LASF31
 698 01d0 00       		.sleb128 0
 699 01d1 07       		.uleb128 0x7
 700 01d2 8C000000 		.4byte	.LASF32
 701 01d6 04       		.sleb128 4
 702 01d7 00       		.byte	0
 703 01d8 03       		.uleb128 0x3
 704 01d9 66000000 		.4byte	.LASF33
 705 01dd 05       		.byte	0x5
 706 01de 3A       		.byte	0x3a
 707 01df C3010000 		.4byte	0x1c3
 708 01e3 0D       		.uleb128 0xd
 709 01e4 01       		.byte	0x1
 710 01e5 05       		.byte	0x5
 711 01e6 43       		.byte	0x43
 712 01e7 FE010000 		.4byte	0x1fe
 713 01eb 07       		.uleb128 0x7
 714 01ec 72010000 		.4byte	.LASF34
 715 01f0 08       		.sleb128 8
 716 01f1 07       		.uleb128 0x7
 717 01f2 F5030000 		.4byte	.LASF35
 718 01f6 0C       		.sleb128 12
 719 01f7 07       		.uleb128 0x7
 720 01f8 17040000 		.4byte	.LASF36
 721 01fc 10       		.sleb128 16
 722 01fd 00       		.byte	0
 723 01fe 03       		.uleb128 0x3
 724 01ff 2F010000 		.4byte	.LASF37
 725 0203 05       		.byte	0x5
 726 0204 47       		.byte	0x47
 727 0205 E3010000 		.4byte	0x1e3
 728 0209 0E       		.uleb128 0xe
 729 020a 08       		.byte	0x8
 730 020b 05       		.byte	0x5
 731 020c 50       		.byte	0x50
 732 020d 42020000 		.4byte	0x242
 733 0211 0F       		.uleb128 0xf
 734 0212 3C030000 		.4byte	.LASF38
 735 0216 05       		.byte	0x5
ARM GAS  /tmp/cc6n0OG9.s 			page 14


 736 0217 52       		.byte	0x52
 737 0218 8C000000 		.4byte	0x8c
 738 021c 00       		.byte	0
 739 021d 0F       		.uleb128 0xf
 740 021e F9010000 		.4byte	.LASF39
 741 0222 05       		.byte	0x5
 742 0223 55       		.byte	0x55
 743 0224 D8010000 		.4byte	0x1d8
 744 0228 04       		.byte	0x4
 745 0229 0F       		.uleb128 0xf
 746 022a 3A040000 		.4byte	.LASF40
 747 022e 05       		.byte	0x5
 748 022f 58       		.byte	0x58
 749 0230 FE010000 		.4byte	0x1fe
 750 0234 05       		.byte	0x5
 751 0235 0F       		.uleb128 0xf
 752 0236 73030000 		.4byte	.LASF41
 753 023a 05       		.byte	0x5
 754 023b 5B       		.byte	0x5b
 755 023c EC000000 		.4byte	0xec
 756 0240 06       		.byte	0x6
 757 0241 00       		.byte	0
 758 0242 03       		.uleb128 0x3
 759 0243 4D010000 		.4byte	.LASF42
 760 0247 05       		.byte	0x5
 761 0248 5D       		.byte	0x5d
 762 0249 09020000 		.4byte	0x209
 763 024d 10       		.uleb128 0x10
 764 024e 80000000 		.4byte	.LASF56
 765 0252 01       		.byte	0x1
 766 0253 7C       		.byte	0x7c
 767 0254 00000000 		.4byte	.LFB111
 768 0258 34000000 		.4byte	.LFE111-.LFB111
 769 025c 01       		.uleb128 0x1
 770 025d 9C       		.byte	0x9c
 771 025e 11       		.uleb128 0x11
 772 025f EB030000 		.4byte	.LASF43
 773 0263 01       		.byte	0x1
 774 0264 9A       		.byte	0x9a
 775 0265 00000000 		.4byte	.LFB112
 776 0269 1C010000 		.4byte	.LFE112-.LFB112
 777 026d 01       		.uleb128 0x1
 778 026e 9C       		.byte	0x9c
 779 026f 92020000 		.4byte	0x292
 780 0273 12       		.uleb128 0x12
 781 0274 D5030000 		.4byte	.LASF45
 782 0278 01       		.byte	0x1
 783 0279 9A       		.byte	0x9a
 784 027a 92020000 		.4byte	0x292
 785 027e 00000000 		.4byte	.LLST0
 786 0282 13       		.uleb128 0x13
 787 0283 746D7000 		.ascii	"tmp\000"
 788 0287 01       		.byte	0x1
 789 0288 9C       		.byte	0x9c
 790 0289 8C000000 		.4byte	0x8c
 791 028d 53000000 		.4byte	.LLST1
 792 0291 00       		.byte	0
ARM GAS  /tmp/cc6n0OG9.s 			page 15


 793 0292 14       		.uleb128 0x14
 794 0293 04       		.byte	0x4
 795 0294 42020000 		.4byte	0x242
 796 0298 11       		.uleb128 0x11
 797 0299 13000000 		.4byte	.LASF44
 798 029d 01       		.byte	0x1
 799 029e D5       		.byte	0xd5
 800 029f 00000000 		.4byte	.LFB113
 801 02a3 0E000000 		.4byte	.LFE113-.LFB113
 802 02a7 01       		.uleb128 0x1
 803 02a8 9C       		.byte	0x9c
 804 02a9 BB020000 		.4byte	0x2bb
 805 02ad 15       		.uleb128 0x15
 806 02ae D5030000 		.4byte	.LASF45
 807 02b2 01       		.byte	0x1
 808 02b3 D5       		.byte	0xd5
 809 02b4 92020000 		.4byte	0x292
 810 02b8 01       		.uleb128 0x1
 811 02b9 50       		.byte	0x50
 812 02ba 00       		.byte	0
 813 02bb 11       		.uleb128 0x11
 814 02bc B3010000 		.4byte	.LASF46
 815 02c0 01       		.byte	0x1
 816 02c1 E4       		.byte	0xe4
 817 02c2 00000000 		.4byte	.LFB114
 818 02c6 24000000 		.4byte	.LFE114-.LFB114
 819 02ca 01       		.uleb128 0x1
 820 02cb 9C       		.byte	0x9c
 821 02cc E0020000 		.4byte	0x2e0
 822 02d0 12       		.uleb128 0x12
 823 02d1 3C030000 		.4byte	.LASF38
 824 02d5 01       		.byte	0x1
 825 02d6 E4       		.byte	0xe4
 826 02d7 8C000000 		.4byte	0x8c
 827 02db 7B010000 		.4byte	.LLST2
 828 02df 00       		.byte	0
 829 02e0 16       		.uleb128 0x16
 830 02e1 00000000 		.4byte	.LASF49
 831 02e5 01       		.byte	0x1
 832 02e6 0601     		.2byte	0x106
 833 02e8 BE000000 		.4byte	0xbe
 834 02ec 00000000 		.4byte	.LFB115
 835 02f0 20000000 		.4byte	.LFE115-.LFB115
 836 02f4 01       		.uleb128 0x1
 837 02f5 9C       		.byte	0x9c
 838 02f6 1B030000 		.4byte	0x31b
 839 02fa 17       		.uleb128 0x17
 840 02fb 3C030000 		.4byte	.LASF38
 841 02ff 01       		.byte	0x1
 842 0300 0601     		.2byte	0x106
 843 0302 8C000000 		.4byte	0x8c
 844 0306 9C010000 		.4byte	.LLST3
 845 030a 18       		.uleb128 0x18
 846 030b 03020000 		.4byte	.LASF47
 847 030f 01       		.byte	0x1
 848 0310 0801     		.2byte	0x108
 849 0312 BE000000 		.4byte	0xbe
ARM GAS  /tmp/cc6n0OG9.s 			page 16


 850 0316 BD010000 		.4byte	.LLST4
 851 031a 00       		.byte	0
 852 031b 19       		.uleb128 0x19
 853 031c 57000000 		.4byte	.LASF48
 854 0320 01       		.byte	0x1
 855 0321 1E01     		.2byte	0x11e
 856 0323 00000000 		.4byte	.LFB116
 857 0327 18000000 		.4byte	.LFE116-.LFB116
 858 032b 01       		.uleb128 0x1
 859 032c 9C       		.byte	0x9c
 860 032d 42030000 		.4byte	0x342
 861 0331 17       		.uleb128 0x17
 862 0332 3C030000 		.4byte	.LASF38
 863 0336 01       		.byte	0x1
 864 0337 1E01     		.2byte	0x11e
 865 0339 8C000000 		.4byte	0x8c
 866 033d E8010000 		.4byte	.LLST5
 867 0341 00       		.byte	0
 868 0342 16       		.uleb128 0x16
 869 0343 95010000 		.4byte	.LASF50
 870 0347 01       		.byte	0x1
 871 0348 2C01     		.2byte	0x12c
 872 034a CA000000 		.4byte	0xca
 873 034e 00000000 		.4byte	.LFB117
 874 0352 2E000000 		.4byte	.LFE117-.LFB117
 875 0356 01       		.uleb128 0x1
 876 0357 9C       		.byte	0x9c
 877 0358 8D030000 		.4byte	0x38d
 878 035c 17       		.uleb128 0x17
 879 035d 3C030000 		.4byte	.LASF38
 880 0361 01       		.byte	0x1
 881 0362 2C01     		.2byte	0x12c
 882 0364 8C000000 		.4byte	0x8c
 883 0368 09020000 		.4byte	.LLST6
 884 036c 18       		.uleb128 0x18
 885 036d 03020000 		.4byte	.LASF47
 886 0371 01       		.byte	0x1
 887 0372 2E01     		.2byte	0x12e
 888 0374 CA000000 		.4byte	0xca
 889 0378 2A020000 		.4byte	.LLST7
 890 037c 18       		.uleb128 0x18
 891 037d A6010000 		.4byte	.LASF51
 892 0381 01       		.byte	0x1
 893 0382 2F01     		.2byte	0x12f
 894 0384 8C000000 		.4byte	0x8c
 895 0388 49020000 		.4byte	.LLST8
 896 038c 00       		.byte	0
 897 038d 19       		.uleb128 0x19
 898 038e 05030000 		.4byte	.LASF52
 899 0392 01       		.byte	0x1
 900 0393 4801     		.2byte	0x148
 901 0395 00000000 		.4byte	.LFB118
 902 0399 18000000 		.4byte	.LFE118-.LFB118
 903 039d 01       		.uleb128 0x1
 904 039e 9C       		.byte	0x9c
 905 039f B4030000 		.4byte	0x3b4
 906 03a3 17       		.uleb128 0x17
ARM GAS  /tmp/cc6n0OG9.s 			page 17


 907 03a4 3C030000 		.4byte	.LASF38
 908 03a8 01       		.byte	0x1
 909 03a9 4801     		.2byte	0x148
 910 03ab 8C000000 		.4byte	0x8c
 911 03af 6D020000 		.4byte	.LLST9
 912 03b3 00       		.byte	0
 913 03b4 1A       		.uleb128 0x1a
 914 03b5 0A040000 		.4byte	.LASF57
 915 03b9 06       		.byte	0x6
 916 03ba 9806     		.2byte	0x698
 917 03bc A3000000 		.4byte	0xa3
 918 03c0 00       		.byte	0
 919              		.section	.debug_abbrev,"",%progbits
 920              	.Ldebug_abbrev0:
 921 0000 01       		.uleb128 0x1
 922 0001 11       		.uleb128 0x11
 923 0002 01       		.byte	0x1
 924 0003 25       		.uleb128 0x25
 925 0004 0E       		.uleb128 0xe
 926 0005 13       		.uleb128 0x13
 927 0006 0B       		.uleb128 0xb
 928 0007 03       		.uleb128 0x3
 929 0008 0E       		.uleb128 0xe
 930 0009 1B       		.uleb128 0x1b
 931 000a 0E       		.uleb128 0xe
 932 000b 55       		.uleb128 0x55
 933 000c 17       		.uleb128 0x17
 934 000d 11       		.uleb128 0x11
 935 000e 01       		.uleb128 0x1
 936 000f 10       		.uleb128 0x10
 937 0010 17       		.uleb128 0x17
 938 0011 00       		.byte	0
 939 0012 00       		.byte	0
 940 0013 02       		.uleb128 0x2
 941 0014 24       		.uleb128 0x24
 942 0015 00       		.byte	0
 943 0016 0B       		.uleb128 0xb
 944 0017 0B       		.uleb128 0xb
 945 0018 3E       		.uleb128 0x3e
 946 0019 0B       		.uleb128 0xb
 947 001a 03       		.uleb128 0x3
 948 001b 0E       		.uleb128 0xe
 949 001c 00       		.byte	0
 950 001d 00       		.byte	0
 951 001e 03       		.uleb128 0x3
 952 001f 16       		.uleb128 0x16
 953 0020 00       		.byte	0
 954 0021 03       		.uleb128 0x3
 955 0022 0E       		.uleb128 0xe
 956 0023 3A       		.uleb128 0x3a
 957 0024 0B       		.uleb128 0xb
 958 0025 3B       		.uleb128 0x3b
 959 0026 0B       		.uleb128 0xb
 960 0027 49       		.uleb128 0x49
 961 0028 13       		.uleb128 0x13
 962 0029 00       		.byte	0
 963 002a 00       		.byte	0
ARM GAS  /tmp/cc6n0OG9.s 			page 18


 964 002b 04       		.uleb128 0x4
 965 002c 24       		.uleb128 0x24
 966 002d 00       		.byte	0
 967 002e 0B       		.uleb128 0xb
 968 002f 0B       		.uleb128 0xb
 969 0030 3E       		.uleb128 0x3e
 970 0031 0B       		.uleb128 0xb
 971 0032 03       		.uleb128 0x3
 972 0033 08       		.uleb128 0x8
 973 0034 00       		.byte	0
 974 0035 00       		.byte	0
 975 0036 05       		.uleb128 0x5
 976 0037 35       		.uleb128 0x35
 977 0038 00       		.byte	0
 978 0039 49       		.uleb128 0x49
 979 003a 13       		.uleb128 0x13
 980 003b 00       		.byte	0
 981 003c 00       		.byte	0
 982 003d 06       		.uleb128 0x6
 983 003e 04       		.uleb128 0x4
 984 003f 01       		.byte	0x1
 985 0040 0B       		.uleb128 0xb
 986 0041 0B       		.uleb128 0xb
 987 0042 3A       		.uleb128 0x3a
 988 0043 0B       		.uleb128 0xb
 989 0044 3B       		.uleb128 0x3b
 990 0045 05       		.uleb128 0x5
 991 0046 01       		.uleb128 0x1
 992 0047 13       		.uleb128 0x13
 993 0048 00       		.byte	0
 994 0049 00       		.byte	0
 995 004a 07       		.uleb128 0x7
 996 004b 28       		.uleb128 0x28
 997 004c 00       		.byte	0
 998 004d 03       		.uleb128 0x3
 999 004e 0E       		.uleb128 0xe
 1000 004f 1C       		.uleb128 0x1c
 1001 0050 0D       		.uleb128 0xd
 1002 0051 00       		.byte	0
 1003 0052 00       		.byte	0
 1004 0053 08       		.uleb128 0x8
 1005 0054 28       		.uleb128 0x28
 1006 0055 00       		.byte	0
 1007 0056 03       		.uleb128 0x3
 1008 0057 08       		.uleb128 0x8
 1009 0058 1C       		.uleb128 0x1c
 1010 0059 0D       		.uleb128 0xd
 1011 005a 00       		.byte	0
 1012 005b 00       		.byte	0
 1013 005c 09       		.uleb128 0x9
 1014 005d 16       		.uleb128 0x16
 1015 005e 00       		.byte	0
 1016 005f 03       		.uleb128 0x3
 1017 0060 0E       		.uleb128 0xe
 1018 0061 3A       		.uleb128 0x3a
 1019 0062 0B       		.uleb128 0xb
 1020 0063 3B       		.uleb128 0x3b
ARM GAS  /tmp/cc6n0OG9.s 			page 19


 1021 0064 05       		.uleb128 0x5
 1022 0065 49       		.uleb128 0x49
 1023 0066 13       		.uleb128 0x13
 1024 0067 00       		.byte	0
 1025 0068 00       		.byte	0
 1026 0069 0A       		.uleb128 0xa
 1027 006a 13       		.uleb128 0x13
 1028 006b 01       		.byte	0x1
 1029 006c 0B       		.uleb128 0xb
 1030 006d 0B       		.uleb128 0xb
 1031 006e 3A       		.uleb128 0x3a
 1032 006f 0B       		.uleb128 0xb
 1033 0070 3B       		.uleb128 0x3b
 1034 0071 05       		.uleb128 0x5
 1035 0072 01       		.uleb128 0x1
 1036 0073 13       		.uleb128 0x13
 1037 0074 00       		.byte	0
 1038 0075 00       		.byte	0
 1039 0076 0B       		.uleb128 0xb
 1040 0077 0D       		.uleb128 0xd
 1041 0078 00       		.byte	0
 1042 0079 03       		.uleb128 0x3
 1043 007a 08       		.uleb128 0x8
 1044 007b 3A       		.uleb128 0x3a
 1045 007c 0B       		.uleb128 0xb
 1046 007d 3B       		.uleb128 0x3b
 1047 007e 05       		.uleb128 0x5
 1048 007f 49       		.uleb128 0x49
 1049 0080 13       		.uleb128 0x13
 1050 0081 38       		.uleb128 0x38
 1051 0082 0B       		.uleb128 0xb
 1052 0083 00       		.byte	0
 1053 0084 00       		.byte	0
 1054 0085 0C       		.uleb128 0xc
 1055 0086 0D       		.uleb128 0xd
 1056 0087 00       		.byte	0
 1057 0088 03       		.uleb128 0x3
 1058 0089 0E       		.uleb128 0xe
 1059 008a 3A       		.uleb128 0x3a
 1060 008b 0B       		.uleb128 0xb
 1061 008c 3B       		.uleb128 0x3b
 1062 008d 05       		.uleb128 0x5
 1063 008e 49       		.uleb128 0x49
 1064 008f 13       		.uleb128 0x13
 1065 0090 38       		.uleb128 0x38
 1066 0091 0B       		.uleb128 0xb
 1067 0092 00       		.byte	0
 1068 0093 00       		.byte	0
 1069 0094 0D       		.uleb128 0xd
 1070 0095 04       		.uleb128 0x4
 1071 0096 01       		.byte	0x1
 1072 0097 0B       		.uleb128 0xb
 1073 0098 0B       		.uleb128 0xb
 1074 0099 3A       		.uleb128 0x3a
 1075 009a 0B       		.uleb128 0xb
 1076 009b 3B       		.uleb128 0x3b
 1077 009c 0B       		.uleb128 0xb
ARM GAS  /tmp/cc6n0OG9.s 			page 20


 1078 009d 01       		.uleb128 0x1
 1079 009e 13       		.uleb128 0x13
 1080 009f 00       		.byte	0
 1081 00a0 00       		.byte	0
 1082 00a1 0E       		.uleb128 0xe
 1083 00a2 13       		.uleb128 0x13
 1084 00a3 01       		.byte	0x1
 1085 00a4 0B       		.uleb128 0xb
 1086 00a5 0B       		.uleb128 0xb
 1087 00a6 3A       		.uleb128 0x3a
 1088 00a7 0B       		.uleb128 0xb
 1089 00a8 3B       		.uleb128 0x3b
 1090 00a9 0B       		.uleb128 0xb
 1091 00aa 01       		.uleb128 0x1
 1092 00ab 13       		.uleb128 0x13
 1093 00ac 00       		.byte	0
 1094 00ad 00       		.byte	0
 1095 00ae 0F       		.uleb128 0xf
 1096 00af 0D       		.uleb128 0xd
 1097 00b0 00       		.byte	0
 1098 00b1 03       		.uleb128 0x3
 1099 00b2 0E       		.uleb128 0xe
 1100 00b3 3A       		.uleb128 0x3a
 1101 00b4 0B       		.uleb128 0xb
 1102 00b5 3B       		.uleb128 0x3b
 1103 00b6 0B       		.uleb128 0xb
 1104 00b7 49       		.uleb128 0x49
 1105 00b8 13       		.uleb128 0x13
 1106 00b9 38       		.uleb128 0x38
 1107 00ba 0B       		.uleb128 0xb
 1108 00bb 00       		.byte	0
 1109 00bc 00       		.byte	0
 1110 00bd 10       		.uleb128 0x10
 1111 00be 2E       		.uleb128 0x2e
 1112 00bf 00       		.byte	0
 1113 00c0 3F       		.uleb128 0x3f
 1114 00c1 19       		.uleb128 0x19
 1115 00c2 03       		.uleb128 0x3
 1116 00c3 0E       		.uleb128 0xe
 1117 00c4 3A       		.uleb128 0x3a
 1118 00c5 0B       		.uleb128 0xb
 1119 00c6 3B       		.uleb128 0x3b
 1120 00c7 0B       		.uleb128 0xb
 1121 00c8 27       		.uleb128 0x27
 1122 00c9 19       		.uleb128 0x19
 1123 00ca 11       		.uleb128 0x11
 1124 00cb 01       		.uleb128 0x1
 1125 00cc 12       		.uleb128 0x12
 1126 00cd 06       		.uleb128 0x6
 1127 00ce 40       		.uleb128 0x40
 1128 00cf 18       		.uleb128 0x18
 1129 00d0 9742     		.uleb128 0x2117
 1130 00d2 19       		.uleb128 0x19
 1131 00d3 00       		.byte	0
 1132 00d4 00       		.byte	0
 1133 00d5 11       		.uleb128 0x11
 1134 00d6 2E       		.uleb128 0x2e
ARM GAS  /tmp/cc6n0OG9.s 			page 21


 1135 00d7 01       		.byte	0x1
 1136 00d8 3F       		.uleb128 0x3f
 1137 00d9 19       		.uleb128 0x19
 1138 00da 03       		.uleb128 0x3
 1139 00db 0E       		.uleb128 0xe
 1140 00dc 3A       		.uleb128 0x3a
 1141 00dd 0B       		.uleb128 0xb
 1142 00de 3B       		.uleb128 0x3b
 1143 00df 0B       		.uleb128 0xb
 1144 00e0 27       		.uleb128 0x27
 1145 00e1 19       		.uleb128 0x19
 1146 00e2 11       		.uleb128 0x11
 1147 00e3 01       		.uleb128 0x1
 1148 00e4 12       		.uleb128 0x12
 1149 00e5 06       		.uleb128 0x6
 1150 00e6 40       		.uleb128 0x40
 1151 00e7 18       		.uleb128 0x18
 1152 00e8 9742     		.uleb128 0x2117
 1153 00ea 19       		.uleb128 0x19
 1154 00eb 01       		.uleb128 0x1
 1155 00ec 13       		.uleb128 0x13
 1156 00ed 00       		.byte	0
 1157 00ee 00       		.byte	0
 1158 00ef 12       		.uleb128 0x12
 1159 00f0 05       		.uleb128 0x5
 1160 00f1 00       		.byte	0
 1161 00f2 03       		.uleb128 0x3
 1162 00f3 0E       		.uleb128 0xe
 1163 00f4 3A       		.uleb128 0x3a
 1164 00f5 0B       		.uleb128 0xb
 1165 00f6 3B       		.uleb128 0x3b
 1166 00f7 0B       		.uleb128 0xb
 1167 00f8 49       		.uleb128 0x49
 1168 00f9 13       		.uleb128 0x13
 1169 00fa 02       		.uleb128 0x2
 1170 00fb 17       		.uleb128 0x17
 1171 00fc 00       		.byte	0
 1172 00fd 00       		.byte	0
 1173 00fe 13       		.uleb128 0x13
 1174 00ff 34       		.uleb128 0x34
 1175 0100 00       		.byte	0
 1176 0101 03       		.uleb128 0x3
 1177 0102 08       		.uleb128 0x8
 1178 0103 3A       		.uleb128 0x3a
 1179 0104 0B       		.uleb128 0xb
 1180 0105 3B       		.uleb128 0x3b
 1181 0106 0B       		.uleb128 0xb
 1182 0107 49       		.uleb128 0x49
 1183 0108 13       		.uleb128 0x13
 1184 0109 02       		.uleb128 0x2
 1185 010a 17       		.uleb128 0x17
 1186 010b 00       		.byte	0
 1187 010c 00       		.byte	0
 1188 010d 14       		.uleb128 0x14
 1189 010e 0F       		.uleb128 0xf
 1190 010f 00       		.byte	0
 1191 0110 0B       		.uleb128 0xb
ARM GAS  /tmp/cc6n0OG9.s 			page 22


 1192 0111 0B       		.uleb128 0xb
 1193 0112 49       		.uleb128 0x49
 1194 0113 13       		.uleb128 0x13
 1195 0114 00       		.byte	0
 1196 0115 00       		.byte	0
 1197 0116 15       		.uleb128 0x15
 1198 0117 05       		.uleb128 0x5
 1199 0118 00       		.byte	0
 1200 0119 03       		.uleb128 0x3
 1201 011a 0E       		.uleb128 0xe
 1202 011b 3A       		.uleb128 0x3a
 1203 011c 0B       		.uleb128 0xb
 1204 011d 3B       		.uleb128 0x3b
 1205 011e 0B       		.uleb128 0xb
 1206 011f 49       		.uleb128 0x49
 1207 0120 13       		.uleb128 0x13
 1208 0121 02       		.uleb128 0x2
 1209 0122 18       		.uleb128 0x18
 1210 0123 00       		.byte	0
 1211 0124 00       		.byte	0
 1212 0125 16       		.uleb128 0x16
 1213 0126 2E       		.uleb128 0x2e
 1214 0127 01       		.byte	0x1
 1215 0128 3F       		.uleb128 0x3f
 1216 0129 19       		.uleb128 0x19
 1217 012a 03       		.uleb128 0x3
 1218 012b 0E       		.uleb128 0xe
 1219 012c 3A       		.uleb128 0x3a
 1220 012d 0B       		.uleb128 0xb
 1221 012e 3B       		.uleb128 0x3b
 1222 012f 05       		.uleb128 0x5
 1223 0130 27       		.uleb128 0x27
 1224 0131 19       		.uleb128 0x19
 1225 0132 49       		.uleb128 0x49
 1226 0133 13       		.uleb128 0x13
 1227 0134 11       		.uleb128 0x11
 1228 0135 01       		.uleb128 0x1
 1229 0136 12       		.uleb128 0x12
 1230 0137 06       		.uleb128 0x6
 1231 0138 40       		.uleb128 0x40
 1232 0139 18       		.uleb128 0x18
 1233 013a 9742     		.uleb128 0x2117
 1234 013c 19       		.uleb128 0x19
 1235 013d 01       		.uleb128 0x1
 1236 013e 13       		.uleb128 0x13
 1237 013f 00       		.byte	0
 1238 0140 00       		.byte	0
 1239 0141 17       		.uleb128 0x17
 1240 0142 05       		.uleb128 0x5
 1241 0143 00       		.byte	0
 1242 0144 03       		.uleb128 0x3
 1243 0145 0E       		.uleb128 0xe
 1244 0146 3A       		.uleb128 0x3a
 1245 0147 0B       		.uleb128 0xb
 1246 0148 3B       		.uleb128 0x3b
 1247 0149 05       		.uleb128 0x5
 1248 014a 49       		.uleb128 0x49
ARM GAS  /tmp/cc6n0OG9.s 			page 23


 1249 014b 13       		.uleb128 0x13
 1250 014c 02       		.uleb128 0x2
 1251 014d 17       		.uleb128 0x17
 1252 014e 00       		.byte	0
 1253 014f 00       		.byte	0
 1254 0150 18       		.uleb128 0x18
 1255 0151 34       		.uleb128 0x34
 1256 0152 00       		.byte	0
 1257 0153 03       		.uleb128 0x3
 1258 0154 0E       		.uleb128 0xe
 1259 0155 3A       		.uleb128 0x3a
 1260 0156 0B       		.uleb128 0xb
 1261 0157 3B       		.uleb128 0x3b
 1262 0158 05       		.uleb128 0x5
 1263 0159 49       		.uleb128 0x49
 1264 015a 13       		.uleb128 0x13
 1265 015b 02       		.uleb128 0x2
 1266 015c 17       		.uleb128 0x17
 1267 015d 00       		.byte	0
 1268 015e 00       		.byte	0
 1269 015f 19       		.uleb128 0x19
 1270 0160 2E       		.uleb128 0x2e
 1271 0161 01       		.byte	0x1
 1272 0162 3F       		.uleb128 0x3f
 1273 0163 19       		.uleb128 0x19
 1274 0164 03       		.uleb128 0x3
 1275 0165 0E       		.uleb128 0xe
 1276 0166 3A       		.uleb128 0x3a
 1277 0167 0B       		.uleb128 0xb
 1278 0168 3B       		.uleb128 0x3b
 1279 0169 05       		.uleb128 0x5
 1280 016a 27       		.uleb128 0x27
 1281 016b 19       		.uleb128 0x19
 1282 016c 11       		.uleb128 0x11
 1283 016d 01       		.uleb128 0x1
 1284 016e 12       		.uleb128 0x12
 1285 016f 06       		.uleb128 0x6
 1286 0170 40       		.uleb128 0x40
 1287 0171 18       		.uleb128 0x18
 1288 0172 9742     		.uleb128 0x2117
 1289 0174 19       		.uleb128 0x19
 1290 0175 01       		.uleb128 0x1
 1291 0176 13       		.uleb128 0x13
 1292 0177 00       		.byte	0
 1293 0178 00       		.byte	0
 1294 0179 1A       		.uleb128 0x1a
 1295 017a 34       		.uleb128 0x34
 1296 017b 00       		.byte	0
 1297 017c 03       		.uleb128 0x3
 1298 017d 0E       		.uleb128 0xe
 1299 017e 3A       		.uleb128 0x3a
 1300 017f 0B       		.uleb128 0xb
 1301 0180 3B       		.uleb128 0x3b
 1302 0181 05       		.uleb128 0x5
 1303 0182 49       		.uleb128 0x49
 1304 0183 13       		.uleb128 0x13
 1305 0184 3F       		.uleb128 0x3f
ARM GAS  /tmp/cc6n0OG9.s 			page 24


 1306 0185 19       		.uleb128 0x19
 1307 0186 3C       		.uleb128 0x3c
 1308 0187 19       		.uleb128 0x19
 1309 0188 00       		.byte	0
 1310 0189 00       		.byte	0
 1311 018a 00       		.byte	0
 1312              		.section	.debug_loc,"",%progbits
 1313              	.Ldebug_loc0:
 1314              	.LLST0:
 1315 0000 00000000 		.4byte	.LVL0
 1316 0004 9E000000 		.4byte	.LVL4
 1317 0008 0100     		.2byte	0x1
 1318 000a 50       		.byte	0x50
 1319 000b 9E000000 		.4byte	.LVL4
 1320 000f BC000000 		.4byte	.LVL7
 1321 0013 0400     		.2byte	0x4
 1322 0015 F3       		.byte	0xf3
 1323 0016 01       		.uleb128 0x1
 1324 0017 50       		.byte	0x50
 1325 0018 9F       		.byte	0x9f
 1326 0019 BC000000 		.4byte	.LVL7
 1327 001d D0000000 		.4byte	.LVL9
 1328 0021 0100     		.2byte	0x1
 1329 0023 50       		.byte	0x50
 1330 0024 D0000000 		.4byte	.LVL9
 1331 0028 E4000000 		.4byte	.LVL12
 1332 002c 0400     		.2byte	0x4
 1333 002e F3       		.byte	0xf3
 1334 002f 01       		.uleb128 0x1
 1335 0030 50       		.byte	0x50
 1336 0031 9F       		.byte	0x9f
 1337 0032 E4000000 		.4byte	.LVL12
 1338 0036 04010000 		.4byte	.LVL13
 1339 003a 0100     		.2byte	0x1
 1340 003c 50       		.byte	0x50
 1341 003d 04010000 		.4byte	.LVL13
 1342 0041 1C010000 		.4byte	.LFE112
 1343 0045 0400     		.2byte	0x4
 1344 0047 F3       		.byte	0xf3
 1345 0048 01       		.uleb128 0x1
 1346 0049 50       		.byte	0x50
 1347 004a 9F       		.byte	0x9f
 1348 004b 00000000 		.4byte	0
 1349 004f 00000000 		.4byte	0
 1350              	.LLST1:
 1351 0053 00000000 		.4byte	.LVL0
 1352 0057 4E000000 		.4byte	.LVL1
 1353 005b 0600     		.2byte	0x6
 1354 005d 0C       		.byte	0xc
 1355 005e 00040140 		.4byte	0x40010400
 1356 0062 9F       		.byte	0x9f
 1357 0063 4E000000 		.4byte	.LVL1
 1358 0067 5E000000 		.4byte	.LVL2
 1359 006b 1500     		.2byte	0x15
 1360 006d 76       		.byte	0x76
 1361 006e 00       		.sleb128 0
 1362 006f 35       		.byte	0x35
ARM GAS  /tmp/cc6n0OG9.s 			page 25


 1363 0070 25       		.byte	0x25
 1364 0071 35       		.byte	0x35
 1365 0072 24       		.byte	0x24
 1366 0073 70       		.byte	0x70
 1367 0074 04       		.sleb128 4
 1368 0075 94       		.byte	0x94
 1369 0076 01       		.byte	0x1
 1370 0077 08       		.byte	0x8
 1371 0078 FF       		.byte	0xff
 1372 0079 1A       		.byte	0x1a
 1373 007a 22       		.byte	0x22
 1374 007b 23       		.byte	0x23
 1375 007c 80888480 		.uleb128 0x40010400
 1375      04
 1376 0081 9F       		.byte	0x9f
 1377 0082 5E000000 		.4byte	.LVL2
 1378 0086 6C000000 		.4byte	.LVL3
 1379 008a 1600     		.2byte	0x16
 1380 008c 70       		.byte	0x70
 1381 008d 00       		.sleb128 0
 1382 008e 06       		.byte	0x6
 1383 008f 35       		.byte	0x35
 1384 0090 25       		.byte	0x25
 1385 0091 35       		.byte	0x35
 1386 0092 24       		.byte	0x24
 1387 0093 70       		.byte	0x70
 1388 0094 04       		.sleb128 4
 1389 0095 94       		.byte	0x94
 1390 0096 01       		.byte	0x1
 1391 0097 08       		.byte	0x8
 1392 0098 FF       		.byte	0xff
 1393 0099 1A       		.byte	0x1a
 1394 009a 22       		.byte	0x22
 1395 009b 23       		.byte	0x23
 1396 009c 80888480 		.uleb128 0x40010400
 1396      04
 1397 00a1 9F       		.byte	0x9f
 1398 00a2 6C000000 		.4byte	.LVL3
 1399 00a6 9E000000 		.4byte	.LVL4
 1400 00aa 0600     		.2byte	0x6
 1401 00ac 0C       		.byte	0xc
 1402 00ad 00040140 		.4byte	0x40010400
 1403 00b1 9F       		.byte	0x9f
 1404 00b2 9E000000 		.4byte	.LVL4
 1405 00b6 AE000000 		.4byte	.LVL5
 1406 00ba 1300     		.2byte	0x13
 1407 00bc 70       		.byte	0x70
 1408 00bd 00       		.sleb128 0
 1409 00be 35       		.byte	0x35
 1410 00bf 25       		.byte	0x25
 1411 00c0 35       		.byte	0x35
 1412 00c1 24       		.byte	0x24
 1413 00c2 77       		.byte	0x77
 1414 00c3 00       		.sleb128 0
 1415 00c4 08       		.byte	0x8
 1416 00c5 FF       		.byte	0xff
 1417 00c6 1A       		.byte	0x1a
ARM GAS  /tmp/cc6n0OG9.s 			page 26


 1418 00c7 22       		.byte	0x22
 1419 00c8 23       		.byte	0x23
 1420 00c9 80888480 		.uleb128 0x40010400
 1420      04
 1421 00ce 9F       		.byte	0x9f
 1422 00cf AE000000 		.4byte	.LVL5
 1423 00d3 B6000000 		.4byte	.LVL6
 1424 00d7 1500     		.2byte	0x15
 1425 00d9 F3       		.byte	0xf3
 1426 00da 01       		.uleb128 0x1
 1427 00db 50       		.byte	0x50
 1428 00dc 06       		.byte	0x6
 1429 00dd 35       		.byte	0x35
 1430 00de 25       		.byte	0x25
 1431 00df 35       		.byte	0x35
 1432 00e0 24       		.byte	0x24
 1433 00e1 77       		.byte	0x77
 1434 00e2 00       		.sleb128 0
 1435 00e3 08       		.byte	0x8
 1436 00e4 FF       		.byte	0xff
 1437 00e5 1A       		.byte	0x1a
 1438 00e6 22       		.byte	0x22
 1439 00e7 23       		.byte	0x23
 1440 00e8 80888480 		.uleb128 0x40010400
 1440      04
 1441 00ed 9F       		.byte	0x9f
 1442 00ee BC000000 		.4byte	.LVL7
 1443 00f2 C0000000 		.4byte	.LVL8
 1444 00f6 0600     		.2byte	0x6
 1445 00f8 0C       		.byte	0xc
 1446 00f9 00040140 		.4byte	0x40010400
 1447 00fd 9F       		.byte	0x9f
 1448 00fe C0000000 		.4byte	.LVL8
 1449 0102 D0000000 		.4byte	.LVL9
 1450 0106 1500     		.2byte	0x15
 1451 0108 71       		.byte	0x71
 1452 0109 00       		.sleb128 0
 1453 010a 35       		.byte	0x35
 1454 010b 25       		.byte	0x25
 1455 010c 35       		.byte	0x35
 1456 010d 24       		.byte	0x24
 1457 010e 70       		.byte	0x70
 1458 010f 04       		.sleb128 4
 1459 0110 94       		.byte	0x94
 1460 0111 01       		.byte	0x1
 1461 0112 08       		.byte	0x8
 1462 0113 FF       		.byte	0xff
 1463 0114 1A       		.byte	0x1a
 1464 0115 22       		.byte	0x22
 1465 0116 23       		.byte	0x23
 1466 0117 80888480 		.uleb128 0x40010400
 1466      04
 1467 011c 9F       		.byte	0x9f
 1468 011d D0000000 		.4byte	.LVL9
 1469 0121 D4000000 		.4byte	.LVL10
 1470 0125 1800     		.2byte	0x18
 1471 0127 71       		.byte	0x71
ARM GAS  /tmp/cc6n0OG9.s 			page 27


 1472 0128 00       		.sleb128 0
 1473 0129 35       		.byte	0x35
 1474 012a 25       		.byte	0x25
 1475 012b 35       		.byte	0x35
 1476 012c 24       		.byte	0x24
 1477 012d F3       		.byte	0xf3
 1478 012e 01       		.uleb128 0x1
 1479 012f 50       		.byte	0x50
 1480 0130 23       		.byte	0x23
 1481 0131 04       		.uleb128 0x4
 1482 0132 94       		.byte	0x94
 1483 0133 01       		.byte	0x1
 1484 0134 08       		.byte	0x8
 1485 0135 FF       		.byte	0xff
 1486 0136 1A       		.byte	0x1a
 1487 0137 22       		.byte	0x22
 1488 0138 23       		.byte	0x23
 1489 0139 80888480 		.uleb128 0x40010400
 1489      04
 1490 013e 9F       		.byte	0x9f
 1491 013f D4000000 		.4byte	.LVL10
 1492 0143 DE000000 		.4byte	.LVL11
 1493 0147 1A00     		.2byte	0x1a
 1494 0149 F3       		.byte	0xf3
 1495 014a 01       		.uleb128 0x1
 1496 014b 50       		.byte	0x50
 1497 014c 06       		.byte	0x6
 1498 014d 35       		.byte	0x35
 1499 014e 25       		.byte	0x25
 1500 014f 35       		.byte	0x35
 1501 0150 24       		.byte	0x24
 1502 0151 F3       		.byte	0xf3
 1503 0152 01       		.uleb128 0x1
 1504 0153 50       		.byte	0x50
 1505 0154 23       		.byte	0x23
 1506 0155 04       		.uleb128 0x4
 1507 0156 94       		.byte	0x94
 1508 0157 01       		.byte	0x1
 1509 0158 08       		.byte	0x8
 1510 0159 FF       		.byte	0xff
 1511 015a 1A       		.byte	0x1a
 1512 015b 22       		.byte	0x22
 1513 015c 23       		.byte	0x23
 1514 015d 80888480 		.uleb128 0x40010400
 1514      04
 1515 0162 9F       		.byte	0x9f
 1516 0163 E4000000 		.4byte	.LVL12
 1517 0167 1C010000 		.4byte	.LFE112
 1518 016b 0600     		.2byte	0x6
 1519 016d 0C       		.byte	0xc
 1520 016e 00040140 		.4byte	0x40010400
 1521 0172 9F       		.byte	0x9f
 1522 0173 00000000 		.4byte	0
 1523 0177 00000000 		.4byte	0
 1524              	.LLST2:
 1525 017b 00000000 		.4byte	.LVL15
 1526 017f 10000000 		.4byte	.LVL16
ARM GAS  /tmp/cc6n0OG9.s 			page 28


 1527 0183 0100     		.2byte	0x1
 1528 0185 50       		.byte	0x50
 1529 0186 10000000 		.4byte	.LVL16
 1530 018a 24000000 		.4byte	.LFE114
 1531 018e 0400     		.2byte	0x4
 1532 0190 F3       		.byte	0xf3
 1533 0191 01       		.uleb128 0x1
 1534 0192 50       		.byte	0x50
 1535 0193 9F       		.byte	0x9f
 1536 0194 00000000 		.4byte	0
 1537 0198 00000000 		.4byte	0
 1538              	.LLST3:
 1539 019c 00000000 		.4byte	.LVL17
 1540 01a0 0A000000 		.4byte	.LVL18
 1541 01a4 0100     		.2byte	0x1
 1542 01a6 50       		.byte	0x50
 1543 01a7 0A000000 		.4byte	.LVL18
 1544 01ab 20000000 		.4byte	.LFE115
 1545 01af 0400     		.2byte	0x4
 1546 01b1 F3       		.byte	0xf3
 1547 01b2 01       		.uleb128 0x1
 1548 01b3 50       		.byte	0x50
 1549 01b4 9F       		.byte	0x9f
 1550 01b5 00000000 		.4byte	0
 1551 01b9 00000000 		.4byte	0
 1552              	.LLST4:
 1553 01bd 00000000 		.4byte	.LVL17
 1554 01c1 0C000000 		.4byte	.LVL19
 1555 01c5 0200     		.2byte	0x2
 1556 01c7 30       		.byte	0x30
 1557 01c8 9F       		.byte	0x9f
 1558 01c9 0C000000 		.4byte	.LVL19
 1559 01cd 20000000 		.4byte	.LFE115
 1560 01d1 0D00     		.2byte	0xd
 1561 01d3 31       		.byte	0x31
 1562 01d4 F3       		.byte	0xf3
 1563 01d5 01       		.uleb128 0x1
 1564 01d6 50       		.byte	0x50
 1565 01d7 4F       		.byte	0x4f
 1566 01d8 1A       		.byte	0x1a
 1567 01d9 24       		.byte	0x24
 1568 01da 73       		.byte	0x73
 1569 01db 00       		.sleb128 0
 1570 01dc 1A       		.byte	0x1a
 1571 01dd 30       		.byte	0x30
 1572 01de 2E       		.byte	0x2e
 1573 01df 9F       		.byte	0x9f
 1574 01e0 00000000 		.4byte	0
 1575 01e4 00000000 		.4byte	0
 1576              	.LLST5:
 1577 01e8 00000000 		.4byte	.LVL20
 1578 01ec 0A000000 		.4byte	.LVL21
 1579 01f0 0100     		.2byte	0x1
 1580 01f2 50       		.byte	0x50
 1581 01f3 0A000000 		.4byte	.LVL21
 1582 01f7 18000000 		.4byte	.LFE116
 1583 01fb 0400     		.2byte	0x4
ARM GAS  /tmp/cc6n0OG9.s 			page 29


 1584 01fd F3       		.byte	0xf3
 1585 01fe 01       		.uleb128 0x1
 1586 01ff 50       		.byte	0x50
 1587 0200 9F       		.byte	0x9f
 1588 0201 00000000 		.4byte	0
 1589 0205 00000000 		.4byte	0
 1590              	.LLST6:
 1591 0209 00000000 		.4byte	.LVL22
 1592 020d 18000000 		.4byte	.LVL23
 1593 0211 0100     		.2byte	0x1
 1594 0213 50       		.byte	0x50
 1595 0214 18000000 		.4byte	.LVL23
 1596 0218 2E000000 		.4byte	.LFE117
 1597 021c 0400     		.2byte	0x4
 1598 021e F3       		.byte	0xf3
 1599 021f 01       		.uleb128 0x1
 1600 0220 50       		.byte	0x50
 1601 0221 9F       		.byte	0x9f
 1602 0222 00000000 		.4byte	0
 1603 0226 00000000 		.4byte	0
 1604              	.LLST7:
 1605 022a 00000000 		.4byte	.LVL22
 1606 022e 28000000 		.4byte	.LVL25
 1607 0232 0200     		.2byte	0x2
 1608 0234 30       		.byte	0x30
 1609 0235 9F       		.byte	0x9f
 1610 0236 28000000 		.4byte	.LVL25
 1611 023a 2E000000 		.4byte	.LFE117
 1612 023e 0100     		.2byte	0x1
 1613 0240 50       		.byte	0x50
 1614 0241 00000000 		.4byte	0
 1615 0245 00000000 		.4byte	0
 1616              	.LLST8:
 1617 0249 00000000 		.4byte	.LVL22
 1618 024d 1C000000 		.4byte	.LVL24
 1619 0251 0200     		.2byte	0x2
 1620 0253 30       		.byte	0x30
 1621 0254 9F       		.byte	0x9f
 1622 0255 1C000000 		.4byte	.LVL24
 1623 0259 2C000000 		.4byte	.LVL26
 1624 025d 0600     		.2byte	0x6
 1625 025f 74       		.byte	0x74
 1626 0260 00       		.sleb128 0
 1627 0261 73       		.byte	0x73
 1628 0262 00       		.sleb128 0
 1629 0263 1A       		.byte	0x1a
 1630 0264 9F       		.byte	0x9f
 1631 0265 00000000 		.4byte	0
 1632 0269 00000000 		.4byte	0
 1633              	.LLST9:
 1634 026d 00000000 		.4byte	.LVL27
 1635 0271 0A000000 		.4byte	.LVL28
 1636 0275 0100     		.2byte	0x1
 1637 0277 50       		.byte	0x50
 1638 0278 0A000000 		.4byte	.LVL28
 1639 027c 18000000 		.4byte	.LFE118
 1640 0280 0400     		.2byte	0x4
ARM GAS  /tmp/cc6n0OG9.s 			page 30


 1641 0282 F3       		.byte	0xf3
 1642 0283 01       		.uleb128 0x1
 1643 0284 50       		.byte	0x50
 1644 0285 9F       		.byte	0x9f
 1645 0286 00000000 		.4byte	0
 1646 028a 00000000 		.4byte	0
 1647              		.section	.debug_aranges,"",%progbits
 1648 0000 54000000 		.4byte	0x54
 1649 0004 0200     		.2byte	0x2
 1650 0006 00000000 		.4byte	.Ldebug_info0
 1651 000a 04       		.byte	0x4
 1652 000b 00       		.byte	0
 1653 000c 0000     		.2byte	0
 1654 000e 0000     		.2byte	0
 1655 0010 00000000 		.4byte	.LFB111
 1656 0014 34000000 		.4byte	.LFE111-.LFB111
 1657 0018 00000000 		.4byte	.LFB112
 1658 001c 1C010000 		.4byte	.LFE112-.LFB112
 1659 0020 00000000 		.4byte	.LFB113
 1660 0024 0E000000 		.4byte	.LFE113-.LFB113
 1661 0028 00000000 		.4byte	.LFB114
 1662 002c 24000000 		.4byte	.LFE114-.LFB114
 1663 0030 00000000 		.4byte	.LFB115
 1664 0034 20000000 		.4byte	.LFE115-.LFB115
 1665 0038 00000000 		.4byte	.LFB116
 1666 003c 18000000 		.4byte	.LFE116-.LFB116
 1667 0040 00000000 		.4byte	.LFB117
 1668 0044 2E000000 		.4byte	.LFE117-.LFB117
 1669 0048 00000000 		.4byte	.LFB118
 1670 004c 18000000 		.4byte	.LFE118-.LFB118
 1671 0050 00000000 		.4byte	0
 1672 0054 00000000 		.4byte	0
 1673              		.section	.debug_ranges,"",%progbits
 1674              	.Ldebug_ranges0:
 1675 0000 00000000 		.4byte	.LFB111
 1676 0004 34000000 		.4byte	.LFE111
 1677 0008 00000000 		.4byte	.LFB112
 1678 000c 1C010000 		.4byte	.LFE112
 1679 0010 00000000 		.4byte	.LFB113
 1680 0014 0E000000 		.4byte	.LFE113
 1681 0018 00000000 		.4byte	.LFB114
 1682 001c 24000000 		.4byte	.LFE114
 1683 0020 00000000 		.4byte	.LFB115
 1684 0024 20000000 		.4byte	.LFE115
 1685 0028 00000000 		.4byte	.LFB116
 1686 002c 18000000 		.4byte	.LFE116
 1687 0030 00000000 		.4byte	.LFB117
 1688 0034 2E000000 		.4byte	.LFE117
 1689 0038 00000000 		.4byte	.LFB118
 1690 003c 18000000 		.4byte	.LFE118
 1691 0040 00000000 		.4byte	0
 1692 0044 00000000 		.4byte	0
 1693              		.section	.debug_line,"",%progbits
 1694              	.Ldebug_line0:
 1695 0000 2B020000 		.section	.debug_str,"MS",%progbits,1
 1695      02003A01 
 1695      00000201 
ARM GAS  /tmp/cc6n0OG9.s 			page 31


 1695      FB0E0D00 
 1695      01010101 
 1696              	.LASF49:
 1697 0000 45585449 		.ascii	"EXTI_GetFlagStatus\000"
 1697      5F476574 
 1697      466C6167 
 1697      53746174 
 1697      757300
 1698              	.LASF44:
 1699 0013 45585449 		.ascii	"EXTI_StructInit\000"
 1699      5F537472 
 1699      75637449 
 1699      6E697400 
 1700              	.LASF27:
 1701 0023 52545352 		.ascii	"RTSR2\000"
 1701      3200
 1702              	.LASF54:
 1703 0029 2E2E2F2E 		.ascii	"../../../../ext/stm32lib/src/stm32f30x_exti.c\000"
 1703      2E2F2E2E 
 1703      2F2E2E2F 
 1703      6578742F 
 1703      73746D33 
 1704              	.LASF48:
 1705 0057 45585449 		.ascii	"EXTI_ClearFlag\000"
 1705      5F436C65 
 1705      6172466C 
 1705      616700
 1706              	.LASF33:
 1707 0066 45585449 		.ascii	"EXTIMode_TypeDef\000"
 1707      4D6F6465 
 1707      5F547970 
 1707      65446566 
 1707      00
 1708              	.LASF13:
 1709 0077 73697A65 		.ascii	"sizetype\000"
 1709      74797065 
 1709      00
 1710              	.LASF56:
 1711 0080 45585449 		.ascii	"EXTI_DeInit\000"
 1711      5F446549 
 1711      6E697400 
 1712              	.LASF32:
 1713 008c 45585449 		.ascii	"EXTI_Mode_Event\000"
 1713      5F4D6F64 
 1713      655F4576 
 1713      656E7400 
 1714              	.LASF6:
 1715 009c 5F5F7569 		.ascii	"__uint32_t\000"
 1715      6E743332 
 1715      5F7400
 1716              	.LASF55:
 1717 00a7 2F686F6D 		.ascii	"/home/jordyaw/Documents/referensi/coba/ChibiOS_2.5."
 1717      652F6A6F 
 1717      72647961 
 1717      772F446F 
 1717      63756D65 
 1718 00da 32782F74 		.ascii	"2x/testhal/STM32F30x/WSC Juara Bismillah/program sc"
ARM GAS  /tmp/cc6n0OG9.s 			page 32


 1718      65737468 
 1718      616C2F53 
 1718      544D3332 
 1718      46333078 
 1719 010d 616E6E69 		.ascii	"anning data controller\000"
 1719      6E672064 
 1719      61746120 
 1719      636F6E74 
 1719      726F6C6C 
 1720              	.LASF15:
 1721 0124 466C6167 		.ascii	"FlagStatus\000"
 1721      53746174 
 1721      757300
 1722              	.LASF37:
 1723 012f 45585449 		.ascii	"EXTITrigger_TypeDef\000"
 1723      54726967 
 1723      6765725F 
 1723      54797065 
 1723      44656600 
 1724              	.LASF2:
 1725 0143 73686F72 		.ascii	"short int\000"
 1725      7420696E 
 1725      7400
 1726              	.LASF42:
 1727 014d 45585449 		.ascii	"EXTI_InitTypeDef\000"
 1727      5F496E69 
 1727      74547970 
 1727      65446566 
 1727      00
 1728              	.LASF31:
 1729 015e 45585449 		.ascii	"EXTI_Mode_Interrupt\000"
 1729      5F4D6F64 
 1729      655F496E 
 1729      74657272 
 1729      75707400 
 1730              	.LASF34:
 1731 0172 45585449 		.ascii	"EXTI_Trigger_Rising\000"
 1731      5F547269 
 1731      67676572 
 1731      5F526973 
 1731      696E6700 
 1732              	.LASF29:
 1733 0186 53574945 		.ascii	"SWIER2\000"
 1733      523200
 1734              	.LASF17:
 1735 018d 44495341 		.ascii	"DISABLE\000"
 1735      424C4500 
 1736              	.LASF50:
 1737 0195 45585449 		.ascii	"EXTI_GetITStatus\000"
 1737      5F476574 
 1737      49545374 
 1737      61747573 
 1737      00
 1738              	.LASF51:
 1739 01a6 656E6162 		.ascii	"enablestatus\000"
 1739      6C657374 
 1739      61747573 
ARM GAS  /tmp/cc6n0OG9.s 			page 33


 1739      00
 1740              	.LASF46:
 1741 01b3 45585449 		.ascii	"EXTI_GenerateSWInterrupt\000"
 1741      5F47656E 
 1741      65726174 
 1741      65535749 
 1741      6E746572 
 1742              	.LASF8:
 1743 01cc 6C6F6E67 		.ascii	"long long int\000"
 1743      206C6F6E 
 1743      6720696E 
 1743      7400
 1744              	.LASF16:
 1745 01da 49545374 		.ascii	"ITStatus\000"
 1745      61747573 
 1745      00
 1746              	.LASF30:
 1747 01e3 45585449 		.ascii	"EXTI_TypeDef\000"
 1747      5F547970 
 1747      65446566 
 1747      00
 1748              	.LASF4:
 1749 01f0 6C6F6E67 		.ascii	"long int\000"
 1749      20696E74 
 1749      00
 1750              	.LASF39:
 1751 01f9 45585449 		.ascii	"EXTI_Mode\000"
 1751      5F4D6F64 
 1751      6500
 1752              	.LASF47:
 1753 0203 62697473 		.ascii	"bitstatus\000"
 1753      74617475 
 1753      7300
 1754              	.LASF1:
 1755 020d 756E7369 		.ascii	"unsigned char\000"
 1755      676E6564 
 1755      20636861 
 1755      7200
 1756              	.LASF53:
 1757 021b 474E5520 		.ascii	"GNU C 4.8.3 -mcpu=cortex-m4 -mfloat-abi=softfp -mfp"
 1757      4320342E 
 1757      382E3320 
 1757      2D6D6370 
 1757      753D636F 
 1758 024e 753D6670 		.ascii	"u=fpv4-sp-d16 -mno-thumb-interwork -mthumb -ggdb -O"
 1758      76342D73 
 1758      702D6431 
 1758      36202D6D 
 1758      6E6F2D74 
 1759 0281 32202D66 		.ascii	"2 -fomit-frame-pointer -falign-functions=16 -fsingl"
 1759      6F6D6974 
 1759      2D667261 
 1759      6D652D70 
 1759      6F696E74 
 1760 02b4 652D7072 		.ascii	"e-precision-constant -ffunction-sections -fdata-sec"
 1760      65636973 
 1760      696F6E2D 
ARM GAS  /tmp/cc6n0OG9.s 			page 34


 1760      636F6E73 
 1760      74616E74 
 1761 02e7 74696F6E 		.ascii	"tions -fno-common\000"
 1761      73202D66 
 1761      6E6F2D63 
 1761      6F6D6D6F 
 1761      6E00
 1762              	.LASF0:
 1763 02f9 7369676E 		.ascii	"signed char\000"
 1763      65642063 
 1763      68617200 
 1764              	.LASF52:
 1765 0305 45585449 		.ascii	"EXTI_ClearITPendingBit\000"
 1765      5F436C65 
 1765      61724954 
 1765      50656E64 
 1765      696E6742 
 1766              	.LASF9:
 1767 031c 6C6F6E67 		.ascii	"long long unsigned int\000"
 1767      206C6F6E 
 1767      6720756E 
 1767      7369676E 
 1767      65642069 
 1768              	.LASF12:
 1769 0333 75696E74 		.ascii	"uint32_t\000"
 1769      33325F74 
 1769      00
 1770              	.LASF38:
 1771 033c 45585449 		.ascii	"EXTI_Line\000"
 1771      5F4C696E 
 1771      6500
 1772              	.LASF10:
 1773 0346 756E7369 		.ascii	"unsigned int\000"
 1773      676E6564 
 1773      20696E74 
 1773      00
 1774              	.LASF21:
 1775 0353 46545352 		.ascii	"FTSR\000"
 1775      00
 1776              	.LASF3:
 1777 0358 73686F72 		.ascii	"short unsigned int\000"
 1777      7420756E 
 1777      7369676E 
 1777      65642069 
 1777      6E7400
 1778              	.LASF11:
 1779 036b 696E7433 		.ascii	"int32_t\000"
 1779      325F7400 
 1780              	.LASF41:
 1781 0373 45585449 		.ascii	"EXTI_LineCmd\000"
 1781      5F4C696E 
 1781      65436D64 
 1781      00
 1782              	.LASF20:
 1783 0380 52545352 		.ascii	"RTSR\000"
 1783      00
 1784              	.LASF26:
ARM GAS  /tmp/cc6n0OG9.s 			page 35


 1785 0385 454D5232 		.ascii	"EMR2\000"
 1785      00
 1786              	.LASF23:
 1787 038a 52455345 		.ascii	"RESERVED1\000"
 1787      52564544 
 1787      3100
 1788              	.LASF24:
 1789 0394 52455345 		.ascii	"RESERVED2\000"
 1789      52564544 
 1789      3200
 1790              	.LASF7:
 1791 039e 6C6F6E67 		.ascii	"long unsigned int\000"
 1791      20756E73 
 1791      69676E65 
 1791      6420696E 
 1791      7400
 1792              	.LASF25:
 1793 03b0 494D5232 		.ascii	"IMR2\000"
 1793      00
 1794              	.LASF19:
 1795 03b5 46756E63 		.ascii	"FunctionalState\000"
 1795      74696F6E 
 1795      616C5374 
 1795      61746500 
 1796              	.LASF5:
 1797 03c5 5F5F696E 		.ascii	"__int32_t\000"
 1797      7433325F 
 1797      7400
 1798              	.LASF14:
 1799 03cf 52455345 		.ascii	"RESET\000"
 1799      5400
 1800              	.LASF45:
 1801 03d5 45585449 		.ascii	"EXTI_InitStruct\000"
 1801      5F496E69 
 1801      74537472 
 1801      75637400 
 1802              	.LASF28:
 1803 03e5 46545352 		.ascii	"FTSR2\000"
 1803      3200
 1804              	.LASF43:
 1805 03eb 45585449 		.ascii	"EXTI_Init\000"
 1805      5F496E69 
 1805      7400
 1806              	.LASF35:
 1807 03f5 45585449 		.ascii	"EXTI_Trigger_Falling\000"
 1807      5F547269 
 1807      67676572 
 1807      5F46616C 
 1807      6C696E67 
 1808              	.LASF57:
 1809 040a 49544D5F 		.ascii	"ITM_RxBuffer\000"
 1809      52784275 
 1809      66666572 
 1809      00
 1810              	.LASF36:
 1811 0417 45585449 		.ascii	"EXTI_Trigger_Rising_Falling\000"
 1811      5F547269 
ARM GAS  /tmp/cc6n0OG9.s 			page 36


 1811      67676572 
 1811      5F526973 
 1811      696E675F 
 1812              	.LASF18:
 1813 0433 454E4142 		.ascii	"ENABLE\000"
 1813      4C4500
 1814              	.LASF40:
 1815 043a 45585449 		.ascii	"EXTI_Trigger\000"
 1815      5F547269 
 1815      67676572 
 1815      00
 1816              	.LASF22:
 1817 0447 53574945 		.ascii	"SWIER\000"
 1817      5200
 1818              		.ident	"GCC: (4.8.3-18ubuntu2+12) 4.8.3"
ARM GAS  /tmp/cc6n0OG9.s 			page 37


DEFINED SYMBOLS
                            *ABS*:0000000000000000 stm32f30x_exti.c
     /tmp/cc6n0OG9.s:20     .text.EXTI_DeInit:0000000000000000 $t
     /tmp/cc6n0OG9.s:26     .text.EXTI_DeInit:0000000000000000 EXTI_DeInit
     /tmp/cc6n0OG9.s:81     .text.EXTI_DeInit:0000000000000030 $d
     /tmp/cc6n0OG9.s:86     .text.EXTI_Init:0000000000000000 $t
     /tmp/cc6n0OG9.s:92     .text.EXTI_Init:0000000000000000 EXTI_Init
     /tmp/cc6n0OG9.s:242    .text.EXTI_Init:0000000000000110 $d
     /tmp/cc6n0OG9.s:249    .text.EXTI_StructInit:0000000000000000 $t
     /tmp/cc6n0OG9.s:255    .text.EXTI_StructInit:0000000000000000 EXTI_StructInit
     /tmp/cc6n0OG9.s:279    .text.EXTI_GenerateSWInterrupt:0000000000000000 $t
     /tmp/cc6n0OG9.s:285    .text.EXTI_GenerateSWInterrupt:0000000000000000 EXTI_GenerateSWInterrupt
     /tmp/cc6n0OG9.s:314    .text.EXTI_GenerateSWInterrupt:0000000000000020 $d
     /tmp/cc6n0OG9.s:319    .text.EXTI_GetFlagStatus:0000000000000000 $t
     /tmp/cc6n0OG9.s:325    .text.EXTI_GetFlagStatus:0000000000000000 EXTI_GetFlagStatus
     /tmp/cc6n0OG9.s:351    .text.EXTI_GetFlagStatus:000000000000001c $d
     /tmp/cc6n0OG9.s:356    .text.EXTI_ClearFlag:0000000000000000 $t
     /tmp/cc6n0OG9.s:362    .text.EXTI_ClearFlag:0000000000000000 EXTI_ClearFlag
     /tmp/cc6n0OG9.s:382    .text.EXTI_ClearFlag:0000000000000014 $d
     /tmp/cc6n0OG9.s:387    .text.EXTI_GetITStatus:0000000000000000 $t
     /tmp/cc6n0OG9.s:393    .text.EXTI_GetITStatus:0000000000000000 EXTI_GetITStatus
     /tmp/cc6n0OG9.s:438    .text.EXTI_ClearITPendingBit:0000000000000000 $t
     /tmp/cc6n0OG9.s:444    .text.EXTI_ClearITPendingBit:0000000000000000 EXTI_ClearITPendingBit
     /tmp/cc6n0OG9.s:464    .text.EXTI_ClearITPendingBit:0000000000000014 $d
                     .debug_frame:0000000000000010 $d
     /tmp/cc6n0OG9.s:85     .text.EXTI_DeInit:0000000000000034 $t
     /tmp/cc6n0OG9.s:248    .text.EXTI_Init:000000000000011c $t
     /tmp/cc6n0OG9.s:318    .text.EXTI_GenerateSWInterrupt:0000000000000024 $t
     /tmp/cc6n0OG9.s:386    .text.EXTI_ClearFlag:0000000000000018 $t
     /tmp/cc6n0OG9.s:468    .text.EXTI_ClearITPendingBit:0000000000000018 $t

NO UNDEFINED SYMBOLS
