ARM GAS  /tmp/ccDBHEZJ.s 			page 1


   1              		.syntax unified
   2              		.cpu cortex-m4
   3              		.eabi_attribute 27, 3
   4              		.fpu fpv4-sp-d16
   5              		.eabi_attribute 20, 1
   6              		.eabi_attribute 21, 1
   7              		.eabi_attribute 23, 3
   8              		.eabi_attribute 24, 1
   9              		.eabi_attribute 25, 1
  10              		.eabi_attribute 26, 1
  11              		.eabi_attribute 30, 2
  12              		.eabi_attribute 34, 1
  13              		.eabi_attribute 18, 4
  14              		.thumb
  15              		.file	"stm32f30x_crc.c"
  16              		.text
  17              	.Ltext0:
  18              		.cfi_sections	.debug_frame
  19              		.section	.text.CRC_DeInit,"ax",%progbits
  20              		.align	2
  21              		.p2align 4,,15
  22              		.global	CRC_DeInit
  23              		.thumb
  24              		.thumb_func
  25              		.type	CRC_DeInit, %function
  26              	CRC_DeInit:
  27              	.LFB111:
  28              		.file 1 "../../../../ext/stm32lib/src/stm32f30x_crc.c"
  29              		.loc 1 96 0
  30              		.cfi_startproc
  31              		@ args = 0, pretend = 0, frame = 0
  32              		@ frame_needed = 0, uses_anonymous_args = 0
  33              		@ link register save eliminated.
  34              		.loc 1 98 0
  35 0000 074B     		ldr	r3, .L2
  36              		.loc 1 96 0
  37 0002 10B4     		push	{r4}
  38              		.cfi_def_cfa_offset 4
  39              		.cfi_offset 4, -4
  40              		.loc 1 98 0
  41 0004 4FF0FF32 		mov	r2, #-1
  42              		.loc 1 100 0
  43 0008 064C     		ldr	r4, .L2+4
  44              		.loc 1 98 0
  45 000a 1A60     		str	r2, [r3]
  46              		.loc 1 102 0
  47 000c 0020     		movs	r0, #0
  48              		.loc 1 100 0
  49 000e 5C61     		str	r4, [r3, #20]
  50              		.loc 1 106 0
  51 0010 0121     		movs	r1, #1
  52              		.loc 1 102 0
  53 0012 1871     		strb	r0, [r3, #4]
  54              		.loc 1 107 0
  55 0014 5DF8044B 		ldr	r4, [sp], #4
  56              		.loc 1 104 0
  57 0018 1A61     		str	r2, [r3, #16]
ARM GAS  /tmp/ccDBHEZJ.s 			page 2


  58              		.loc 1 106 0
  59 001a 9960     		str	r1, [r3, #8]
  60              		.loc 1 107 0
  61 001c 7047     		bx	lr
  62              	.L3:
  63 001e 00BF     		.align	2
  64              	.L2:
  65 0020 00300240 		.word	1073885184
  66 0024 B71DC104 		.word	79764919
  67              		.cfi_endproc
  68              	.LFE111:
  69              		.size	CRC_DeInit, .-CRC_DeInit
  70 0028 AFF30080 		.section	.text.CRC_ResetDR,"ax",%progbits
  70      AFF30080 
  71              		.align	2
  72              		.p2align 4,,15
  73              		.global	CRC_ResetDR
  74              		.thumb
  75              		.thumb_func
  76              		.type	CRC_ResetDR, %function
  77              	CRC_ResetDR:
  78              	.LFB112:
  79              		.loc 1 115 0
  80              		.cfi_startproc
  81              		@ args = 0, pretend = 0, frame = 0
  82              		@ frame_needed = 0, uses_anonymous_args = 0
  83              		@ link register save eliminated.
  84              		.loc 1 117 0
  85 0000 024B     		ldr	r3, .L5
  86 0002 9A68     		ldr	r2, [r3, #8]
  87 0004 42F00102 		orr	r2, r2, #1
  88 0008 9A60     		str	r2, [r3, #8]
  89 000a 7047     		bx	lr
  90              	.L6:
  91              		.align	2
  92              	.L5:
  93 000c 00300240 		.word	1073885184
  94              		.cfi_endproc
  95              	.LFE112:
  96              		.size	CRC_ResetDR, .-CRC_ResetDR
  97              		.section	.text.CRC_PolynomialSizeSelect,"ax",%progbits
  98              		.align	2
  99              		.p2align 4,,15
 100              		.global	CRC_PolynomialSizeSelect
 101              		.thumb
 102              		.thumb_func
 103              		.type	CRC_PolynomialSizeSelect, %function
 104              	CRC_PolynomialSizeSelect:
 105              	.LFB113:
 106              		.loc 1 131 0
 107              		.cfi_startproc
 108              		@ args = 0, pretend = 0, frame = 0
 109              		@ frame_needed = 0, uses_anonymous_args = 0
 110              		@ link register save eliminated.
 111              	.LVL0:
 112              		.loc 1 138 0
 113 0000 034B     		ldr	r3, .L8
ARM GAS  /tmp/ccDBHEZJ.s 			page 3


 114 0002 9A68     		ldr	r2, [r3, #8]
 115              	.LVL1:
 116              		.loc 1 141 0
 117 0004 22F01802 		bic	r2, r2, #24
 118              	.LVL2:
 119              		.loc 1 143 0
 120 0008 1043     		orrs	r0, r0, r2
 121              	.LVL3:
 122              		.loc 1 146 0
 123 000a 9860     		str	r0, [r3, #8]
 124 000c 7047     		bx	lr
 125              	.L9:
 126 000e 00BF     		.align	2
 127              	.L8:
 128 0010 00300240 		.word	1073885184
 129              		.cfi_endproc
 130              	.LFE113:
 131              		.size	CRC_PolynomialSizeSelect, .-CRC_PolynomialSizeSelect
 132 0014 AFF30080 		.section	.text.CRC_ReverseInputDataSelect,"ax",%progbits
 132      AFF30080 
 132      AFF30080 
 133              		.align	2
 134              		.p2align 4,,15
 135              		.global	CRC_ReverseInputDataSelect
 136              		.thumb
 137              		.thumb_func
 138              		.type	CRC_ReverseInputDataSelect, %function
 139              	CRC_ReverseInputDataSelect:
 140              	.LFB114:
 141              		.loc 1 160 0
 142              		.cfi_startproc
 143              		@ args = 0, pretend = 0, frame = 0
 144              		@ frame_needed = 0, uses_anonymous_args = 0
 145              		@ link register save eliminated.
 146              	.LVL4:
 147              		.loc 1 167 0
 148 0000 034B     		ldr	r3, .L11
 149 0002 9A68     		ldr	r2, [r3, #8]
 150              	.LVL5:
 151              		.loc 1 170 0
 152 0004 22F06002 		bic	r2, r2, #96
 153              	.LVL6:
 154              		.loc 1 172 0
 155 0008 1043     		orrs	r0, r0, r2
 156              	.LVL7:
 157              		.loc 1 175 0
 158 000a 9860     		str	r0, [r3, #8]
 159 000c 7047     		bx	lr
 160              	.L12:
 161 000e 00BF     		.align	2
 162              	.L11:
 163 0010 00300240 		.word	1073885184
 164              		.cfi_endproc
 165              	.LFE114:
 166              		.size	CRC_ReverseInputDataSelect, .-CRC_ReverseInputDataSelect
 167 0014 AFF30080 		.section	.text.CRC_ReverseOutputDataCmd,"ax",%progbits
 167      AFF30080 
ARM GAS  /tmp/ccDBHEZJ.s 			page 4


 167      AFF30080 
 168              		.align	2
 169              		.p2align 4,,15
 170              		.global	CRC_ReverseOutputDataCmd
 171              		.thumb
 172              		.thumb_func
 173              		.type	CRC_ReverseOutputDataCmd, %function
 174              	CRC_ReverseOutputDataCmd:
 175              	.LFB115:
 176              		.loc 1 186 0
 177              		.cfi_startproc
 178              		@ args = 0, pretend = 0, frame = 0
 179              		@ frame_needed = 0, uses_anonymous_args = 0
 180              		@ link register save eliminated.
 181              	.LVL8:
 182              		.loc 1 193 0
 183 0000 054B     		ldr	r3, .L18
 184 0002 9A68     		ldr	r2, [r3, #8]
 185              		.loc 1 190 0
 186 0004 18B9     		cbnz	r0, .L17
 187              		.loc 1 198 0
 188 0006 22F08002 		bic	r2, r2, #128
 189 000a 9A60     		str	r2, [r3, #8]
 190 000c 7047     		bx	lr
 191              	.L17:
 192              		.loc 1 193 0
 193 000e 42F08002 		orr	r2, r2, #128
 194 0012 9A60     		str	r2, [r3, #8]
 195 0014 7047     		bx	lr
 196              	.L19:
 197 0016 00BF     		.align	2
 198              	.L18:
 199 0018 00300240 		.word	1073885184
 200              		.cfi_endproc
 201              	.LFE115:
 202              		.size	CRC_ReverseOutputDataCmd, .-CRC_ReverseOutputDataCmd
 203 001c AFF30080 		.section	.text.CRC_SetInitRegister,"ax",%progbits
 204              		.align	2
 205              		.p2align 4,,15
 206              		.global	CRC_SetInitRegister
 207              		.thumb
 208              		.thumb_func
 209              		.type	CRC_SetInitRegister, %function
 210              	CRC_SetInitRegister:
 211              	.LFB116:
 212              		.loc 1 209 0
 213              		.cfi_startproc
 214              		@ args = 0, pretend = 0, frame = 0
 215              		@ frame_needed = 0, uses_anonymous_args = 0
 216              		@ link register save eliminated.
 217              	.LVL9:
 218              		.loc 1 210 0
 219 0000 014B     		ldr	r3, .L21
 220 0002 1861     		str	r0, [r3, #16]
 221 0004 7047     		bx	lr
 222              	.L22:
 223 0006 00BF     		.align	2
ARM GAS  /tmp/ccDBHEZJ.s 			page 5


 224              	.L21:
 225 0008 00300240 		.word	1073885184
 226              		.cfi_endproc
 227              	.LFE116:
 228              		.size	CRC_SetInitRegister, .-CRC_SetInitRegister
 229 000c AFF30080 		.section	.text.CRC_SetPolynomial,"ax",%progbits
 230              		.align	2
 231              		.p2align 4,,15
 232              		.global	CRC_SetPolynomial
 233              		.thumb
 234              		.thumb_func
 235              		.type	CRC_SetPolynomial, %function
 236              	CRC_SetPolynomial:
 237              	.LFB117:
 238              		.loc 1 219 0
 239              		.cfi_startproc
 240              		@ args = 0, pretend = 0, frame = 0
 241              		@ frame_needed = 0, uses_anonymous_args = 0
 242              		@ link register save eliminated.
 243              	.LVL10:
 244              		.loc 1 220 0
 245 0000 014B     		ldr	r3, .L24
 246 0002 5861     		str	r0, [r3, #20]
 247 0004 7047     		bx	lr
 248              	.L25:
 249 0006 00BF     		.align	2
 250              	.L24:
 251 0008 00300240 		.word	1073885184
 252              		.cfi_endproc
 253              	.LFE117:
 254              		.size	CRC_SetPolynomial, .-CRC_SetPolynomial
 255 000c AFF30080 		.section	.text.CRC_CalcCRC,"ax",%progbits
 256              		.align	2
 257              		.p2align 4,,15
 258              		.global	CRC_CalcCRC
 259              		.thumb
 260              		.thumb_func
 261              		.type	CRC_CalcCRC, %function
 262              	CRC_CalcCRC:
 263              	.LFB118:
 264              		.loc 1 245 0
 265              		.cfi_startproc
 266              		@ args = 0, pretend = 0, frame = 0
 267              		@ frame_needed = 0, uses_anonymous_args = 0
 268              		@ link register save eliminated.
 269              	.LVL11:
 270              		.loc 1 246 0
 271 0000 014B     		ldr	r3, .L27
 272 0002 1860     		str	r0, [r3]
 273              		.loc 1 248 0
 274 0004 1868     		ldr	r0, [r3]
 275              	.LVL12:
 276              		.loc 1 249 0
 277 0006 7047     		bx	lr
 278              	.L28:
 279              		.align	2
 280              	.L27:
ARM GAS  /tmp/ccDBHEZJ.s 			page 6


 281 0008 00300240 		.word	1073885184
 282              		.cfi_endproc
 283              	.LFE118:
 284              		.size	CRC_CalcCRC, .-CRC_CalcCRC
 285 000c AFF30080 		.section	.text.CRC_CalcCRC16bits,"ax",%progbits
 286              		.align	2
 287              		.p2align 4,,15
 288              		.global	CRC_CalcCRC16bits
 289              		.thumb
 290              		.thumb_func
 291              		.type	CRC_CalcCRC16bits, %function
 292              	CRC_CalcCRC16bits:
 293              	.LFB119:
 294              		.loc 1 257 0
 295              		.cfi_startproc
 296              		@ args = 0, pretend = 0, frame = 0
 297              		@ frame_needed = 0, uses_anonymous_args = 0
 298              		@ link register save eliminated.
 299              	.LVL13:
 300              		.loc 1 258 0
 301 0000 014B     		ldr	r3, .L30
 302 0002 1880     		strh	r0, [r3]	@ movhi
 303              		.loc 1 260 0
 304 0004 1868     		ldr	r0, [r3]
 305              	.LVL14:
 306              		.loc 1 261 0
 307 0006 7047     		bx	lr
 308              	.L31:
 309              		.align	2
 310              	.L30:
 311 0008 00300240 		.word	1073885184
 312              		.cfi_endproc
 313              	.LFE119:
 314              		.size	CRC_CalcCRC16bits, .-CRC_CalcCRC16bits
 315 000c AFF30080 		.section	.text.CRC_CalcCRC8bits,"ax",%progbits
 316              		.align	2
 317              		.p2align 4,,15
 318              		.global	CRC_CalcCRC8bits
 319              		.thumb
 320              		.thumb_func
 321              		.type	CRC_CalcCRC8bits, %function
 322              	CRC_CalcCRC8bits:
 323              	.LFB120:
 324              		.loc 1 269 0
 325              		.cfi_startproc
 326              		@ args = 0, pretend = 0, frame = 0
 327              		@ frame_needed = 0, uses_anonymous_args = 0
 328              		@ link register save eliminated.
 329              	.LVL15:
 330              		.loc 1 270 0
 331 0000 014B     		ldr	r3, .L33
 332 0002 1870     		strb	r0, [r3]
 333              		.loc 1 272 0
 334 0004 1868     		ldr	r0, [r3]
 335              	.LVL16:
 336              		.loc 1 273 0
 337 0006 7047     		bx	lr
ARM GAS  /tmp/ccDBHEZJ.s 			page 7


 338              	.L34:
 339              		.align	2
 340              	.L33:
 341 0008 00300240 		.word	1073885184
 342              		.cfi_endproc
 343              	.LFE120:
 344              		.size	CRC_CalcCRC8bits, .-CRC_CalcCRC8bits
 345 000c AFF30080 		.section	.text.CRC_CalcBlockCRC,"ax",%progbits
 346              		.align	2
 347              		.p2align 4,,15
 348              		.global	CRC_CalcBlockCRC
 349              		.thumb
 350              		.thumb_func
 351              		.type	CRC_CalcBlockCRC, %function
 352              	CRC_CalcBlockCRC:
 353              	.LFB121:
 354              		.loc 1 282 0
 355              		.cfi_startproc
 356              		@ args = 0, pretend = 0, frame = 0
 357              		@ frame_needed = 0, uses_anonymous_args = 0
 358              		@ link register save eliminated.
 359              	.LVL17:
 360              		.loc 1 285 0
 361 0000 39B1     		cbz	r1, .L37
 362              		.loc 1 287 0
 363 0002 054A     		ldr	r2, .L41
 364 0004 00EB8101 		add	r1, r0, r1, lsl #2
 365              	.LVL18:
 366              	.L38:
 367              		.loc 1 287 0 is_stmt 0 discriminator 2
 368 0008 50F8043B 		ldr	r3, [r0], #4
 369 000c 1360     		str	r3, [r2]
 370              		.loc 1 285 0 is_stmt 1 discriminator 2
 371 000e 8842     		cmp	r0, r1
 372 0010 FAD1     		bne	.L38
 373              	.L37:
 374              		.loc 1 289 0
 375 0012 014B     		ldr	r3, .L41
 376 0014 1868     		ldr	r0, [r3]
 377 0016 7047     		bx	lr
 378              	.L42:
 379              		.align	2
 380              	.L41:
 381 0018 00300240 		.word	1073885184
 382              		.cfi_endproc
 383              	.LFE121:
 384              		.size	CRC_CalcBlockCRC, .-CRC_CalcBlockCRC
 385 001c AFF30080 		.section	.text.CRC_GetCRC,"ax",%progbits
 386              		.align	2
 387              		.p2align 4,,15
 388              		.global	CRC_GetCRC
 389              		.thumb
 390              		.thumb_func
 391              		.type	CRC_GetCRC, %function
 392              	CRC_GetCRC:
 393              	.LFB122:
 394              		.loc 1 298 0
ARM GAS  /tmp/ccDBHEZJ.s 			page 8


 395              		.cfi_startproc
 396              		@ args = 0, pretend = 0, frame = 0
 397              		@ frame_needed = 0, uses_anonymous_args = 0
 398              		@ link register save eliminated.
 399              		.loc 1 299 0
 400 0000 014B     		ldr	r3, .L44
 401 0002 1868     		ldr	r0, [r3]
 402              		.loc 1 300 0
 403 0004 7047     		bx	lr
 404              	.L45:
 405 0006 00BF     		.align	2
 406              	.L44:
 407 0008 00300240 		.word	1073885184
 408              		.cfi_endproc
 409              	.LFE122:
 410              		.size	CRC_GetCRC, .-CRC_GetCRC
 411 000c AFF30080 		.section	.text.CRC_SetIDRegister,"ax",%progbits
 412              		.align	2
 413              		.p2align 4,,15
 414              		.global	CRC_SetIDRegister
 415              		.thumb
 416              		.thumb_func
 417              		.type	CRC_SetIDRegister, %function
 418              	CRC_SetIDRegister:
 419              	.LFB123:
 420              		.loc 1 324 0
 421              		.cfi_startproc
 422              		@ args = 0, pretend = 0, frame = 0
 423              		@ frame_needed = 0, uses_anonymous_args = 0
 424              		@ link register save eliminated.
 425              	.LVL19:
 426              		.loc 1 325 0
 427 0000 014B     		ldr	r3, .L47
 428 0002 1871     		strb	r0, [r3, #4]
 429 0004 7047     		bx	lr
 430              	.L48:
 431 0006 00BF     		.align	2
 432              	.L47:
 433 0008 00300240 		.word	1073885184
 434              		.cfi_endproc
 435              	.LFE123:
 436              		.size	CRC_SetIDRegister, .-CRC_SetIDRegister
 437 000c AFF30080 		.section	.text.CRC_GetIDRegister,"ax",%progbits
 438              		.align	2
 439              		.p2align 4,,15
 440              		.global	CRC_GetIDRegister
 441              		.thumb
 442              		.thumb_func
 443              		.type	CRC_GetIDRegister, %function
 444              	CRC_GetIDRegister:
 445              	.LFB124:
 446              		.loc 1 334 0
 447              		.cfi_startproc
 448              		@ args = 0, pretend = 0, frame = 0
 449              		@ frame_needed = 0, uses_anonymous_args = 0
 450              		@ link register save eliminated.
 451              		.loc 1 335 0
ARM GAS  /tmp/ccDBHEZJ.s 			page 9


 452 0000 014B     		ldr	r3, .L50
 453 0002 1879     		ldrb	r0, [r3, #4]	@ zero_extendqisi2
 454              		.loc 1 336 0
 455 0004 7047     		bx	lr
 456              	.L51:
 457 0006 00BF     		.align	2
 458              	.L50:
 459 0008 00300240 		.word	1073885184
 460              		.cfi_endproc
 461              	.LFE124:
 462              		.size	CRC_GetIDRegister, .-CRC_GetIDRegister
 463 000c AFF30080 		.text
 464              	.Letext0:
 465              		.file 2 "/usr/include/newlib/machine/_default_types.h"
 466              		.file 3 "/usr/include/newlib/stdint.h"
 467              		.file 4 "../../../../os/hal/platforms/STM32F30x/stm32f30x.h"
 468              		.file 5 "../../../../os/ports/common/ARMCMx/CMSIS/include/core_cm4.h"
 469              		.section	.debug_info,"",%progbits
 470              	.Ldebug_info0:
 471 0000 94030000 		.4byte	0x394
 472 0004 0400     		.2byte	0x4
 473 0006 00000000 		.4byte	.Ldebug_abbrev0
 474 000a 04       		.byte	0x4
 475 000b 01       		.uleb128 0x1
 476 000c 2A030000 		.4byte	.LASF51
 477 0010 01       		.byte	0x1
 478 0011 9C000000 		.4byte	.LASF52
 479 0015 A9010000 		.4byte	.LASF53
 480 0019 00000000 		.4byte	.Ldebug_ranges0+0
 481 001d 00000000 		.4byte	0
 482 0021 00000000 		.4byte	.Ldebug_line0
 483 0025 02       		.uleb128 0x2
 484 0026 01       		.byte	0x1
 485 0027 06       		.byte	0x6
 486 0028 5A020000 		.4byte	.LASF0
 487 002c 03       		.uleb128 0x3
 488 002d 11000000 		.4byte	.LASF3
 489 0031 02       		.byte	0x2
 490 0032 1D       		.byte	0x1d
 491 0033 37000000 		.4byte	0x37
 492 0037 02       		.uleb128 0x2
 493 0038 01       		.byte	0x1
 494 0039 08       		.byte	0x8
 495 003a EB000000 		.4byte	.LASF1
 496 003e 02       		.uleb128 0x2
 497 003f 02       		.byte	0x2
 498 0040 05       		.byte	0x5
 499 0041 BA020000 		.4byte	.LASF2
 500 0045 03       		.uleb128 0x3
 501 0046 4F010000 		.4byte	.LASF4
 502 004a 02       		.byte	0x2
 503 004b 2B       		.byte	0x2b
 504 004c 50000000 		.4byte	0x50
 505 0050 02       		.uleb128 0x2
 506 0051 02       		.byte	0x2
 507 0052 07       		.byte	0x7
 508 0053 39000000 		.4byte	.LASF5
ARM GAS  /tmp/ccDBHEZJ.s 			page 10


 509 0057 03       		.uleb128 0x3
 510 0058 2F000000 		.4byte	.LASF6
 511 005c 02       		.byte	0x2
 512 005d 3F       		.byte	0x3f
 513 005e 62000000 		.4byte	0x62
 514 0062 02       		.uleb128 0x2
 515 0063 04       		.byte	0x4
 516 0064 05       		.byte	0x5
 517 0065 03030000 		.4byte	.LASF7
 518 0069 03       		.uleb128 0x3
 519 006a 7C010000 		.4byte	.LASF8
 520 006e 02       		.byte	0x2
 521 006f 41       		.byte	0x41
 522 0070 74000000 		.4byte	0x74
 523 0074 02       		.uleb128 0x2
 524 0075 04       		.byte	0x4
 525 0076 07       		.byte	0x7
 526 0077 07010000 		.4byte	.LASF9
 527 007b 02       		.uleb128 0x2
 528 007c 08       		.byte	0x8
 529 007d 05       		.byte	0x5
 530 007e 77020000 		.4byte	.LASF10
 531 0082 02       		.uleb128 0x2
 532 0083 08       		.byte	0x8
 533 0084 07       		.byte	0x7
 534 0085 33020000 		.4byte	.LASF11
 535 0089 04       		.uleb128 0x4
 536 008a 04       		.byte	0x4
 537 008b 05       		.byte	0x5
 538 008c 696E7400 		.ascii	"int\000"
 539 0090 02       		.uleb128 0x2
 540 0091 04       		.byte	0x4
 541 0092 07       		.byte	0x7
 542 0093 26020000 		.4byte	.LASF12
 543 0097 03       		.uleb128 0x3
 544 0098 4A020000 		.4byte	.LASF13
 545 009c 03       		.byte	0x3
 546 009d 2A       		.byte	0x2a
 547 009e 2C000000 		.4byte	0x2c
 548 00a2 03       		.uleb128 0x3
 549 00a3 A5020000 		.4byte	.LASF14
 550 00a7 03       		.byte	0x3
 551 00a8 36       		.byte	0x36
 552 00a9 45000000 		.4byte	0x45
 553 00ad 03       		.uleb128 0x3
 554 00ae 66020000 		.4byte	.LASF15
 555 00b2 03       		.byte	0x3
 556 00b3 41       		.byte	0x41
 557 00b4 57000000 		.4byte	0x57
 558 00b8 03       		.uleb128 0x3
 559 00b9 FA020000 		.4byte	.LASF16
 560 00bd 03       		.byte	0x3
 561 00be 42       		.byte	0x42
 562 00bf 69000000 		.4byte	0x69
 563 00c3 02       		.uleb128 0x2
 564 00c4 04       		.byte	0x4
 565 00c5 07       		.byte	0x7
ARM GAS  /tmp/ccDBHEZJ.s 			page 11


 566 00c6 6E020000 		.4byte	.LASF17
 567 00ca 05       		.uleb128 0x5
 568 00cb B8000000 		.4byte	0xb8
 569 00cf 05       		.uleb128 0x5
 570 00d0 97000000 		.4byte	0x97
 571 00d4 05       		.uleb128 0x5
 572 00d5 AD000000 		.4byte	0xad
 573 00d9 06       		.uleb128 0x6
 574 00da 01       		.byte	0x1
 575 00db 04       		.byte	0x4
 576 00dc 2401     		.2byte	0x124
 577 00de EF000000 		.4byte	0xef
 578 00e2 07       		.uleb128 0x7
 579 00e3 2E010000 		.4byte	.LASF18
 580 00e7 00       		.sleb128 0
 581 00e8 07       		.uleb128 0x7
 582 00e9 E4000000 		.4byte	.LASF19
 583 00ed 01       		.sleb128 1
 584 00ee 00       		.byte	0
 585 00ef 08       		.uleb128 0x8
 586 00f0 57000000 		.4byte	.LASF20
 587 00f4 04       		.byte	0x4
 588 00f5 2401     		.2byte	0x124
 589 00f7 D9000000 		.4byte	0xd9
 590 00fb 09       		.uleb128 0x9
 591 00fc 18       		.byte	0x18
 592 00fd 04       		.byte	0x4
 593 00fe B301     		.2byte	0x1b3
 594 0100 6B010000 		.4byte	0x16b
 595 0104 0A       		.uleb128 0xa
 596 0105 445200   		.ascii	"DR\000"
 597 0108 04       		.byte	0x4
 598 0109 B501     		.2byte	0x1b5
 599 010b CA000000 		.4byte	0xca
 600 010f 00       		.byte	0
 601 0110 0A       		.uleb128 0xa
 602 0111 49445200 		.ascii	"IDR\000"
 603 0115 04       		.byte	0x4
 604 0116 B601     		.2byte	0x1b6
 605 0118 CF000000 		.4byte	0xcf
 606 011c 04       		.byte	0x4
 607 011d 0B       		.uleb128 0xb
 608 011e 72000000 		.4byte	.LASF21
 609 0122 04       		.byte	0x4
 610 0123 B701     		.2byte	0x1b7
 611 0125 97000000 		.4byte	0x97
 612 0129 05       		.byte	0x5
 613 012a 0B       		.uleb128 0xb
 614 012b 7C000000 		.4byte	.LASF22
 615 012f 04       		.byte	0x4
 616 0130 B801     		.2byte	0x1b8
 617 0132 A2000000 		.4byte	0xa2
 618 0136 06       		.byte	0x6
 619 0137 0A       		.uleb128 0xa
 620 0138 435200   		.ascii	"CR\000"
 621 013b 04       		.byte	0x4
 622 013c B901     		.2byte	0x1b9
ARM GAS  /tmp/ccDBHEZJ.s 			page 12


 623 013e CA000000 		.4byte	0xca
 624 0142 08       		.byte	0x8
 625 0143 0B       		.uleb128 0xb
 626 0144 86000000 		.4byte	.LASF23
 627 0148 04       		.byte	0x4
 628 0149 BA01     		.2byte	0x1ba
 629 014b B8000000 		.4byte	0xb8
 630 014f 0C       		.byte	0xc
 631 0150 0B       		.uleb128 0xb
 632 0151 52000000 		.4byte	.LASF24
 633 0155 04       		.byte	0x4
 634 0156 BB01     		.2byte	0x1bb
 635 0158 CA000000 		.4byte	0xca
 636 015c 10       		.byte	0x10
 637 015d 0A       		.uleb128 0xa
 638 015e 504F4C00 		.ascii	"POL\000"
 639 0162 04       		.byte	0x4
 640 0163 BC01     		.2byte	0x1bc
 641 0165 CA000000 		.4byte	0xca
 642 0169 14       		.byte	0x14
 643 016a 00       		.byte	0
 644 016b 08       		.uleb128 0x8
 645 016c 43010000 		.4byte	.LASF25
 646 0170 04       		.byte	0x4
 647 0171 BD01     		.2byte	0x1bd
 648 0173 FB000000 		.4byte	0xfb
 649 0177 0C       		.uleb128 0xc
 650 0178 C4020000 		.4byte	.LASF26
 651 017c 01       		.byte	0x1
 652 017d 5F       		.byte	0x5f
 653 017e 00000000 		.4byte	.LFB111
 654 0182 28000000 		.4byte	.LFE111-.LFB111
 655 0186 01       		.uleb128 0x1
 656 0187 9C       		.byte	0x9c
 657 0188 0C       		.uleb128 0xc
 658 0189 22010000 		.4byte	.LASF27
 659 018d 01       		.byte	0x1
 660 018e 72       		.byte	0x72
 661 018f 00000000 		.4byte	.LFB112
 662 0193 10000000 		.4byte	.LFE112-.LFB112
 663 0197 01       		.uleb128 0x1
 664 0198 9C       		.byte	0x9c
 665 0199 0D       		.uleb128 0xd
 666 019a CF020000 		.4byte	.LASF28
 667 019e 01       		.byte	0x1
 668 019f 82       		.byte	0x82
 669 01a0 00000000 		.4byte	.LFB113
 670 01a4 14000000 		.4byte	.LFE113-.LFB113
 671 01a8 01       		.uleb128 0x1
 672 01a9 9C       		.byte	0x9c
 673 01aa CD010000 		.4byte	0x1cd
 674 01ae 0E       		.uleb128 0xe
 675 01af 1E030000 		.4byte	.LASF30
 676 01b3 01       		.byte	0x1
 677 01b4 82       		.byte	0x82
 678 01b5 B8000000 		.4byte	0xb8
 679 01b9 00000000 		.4byte	.LLST0
ARM GAS  /tmp/ccDBHEZJ.s 			page 13


 680 01bd 0F       		.uleb128 0xf
 681 01be 4C000000 		.4byte	.LASF32
 682 01c2 01       		.byte	0x1
 683 01c3 84       		.byte	0x84
 684 01c4 B8000000 		.4byte	0xb8
 685 01c8 21000000 		.4byte	.LLST1
 686 01cc 00       		.byte	0
 687 01cd 0D       		.uleb128 0xd
 688 01ce C9000000 		.4byte	.LASF29
 689 01d2 01       		.byte	0x1
 690 01d3 9F       		.byte	0x9f
 691 01d4 00000000 		.4byte	.LFB114
 692 01d8 14000000 		.4byte	.LFE114-.LFB114
 693 01dc 01       		.uleb128 0x1
 694 01dd 9C       		.byte	0x9c
 695 01de 01020000 		.4byte	0x201
 696 01e2 0E       		.uleb128 0xe
 697 01e3 94010000 		.4byte	.LASF31
 698 01e7 01       		.byte	0x1
 699 01e8 9F       		.byte	0x9f
 700 01e9 B8000000 		.4byte	0xb8
 701 01ed 4B000000 		.4byte	.LLST2
 702 01f1 0F       		.uleb128 0xf
 703 01f2 4C000000 		.4byte	.LASF32
 704 01f6 01       		.byte	0x1
 705 01f7 A1       		.byte	0xa1
 706 01f8 B8000000 		.4byte	0xb8
 707 01fc 6C000000 		.4byte	.LLST3
 708 0200 00       		.byte	0
 709 0201 0D       		.uleb128 0xd
 710 0202 5A010000 		.4byte	.LASF33
 711 0206 01       		.byte	0x1
 712 0207 B9       		.byte	0xb9
 713 0208 00000000 		.4byte	.LFB115
 714 020c 1C000000 		.4byte	.LFE115-.LFB115
 715 0210 01       		.uleb128 0x1
 716 0211 9C       		.byte	0x9c
 717 0212 24020000 		.4byte	0x224
 718 0216 10       		.uleb128 0x10
 719 0217 19010000 		.4byte	.LASF34
 720 021b 01       		.byte	0x1
 721 021c B9       		.byte	0xb9
 722 021d EF000000 		.4byte	0xef
 723 0221 01       		.uleb128 0x1
 724 0222 50       		.byte	0x50
 725 0223 00       		.byte	0
 726 0224 0D       		.uleb128 0xd
 727 0225 1B000000 		.4byte	.LASF35
 728 0229 01       		.byte	0x1
 729 022a D0       		.byte	0xd0
 730 022b 00000000 		.4byte	.LFB116
 731 022f 0C000000 		.4byte	.LFE116-.LFB116
 732 0233 01       		.uleb128 0x1
 733 0234 9C       		.byte	0x9c
 734 0235 47020000 		.4byte	0x247
 735 0239 10       		.uleb128 0x10
 736 023a F9000000 		.4byte	.LASF36
ARM GAS  /tmp/ccDBHEZJ.s 			page 14


 737 023e 01       		.byte	0x1
 738 023f D0       		.byte	0xd0
 739 0240 B8000000 		.4byte	0xb8
 740 0244 01       		.uleb128 0x1
 741 0245 50       		.byte	0x50
 742 0246 00       		.byte	0
 743 0247 0D       		.uleb128 0xd
 744 0248 E8020000 		.4byte	.LASF37
 745 024c 01       		.byte	0x1
 746 024d DA       		.byte	0xda
 747 024e 00000000 		.4byte	.LFB117
 748 0252 0C000000 		.4byte	.LFE117-.LFB117
 749 0256 01       		.uleb128 0x1
 750 0257 9C       		.byte	0x9c
 751 0258 6A020000 		.4byte	0x26a
 752 025c 10       		.uleb128 0x10
 753 025d 85020000 		.4byte	.LASF38
 754 0261 01       		.byte	0x1
 755 0262 DA       		.byte	0xda
 756 0263 B8000000 		.4byte	0xb8
 757 0267 01       		.uleb128 0x1
 758 0268 50       		.byte	0x50
 759 0269 00       		.byte	0
 760 026a 11       		.uleb128 0x11
 761 026b 90000000 		.4byte	.LASF40
 762 026f 01       		.byte	0x1
 763 0270 F4       		.byte	0xf4
 764 0271 B8000000 		.4byte	0xb8
 765 0275 00000000 		.4byte	.LFB118
 766 0279 0C000000 		.4byte	.LFE118-.LFB118
 767 027d 01       		.uleb128 0x1
 768 027e 9C       		.byte	0x9c
 769 027f 93020000 		.4byte	0x293
 770 0283 0E       		.uleb128 0xe
 771 0284 73010000 		.4byte	.LASF39
 772 0288 01       		.byte	0x1
 773 0289 F4       		.byte	0xf4
 774 028a B8000000 		.4byte	0xb8
 775 028e 96000000 		.4byte	.LLST4
 776 0292 00       		.byte	0
 777 0293 12       		.uleb128 0x12
 778 0294 0C030000 		.4byte	.LASF41
 779 0298 01       		.byte	0x1
 780 0299 0001     		.2byte	0x100
 781 029b B8000000 		.4byte	0xb8
 782 029f 00000000 		.4byte	.LFB119
 783 02a3 0C000000 		.4byte	.LFE119-.LFB119
 784 02a7 01       		.uleb128 0x1
 785 02a8 9C       		.byte	0x9c
 786 02a9 BE020000 		.4byte	0x2be
 787 02ad 13       		.uleb128 0x13
 788 02ae 73010000 		.4byte	.LASF39
 789 02b2 01       		.byte	0x1
 790 02b3 0001     		.2byte	0x100
 791 02b5 A2000000 		.4byte	0xa2
 792 02b9 B5000000 		.4byte	.LLST5
 793 02bd 00       		.byte	0
ARM GAS  /tmp/ccDBHEZJ.s 			page 15


 794 02be 12       		.uleb128 0x12
 795 02bf 1A040000 		.4byte	.LASF42
 796 02c3 01       		.byte	0x1
 797 02c4 0C01     		.2byte	0x10c
 798 02c6 B8000000 		.4byte	0xb8
 799 02ca 00000000 		.4byte	.LFB120
 800 02ce 0C000000 		.4byte	.LFE120-.LFB120
 801 02d2 01       		.uleb128 0x1
 802 02d3 9C       		.byte	0x9c
 803 02d4 E9020000 		.4byte	0x2e9
 804 02d8 13       		.uleb128 0x13
 805 02d9 73010000 		.4byte	.LASF39
 806 02dd 01       		.byte	0x1
 807 02de 0C01     		.2byte	0x10c
 808 02e0 97000000 		.4byte	0x97
 809 02e4 D4000000 		.4byte	.LLST6
 810 02e8 00       		.byte	0
 811 02e9 12       		.uleb128 0x12
 812 02ea 00000000 		.4byte	.LASF43
 813 02ee 01       		.byte	0x1
 814 02ef 1901     		.2byte	0x119
 815 02f1 B8000000 		.4byte	0xb8
 816 02f5 00000000 		.4byte	.LFB121
 817 02f9 1C000000 		.4byte	.LFE121-.LFB121
 818 02fd 01       		.uleb128 0x1
 819 02fe 9C       		.byte	0x9c
 820 02ff 34030000 		.4byte	0x334
 821 0303 13       		.uleb128 0x13
 822 0304 52020000 		.4byte	.LASF44
 823 0308 01       		.byte	0x1
 824 0309 1901     		.2byte	0x119
 825 030b 34030000 		.4byte	0x334
 826 030f F3000000 		.4byte	.LLST7
 827 0313 13       		.uleb128 0x13
 828 0314 87010000 		.4byte	.LASF45
 829 0318 01       		.byte	0x1
 830 0319 1901     		.2byte	0x119
 831 031b B8000000 		.4byte	0xb8
 832 031f 14010000 		.4byte	.LLST8
 833 0323 14       		.uleb128 0x14
 834 0324 8D020000 		.4byte	.LASF46
 835 0328 01       		.byte	0x1
 836 0329 1B01     		.2byte	0x11b
 837 032b B8000000 		.4byte	0xb8
 838 032f 35010000 		.4byte	.LLST9
 839 0333 00       		.byte	0
 840 0334 15       		.uleb128 0x15
 841 0335 04       		.byte	0x4
 842 0336 B8000000 		.4byte	0xb8
 843 033a 16       		.uleb128 0x16
 844 033b 67000000 		.4byte	.LASF49
 845 033f 01       		.byte	0x1
 846 0340 2901     		.2byte	0x129
 847 0342 B8000000 		.4byte	0xb8
 848 0346 00000000 		.4byte	.LFB122
 849 034a 0C000000 		.4byte	.LFE122-.LFB122
 850 034e 01       		.uleb128 0x1
ARM GAS  /tmp/ccDBHEZJ.s 			page 16


 851 034f 9C       		.byte	0x9c
 852 0350 17       		.uleb128 0x17
 853 0351 08040000 		.4byte	.LASF47
 854 0355 01       		.byte	0x1
 855 0356 4301     		.2byte	0x143
 856 0358 00000000 		.4byte	.LFB123
 857 035c 0C000000 		.4byte	.LFE123-.LFB123
 858 0360 01       		.uleb128 0x1
 859 0361 9C       		.byte	0x9c
 860 0362 75030000 		.4byte	0x375
 861 0366 18       		.uleb128 0x18
 862 0367 AE020000 		.4byte	.LASF48
 863 036b 01       		.byte	0x1
 864 036c 4301     		.2byte	0x143
 865 036e 97000000 		.4byte	0x97
 866 0372 01       		.uleb128 0x1
 867 0373 50       		.byte	0x50
 868 0374 00       		.byte	0
 869 0375 16       		.uleb128 0x16
 870 0376 93020000 		.4byte	.LASF50
 871 037a 01       		.byte	0x1
 872 037b 4D01     		.2byte	0x14d
 873 037d 97000000 		.4byte	0x97
 874 0381 00000000 		.4byte	.LFB124
 875 0385 0C000000 		.4byte	.LFE124-.LFB124
 876 0389 01       		.uleb128 0x1
 877 038a 9C       		.byte	0x9c
 878 038b 19       		.uleb128 0x19
 879 038c 36010000 		.4byte	.LASF54
 880 0390 05       		.byte	0x5
 881 0391 9806     		.2byte	0x698
 882 0393 D4000000 		.4byte	0xd4
 883 0397 00       		.byte	0
 884              		.section	.debug_abbrev,"",%progbits
 885              	.Ldebug_abbrev0:
 886 0000 01       		.uleb128 0x1
 887 0001 11       		.uleb128 0x11
 888 0002 01       		.byte	0x1
 889 0003 25       		.uleb128 0x25
 890 0004 0E       		.uleb128 0xe
 891 0005 13       		.uleb128 0x13
 892 0006 0B       		.uleb128 0xb
 893 0007 03       		.uleb128 0x3
 894 0008 0E       		.uleb128 0xe
 895 0009 1B       		.uleb128 0x1b
 896 000a 0E       		.uleb128 0xe
 897 000b 55       		.uleb128 0x55
 898 000c 17       		.uleb128 0x17
 899 000d 11       		.uleb128 0x11
 900 000e 01       		.uleb128 0x1
 901 000f 10       		.uleb128 0x10
 902 0010 17       		.uleb128 0x17
 903 0011 00       		.byte	0
 904 0012 00       		.byte	0
 905 0013 02       		.uleb128 0x2
 906 0014 24       		.uleb128 0x24
 907 0015 00       		.byte	0
ARM GAS  /tmp/ccDBHEZJ.s 			page 17


 908 0016 0B       		.uleb128 0xb
 909 0017 0B       		.uleb128 0xb
 910 0018 3E       		.uleb128 0x3e
 911 0019 0B       		.uleb128 0xb
 912 001a 03       		.uleb128 0x3
 913 001b 0E       		.uleb128 0xe
 914 001c 00       		.byte	0
 915 001d 00       		.byte	0
 916 001e 03       		.uleb128 0x3
 917 001f 16       		.uleb128 0x16
 918 0020 00       		.byte	0
 919 0021 03       		.uleb128 0x3
 920 0022 0E       		.uleb128 0xe
 921 0023 3A       		.uleb128 0x3a
 922 0024 0B       		.uleb128 0xb
 923 0025 3B       		.uleb128 0x3b
 924 0026 0B       		.uleb128 0xb
 925 0027 49       		.uleb128 0x49
 926 0028 13       		.uleb128 0x13
 927 0029 00       		.byte	0
 928 002a 00       		.byte	0
 929 002b 04       		.uleb128 0x4
 930 002c 24       		.uleb128 0x24
 931 002d 00       		.byte	0
 932 002e 0B       		.uleb128 0xb
 933 002f 0B       		.uleb128 0xb
 934 0030 3E       		.uleb128 0x3e
 935 0031 0B       		.uleb128 0xb
 936 0032 03       		.uleb128 0x3
 937 0033 08       		.uleb128 0x8
 938 0034 00       		.byte	0
 939 0035 00       		.byte	0
 940 0036 05       		.uleb128 0x5
 941 0037 35       		.uleb128 0x35
 942 0038 00       		.byte	0
 943 0039 49       		.uleb128 0x49
 944 003a 13       		.uleb128 0x13
 945 003b 00       		.byte	0
 946 003c 00       		.byte	0
 947 003d 06       		.uleb128 0x6
 948 003e 04       		.uleb128 0x4
 949 003f 01       		.byte	0x1
 950 0040 0B       		.uleb128 0xb
 951 0041 0B       		.uleb128 0xb
 952 0042 3A       		.uleb128 0x3a
 953 0043 0B       		.uleb128 0xb
 954 0044 3B       		.uleb128 0x3b
 955 0045 05       		.uleb128 0x5
 956 0046 01       		.uleb128 0x1
 957 0047 13       		.uleb128 0x13
 958 0048 00       		.byte	0
 959 0049 00       		.byte	0
 960 004a 07       		.uleb128 0x7
 961 004b 28       		.uleb128 0x28
 962 004c 00       		.byte	0
 963 004d 03       		.uleb128 0x3
 964 004e 0E       		.uleb128 0xe
ARM GAS  /tmp/ccDBHEZJ.s 			page 18


 965 004f 1C       		.uleb128 0x1c
 966 0050 0D       		.uleb128 0xd
 967 0051 00       		.byte	0
 968 0052 00       		.byte	0
 969 0053 08       		.uleb128 0x8
 970 0054 16       		.uleb128 0x16
 971 0055 00       		.byte	0
 972 0056 03       		.uleb128 0x3
 973 0057 0E       		.uleb128 0xe
 974 0058 3A       		.uleb128 0x3a
 975 0059 0B       		.uleb128 0xb
 976 005a 3B       		.uleb128 0x3b
 977 005b 05       		.uleb128 0x5
 978 005c 49       		.uleb128 0x49
 979 005d 13       		.uleb128 0x13
 980 005e 00       		.byte	0
 981 005f 00       		.byte	0
 982 0060 09       		.uleb128 0x9
 983 0061 13       		.uleb128 0x13
 984 0062 01       		.byte	0x1
 985 0063 0B       		.uleb128 0xb
 986 0064 0B       		.uleb128 0xb
 987 0065 3A       		.uleb128 0x3a
 988 0066 0B       		.uleb128 0xb
 989 0067 3B       		.uleb128 0x3b
 990 0068 05       		.uleb128 0x5
 991 0069 01       		.uleb128 0x1
 992 006a 13       		.uleb128 0x13
 993 006b 00       		.byte	0
 994 006c 00       		.byte	0
 995 006d 0A       		.uleb128 0xa
 996 006e 0D       		.uleb128 0xd
 997 006f 00       		.byte	0
 998 0070 03       		.uleb128 0x3
 999 0071 08       		.uleb128 0x8
 1000 0072 3A       		.uleb128 0x3a
 1001 0073 0B       		.uleb128 0xb
 1002 0074 3B       		.uleb128 0x3b
 1003 0075 05       		.uleb128 0x5
 1004 0076 49       		.uleb128 0x49
 1005 0077 13       		.uleb128 0x13
 1006 0078 38       		.uleb128 0x38
 1007 0079 0B       		.uleb128 0xb
 1008 007a 00       		.byte	0
 1009 007b 00       		.byte	0
 1010 007c 0B       		.uleb128 0xb
 1011 007d 0D       		.uleb128 0xd
 1012 007e 00       		.byte	0
 1013 007f 03       		.uleb128 0x3
 1014 0080 0E       		.uleb128 0xe
 1015 0081 3A       		.uleb128 0x3a
 1016 0082 0B       		.uleb128 0xb
 1017 0083 3B       		.uleb128 0x3b
 1018 0084 05       		.uleb128 0x5
 1019 0085 49       		.uleb128 0x49
 1020 0086 13       		.uleb128 0x13
 1021 0087 38       		.uleb128 0x38
ARM GAS  /tmp/ccDBHEZJ.s 			page 19


 1022 0088 0B       		.uleb128 0xb
 1023 0089 00       		.byte	0
 1024 008a 00       		.byte	0
 1025 008b 0C       		.uleb128 0xc
 1026 008c 2E       		.uleb128 0x2e
 1027 008d 00       		.byte	0
 1028 008e 3F       		.uleb128 0x3f
 1029 008f 19       		.uleb128 0x19
 1030 0090 03       		.uleb128 0x3
 1031 0091 0E       		.uleb128 0xe
 1032 0092 3A       		.uleb128 0x3a
 1033 0093 0B       		.uleb128 0xb
 1034 0094 3B       		.uleb128 0x3b
 1035 0095 0B       		.uleb128 0xb
 1036 0096 27       		.uleb128 0x27
 1037 0097 19       		.uleb128 0x19
 1038 0098 11       		.uleb128 0x11
 1039 0099 01       		.uleb128 0x1
 1040 009a 12       		.uleb128 0x12
 1041 009b 06       		.uleb128 0x6
 1042 009c 40       		.uleb128 0x40
 1043 009d 18       		.uleb128 0x18
 1044 009e 9742     		.uleb128 0x2117
 1045 00a0 19       		.uleb128 0x19
 1046 00a1 00       		.byte	0
 1047 00a2 00       		.byte	0
 1048 00a3 0D       		.uleb128 0xd
 1049 00a4 2E       		.uleb128 0x2e
 1050 00a5 01       		.byte	0x1
 1051 00a6 3F       		.uleb128 0x3f
 1052 00a7 19       		.uleb128 0x19
 1053 00a8 03       		.uleb128 0x3
 1054 00a9 0E       		.uleb128 0xe
 1055 00aa 3A       		.uleb128 0x3a
 1056 00ab 0B       		.uleb128 0xb
 1057 00ac 3B       		.uleb128 0x3b
 1058 00ad 0B       		.uleb128 0xb
 1059 00ae 27       		.uleb128 0x27
 1060 00af 19       		.uleb128 0x19
 1061 00b0 11       		.uleb128 0x11
 1062 00b1 01       		.uleb128 0x1
 1063 00b2 12       		.uleb128 0x12
 1064 00b3 06       		.uleb128 0x6
 1065 00b4 40       		.uleb128 0x40
 1066 00b5 18       		.uleb128 0x18
 1067 00b6 9742     		.uleb128 0x2117
 1068 00b8 19       		.uleb128 0x19
 1069 00b9 01       		.uleb128 0x1
 1070 00ba 13       		.uleb128 0x13
 1071 00bb 00       		.byte	0
 1072 00bc 00       		.byte	0
 1073 00bd 0E       		.uleb128 0xe
 1074 00be 05       		.uleb128 0x5
 1075 00bf 00       		.byte	0
 1076 00c0 03       		.uleb128 0x3
 1077 00c1 0E       		.uleb128 0xe
 1078 00c2 3A       		.uleb128 0x3a
ARM GAS  /tmp/ccDBHEZJ.s 			page 20


 1079 00c3 0B       		.uleb128 0xb
 1080 00c4 3B       		.uleb128 0x3b
 1081 00c5 0B       		.uleb128 0xb
 1082 00c6 49       		.uleb128 0x49
 1083 00c7 13       		.uleb128 0x13
 1084 00c8 02       		.uleb128 0x2
 1085 00c9 17       		.uleb128 0x17
 1086 00ca 00       		.byte	0
 1087 00cb 00       		.byte	0
 1088 00cc 0F       		.uleb128 0xf
 1089 00cd 34       		.uleb128 0x34
 1090 00ce 00       		.byte	0
 1091 00cf 03       		.uleb128 0x3
 1092 00d0 0E       		.uleb128 0xe
 1093 00d1 3A       		.uleb128 0x3a
 1094 00d2 0B       		.uleb128 0xb
 1095 00d3 3B       		.uleb128 0x3b
 1096 00d4 0B       		.uleb128 0xb
 1097 00d5 49       		.uleb128 0x49
 1098 00d6 13       		.uleb128 0x13
 1099 00d7 02       		.uleb128 0x2
 1100 00d8 17       		.uleb128 0x17
 1101 00d9 00       		.byte	0
 1102 00da 00       		.byte	0
 1103 00db 10       		.uleb128 0x10
 1104 00dc 05       		.uleb128 0x5
 1105 00dd 00       		.byte	0
 1106 00de 03       		.uleb128 0x3
 1107 00df 0E       		.uleb128 0xe
 1108 00e0 3A       		.uleb128 0x3a
 1109 00e1 0B       		.uleb128 0xb
 1110 00e2 3B       		.uleb128 0x3b
 1111 00e3 0B       		.uleb128 0xb
 1112 00e4 49       		.uleb128 0x49
 1113 00e5 13       		.uleb128 0x13
 1114 00e6 02       		.uleb128 0x2
 1115 00e7 18       		.uleb128 0x18
 1116 00e8 00       		.byte	0
 1117 00e9 00       		.byte	0
 1118 00ea 11       		.uleb128 0x11
 1119 00eb 2E       		.uleb128 0x2e
 1120 00ec 01       		.byte	0x1
 1121 00ed 3F       		.uleb128 0x3f
 1122 00ee 19       		.uleb128 0x19
 1123 00ef 03       		.uleb128 0x3
 1124 00f0 0E       		.uleb128 0xe
 1125 00f1 3A       		.uleb128 0x3a
 1126 00f2 0B       		.uleb128 0xb
 1127 00f3 3B       		.uleb128 0x3b
 1128 00f4 0B       		.uleb128 0xb
 1129 00f5 27       		.uleb128 0x27
 1130 00f6 19       		.uleb128 0x19
 1131 00f7 49       		.uleb128 0x49
 1132 00f8 13       		.uleb128 0x13
 1133 00f9 11       		.uleb128 0x11
 1134 00fa 01       		.uleb128 0x1
 1135 00fb 12       		.uleb128 0x12
ARM GAS  /tmp/ccDBHEZJ.s 			page 21


 1136 00fc 06       		.uleb128 0x6
 1137 00fd 40       		.uleb128 0x40
 1138 00fe 18       		.uleb128 0x18
 1139 00ff 9742     		.uleb128 0x2117
 1140 0101 19       		.uleb128 0x19
 1141 0102 01       		.uleb128 0x1
 1142 0103 13       		.uleb128 0x13
 1143 0104 00       		.byte	0
 1144 0105 00       		.byte	0
 1145 0106 12       		.uleb128 0x12
 1146 0107 2E       		.uleb128 0x2e
 1147 0108 01       		.byte	0x1
 1148 0109 3F       		.uleb128 0x3f
 1149 010a 19       		.uleb128 0x19
 1150 010b 03       		.uleb128 0x3
 1151 010c 0E       		.uleb128 0xe
 1152 010d 3A       		.uleb128 0x3a
 1153 010e 0B       		.uleb128 0xb
 1154 010f 3B       		.uleb128 0x3b
 1155 0110 05       		.uleb128 0x5
 1156 0111 27       		.uleb128 0x27
 1157 0112 19       		.uleb128 0x19
 1158 0113 49       		.uleb128 0x49
 1159 0114 13       		.uleb128 0x13
 1160 0115 11       		.uleb128 0x11
 1161 0116 01       		.uleb128 0x1
 1162 0117 12       		.uleb128 0x12
 1163 0118 06       		.uleb128 0x6
 1164 0119 40       		.uleb128 0x40
 1165 011a 18       		.uleb128 0x18
 1166 011b 9742     		.uleb128 0x2117
 1167 011d 19       		.uleb128 0x19
 1168 011e 01       		.uleb128 0x1
 1169 011f 13       		.uleb128 0x13
 1170 0120 00       		.byte	0
 1171 0121 00       		.byte	0
 1172 0122 13       		.uleb128 0x13
 1173 0123 05       		.uleb128 0x5
 1174 0124 00       		.byte	0
 1175 0125 03       		.uleb128 0x3
 1176 0126 0E       		.uleb128 0xe
 1177 0127 3A       		.uleb128 0x3a
 1178 0128 0B       		.uleb128 0xb
 1179 0129 3B       		.uleb128 0x3b
 1180 012a 05       		.uleb128 0x5
 1181 012b 49       		.uleb128 0x49
 1182 012c 13       		.uleb128 0x13
 1183 012d 02       		.uleb128 0x2
 1184 012e 17       		.uleb128 0x17
 1185 012f 00       		.byte	0
 1186 0130 00       		.byte	0
 1187 0131 14       		.uleb128 0x14
 1188 0132 34       		.uleb128 0x34
 1189 0133 00       		.byte	0
 1190 0134 03       		.uleb128 0x3
 1191 0135 0E       		.uleb128 0xe
 1192 0136 3A       		.uleb128 0x3a
ARM GAS  /tmp/ccDBHEZJ.s 			page 22


 1193 0137 0B       		.uleb128 0xb
 1194 0138 3B       		.uleb128 0x3b
 1195 0139 05       		.uleb128 0x5
 1196 013a 49       		.uleb128 0x49
 1197 013b 13       		.uleb128 0x13
 1198 013c 02       		.uleb128 0x2
 1199 013d 17       		.uleb128 0x17
 1200 013e 00       		.byte	0
 1201 013f 00       		.byte	0
 1202 0140 15       		.uleb128 0x15
 1203 0141 0F       		.uleb128 0xf
 1204 0142 00       		.byte	0
 1205 0143 0B       		.uleb128 0xb
 1206 0144 0B       		.uleb128 0xb
 1207 0145 49       		.uleb128 0x49
 1208 0146 13       		.uleb128 0x13
 1209 0147 00       		.byte	0
 1210 0148 00       		.byte	0
 1211 0149 16       		.uleb128 0x16
 1212 014a 2E       		.uleb128 0x2e
 1213 014b 00       		.byte	0
 1214 014c 3F       		.uleb128 0x3f
 1215 014d 19       		.uleb128 0x19
 1216 014e 03       		.uleb128 0x3
 1217 014f 0E       		.uleb128 0xe
 1218 0150 3A       		.uleb128 0x3a
 1219 0151 0B       		.uleb128 0xb
 1220 0152 3B       		.uleb128 0x3b
 1221 0153 05       		.uleb128 0x5
 1222 0154 27       		.uleb128 0x27
 1223 0155 19       		.uleb128 0x19
 1224 0156 49       		.uleb128 0x49
 1225 0157 13       		.uleb128 0x13
 1226 0158 11       		.uleb128 0x11
 1227 0159 01       		.uleb128 0x1
 1228 015a 12       		.uleb128 0x12
 1229 015b 06       		.uleb128 0x6
 1230 015c 40       		.uleb128 0x40
 1231 015d 18       		.uleb128 0x18
 1232 015e 9742     		.uleb128 0x2117
 1233 0160 19       		.uleb128 0x19
 1234 0161 00       		.byte	0
 1235 0162 00       		.byte	0
 1236 0163 17       		.uleb128 0x17
 1237 0164 2E       		.uleb128 0x2e
 1238 0165 01       		.byte	0x1
 1239 0166 3F       		.uleb128 0x3f
 1240 0167 19       		.uleb128 0x19
 1241 0168 03       		.uleb128 0x3
 1242 0169 0E       		.uleb128 0xe
 1243 016a 3A       		.uleb128 0x3a
 1244 016b 0B       		.uleb128 0xb
 1245 016c 3B       		.uleb128 0x3b
 1246 016d 05       		.uleb128 0x5
 1247 016e 27       		.uleb128 0x27
 1248 016f 19       		.uleb128 0x19
 1249 0170 11       		.uleb128 0x11
ARM GAS  /tmp/ccDBHEZJ.s 			page 23


 1250 0171 01       		.uleb128 0x1
 1251 0172 12       		.uleb128 0x12
 1252 0173 06       		.uleb128 0x6
 1253 0174 40       		.uleb128 0x40
 1254 0175 18       		.uleb128 0x18
 1255 0176 9742     		.uleb128 0x2117
 1256 0178 19       		.uleb128 0x19
 1257 0179 01       		.uleb128 0x1
 1258 017a 13       		.uleb128 0x13
 1259 017b 00       		.byte	0
 1260 017c 00       		.byte	0
 1261 017d 18       		.uleb128 0x18
 1262 017e 05       		.uleb128 0x5
 1263 017f 00       		.byte	0
 1264 0180 03       		.uleb128 0x3
 1265 0181 0E       		.uleb128 0xe
 1266 0182 3A       		.uleb128 0x3a
 1267 0183 0B       		.uleb128 0xb
 1268 0184 3B       		.uleb128 0x3b
 1269 0185 05       		.uleb128 0x5
 1270 0186 49       		.uleb128 0x49
 1271 0187 13       		.uleb128 0x13
 1272 0188 02       		.uleb128 0x2
 1273 0189 18       		.uleb128 0x18
 1274 018a 00       		.byte	0
 1275 018b 00       		.byte	0
 1276 018c 19       		.uleb128 0x19
 1277 018d 34       		.uleb128 0x34
 1278 018e 00       		.byte	0
 1279 018f 03       		.uleb128 0x3
 1280 0190 0E       		.uleb128 0xe
 1281 0191 3A       		.uleb128 0x3a
 1282 0192 0B       		.uleb128 0xb
 1283 0193 3B       		.uleb128 0x3b
 1284 0194 05       		.uleb128 0x5
 1285 0195 49       		.uleb128 0x49
 1286 0196 13       		.uleb128 0x13
 1287 0197 3F       		.uleb128 0x3f
 1288 0198 19       		.uleb128 0x19
 1289 0199 3C       		.uleb128 0x3c
 1290 019a 19       		.uleb128 0x19
 1291 019b 00       		.byte	0
 1292 019c 00       		.byte	0
 1293 019d 00       		.byte	0
 1294              		.section	.debug_loc,"",%progbits
 1295              	.Ldebug_loc0:
 1296              	.LLST0:
 1297 0000 00000000 		.4byte	.LVL0
 1298 0004 0A000000 		.4byte	.LVL3
 1299 0008 0100     		.2byte	0x1
 1300 000a 50       		.byte	0x50
 1301 000b 0A000000 		.4byte	.LVL3
 1302 000f 14000000 		.4byte	.LFE113
 1303 0013 0400     		.2byte	0x4
 1304 0015 F3       		.byte	0xf3
 1305 0016 01       		.uleb128 0x1
 1306 0017 50       		.byte	0x50
ARM GAS  /tmp/ccDBHEZJ.s 			page 24


 1307 0018 9F       		.byte	0x9f
 1308 0019 00000000 		.4byte	0
 1309 001d 00000000 		.4byte	0
 1310              	.LLST1:
 1311 0021 00000000 		.4byte	.LVL0
 1312 0025 04000000 		.4byte	.LVL1
 1313 0029 0200     		.2byte	0x2
 1314 002b 30       		.byte	0x30
 1315 002c 9F       		.byte	0x9f
 1316 002d 04000000 		.4byte	.LVL1
 1317 0031 0A000000 		.4byte	.LVL3
 1318 0035 0100     		.2byte	0x1
 1319 0037 52       		.byte	0x52
 1320 0038 0A000000 		.4byte	.LVL3
 1321 003c 14000000 		.4byte	.LFE113
 1322 0040 0100     		.2byte	0x1
 1323 0042 50       		.byte	0x50
 1324 0043 00000000 		.4byte	0
 1325 0047 00000000 		.4byte	0
 1326              	.LLST2:
 1327 004b 00000000 		.4byte	.LVL4
 1328 004f 0A000000 		.4byte	.LVL7
 1329 0053 0100     		.2byte	0x1
 1330 0055 50       		.byte	0x50
 1331 0056 0A000000 		.4byte	.LVL7
 1332 005a 14000000 		.4byte	.LFE114
 1333 005e 0400     		.2byte	0x4
 1334 0060 F3       		.byte	0xf3
 1335 0061 01       		.uleb128 0x1
 1336 0062 50       		.byte	0x50
 1337 0063 9F       		.byte	0x9f
 1338 0064 00000000 		.4byte	0
 1339 0068 00000000 		.4byte	0
 1340              	.LLST3:
 1341 006c 00000000 		.4byte	.LVL4
 1342 0070 04000000 		.4byte	.LVL5
 1343 0074 0200     		.2byte	0x2
 1344 0076 30       		.byte	0x30
 1345 0077 9F       		.byte	0x9f
 1346 0078 04000000 		.4byte	.LVL5
 1347 007c 0A000000 		.4byte	.LVL7
 1348 0080 0100     		.2byte	0x1
 1349 0082 52       		.byte	0x52
 1350 0083 0A000000 		.4byte	.LVL7
 1351 0087 14000000 		.4byte	.LFE114
 1352 008b 0100     		.2byte	0x1
 1353 008d 50       		.byte	0x50
 1354 008e 00000000 		.4byte	0
 1355 0092 00000000 		.4byte	0
 1356              	.LLST4:
 1357 0096 00000000 		.4byte	.LVL11
 1358 009a 06000000 		.4byte	.LVL12
 1359 009e 0100     		.2byte	0x1
 1360 00a0 50       		.byte	0x50
 1361 00a1 06000000 		.4byte	.LVL12
 1362 00a5 0C000000 		.4byte	.LFE118
 1363 00a9 0200     		.2byte	0x2
ARM GAS  /tmp/ccDBHEZJ.s 			page 25


 1364 00ab 73       		.byte	0x73
 1365 00ac 00       		.sleb128 0
 1366 00ad 00000000 		.4byte	0
 1367 00b1 00000000 		.4byte	0
 1368              	.LLST5:
 1369 00b5 00000000 		.4byte	.LVL13
 1370 00b9 06000000 		.4byte	.LVL14
 1371 00bd 0100     		.2byte	0x1
 1372 00bf 50       		.byte	0x50
 1373 00c0 06000000 		.4byte	.LVL14
 1374 00c4 0C000000 		.4byte	.LFE119
 1375 00c8 0200     		.2byte	0x2
 1376 00ca 73       		.byte	0x73
 1377 00cb 00       		.sleb128 0
 1378 00cc 00000000 		.4byte	0
 1379 00d0 00000000 		.4byte	0
 1380              	.LLST6:
 1381 00d4 00000000 		.4byte	.LVL15
 1382 00d8 06000000 		.4byte	.LVL16
 1383 00dc 0100     		.2byte	0x1
 1384 00de 50       		.byte	0x50
 1385 00df 06000000 		.4byte	.LVL16
 1386 00e3 0C000000 		.4byte	.LFE120
 1387 00e7 0200     		.2byte	0x2
 1388 00e9 73       		.byte	0x73
 1389 00ea 00       		.sleb128 0
 1390 00eb 00000000 		.4byte	0
 1391 00ef 00000000 		.4byte	0
 1392              	.LLST7:
 1393 00f3 00000000 		.4byte	.LVL17
 1394 00f7 08000000 		.4byte	.LVL18
 1395 00fb 0100     		.2byte	0x1
 1396 00fd 50       		.byte	0x50
 1397 00fe 08000000 		.4byte	.LVL18
 1398 0102 1C000000 		.4byte	.LFE121
 1399 0106 0400     		.2byte	0x4
 1400 0108 F3       		.byte	0xf3
 1401 0109 01       		.uleb128 0x1
 1402 010a 50       		.byte	0x50
 1403 010b 9F       		.byte	0x9f
 1404 010c 00000000 		.4byte	0
 1405 0110 00000000 		.4byte	0
 1406              	.LLST8:
 1407 0114 00000000 		.4byte	.LVL17
 1408 0118 08000000 		.4byte	.LVL18
 1409 011c 0100     		.2byte	0x1
 1410 011e 51       		.byte	0x51
 1411 011f 08000000 		.4byte	.LVL18
 1412 0123 1C000000 		.4byte	.LFE121
 1413 0127 0400     		.2byte	0x4
 1414 0129 F3       		.byte	0xf3
 1415 012a 01       		.uleb128 0x1
 1416 012b 51       		.byte	0x51
 1417 012c 9F       		.byte	0x9f
 1418 012d 00000000 		.4byte	0
 1419 0131 00000000 		.4byte	0
 1420              	.LLST9:
ARM GAS  /tmp/ccDBHEZJ.s 			page 26


 1421 0135 00000000 		.4byte	.LVL17
 1422 0139 08000000 		.4byte	.LVL18
 1423 013d 0200     		.2byte	0x2
 1424 013f 30       		.byte	0x30
 1425 0140 9F       		.byte	0x9f
 1426 0141 00000000 		.4byte	0
 1427 0145 00000000 		.4byte	0
 1428              		.section	.debug_aranges,"",%progbits
 1429 0000 84000000 		.4byte	0x84
 1430 0004 0200     		.2byte	0x2
 1431 0006 00000000 		.4byte	.Ldebug_info0
 1432 000a 04       		.byte	0x4
 1433 000b 00       		.byte	0
 1434 000c 0000     		.2byte	0
 1435 000e 0000     		.2byte	0
 1436 0010 00000000 		.4byte	.LFB111
 1437 0014 28000000 		.4byte	.LFE111-.LFB111
 1438 0018 00000000 		.4byte	.LFB112
 1439 001c 10000000 		.4byte	.LFE112-.LFB112
 1440 0020 00000000 		.4byte	.LFB113
 1441 0024 14000000 		.4byte	.LFE113-.LFB113
 1442 0028 00000000 		.4byte	.LFB114
 1443 002c 14000000 		.4byte	.LFE114-.LFB114
 1444 0030 00000000 		.4byte	.LFB115
 1445 0034 1C000000 		.4byte	.LFE115-.LFB115
 1446 0038 00000000 		.4byte	.LFB116
 1447 003c 0C000000 		.4byte	.LFE116-.LFB116
 1448 0040 00000000 		.4byte	.LFB117
 1449 0044 0C000000 		.4byte	.LFE117-.LFB117
 1450 0048 00000000 		.4byte	.LFB118
 1451 004c 0C000000 		.4byte	.LFE118-.LFB118
 1452 0050 00000000 		.4byte	.LFB119
 1453 0054 0C000000 		.4byte	.LFE119-.LFB119
 1454 0058 00000000 		.4byte	.LFB120
 1455 005c 0C000000 		.4byte	.LFE120-.LFB120
 1456 0060 00000000 		.4byte	.LFB121
 1457 0064 1C000000 		.4byte	.LFE121-.LFB121
 1458 0068 00000000 		.4byte	.LFB122
 1459 006c 0C000000 		.4byte	.LFE122-.LFB122
 1460 0070 00000000 		.4byte	.LFB123
 1461 0074 0C000000 		.4byte	.LFE123-.LFB123
 1462 0078 00000000 		.4byte	.LFB124
 1463 007c 0C000000 		.4byte	.LFE124-.LFB124
 1464 0080 00000000 		.4byte	0
 1465 0084 00000000 		.4byte	0
 1466              		.section	.debug_ranges,"",%progbits
 1467              	.Ldebug_ranges0:
 1468 0000 00000000 		.4byte	.LFB111
 1469 0004 28000000 		.4byte	.LFE111
 1470 0008 00000000 		.4byte	.LFB112
 1471 000c 10000000 		.4byte	.LFE112
 1472 0010 00000000 		.4byte	.LFB113
 1473 0014 14000000 		.4byte	.LFE113
 1474 0018 00000000 		.4byte	.LFB114
 1475 001c 14000000 		.4byte	.LFE114
 1476 0020 00000000 		.4byte	.LFB115
 1477 0024 1C000000 		.4byte	.LFE115
ARM GAS  /tmp/ccDBHEZJ.s 			page 27


 1478 0028 00000000 		.4byte	.LFB116
 1479 002c 0C000000 		.4byte	.LFE116
 1480 0030 00000000 		.4byte	.LFB117
 1481 0034 0C000000 		.4byte	.LFE117
 1482 0038 00000000 		.4byte	.LFB118
 1483 003c 0C000000 		.4byte	.LFE118
 1484 0040 00000000 		.4byte	.LFB119
 1485 0044 0C000000 		.4byte	.LFE119
 1486 0048 00000000 		.4byte	.LFB120
 1487 004c 0C000000 		.4byte	.LFE120
 1488 0050 00000000 		.4byte	.LFB121
 1489 0054 1C000000 		.4byte	.LFE121
 1490 0058 00000000 		.4byte	.LFB122
 1491 005c 0C000000 		.4byte	.LFE122
 1492 0060 00000000 		.4byte	.LFB123
 1493 0064 0C000000 		.4byte	.LFE123
 1494 0068 00000000 		.4byte	.LFB124
 1495 006c 0C000000 		.4byte	.LFE124
 1496 0070 00000000 		.4byte	0
 1497 0074 00000000 		.4byte	0
 1498              		.section	.debug_line,"",%progbits
 1499              	.Ldebug_line0:
 1500 0000 27020000 		.section	.debug_str,"MS",%progbits,1
 1500      02000801 
 1500      00000201 
 1500      FB0E0D00 
 1500      01010101 
 1501              	.LASF43:
 1502 0000 4352435F 		.ascii	"CRC_CalcBlockCRC\000"
 1502      43616C63 
 1502      426C6F63 
 1502      6B435243 
 1502      00
 1503              	.LASF3:
 1504 0011 5F5F7569 		.ascii	"__uint8_t\000"
 1504      6E74385F 
 1504      7400
 1505              	.LASF35:
 1506 001b 4352435F 		.ascii	"CRC_SetInitRegister\000"
 1506      53657449 
 1506      6E697452 
 1506      65676973 
 1506      74657200 
 1507              	.LASF6:
 1508 002f 5F5F696E 		.ascii	"__int32_t\000"
 1508      7433325F 
 1508      7400
 1509              	.LASF5:
 1510 0039 73686F72 		.ascii	"short unsigned int\000"
 1510      7420756E 
 1510      7369676E 
 1510      65642069 
 1510      6E7400
 1511              	.LASF32:
 1512 004c 746D7063 		.ascii	"tmpcr\000"
 1512      7200
 1513              	.LASF24:
ARM GAS  /tmp/ccDBHEZJ.s 			page 28


 1514 0052 494E4954 		.ascii	"INIT\000"
 1514      00
 1515              	.LASF20:
 1516 0057 46756E63 		.ascii	"FunctionalState\000"
 1516      74696F6E 
 1516      616C5374 
 1516      61746500 
 1517              	.LASF49:
 1518 0067 4352435F 		.ascii	"CRC_GetCRC\000"
 1518      47657443 
 1518      524300
 1519              	.LASF21:
 1520 0072 52455345 		.ascii	"RESERVED0\000"
 1520      52564544 
 1520      3000
 1521              	.LASF22:
 1522 007c 52455345 		.ascii	"RESERVED1\000"
 1522      52564544 
 1522      3100
 1523              	.LASF23:
 1524 0086 52455345 		.ascii	"RESERVED2\000"
 1524      52564544 
 1524      3200
 1525              	.LASF40:
 1526 0090 4352435F 		.ascii	"CRC_CalcCRC\000"
 1526      43616C63 
 1526      43524300 
 1527              	.LASF52:
 1528 009c 2E2E2F2E 		.ascii	"../../../../ext/stm32lib/src/stm32f30x_crc.c\000"
 1528      2E2F2E2E 
 1528      2F2E2E2F 
 1528      6578742F 
 1528      73746D33 
 1529              	.LASF29:
 1530 00c9 4352435F 		.ascii	"CRC_ReverseInputDataSelect\000"
 1530      52657665 
 1530      72736549 
 1530      6E707574 
 1530      44617461 
 1531              	.LASF19:
 1532 00e4 454E4142 		.ascii	"ENABLE\000"
 1532      4C4500
 1533              	.LASF1:
 1534 00eb 756E7369 		.ascii	"unsigned char\000"
 1534      676E6564 
 1534      20636861 
 1534      7200
 1535              	.LASF36:
 1536 00f9 4352435F 		.ascii	"CRC_InitValue\000"
 1536      496E6974 
 1536      56616C75 
 1536      6500
 1537              	.LASF9:
 1538 0107 6C6F6E67 		.ascii	"long unsigned int\000"
 1538      20756E73 
 1538      69676E65 
 1538      6420696E 
ARM GAS  /tmp/ccDBHEZJ.s 			page 29


 1538      7400
 1539              	.LASF34:
 1540 0119 4E657753 		.ascii	"NewState\000"
 1540      74617465 
 1540      00
 1541              	.LASF27:
 1542 0122 4352435F 		.ascii	"CRC_ResetDR\000"
 1542      52657365 
 1542      74445200 
 1543              	.LASF18:
 1544 012e 44495341 		.ascii	"DISABLE\000"
 1544      424C4500 
 1545              	.LASF54:
 1546 0136 49544D5F 		.ascii	"ITM_RxBuffer\000"
 1546      52784275 
 1546      66666572 
 1546      00
 1547              	.LASF25:
 1548 0143 4352435F 		.ascii	"CRC_TypeDef\000"
 1548      54797065 
 1548      44656600 
 1549              	.LASF4:
 1550 014f 5F5F7569 		.ascii	"__uint16_t\000"
 1550      6E743136 
 1550      5F7400
 1551              	.LASF33:
 1552 015a 4352435F 		.ascii	"CRC_ReverseOutputDataCmd\000"
 1552      52657665 
 1552      7273654F 
 1552      75747075 
 1552      74446174 
 1553              	.LASF39:
 1554 0173 4352435F 		.ascii	"CRC_Data\000"
 1554      44617461 
 1554      00
 1555              	.LASF8:
 1556 017c 5F5F7569 		.ascii	"__uint32_t\000"
 1556      6E743332 
 1556      5F7400
 1557              	.LASF45:
 1558 0187 42756666 		.ascii	"BufferLength\000"
 1558      65724C65 
 1558      6E677468 
 1558      00
 1559              	.LASF31:
 1560 0194 4352435F 		.ascii	"CRC_ReverseInputData\000"
 1560      52657665 
 1560      72736549 
 1560      6E707574 
 1560      44617461 
 1561              	.LASF53:
 1562 01a9 2F686F6D 		.ascii	"/home/jordyaw/Documents/referensi/coba/ChibiOS_2.5."
 1562      652F6A6F 
 1562      72647961 
 1562      772F446F 
 1562      63756D65 
 1563 01dc 32782F74 		.ascii	"2x/testhal/STM32F30x/WSC Juara Bismillah/program sc"
ARM GAS  /tmp/ccDBHEZJ.s 			page 30


 1563      65737468 
 1563      616C2F53 
 1563      544D3332 
 1563      46333078 
 1564 020f 616E6E69 		.ascii	"anning data controller\000"
 1564      6E672064 
 1564      61746120 
 1564      636F6E74 
 1564      726F6C6C 
 1565              	.LASF12:
 1566 0226 756E7369 		.ascii	"unsigned int\000"
 1566      676E6564 
 1566      20696E74 
 1566      00
 1567              	.LASF11:
 1568 0233 6C6F6E67 		.ascii	"long long unsigned int\000"
 1568      206C6F6E 
 1568      6720756E 
 1568      7369676E 
 1568      65642069 
 1569              	.LASF13:
 1570 024a 75696E74 		.ascii	"uint8_t\000"
 1570      385F7400 
 1571              	.LASF44:
 1572 0252 70427566 		.ascii	"pBuffer\000"
 1572      66657200 
 1573              	.LASF0:
 1574 025a 7369676E 		.ascii	"signed char\000"
 1574      65642063 
 1574      68617200 
 1575              	.LASF15:
 1576 0266 696E7433 		.ascii	"int32_t\000"
 1576      325F7400 
 1577              	.LASF17:
 1578 026e 73697A65 		.ascii	"sizetype\000"
 1578      74797065 
 1578      00
 1579              	.LASF10:
 1580 0277 6C6F6E67 		.ascii	"long long int\000"
 1580      206C6F6E 
 1580      6720696E 
 1580      7400
 1581              	.LASF38:
 1582 0285 4352435F 		.ascii	"CRC_Pol\000"
 1582      506F6C00 
 1583              	.LASF46:
 1584 028d 696E6465 		.ascii	"index\000"
 1584      7800
 1585              	.LASF50:
 1586 0293 4352435F 		.ascii	"CRC_GetIDRegister\000"
 1586      47657449 
 1586      44526567 
 1586      69737465 
 1586      7200
 1587              	.LASF14:
 1588 02a5 75696E74 		.ascii	"uint16_t\000"
 1588      31365F74 
ARM GAS  /tmp/ccDBHEZJ.s 			page 31


 1588      00
 1589              	.LASF48:
 1590 02ae 4352435F 		.ascii	"CRC_IDValue\000"
 1590      49445661 
 1590      6C756500 
 1591              	.LASF2:
 1592 02ba 73686F72 		.ascii	"short int\000"
 1592      7420696E 
 1592      7400
 1593              	.LASF26:
 1594 02c4 4352435F 		.ascii	"CRC_DeInit\000"
 1594      4465496E 
 1594      697400
 1595              	.LASF28:
 1596 02cf 4352435F 		.ascii	"CRC_PolynomialSizeSelect\000"
 1596      506F6C79 
 1596      6E6F6D69 
 1596      616C5369 
 1596      7A655365 
 1597              	.LASF37:
 1598 02e8 4352435F 		.ascii	"CRC_SetPolynomial\000"
 1598      53657450 
 1598      6F6C796E 
 1598      6F6D6961 
 1598      6C00
 1599              	.LASF16:
 1600 02fa 75696E74 		.ascii	"uint32_t\000"
 1600      33325F74 
 1600      00
 1601              	.LASF7:
 1602 0303 6C6F6E67 		.ascii	"long int\000"
 1602      20696E74 
 1602      00
 1603              	.LASF41:
 1604 030c 4352435F 		.ascii	"CRC_CalcCRC16bits\000"
 1604      43616C63 
 1604      43524331 
 1604      36626974 
 1604      7300
 1605              	.LASF30:
 1606 031e 4352435F 		.ascii	"CRC_PolSize\000"
 1606      506F6C53 
 1606      697A6500 
 1607              	.LASF51:
 1608 032a 474E5520 		.ascii	"GNU C 4.8.3 -mcpu=cortex-m4 -mfloat-abi=softfp -mfp"
 1608      4320342E 
 1608      382E3320 
 1608      2D6D6370 
 1608      753D636F 
 1609 035d 753D6670 		.ascii	"u=fpv4-sp-d16 -mno-thumb-interwork -mthumb -ggdb -O"
 1609      76342D73 
 1609      702D6431 
 1609      36202D6D 
 1609      6E6F2D74 
 1610 0390 32202D66 		.ascii	"2 -fomit-frame-pointer -falign-functions=16 -fsingl"
 1610      6F6D6974 
 1610      2D667261 
ARM GAS  /tmp/ccDBHEZJ.s 			page 32


 1610      6D652D70 
 1610      6F696E74 
 1611 03c3 652D7072 		.ascii	"e-precision-constant -ffunction-sections -fdata-sec"
 1611      65636973 
 1611      696F6E2D 
 1611      636F6E73 
 1611      74616E74 
 1612 03f6 74696F6E 		.ascii	"tions -fno-common\000"
 1612      73202D66 
 1612      6E6F2D63 
 1612      6F6D6D6F 
 1612      6E00
 1613              	.LASF47:
 1614 0408 4352435F 		.ascii	"CRC_SetIDRegister\000"
 1614      53657449 
 1614      44526567 
 1614      69737465 
 1614      7200
 1615              	.LASF42:
 1616 041a 4352435F 		.ascii	"CRC_CalcCRC8bits\000"
 1616      43616C63 
 1616      43524338 
 1616      62697473 
 1616      00
 1617              		.ident	"GCC: (4.8.3-18ubuntu2+12) 4.8.3"
ARM GAS  /tmp/ccDBHEZJ.s 			page 33


DEFINED SYMBOLS
                            *ABS*:0000000000000000 stm32f30x_crc.c
     /tmp/ccDBHEZJ.s:20     .text.CRC_DeInit:0000000000000000 $t
     /tmp/ccDBHEZJ.s:26     .text.CRC_DeInit:0000000000000000 CRC_DeInit
     /tmp/ccDBHEZJ.s:65     .text.CRC_DeInit:0000000000000020 $d
     /tmp/ccDBHEZJ.s:71     .text.CRC_ResetDR:0000000000000000 $t
     /tmp/ccDBHEZJ.s:77     .text.CRC_ResetDR:0000000000000000 CRC_ResetDR
     /tmp/ccDBHEZJ.s:93     .text.CRC_ResetDR:000000000000000c $d
     /tmp/ccDBHEZJ.s:98     .text.CRC_PolynomialSizeSelect:0000000000000000 $t
     /tmp/ccDBHEZJ.s:104    .text.CRC_PolynomialSizeSelect:0000000000000000 CRC_PolynomialSizeSelect
     /tmp/ccDBHEZJ.s:128    .text.CRC_PolynomialSizeSelect:0000000000000010 $d
     /tmp/ccDBHEZJ.s:133    .text.CRC_ReverseInputDataSelect:0000000000000000 $t
     /tmp/ccDBHEZJ.s:139    .text.CRC_ReverseInputDataSelect:0000000000000000 CRC_ReverseInputDataSelect
     /tmp/ccDBHEZJ.s:163    .text.CRC_ReverseInputDataSelect:0000000000000010 $d
     /tmp/ccDBHEZJ.s:168    .text.CRC_ReverseOutputDataCmd:0000000000000000 $t
     /tmp/ccDBHEZJ.s:174    .text.CRC_ReverseOutputDataCmd:0000000000000000 CRC_ReverseOutputDataCmd
     /tmp/ccDBHEZJ.s:199    .text.CRC_ReverseOutputDataCmd:0000000000000018 $d
     /tmp/ccDBHEZJ.s:204    .text.CRC_SetInitRegister:0000000000000000 $t
     /tmp/ccDBHEZJ.s:210    .text.CRC_SetInitRegister:0000000000000000 CRC_SetInitRegister
     /tmp/ccDBHEZJ.s:225    .text.CRC_SetInitRegister:0000000000000008 $d
     /tmp/ccDBHEZJ.s:230    .text.CRC_SetPolynomial:0000000000000000 $t
     /tmp/ccDBHEZJ.s:236    .text.CRC_SetPolynomial:0000000000000000 CRC_SetPolynomial
     /tmp/ccDBHEZJ.s:251    .text.CRC_SetPolynomial:0000000000000008 $d
     /tmp/ccDBHEZJ.s:256    .text.CRC_CalcCRC:0000000000000000 $t
     /tmp/ccDBHEZJ.s:262    .text.CRC_CalcCRC:0000000000000000 CRC_CalcCRC
     /tmp/ccDBHEZJ.s:281    .text.CRC_CalcCRC:0000000000000008 $d
     /tmp/ccDBHEZJ.s:286    .text.CRC_CalcCRC16bits:0000000000000000 $t
     /tmp/ccDBHEZJ.s:292    .text.CRC_CalcCRC16bits:0000000000000000 CRC_CalcCRC16bits
     /tmp/ccDBHEZJ.s:311    .text.CRC_CalcCRC16bits:0000000000000008 $d
     /tmp/ccDBHEZJ.s:316    .text.CRC_CalcCRC8bits:0000000000000000 $t
     /tmp/ccDBHEZJ.s:322    .text.CRC_CalcCRC8bits:0000000000000000 CRC_CalcCRC8bits
     /tmp/ccDBHEZJ.s:341    .text.CRC_CalcCRC8bits:0000000000000008 $d
     /tmp/ccDBHEZJ.s:346    .text.CRC_CalcBlockCRC:0000000000000000 $t
     /tmp/ccDBHEZJ.s:352    .text.CRC_CalcBlockCRC:0000000000000000 CRC_CalcBlockCRC
     /tmp/ccDBHEZJ.s:381    .text.CRC_CalcBlockCRC:0000000000000018 $d
     /tmp/ccDBHEZJ.s:386    .text.CRC_GetCRC:0000000000000000 $t
     /tmp/ccDBHEZJ.s:392    .text.CRC_GetCRC:0000000000000000 CRC_GetCRC
     /tmp/ccDBHEZJ.s:407    .text.CRC_GetCRC:0000000000000008 $d
     /tmp/ccDBHEZJ.s:412    .text.CRC_SetIDRegister:0000000000000000 $t
     /tmp/ccDBHEZJ.s:418    .text.CRC_SetIDRegister:0000000000000000 CRC_SetIDRegister
     /tmp/ccDBHEZJ.s:433    .text.CRC_SetIDRegister:0000000000000008 $d
     /tmp/ccDBHEZJ.s:438    .text.CRC_GetIDRegister:0000000000000000 $t
     /tmp/ccDBHEZJ.s:444    .text.CRC_GetIDRegister:0000000000000000 CRC_GetIDRegister
     /tmp/ccDBHEZJ.s:459    .text.CRC_GetIDRegister:0000000000000008 $d
                     .debug_frame:0000000000000010 $d
     /tmp/ccDBHEZJ.s:70     .text.CRC_DeInit:0000000000000028 $t
     /tmp/ccDBHEZJ.s:132    .text.CRC_PolynomialSizeSelect:0000000000000014 $t
     /tmp/ccDBHEZJ.s:167    .text.CRC_ReverseInputDataSelect:0000000000000014 $t
     /tmp/ccDBHEZJ.s:203    .text.CRC_ReverseOutputDataCmd:000000000000001c $t
     /tmp/ccDBHEZJ.s:229    .text.CRC_SetInitRegister:000000000000000c $t
     /tmp/ccDBHEZJ.s:255    .text.CRC_SetPolynomial:000000000000000c $t
     /tmp/ccDBHEZJ.s:285    .text.CRC_CalcCRC:000000000000000c $t
     /tmp/ccDBHEZJ.s:315    .text.CRC_CalcCRC16bits:000000000000000c $t
     /tmp/ccDBHEZJ.s:345    .text.CRC_CalcCRC8bits:000000000000000c $t
     /tmp/ccDBHEZJ.s:385    .text.CRC_CalcBlockCRC:000000000000001c $t
     /tmp/ccDBHEZJ.s:411    .text.CRC_GetCRC:000000000000000c $t
     /tmp/ccDBHEZJ.s:437    .text.CRC_SetIDRegister:000000000000000c $t
ARM GAS  /tmp/ccDBHEZJ.s 			page 34


     /tmp/ccDBHEZJ.s:463    .text.CRC_GetIDRegister:000000000000000c $t

NO UNDEFINED SYMBOLS
