ARM GAS  /tmp/ccadBNMM.s 			page 1


   1              		.syntax unified
   2              		.cpu cortex-m4
   3              		.eabi_attribute 27, 3
   4              		.fpu fpv4-sp-d16
   5              		.eabi_attribute 20, 1
   6              		.eabi_attribute 21, 1
   7              		.eabi_attribute 23, 3
   8              		.eabi_attribute 24, 1
   9              		.eabi_attribute 25, 1
  10              		.eabi_attribute 26, 1
  11              		.eabi_attribute 30, 2
  12              		.eabi_attribute 34, 1
  13              		.eabi_attribute 18, 4
  14              		.thumb
  15              		.file	"stm32f30x_rtc.c"
  16              		.text
  17              	.Ltext0:
  18              		.cfi_sections	.debug_frame
  19              		.section	.text.RTC_StructInit,"ax",%progbits
  20              		.align	2
  21              		.p2align 4,,15
  22              		.global	RTC_StructInit
  23              		.thumb
  24              		.thumb_func
  25              		.type	RTC_StructInit, %function
  26              	RTC_StructInit:
  27              	.LFB113:
  28              		.file 1 "../../../../ext/stm32lib/src/stm32f30x_rtc.c"
  29              		.loc 1 456 0
  30              		.cfi_startproc
  31              		@ args = 0, pretend = 0, frame = 0
  32              		@ frame_needed = 0, uses_anonymous_args = 0
  33              		@ link register save eliminated.
  34              	.LVL0:
  35              		.loc 1 464 0
  36 0000 0021     		movs	r1, #0
  37 0002 7F22     		movs	r2, #127
  38 0004 FF23     		movs	r3, #255
  39 0006 80E80E00 		stmia	r0, {r1, r2, r3}
  40 000a 7047     		bx	lr
  41              		.cfi_endproc
  42              	.LFE113:
  43              		.size	RTC_StructInit, .-RTC_StructInit
  44 000c AFF30080 		.section	.text.RTC_WriteProtectionCmd,"ax",%progbits
  45              		.align	2
  46              		.p2align 4,,15
  47              		.global	RTC_WriteProtectionCmd
  48              		.thumb
  49              		.thumb_func
  50              		.type	RTC_WriteProtectionCmd, %function
  51              	RTC_WriteProtectionCmd:
  52              	.LFB114:
  53              		.loc 1 478 0
  54              		.cfi_startproc
  55              		@ args = 0, pretend = 0, frame = 0
  56              		@ frame_needed = 0, uses_anonymous_args = 0
  57              		@ link register save eliminated.
ARM GAS  /tmp/ccadBNMM.s 			page 2


  58              	.LVL1:
  59              		.loc 1 485 0
  60 0000 044B     		ldr	r3, .L7
  61              		.loc 1 482 0
  62 0002 20B9     		cbnz	r0, .L6
  63              		.loc 1 490 0
  64 0004 CA21     		movs	r1, #202
  65              		.loc 1 491 0
  66 0006 5322     		movs	r2, #83
  67              		.loc 1 490 0
  68 0008 5962     		str	r1, [r3, #36]
  69              		.loc 1 491 0
  70 000a 5A62     		str	r2, [r3, #36]
  71 000c 7047     		bx	lr
  72              	.L6:
  73              		.loc 1 485 0
  74 000e FF22     		movs	r2, #255
  75 0010 5A62     		str	r2, [r3, #36]
  76 0012 7047     		bx	lr
  77              	.L8:
  78              		.align	2
  79              	.L7:
  80 0014 00280040 		.word	1073752064
  81              		.cfi_endproc
  82              	.LFE114:
  83              		.size	RTC_WriteProtectionCmd, .-RTC_WriteProtectionCmd
  84 0018 AFF30080 		.section	.text.RTC_EnterInitMode,"ax",%progbits
  84      AFF30080 
  85              		.align	2
  86              		.p2align 4,,15
  87              		.global	RTC_EnterInitMode
  88              		.thumb
  89              		.thumb_func
  90              		.type	RTC_EnterInitMode, %function
  91              	RTC_EnterInitMode:
  92              	.LFB115:
  93              		.loc 1 505 0
  94              		.cfi_startproc
  95              		@ args = 0, pretend = 0, frame = 8
  96              		@ frame_needed = 0, uses_anonymous_args = 0
  97              		@ link register save eliminated.
  98 0000 82B0     		sub	sp, sp, #8
  99              		.cfi_def_cfa_offset 8
 100              		.loc 1 506 0
 101 0002 0023     		movs	r3, #0
 102              		.loc 1 511 0
 103 0004 0E49     		ldr	r1, .L18
 104              		.loc 1 506 0
 105 0006 0193     		str	r3, [sp, #4]
 106              	.LVL2:
 107              		.loc 1 511 0
 108 0008 CB68     		ldr	r3, [r1, #12]
 109 000a 5B06     		lsls	r3, r3, #25
 110 000c 14D4     		bmi	.L13
 111              		.loc 1 514 0
 112 000e 4FF0FF33 		mov	r3, #-1
 113 0012 CB60     		str	r3, [r1, #12]
ARM GAS  /tmp/ccadBNMM.s 			page 3


 114 0014 00E0     		b	.L12
 115              	.LVL3:
 116              	.L17:
 117              		.loc 1 521 0 discriminator 1
 118 0016 4AB9     		cbnz	r2, .L11
 119              	.LVL4:
 120              	.L12:
 121              		.loc 1 519 0 discriminator 1
 122 0018 CA68     		ldr	r2, [r1, #12]
 123              		.loc 1 520 0 discriminator 1
 124 001a 019B     		ldr	r3, [sp, #4]
 125 001c 0133     		adds	r3, r3, #1
 126 001e 0193     		str	r3, [sp, #4]
 127              		.loc 1 521 0 discriminator 1
 128 0020 019B     		ldr	r3, [sp, #4]
 129 0022 B3F5005F 		cmp	r3, #8192
 130              		.loc 1 519 0 discriminator 1
 131 0026 02F04002 		and	r2, r2, #64
 132              	.LVL5:
 133              		.loc 1 521 0 discriminator 1
 134 002a F4D1     		bne	.L17
 135              	.L11:
 136              	.LBB76:
 137              	.LBB77:
 138              		.loc 1 523 0
 139 002c 044B     		ldr	r3, .L18
 140 002e D868     		ldr	r0, [r3, #12]
 141              		.loc 1 525 0
 142 0030 C0F38010 		ubfx	r0, r0, #6, #1
 143              	.LVL6:
 144              	.LBE77:
 145              	.LBE76:
 146              		.loc 1 538 0
 147 0034 02B0     		add	sp, sp, #8
 148              		@ sp needed
 149 0036 7047     		bx	lr
 150              	.LVL7:
 151              	.L13:
 152              		.loc 1 534 0
 153 0038 0120     		movs	r0, #1
 154              	.LVL8:
 155              		.loc 1 538 0
 156 003a 02B0     		add	sp, sp, #8
 157              		@ sp needed
 158 003c 7047     		bx	lr
 159              	.L19:
 160 003e 00BF     		.align	2
 161              	.L18:
 162 0040 00280040 		.word	1073752064
 163              		.cfi_endproc
 164              	.LFE115:
 165              		.size	RTC_EnterInitMode, .-RTC_EnterInitMode
 166 0044 AFF30080 		.section	.text.RTC_Init,"ax",%progbits
 166      AFF30080 
 166      AFF30080 
 167              		.align	2
 168              		.p2align 4,,15
ARM GAS  /tmp/ccadBNMM.s 			page 4


 169              		.global	RTC_Init
 170              		.thumb
 171              		.thumb_func
 172              		.type	RTC_Init, %function
 173              	RTC_Init:
 174              	.LFB112:
 175              		.loc 1 410 0
 176              		.cfi_startproc
 177              		@ args = 0, pretend = 0, frame = 0
 178              		@ frame_needed = 0, uses_anonymous_args = 0
 179              	.LVL9:
 180 0000 38B5     		push	{r3, r4, r5, lr}
 181              		.cfi_def_cfa_offset 16
 182              		.cfi_offset 3, -16
 183              		.cfi_offset 4, -12
 184              		.cfi_offset 5, -8
 185              		.cfi_offset 14, -4
 186              		.loc 1 419 0
 187 0002 104C     		ldr	r4, .L23
 188 0004 CA22     		movs	r2, #202
 189              		.loc 1 420 0
 190 0006 5323     		movs	r3, #83
 191              		.loc 1 419 0
 192 0008 6262     		str	r2, [r4, #36]
 193              		.loc 1 420 0
 194 000a 6362     		str	r3, [r4, #36]
 195              		.loc 1 410 0
 196 000c 0546     		mov	r5, r0
 197              		.loc 1 423 0
 198 000e FFF7FEFF 		bl	RTC_EnterInitMode
 199              	.LVL10:
 200 0012 98B1     		cbz	r0, .L21
 201              		.loc 1 430 0
 202 0014 A368     		ldr	r3, [r4, #8]
 203 0016 23F04003 		bic	r3, r3, #64
 204 001a A360     		str	r3, [r4, #8]
 205              		.loc 1 432 0
 206 001c A268     		ldr	r2, [r4, #8]
 207 001e 2B68     		ldr	r3, [r5]
 208 0020 1343     		orrs	r3, r3, r2
 209 0022 A360     		str	r3, [r4, #8]
 210              		.loc 1 435 0
 211 0024 AB68     		ldr	r3, [r5, #8]
 212 0026 2361     		str	r3, [r4, #16]
 213              		.loc 1 436 0
 214 0028 2369     		ldr	r3, [r4, #16]
 215 002a 6A68     		ldr	r2, [r5, #4]
 216 002c 43EA0243 		orr	r3, r3, r2, lsl #16
 217 0030 2361     		str	r3, [r4, #16]
 218              	.LBB78:
 219              	.LBB79:
 220              		.loc 1 552 0
 221 0032 E368     		ldr	r3, [r4, #12]
 222 0034 23F08003 		bic	r3, r3, #128
 223 0038 E360     		str	r3, [r4, #12]
 224              	.LVL11:
 225              	.LBE79:
ARM GAS  /tmp/ccadBNMM.s 			page 5


 226              	.LBE78:
 227              		.loc 1 441 0
 228 003a 0120     		movs	r0, #1
 229              	.LVL12:
 230              	.L21:
 231              		.loc 1 444 0
 232 003c 014B     		ldr	r3, .L23
 233 003e FF22     		movs	r2, #255
 234 0040 5A62     		str	r2, [r3, #36]
 235              		.loc 1 447 0
 236 0042 38BD     		pop	{r3, r4, r5, pc}
 237              	.LVL13:
 238              	.L24:
 239              		.align	2
 240              	.L23:
 241 0044 00280040 		.word	1073752064
 242              		.cfi_endproc
 243              	.LFE112:
 244              		.size	RTC_Init, .-RTC_Init
 245 0048 AFF30080 		.section	.text.RTC_ExitInitMode,"ax",%progbits
 245      AFF30080 
 246              		.align	2
 247              		.p2align 4,,15
 248              		.global	RTC_ExitInitMode
 249              		.thumb
 250              		.thumb_func
 251              		.type	RTC_ExitInitMode, %function
 252              	RTC_ExitInitMode:
 253              	.LFB116:
 254              		.loc 1 550 0
 255              		.cfi_startproc
 256              		@ args = 0, pretend = 0, frame = 0
 257              		@ frame_needed = 0, uses_anonymous_args = 0
 258              		@ link register save eliminated.
 259              		.loc 1 552 0
 260 0000 024B     		ldr	r3, .L26
 261 0002 DA68     		ldr	r2, [r3, #12]
 262 0004 22F08002 		bic	r2, r2, #128
 263 0008 DA60     		str	r2, [r3, #12]
 264 000a 7047     		bx	lr
 265              	.L27:
 266              		.align	2
 267              	.L26:
 268 000c 00280040 		.word	1073752064
 269              		.cfi_endproc
 270              	.LFE116:
 271              		.size	RTC_ExitInitMode, .-RTC_ExitInitMode
 272              		.section	.text.RTC_WaitForSynchro,"ax",%progbits
 273              		.align	2
 274              		.p2align 4,,15
 275              		.global	RTC_WaitForSynchro
 276              		.thumb
 277              		.thumb_func
 278              		.type	RTC_WaitForSynchro, %function
 279              	RTC_WaitForSynchro:
 280              	.LFB117:
 281              		.loc 1 572 0
ARM GAS  /tmp/ccadBNMM.s 			page 6


 282              		.cfi_startproc
 283              		@ args = 0, pretend = 0, frame = 8
 284              		@ frame_needed = 0, uses_anonymous_args = 0
 285              		@ link register save eliminated.
 286 0000 82B0     		sub	sp, sp, #8
 287              		.cfi_def_cfa_offset 8
 288              		.loc 1 573 0
 289 0002 0023     		movs	r3, #0
 290              		.loc 1 577 0
 291 0004 1149     		ldr	r1, .L37
 292              		.loc 1 573 0
 293 0006 0193     		str	r3, [sp, #4]
 294              	.LVL14:
 295              		.loc 1 577 0
 296 0008 8B68     		ldr	r3, [r1, #8]
 297 000a 9B06     		lsls	r3, r3, #26
 298 000c 1BD4     		bmi	.L32
 299              		.loc 1 586 0
 300 000e 5323     		movs	r3, #83
 301              		.loc 1 585 0
 302 0010 CA22     		movs	r2, #202
 303 0012 4A62     		str	r2, [r1, #36]
 304              		.loc 1 586 0
 305 0014 4B62     		str	r3, [r1, #36]
 306              		.loc 1 589 0
 307 0016 CB68     		ldr	r3, [r1, #12]
 308 0018 23F0A003 		bic	r3, r3, #160
 309 001c CB60     		str	r3, [r1, #12]
 310 001e 00E0     		b	.L31
 311              	.LVL15:
 312              	.L36:
 313              		.loc 1 596 0 discriminator 1
 314 0020 4AB9     		cbnz	r2, .L30
 315              	.LVL16:
 316              	.L31:
 317              		.loc 1 594 0 discriminator 1
 318 0022 CA68     		ldr	r2, [r1, #12]
 319              		.loc 1 595 0 discriminator 1
 320 0024 019B     		ldr	r3, [sp, #4]
 321 0026 0133     		adds	r3, r3, #1
 322 0028 0193     		str	r3, [sp, #4]
 323              		.loc 1 596 0 discriminator 1
 324 002a 019B     		ldr	r3, [sp, #4]
 325 002c B3F5004F 		cmp	r3, #32768
 326              		.loc 1 594 0 discriminator 1
 327 0030 02F02002 		and	r2, r2, #32
 328              	.LVL17:
 329              		.loc 1 596 0 discriminator 1
 330 0034 F4D1     		bne	.L36
 331              	.L30:
 332              	.LBB82:
 333              	.LBB83:
 334              		.loc 1 598 0
 335 0036 054B     		ldr	r3, .L37
 336 0038 D868     		ldr	r0, [r3, #12]
 337              		.loc 1 608 0
 338 003a FF22     		movs	r2, #255
ARM GAS  /tmp/ccadBNMM.s 			page 7


 339              	.LVL18:
 340              		.loc 1 600 0
 341 003c C0F34010 		ubfx	r0, r0, #5, #1
 342              	.LVL19:
 343              		.loc 1 608 0
 344 0040 5A62     		str	r2, [r3, #36]
 345              	.LVL20:
 346              	.LBE83:
 347              	.LBE82:
 348              		.loc 1 612 0
 349 0042 02B0     		add	sp, sp, #8
 350              		@ sp needed
 351 0044 7047     		bx	lr
 352              	.LVL21:
 353              	.L32:
 354              		.loc 1 580 0
 355 0046 0120     		movs	r0, #1
 356              	.LVL22:
 357              		.loc 1 612 0
 358 0048 02B0     		add	sp, sp, #8
 359              		@ sp needed
 360 004a 7047     		bx	lr
 361              	.L38:
 362              		.align	2
 363              	.L37:
 364 004c 00280040 		.word	1073752064
 365              		.cfi_endproc
 366              	.LFE117:
 367              		.size	RTC_WaitForSynchro, .-RTC_WaitForSynchro
 368              		.section	.text.RTC_DeInit,"ax",%progbits
 369              		.align	2
 370              		.p2align 4,,15
 371              		.global	RTC_DeInit
 372              		.thumb
 373              		.thumb_func
 374              		.type	RTC_DeInit, %function
 375              	RTC_DeInit:
 376              	.LFB111:
 377              		.loc 1 327 0
 378              		.cfi_startproc
 379              		@ args = 0, pretend = 0, frame = 8
 380              		@ frame_needed = 0, uses_anonymous_args = 0
 381 0000 30B5     		push	{r4, r5, lr}
 382              		.cfi_def_cfa_offset 12
 383              		.cfi_offset 4, -12
 384              		.cfi_offset 5, -8
 385              		.cfi_offset 14, -4
 386              		.loc 1 333 0
 387 0002 204C     		ldr	r4, .L53
 388              		.loc 1 327 0
 389 0004 83B0     		sub	sp, sp, #12
 390              		.cfi_def_cfa_offset 24
 391              		.loc 1 328 0
 392 0006 0025     		movs	r5, #0
 393              		.loc 1 333 0
 394 0008 CA22     		movs	r2, #202
 395              		.loc 1 334 0
ARM GAS  /tmp/ccadBNMM.s 			page 8


 396 000a 5323     		movs	r3, #83
 397              		.loc 1 328 0
 398 000c 0195     		str	r5, [sp, #4]
 399              	.LVL23:
 400              		.loc 1 333 0
 401 000e 6262     		str	r2, [r4, #36]
 402              		.loc 1 334 0
 403 0010 6362     		str	r3, [r4, #36]
 404              		.loc 1 337 0
 405 0012 FFF7FEFF 		bl	RTC_EnterInitMode
 406              	.LVL24:
 407 0016 C0B1     		cbz	r0, .L44
 408              		.loc 1 345 0
 409 0018 42F20113 		movw	r3, #8449
 410              		.loc 1 344 0
 411 001c 2560     		str	r5, [r4]
 412              		.loc 1 345 0
 413 001e 6360     		str	r3, [r4, #4]
 414              		.loc 1 348 0
 415 0020 A368     		ldr	r3, [r4, #8]
 416 0022 03F00703 		and	r3, r3, #7
 417 0026 A360     		str	r3, [r4, #8]
 418              		.loc 1 353 0
 419 0028 2146     		mov	r1, r4
 420 002a 00E0     		b	.L43
 421              	.LVL25:
 422              	.L51:
 423              		.loc 1 355 0 discriminator 1
 424 002c 4AB9     		cbnz	r2, .L42
 425              	.LVL26:
 426              	.L43:
 427              		.loc 1 353 0 discriminator 1
 428 002e CA68     		ldr	r2, [r1, #12]
 429              		.loc 1 354 0 discriminator 1
 430 0030 019B     		ldr	r3, [sp, #4]
 431 0032 0133     		adds	r3, r3, #1
 432 0034 0193     		str	r3, [sp, #4]
 433              		.loc 1 355 0 discriminator 1
 434 0036 019B     		ldr	r3, [sp, #4]
 435 0038 B3F5005F 		cmp	r3, #8192
 436              		.loc 1 353 0 discriminator 1
 437 003c 02F00402 		and	r2, r2, #4
 438              	.LVL27:
 439              		.loc 1 355 0 discriminator 1
 440 0040 F4D1     		bne	.L51
 441              	.L42:
 442              		.loc 1 357 0
 443 0042 104B     		ldr	r3, .L53
 444 0044 DA68     		ldr	r2, [r3, #12]
 445              	.LVL28:
 446 0046 5207     		lsls	r2, r2, #29
 447 0048 05D4     		bmi	.L52
 448              	.L44:
 449              		.loc 1 339 0
 450 004a 0020     		movs	r0, #0
 451              	.L41:
 452              	.LVL29:
ARM GAS  /tmp/ccadBNMM.s 			page 9


 453              		.loc 1 393 0
 454 004c 0D4B     		ldr	r3, .L53
 455 004e FF22     		movs	r2, #255
 456 0050 5A62     		str	r2, [r3, #36]
 457              		.loc 1 396 0
 458 0052 03B0     		add	sp, sp, #12
 459              		@ sp needed
 460 0054 30BD     		pop	{r4, r5, pc}
 461              	.LVL30:
 462              	.L52:
 463              		.loc 1 364 0
 464 0056 0022     		movs	r2, #0
 465              		.loc 1 365 0
 466 0058 4FF6FF70 		movw	r0, #65535
 467              		.loc 1 366 0
 468 005c 0A49     		ldr	r1, .L53+4
 469              		.loc 1 364 0
 470 005e 9C68     		ldr	r4, [r3, #8]
 471 0060 9A60     		str	r2, [r3, #8]
 472              		.loc 1 365 0
 473 0062 5861     		str	r0, [r3, #20]
 474              		.loc 1 366 0
 475 0064 1961     		str	r1, [r3, #16]
 476              		.loc 1 367 0
 477 0066 DA61     		str	r2, [r3, #28]
 478              		.loc 1 368 0
 479 0068 1A62     		str	r2, [r3, #32]
 480              		.loc 1 369 0
 481 006a DA62     		str	r2, [r3, #44]
 482              		.loc 1 370 0
 483 006c DA63     		str	r2, [r3, #60]
 484              		.loc 1 371 0
 485 006e 5A64     		str	r2, [r3, #68]
 486              		.loc 1 372 0
 487 0070 9A64     		str	r2, [r3, #72]
 488              		.loc 1 375 0
 489 0072 DA60     		str	r2, [r3, #12]
 490              		.loc 1 378 0
 491 0074 1A64     		str	r2, [r3, #64]
 492              		.loc 1 381 0
 493 0076 FFF7FEFF 		bl	RTC_WaitForSynchro
 494              	.LVL31:
 495              		.loc 1 339 0
 496 007a 0030     		adds	r0, r0, #0
 497 007c 18BF     		it	ne
 498 007e 0120     		movne	r0, #1
 499 0080 E4E7     		b	.L41
 500              	.L54:
 501 0082 00BF     		.align	2
 502              	.L53:
 503 0084 00280040 		.word	1073752064
 504 0088 FF007F00 		.word	8323327
 505              		.cfi_endproc
 506              	.LFE111:
 507              		.size	RTC_DeInit, .-RTC_DeInit
 508 008c AFF30080 		.section	.text.RTC_RefClockCmd,"ax",%progbits
 509              		.align	2
ARM GAS  /tmp/ccadBNMM.s 			page 10


 510              		.p2align 4,,15
 511              		.global	RTC_RefClockCmd
 512              		.thumb
 513              		.thumb_func
 514              		.type	RTC_RefClockCmd, %function
 515              	RTC_RefClockCmd:
 516              	.LFB118:
 517              		.loc 1 623 0
 518              		.cfi_startproc
 519              		@ args = 0, pretend = 0, frame = 0
 520              		@ frame_needed = 0, uses_anonymous_args = 0
 521              	.LVL32:
 522 0000 38B5     		push	{r3, r4, r5, lr}
 523              		.cfi_def_cfa_offset 16
 524              		.cfi_offset 3, -16
 525              		.cfi_offset 4, -12
 526              		.cfi_offset 5, -8
 527              		.cfi_offset 14, -4
 528              		.loc 1 630 0
 529 0002 0E4C     		ldr	r4, .L61
 530 0004 CA22     		movs	r2, #202
 531              		.loc 1 631 0
 532 0006 5323     		movs	r3, #83
 533              		.loc 1 630 0
 534 0008 6262     		str	r2, [r4, #36]
 535              		.loc 1 631 0
 536 000a 6362     		str	r3, [r4, #36]
 537              		.loc 1 623 0
 538 000c 0546     		mov	r5, r0
 539              		.loc 1 634 0
 540 000e FFF7FEFF 		bl	RTC_EnterInitMode
 541              	.LVL33:
 542 0012 50B1     		cbz	r0, .L56
 543              		.loc 1 643 0
 544 0014 A368     		ldr	r3, [r4, #8]
 545              		.loc 1 640 0
 546 0016 65B9     		cbnz	r5, .L60
 547              		.loc 1 648 0
 548 0018 23F01003 		bic	r3, r3, #16
 549 001c A360     		str	r3, [r4, #8]
 550              	.L58:
 551              	.LBB84:
 552              	.LBB85:
 553              		.loc 1 552 0
 554 001e 074B     		ldr	r3, .L61
 555 0020 DA68     		ldr	r2, [r3, #12]
 556 0022 22F08002 		bic	r2, r2, #128
 557 0026 DA60     		str	r2, [r3, #12]
 558              	.LVL34:
 559              	.LBE85:
 560              	.LBE84:
 561              		.loc 1 653 0
 562 0028 0120     		movs	r0, #1
 563              	.LVL35:
 564              	.L56:
 565              		.loc 1 657 0
 566 002a 044B     		ldr	r3, .L61
ARM GAS  /tmp/ccadBNMM.s 			page 11


 567 002c FF22     		movs	r2, #255
 568 002e 5A62     		str	r2, [r3, #36]
 569              		.loc 1 660 0
 570 0030 38BD     		pop	{r3, r4, r5, pc}
 571              	.LVL36:
 572              	.L60:
 573              		.loc 1 643 0
 574 0032 43F01003 		orr	r3, r3, #16
 575 0036 A360     		str	r3, [r4, #8]
 576 0038 F1E7     		b	.L58
 577              	.L62:
 578 003a 00BF     		.align	2
 579              	.L61:
 580 003c 00280040 		.word	1073752064
 581              		.cfi_endproc
 582              	.LFE118:
 583              		.size	RTC_RefClockCmd, .-RTC_RefClockCmd
 584              		.section	.text.RTC_BypassShadowCmd,"ax",%progbits
 585              		.align	2
 586              		.p2align 4,,15
 587              		.global	RTC_BypassShadowCmd
 588              		.thumb
 589              		.thumb_func
 590              		.type	RTC_BypassShadowCmd, %function
 591              	RTC_BypassShadowCmd:
 592              	.LFB119:
 593              		.loc 1 671 0
 594              		.cfi_startproc
 595              		@ args = 0, pretend = 0, frame = 0
 596              		@ frame_needed = 0, uses_anonymous_args = 0
 597              		@ link register save eliminated.
 598              	.LVL37:
 599              		.loc 1 676 0
 600 0000 0A4B     		ldr	r3, .L67
 601              		.loc 1 677 0
 602 0002 5322     		movs	r2, #83
 603              		.loc 1 676 0
 604 0004 CA21     		movs	r1, #202
 605 0006 5962     		str	r1, [r3, #36]
 606              		.loc 1 677 0
 607 0008 5A62     		str	r2, [r3, #36]
 608              		.loc 1 682 0
 609 000a 9A68     		ldr	r2, [r3, #8]
 610              		.loc 1 679 0
 611 000c 30B9     		cbnz	r0, .L66
 612              		.loc 1 687 0
 613 000e 02F0DF02 		and	r2, r2, #223
 614 0012 9A60     		str	r2, [r3, #8]
 615              		.loc 1 691 0
 616 0014 054B     		ldr	r3, .L67
 617 0016 FF22     		movs	r2, #255
 618 0018 5A62     		str	r2, [r3, #36]
 619 001a 7047     		bx	lr
 620              	.L66:
 621              		.loc 1 682 0
 622 001c 42F02002 		orr	r2, r2, #32
 623 0020 9A60     		str	r2, [r3, #8]
ARM GAS  /tmp/ccadBNMM.s 			page 12


 624              		.loc 1 691 0
 625 0022 024B     		ldr	r3, .L67
 626 0024 FF22     		movs	r2, #255
 627 0026 5A62     		str	r2, [r3, #36]
 628 0028 7047     		bx	lr
 629              	.L68:
 630 002a 00BF     		.align	2
 631              	.L67:
 632 002c 00280040 		.word	1073752064
 633              		.cfi_endproc
 634              	.LFE119:
 635              		.size	RTC_BypassShadowCmd, .-RTC_BypassShadowCmd
 636              		.section	.text.RTC_SetTime,"ax",%progbits
 637              		.align	2
 638              		.p2align 4,,15
 639              		.global	RTC_SetTime
 640              		.thumb
 641              		.thumb_func
 642              		.type	RTC_SetTime, %function
 643              	RTC_SetTime:
 644              	.LFB120:
 645              		.loc 1 725 0
 646              		.cfi_startproc
 647              		@ args = 0, pretend = 0, frame = 0
 648              		@ frame_needed = 0, uses_anonymous_args = 0
 649              	.LVL38:
 650 0000 38B5     		push	{r3, r4, r5, lr}
 651              		.cfi_def_cfa_offset 16
 652              		.cfi_offset 3, -16
 653              		.cfi_offset 4, -12
 654              		.cfi_offset 5, -8
 655              		.cfi_offset 14, -4
 656              		.loc 1 734 0
 657 0002 394B     		ldr	r3, .L93
 658              		.loc 1 732 0
 659 0004 0028     		cmp	r0, #0
 660 0006 36D1     		bne	.L70
 661              		.loc 1 734 0
 662 0008 9C68     		ldr	r4, [r3, #8]
 663 000a 14F04004 		ands	r4, r4, #64
 664 000e 58D1     		bne	.L71
 665              		.loc 1 741 0
 666 0010 CC70     		strb	r4, [r1, #3]
 667              	.L72:
 668              		.loc 1 774 0
 669 0012 0B78     		ldrb	r3, [r1]	@ zero_extendqisi2
 670              	.LVL39:
 671              	.LBB86:
 672              	.LBB87:
 673              		.loc 1 2563 0
 674 0014 092B     		cmp	r3, #9
 675              		.loc 1 2561 0
 676 0016 4FF00002 		mov	r2, #0
 677              		.loc 1 2563 0
 678 001a 07D9     		bls	.L84
 679              	.LVL40:
 680              	.L85:
ARM GAS  /tmp/ccadBNMM.s 			page 13


 681              		.loc 1 2566 0
 682 001c 0A3B     		subs	r3, r3, #10
 683              	.LVL41:
 684 001e DBB2     		uxtb	r3, r3
 685              	.LVL42:
 686              		.loc 1 2565 0
 687 0020 0132     		adds	r2, r2, #1
 688              	.LVL43:
 689              		.loc 1 2563 0
 690 0022 092B     		cmp	r3, #9
 691              		.loc 1 2565 0
 692 0024 D2B2     		uxtb	r2, r2
 693              	.LVL44:
 694              		.loc 1 2563 0
 695 0026 F9D8     		bhi	.L85
 696 0028 1201     		lsls	r2, r2, #4
 697              	.LVL45:
 698 002a D2B2     		uxtb	r2, r2
 699              	.LVL46:
 700              	.L84:
 701              	.LBE87:
 702              	.LBE86:
 703              		.loc 1 775 0
 704 002c 4878     		ldrb	r0, [r1, #1]	@ zero_extendqisi2
 705              	.LVL47:
 706              		.loc 1 774 0
 707 002e 1343     		orrs	r3, r3, r2
 708              	.LBB88:
 709              	.LBB89:
 710              		.loc 1 2563 0
 711 0030 0928     		cmp	r0, #9
 712              	.LBE89:
 713              	.LBE88:
 714              		.loc 1 774 0
 715 0032 4FEA0343 		lsl	r3, r3, #16
 716              	.LBB92:
 717              	.LBB90:
 718              		.loc 1 2563 0
 719 0036 54D9     		bls	.L86
 720              		.loc 1 2561 0
 721 0038 0022     		movs	r2, #0
 722              	.LVL48:
 723              	.L78:
 724              		.loc 1 2566 0
 725 003a 0A38     		subs	r0, r0, #10
 726              	.LVL49:
 727 003c C0B2     		uxtb	r0, r0
 728              	.LVL50:
 729              		.loc 1 2565 0
 730 003e 0132     		adds	r2, r2, #1
 731              	.LVL51:
 732              		.loc 1 2563 0
 733 0040 0928     		cmp	r0, #9
 734              		.loc 1 2565 0
 735 0042 D2B2     		uxtb	r2, r2
 736              	.LVL52:
 737              		.loc 1 2563 0
ARM GAS  /tmp/ccadBNMM.s 			page 14


 738 0044 F9D8     		bhi	.L78
 739 0046 1201     		lsls	r2, r2, #4
 740              	.LVL53:
 741 0048 D5B2     		uxtb	r5, r2
 742              	.LVL54:
 743              	.L76:
 744              	.LBE90:
 745              	.LBE92:
 746              		.loc 1 776 0
 747 004a 8A78     		ldrb	r2, [r1, #2]	@ zero_extendqisi2
 748              	.LVL55:
 749              		.loc 1 775 0
 750 004c 2843     		orrs	r0, r0, r5
 751              	.LBB93:
 752              	.LBB94:
 753              		.loc 1 2563 0
 754 004e 092A     		cmp	r2, #9
 755              	.LBE94:
 756              	.LBE93:
 757              		.loc 1 775 0
 758 0050 4FEA0020 		lsl	r0, r0, #8
 759              	.LBB96:
 760              	.LBB95:
 761              		.loc 1 2561 0
 762 0054 4FF00001 		mov	r1, #0
 763              	.LVL56:
 764              		.loc 1 2563 0
 765 0058 07D9     		bls	.L79
 766              	.LVL57:
 767              	.L81:
 768              		.loc 1 2566 0
 769 005a 0A3A     		subs	r2, r2, #10
 770              	.LVL58:
 771 005c D2B2     		uxtb	r2, r2
 772              	.LVL59:
 773              		.loc 1 2565 0
 774 005e 0131     		adds	r1, r1, #1
 775              	.LVL60:
 776              		.loc 1 2563 0
 777 0060 092A     		cmp	r2, #9
 778              		.loc 1 2565 0
 779 0062 C9B2     		uxtb	r1, r1
 780              	.LVL61:
 781              		.loc 1 2563 0
 782 0064 F9D8     		bhi	.L81
 783 0066 0901     		lsls	r1, r1, #4
 784              	.LVL62:
 785 0068 C9B2     		uxtb	r1, r1
 786              	.LVL63:
 787              	.L79:
 788              	.LBE95:
 789              	.LBE96:
 790              		.loc 1 774 0
 791 006a 1C43     		orrs	r4, r4, r3
 792              		.loc 1 775 0
 793 006c 44EA0005 		orr	r5, r4, r0
 794              		.loc 1 776 0
ARM GAS  /tmp/ccadBNMM.s 			page 15


 795 0070 0A43     		orrs	r2, r2, r1
 796              		.loc 1 774 0
 797 0072 1543     		orrs	r5, r5, r2
 798              	.LVL64:
 799 0074 0CE0     		b	.L83
 800              	.LVL65:
 801              	.L70:
 802              		.loc 1 749 0
 803 0076 9B68     		ldr	r3, [r3, #8]
 804 0078 13F04003 		ands	r3, r3, #64
 805 007c 24D1     		bne	.L73
 806              		.loc 1 757 0
 807 007e CB70     		strb	r3, [r1, #3]
 808              	.L74:
 809              		.loc 1 768 0
 810 0080 4D78     		ldrb	r5, [r1, #1]	@ zero_extendqisi2
 811              		.loc 1 767 0
 812 0082 0878     		ldrb	r0, [r1]	@ zero_extendqisi2
 813              	.LVL66:
 814              		.loc 1 769 0
 815 0084 8A78     		ldrb	r2, [r1, #2]	@ zero_extendqisi2
 816              		.loc 1 768 0
 817 0086 2D02     		lsls	r5, r5, #8
 818              		.loc 1 767 0
 819 0088 45EA0045 		orr	r5, r5, r0, lsl #16
 820              		.loc 1 768 0
 821 008c 1543     		orrs	r5, r5, r2
 822              		.loc 1 767 0
 823 008e 1D43     		orrs	r5, r5, r3
 824              	.LVL67:
 825              	.L83:
 826              		.loc 1 781 0
 827 0090 154C     		ldr	r4, .L93
 828 0092 CA21     		movs	r1, #202
 829              		.loc 1 782 0
 830 0094 5323     		movs	r3, #83
 831              		.loc 1 781 0
 832 0096 6162     		str	r1, [r4, #36]
 833              		.loc 1 782 0
 834 0098 6362     		str	r3, [r4, #36]
 835              		.loc 1 785 0
 836 009a FFF7FEFF 		bl	RTC_EnterInitMode
 837              	.LVL68:
 838 009e 60B1     		cbz	r0, .L82
 839              		.loc 1 792 0
 840 00a0 05F07F32 		and	r2, r5, #2139062143
 841 00a4 22F0FE42 		bic	r2, r2, #2130706432
 842 00a8 2260     		str	r2, [r4]
 843              	.LBB97:
 844              	.LBB98:
 845              		.loc 1 552 0
 846 00aa E368     		ldr	r3, [r4, #12]
 847 00ac 23F08003 		bic	r3, r3, #128
 848 00b0 E360     		str	r3, [r4, #12]
 849              	.LBE98:
 850              	.LBE97:
 851              		.loc 1 798 0
ARM GAS  /tmp/ccadBNMM.s 			page 16


 852 00b2 A368     		ldr	r3, [r4, #8]
 853 00b4 9B06     		lsls	r3, r3, #26
 854 00b6 0AD5     		bpl	.L92
 855              		.loc 1 811 0
 856 00b8 0120     		movs	r0, #1
 857              	.L82:
 858              	.LVL69:
 859              		.loc 1 816 0
 860 00ba 0B4B     		ldr	r3, .L93
 861 00bc FF22     		movs	r2, #255
 862 00be 5A62     		str	r2, [r3, #36]
 863 00c0 38BD     		pop	{r3, r4, r5, pc}
 864              	.LVL70:
 865              	.L71:
 866 00c2 CC78     		ldrb	r4, [r1, #3]	@ zero_extendqisi2
 867 00c4 2404     		lsls	r4, r4, #16
 868 00c6 A4E7     		b	.L72
 869              	.L73:
 870 00c8 CB78     		ldrb	r3, [r1, #3]	@ zero_extendqisi2
 871 00ca 1B04     		lsls	r3, r3, #16
 872 00cc D8E7     		b	.L74
 873              	.LVL71:
 874              	.L92:
 875              		.loc 1 800 0
 876 00ce FFF7FEFF 		bl	RTC_WaitForSynchro
 877              	.LVL72:
 878              		.loc 1 816 0
 879 00d2 054B     		ldr	r3, .L93
 880              		.loc 1 787 0
 881 00d4 0030     		adds	r0, r0, #0
 882              		.loc 1 816 0
 883 00d6 4FF0FF02 		mov	r2, #255
 884              		.loc 1 787 0
 885 00da 18BF     		it	ne
 886 00dc 0120     		movne	r0, #1
 887              	.LVL73:
 888              		.loc 1 816 0
 889 00de 5A62     		str	r2, [r3, #36]
 890 00e0 38BD     		pop	{r3, r4, r5, pc}
 891              	.LVL74:
 892              	.L86:
 893              	.LBB99:
 894              	.LBB91:
 895              		.loc 1 2563 0
 896 00e2 0025     		movs	r5, #0
 897 00e4 B1E7     		b	.L76
 898              	.L94:
 899 00e6 00BF     		.align	2
 900              	.L93:
 901 00e8 00280040 		.word	1073752064
 902              	.LBE91:
 903              	.LBE99:
 904              		.cfi_endproc
 905              	.LFE120:
 906              		.size	RTC_SetTime, .-RTC_SetTime
 907 00ec AFF30080 		.section	.text.RTC_TimeStructInit,"ax",%progbits
 908              		.align	2
ARM GAS  /tmp/ccadBNMM.s 			page 17


 909              		.p2align 4,,15
 910              		.global	RTC_TimeStructInit
 911              		.thumb
 912              		.thumb_func
 913              		.type	RTC_TimeStructInit, %function
 914              	RTC_TimeStructInit:
 915              	.LFB121:
 916              		.loc 1 829 0
 917              		.cfi_startproc
 918              		@ args = 0, pretend = 0, frame = 0
 919              		@ frame_needed = 0, uses_anonymous_args = 0
 920              		@ link register save eliminated.
 921              	.LVL75:
 922              		.loc 1 831 0
 923 0000 0023     		movs	r3, #0
 924 0002 C370     		strb	r3, [r0, #3]
 925              		.loc 1 832 0
 926 0004 0370     		strb	r3, [r0]
 927              		.loc 1 833 0
 928 0006 4370     		strb	r3, [r0, #1]
 929              		.loc 1 834 0
 930 0008 8370     		strb	r3, [r0, #2]
 931 000a 7047     		bx	lr
 932              		.cfi_endproc
 933              	.LFE121:
 934              		.size	RTC_TimeStructInit, .-RTC_TimeStructInit
 935 000c AFF30080 		.section	.text.RTC_GetTime,"ax",%progbits
 936              		.align	2
 937              		.p2align 4,,15
 938              		.global	RTC_GetTime
 939              		.thumb
 940              		.thumb_func
 941              		.type	RTC_GetTime, %function
 942              	RTC_GetTime:
 943              	.LFB122:
 944              		.loc 1 848 0
 945              		.cfi_startproc
 946              		@ args = 0, pretend = 0, frame = 0
 947              		@ frame_needed = 0, uses_anonymous_args = 0
 948              		@ link register save eliminated.
 949              	.LVL76:
 950              		.loc 1 855 0
 951 0000 154B     		ldr	r3, .L98
 952 0002 1B68     		ldr	r3, [r3]
 953              	.LVL77:
 954              		.loc 1 848 0
 955 0004 70B4     		push	{r4, r5, r6}
 956              		.cfi_def_cfa_offset 12
 957              		.cfi_offset 4, -12
 958              		.cfi_offset 5, -8
 959              		.cfi_offset 6, -4
 960              		.loc 1 861 0
 961 0006 03F48006 		and	r6, r3, #4194304
 962              		.loc 1 860 0
 963 000a 03F07F04 		and	r4, r3, #127
 964              		.loc 1 858 0
 965 000e C3F30542 		ubfx	r2, r3, #16, #6
ARM GAS  /tmp/ccadBNMM.s 			page 18


 966              		.loc 1 861 0
 967 0012 360C     		lsrs	r6, r6, #16
 968              		.loc 1 859 0
 969 0014 C3F30623 		ubfx	r3, r3, #8, #7
 970              	.LVL78:
 971              		.loc 1 861 0
 972 0018 CE70     		strb	r6, [r1, #3]
 973              		.loc 1 860 0
 974 001a 8C70     		strb	r4, [r1, #2]
 975              		.loc 1 858 0
 976 001c 0A70     		strb	r2, [r1]
 977              		.loc 1 859 0
 978 001e 4B70     		strb	r3, [r1, #1]
 979              		.loc 1 864 0
 980 0020 B8B9     		cbnz	r0, .L96
 981              	.LVL79:
 982              	.LBB100:
 983              	.LBB101:
 984              		.loc 1 2580 0
 985 0022 2509     		lsrs	r5, r4, #4
 986              	.LBE101:
 987              	.LBE100:
 988              	.LBB104:
 989              	.LBB105:
 990 0024 1609     		lsrs	r6, r2, #4
 991              	.LBE105:
 992              	.LBE104:
 993              	.LBB108:
 994              	.LBB109:
 995 0026 1809     		lsrs	r0, r3, #4
 996              	.LVL80:
 997              	.LBE109:
 998              	.LBE108:
 999              	.LBB112:
 1000              	.LBB102:
 1001 0028 05EB8505 		add	r5, r5, r5, lsl #2
 1002              		.loc 1 2581 0
 1003 002c 04F00F04 		and	r4, r4, #15
 1004              	.LBE102:
 1005              	.LBE112:
 1006              	.LBB113:
 1007              	.LBB106:
 1008              		.loc 1 2580 0
 1009 0030 06EB8606 		add	r6, r6, r6, lsl #2
 1010              		.loc 1 2581 0
 1011 0034 02F00F02 		and	r2, r2, #15
 1012              	.LVL81:
 1013              	.LBE106:
 1014              	.LBE113:
 1015              	.LBB114:
 1016              	.LBB110:
 1017              		.loc 1 2580 0
 1018 0038 00EB8000 		add	r0, r0, r0, lsl #2
 1019              		.loc 1 2581 0
 1020 003c 03F00F03 		and	r3, r3, #15
 1021              	.LBE110:
 1022              	.LBE114:
ARM GAS  /tmp/ccadBNMM.s 			page 19


 1023              	.LBB115:
 1024              	.LBB103:
 1025 0040 04EB4505 		add	r5, r4, r5, lsl #1
 1026              	.LBE103:
 1027              	.LBE115:
 1028              	.LBB116:
 1029              	.LBB107:
 1030 0044 02EB4606 		add	r6, r2, r6, lsl #1
 1031              	.LBE107:
 1032              	.LBE116:
 1033              	.LBB117:
 1034              	.LBB111:
 1035 0048 03EB4003 		add	r3, r3, r0, lsl #1
 1036              	.LBE111:
 1037              	.LBE117:
 1038              		.loc 1 869 0
 1039 004c 8D70     		strb	r5, [r1, #2]
 1040              		.loc 1 867 0
 1041 004e 0E70     		strb	r6, [r1]
 1042              	.LVL82:
 1043              		.loc 1 868 0
 1044 0050 4B70     		strb	r3, [r1, #1]
 1045              	.LVL83:
 1046              	.L96:
 1047              		.loc 1 871 0
 1048 0052 70BC     		pop	{r4, r5, r6}
 1049 0054 7047     		bx	lr
 1050              	.L99:
 1051 0056 00BF     		.align	2
 1052              	.L98:
 1053 0058 00280040 		.word	1073752064
 1054              		.cfi_endproc
 1055              	.LFE122:
 1056              		.size	RTC_GetTime, .-RTC_GetTime
 1057 005c AFF30080 		.section	.text.RTC_GetSubSecond,"ax",%progbits
 1058              		.align	2
 1059              		.p2align 4,,15
 1060              		.global	RTC_GetSubSecond
 1061              		.thumb
 1062              		.thumb_func
 1063              		.type	RTC_GetSubSecond, %function
 1064              	RTC_GetSubSecond:
 1065              	.LFB123:
 1066              		.loc 1 881 0
 1067              		.cfi_startproc
 1068              		@ args = 0, pretend = 0, frame = 0
 1069              		@ frame_needed = 0, uses_anonymous_args = 0
 1070              		@ link register save eliminated.
 1071              	.LVL84:
 1072              		.loc 1 885 0
 1073 0000 014B     		ldr	r3, .L101
 1074 0002 986A     		ldr	r0, [r3, #40]
 1075              	.LVL85:
 1076              		.loc 1 888 0
 1077 0004 5B68     		ldr	r3, [r3, #4]
 1078              		.loc 1 891 0
 1079 0006 7047     		bx	lr
ARM GAS  /tmp/ccadBNMM.s 			page 20


 1080              	.L102:
 1081              		.align	2
 1082              	.L101:
 1083 0008 00280040 		.word	1073752064
 1084              		.cfi_endproc
 1085              	.LFE123:
 1086              		.size	RTC_GetSubSecond, .-RTC_GetSubSecond
 1087 000c AFF30080 		.section	.text.RTC_SetDate,"ax",%progbits
 1088              		.align	2
 1089              		.p2align 4,,15
 1090              		.global	RTC_SetDate
 1091              		.thumb
 1092              		.thumb_func
 1093              		.type	RTC_SetDate, %function
 1094              	RTC_SetDate:
 1095              	.LFB124:
 1096              		.loc 1 906 0
 1097              		.cfi_startproc
 1098              		@ args = 0, pretend = 0, frame = 0
 1099              		@ frame_needed = 0, uses_anonymous_args = 0
 1100              	.LVL86:
 1101 0000 38B5     		push	{r3, r4, r5, lr}
 1102              		.cfi_def_cfa_offset 16
 1103              		.cfi_offset 3, -16
 1104              		.cfi_offset 4, -12
 1105              		.cfi_offset 5, -8
 1106              		.cfi_offset 14, -4
 1107              		.loc 1 913 0
 1108 0002 0028     		cmp	r0, #0
 1109 0004 39D1     		bne	.L104
 1110              		.loc 1 913 0 is_stmt 0 discriminator 1
 1111 0006 4A78     		ldrb	r2, [r1, #1]	@ zero_extendqisi2
 1112 0008 D006     		lsls	r0, r2, #27
 1113              	.LVL87:
 1114 000a 04D5     		bpl	.L105
 1115              		.loc 1 915 0 is_stmt 1
 1116 000c 22F01002 		bic	r2, r2, #16
 1117 0010 0A32     		adds	r2, r2, #10
 1118 0012 D2B2     		uxtb	r2, r2
 1119 0014 4A70     		strb	r2, [r1, #1]
 1120              	.L105:
 1121              		.loc 1 943 0
 1122 0016 CB78     		ldrb	r3, [r1, #3]	@ zero_extendqisi2
 1123              	.LVL88:
 1124              	.LBB118:
 1125              	.LBB119:
 1126              		.loc 1 2563 0
 1127 0018 092B     		cmp	r3, #9
 1128              		.loc 1 2561 0
 1129 001a 4FF00000 		mov	r0, #0
 1130              		.loc 1 2563 0
 1131 001e 07D9     		bls	.L114
 1132              	.LVL89:
 1133              	.L115:
 1134              		.loc 1 2566 0
 1135 0020 0A3B     		subs	r3, r3, #10
 1136              	.LVL90:
ARM GAS  /tmp/ccadBNMM.s 			page 21


 1137 0022 DBB2     		uxtb	r3, r3
 1138              	.LVL91:
 1139              		.loc 1 2565 0
 1140 0024 0130     		adds	r0, r0, #1
 1141              	.LVL92:
 1142              		.loc 1 2563 0
 1143 0026 092B     		cmp	r3, #9
 1144              		.loc 1 2565 0
 1145 0028 C0B2     		uxtb	r0, r0
 1146              	.LVL93:
 1147              		.loc 1 2563 0
 1148 002a F9D8     		bhi	.L115
 1149 002c 0001     		lsls	r0, r0, #4
 1150              	.LVL94:
 1151 002e C0B2     		uxtb	r0, r0
 1152              	.LVL95:
 1153              	.L114:
 1154              	.LBE119:
 1155              	.LBE118:
 1156              		.loc 1 943 0
 1157 0030 0343     		orrs	r3, r3, r0
 1158              	.LBB120:
 1159              	.LBB121:
 1160              		.loc 1 2563 0
 1161 0032 092A     		cmp	r2, #9
 1162              	.LBE121:
 1163              	.LBE120:
 1164              		.loc 1 943 0
 1165 0034 4FEA0343 		lsl	r3, r3, #16
 1166              	.LVL96:
 1167              	.LBB124:
 1168              	.LBB122:
 1169              		.loc 1 2563 0
 1170 0038 4CD9     		bls	.L118
 1171              		.loc 1 2561 0
 1172 003a 0020     		movs	r0, #0
 1173              	.LVL97:
 1174              	.L109:
 1175              		.loc 1 2566 0
 1176 003c 0A3A     		subs	r2, r2, #10
 1177              	.LVL98:
 1178 003e D2B2     		uxtb	r2, r2
 1179              	.LVL99:
 1180              		.loc 1 2565 0
 1181 0040 0130     		adds	r0, r0, #1
 1182              	.LVL100:
 1183              		.loc 1 2563 0
 1184 0042 092A     		cmp	r2, #9
 1185              		.loc 1 2565 0
 1186 0044 C0B2     		uxtb	r0, r0
 1187              	.LVL101:
 1188              		.loc 1 2563 0
 1189 0046 F9D8     		bhi	.L109
 1190 0048 0001     		lsls	r0, r0, #4
 1191              	.LVL102:
 1192 004a C5B2     		uxtb	r5, r0
 1193              	.LVL103:
ARM GAS  /tmp/ccadBNMM.s 			page 22


 1194              	.L107:
 1195              	.LBE122:
 1196              	.LBE124:
 1197              		.loc 1 945 0
 1198 004c 8878     		ldrb	r0, [r1, #2]	@ zero_extendqisi2
 1199              	.LVL104:
 1200              		.loc 1 944 0
 1201 004e 2A43     		orrs	r2, r2, r5
 1202              	.LBB125:
 1203              	.LBB126:
 1204              		.loc 1 2563 0
 1205 0050 0928     		cmp	r0, #9
 1206              	.LBE126:
 1207              	.LBE125:
 1208              		.loc 1 944 0
 1209 0052 4FEA0222 		lsl	r2, r2, #8
 1210              	.LBB128:
 1211              	.LBB127:
 1212              		.loc 1 2561 0
 1213 0056 4FF00004 		mov	r4, #0
 1214              		.loc 1 2563 0
 1215 005a 07D9     		bls	.L110
 1216              	.LVL105:
 1217              	.L112:
 1218              		.loc 1 2566 0
 1219 005c 0A38     		subs	r0, r0, #10
 1220              	.LVL106:
 1221 005e C0B2     		uxtb	r0, r0
 1222              	.LVL107:
 1223              		.loc 1 2565 0
 1224 0060 0134     		adds	r4, r4, #1
 1225              	.LVL108:
 1226              		.loc 1 2563 0
 1227 0062 0928     		cmp	r0, #9
 1228              		.loc 1 2565 0
 1229 0064 E4B2     		uxtb	r4, r4
 1230              	.LVL109:
 1231              		.loc 1 2563 0
 1232 0066 F9D8     		bhi	.L112
 1233 0068 2401     		lsls	r4, r4, #4
 1234              	.LVL110:
 1235 006a E4B2     		uxtb	r4, r4
 1236              	.LVL111:
 1237              	.L110:
 1238              	.LBE127:
 1239              	.LBE128:
 1240              		.loc 1 946 0
 1241 006c 0D78     		ldrb	r5, [r1]	@ zero_extendqisi2
 1242              		.loc 1 943 0
 1243 006e 43EA4535 		orr	r5, r3, r5, lsl #13
 1244              		.loc 1 944 0
 1245 0072 1543     		orrs	r5, r5, r2
 1246              		.loc 1 945 0
 1247 0074 2043     		orrs	r0, r0, r4
 1248              		.loc 1 943 0
 1249 0076 0543     		orrs	r5, r5, r0
 1250              	.LVL112:
ARM GAS  /tmp/ccadBNMM.s 			page 23


 1251 0078 09E0     		b	.L116
 1252              	.LVL113:
 1253              	.L104:
 1254              		.loc 1 937 0
 1255 007a 4D78     		ldrb	r5, [r1, #1]	@ zero_extendqisi2
 1256              		.loc 1 936 0
 1257 007c CA78     		ldrb	r2, [r1, #3]	@ zero_extendqisi2
 1258              		.loc 1 938 0
 1259 007e 8B78     		ldrb	r3, [r1, #2]	@ zero_extendqisi2
 1260              		.loc 1 939 0
 1261 0080 0878     		ldrb	r0, [r1]	@ zero_extendqisi2
 1262              	.LVL114:
 1263              		.loc 1 937 0
 1264 0082 2D02     		lsls	r5, r5, #8
 1265              		.loc 1 936 0
 1266 0084 45EA0245 		orr	r5, r5, r2, lsl #16
 1267              		.loc 1 937 0
 1268 0088 1D43     		orrs	r5, r5, r3
 1269              		.loc 1 936 0
 1270 008a 45EA4035 		orr	r5, r5, r0, lsl #13
 1271              	.LVL115:
 1272              	.L116:
 1273              		.loc 1 950 0
 1274 008e 124C     		ldr	r4, .L125
 1275 0090 CA22     		movs	r2, #202
 1276              		.loc 1 951 0
 1277 0092 5323     		movs	r3, #83
 1278              		.loc 1 950 0
 1279 0094 6262     		str	r2, [r4, #36]
 1280              		.loc 1 951 0
 1281 0096 6362     		str	r3, [r4, #36]
 1282              		.loc 1 954 0
 1283 0098 FFF7FEFF 		bl	RTC_EnterInitMode
 1284              	.LVL116:
 1285 009c 60B1     		cbz	r0, .L113
 1286              		.loc 1 961 0
 1287 009e 25F07F40 		bic	r0, r5, #-16777216
 1288 00a2 20F0C000 		bic	r0, r0, #192
 1289 00a6 6060     		str	r0, [r4, #4]
 1290              	.LBB129:
 1291              	.LBB130:
 1292              		.loc 1 552 0
 1293 00a8 E368     		ldr	r3, [r4, #12]
 1294 00aa 23F08003 		bic	r3, r3, #128
 1295 00ae E360     		str	r3, [r4, #12]
 1296              	.LBE130:
 1297              	.LBE129:
 1298              		.loc 1 967 0
 1299 00b0 A368     		ldr	r3, [r4, #8]
 1300 00b2 9B06     		lsls	r3, r3, #26
 1301 00b4 04D5     		bpl	.L124
 1302              		.loc 1 980 0
 1303 00b6 0120     		movs	r0, #1
 1304              	.L113:
 1305              	.LVL117:
 1306              		.loc 1 984 0
 1307 00b8 074B     		ldr	r3, .L125
ARM GAS  /tmp/ccadBNMM.s 			page 24


 1308 00ba FF22     		movs	r2, #255
 1309 00bc 5A62     		str	r2, [r3, #36]
 1310 00be 38BD     		pop	{r3, r4, r5, pc}
 1311              	.LVL118:
 1312              	.L124:
 1313              		.loc 1 969 0
 1314 00c0 FFF7FEFF 		bl	RTC_WaitForSynchro
 1315              	.LVL119:
 1316              		.loc 1 984 0
 1317 00c4 044B     		ldr	r3, .L125
 1318              		.loc 1 956 0
 1319 00c6 0030     		adds	r0, r0, #0
 1320              		.loc 1 984 0
 1321 00c8 4FF0FF02 		mov	r2, #255
 1322              		.loc 1 956 0
 1323 00cc 18BF     		it	ne
 1324 00ce 0120     		movne	r0, #1
 1325              	.LVL120:
 1326              		.loc 1 984 0
 1327 00d0 5A62     		str	r2, [r3, #36]
 1328 00d2 38BD     		pop	{r3, r4, r5, pc}
 1329              	.LVL121:
 1330              	.L118:
 1331              	.LBB131:
 1332              	.LBB123:
 1333              		.loc 1 2563 0
 1334 00d4 0025     		movs	r5, #0
 1335 00d6 B9E7     		b	.L107
 1336              	.L126:
 1337              		.align	2
 1338              	.L125:
 1339 00d8 00280040 		.word	1073752064
 1340              	.LBE123:
 1341              	.LBE131:
 1342              		.cfi_endproc
 1343              	.LFE124:
 1344              		.size	RTC_SetDate, .-RTC_SetDate
 1345 00dc AFF30080 		.section	.text.RTC_DateStructInit,"ax",%progbits
 1346              		.align	2
 1347              		.p2align 4,,15
 1348              		.global	RTC_DateStructInit
 1349              		.thumb
 1350              		.thumb_func
 1351              		.type	RTC_DateStructInit, %function
 1352              	RTC_DateStructInit:
 1353              	.LFB125:
 1354              		.loc 1 997 0
 1355              		.cfi_startproc
 1356              		@ args = 0, pretend = 0, frame = 0
 1357              		@ frame_needed = 0, uses_anonymous_args = 0
 1358              		@ link register save eliminated.
 1359              	.LVL122:
 1360              		.loc 1 999 0
 1361 0000 0123     		movs	r3, #1
 1362              		.loc 1 1002 0
 1363 0002 0022     		movs	r2, #0
 1364 0004 C270     		strb	r2, [r0, #3]
ARM GAS  /tmp/ccadBNMM.s 			page 25


 1365              		.loc 1 999 0
 1366 0006 0370     		strb	r3, [r0]
 1367              		.loc 1 1000 0
 1368 0008 8370     		strb	r3, [r0, #2]
 1369              		.loc 1 1001 0
 1370 000a 4370     		strb	r3, [r0, #1]
 1371 000c 7047     		bx	lr
 1372              		.cfi_endproc
 1373              	.LFE125:
 1374              		.size	RTC_DateStructInit, .-RTC_DateStructInit
 1375 000e 00BF     		.section	.text.RTC_GetDate,"ax",%progbits
 1376              		.align	2
 1377              		.p2align 4,,15
 1378              		.global	RTC_GetDate
 1379              		.thumb
 1380              		.thumb_func
 1381              		.type	RTC_GetDate, %function
 1382              	RTC_GetDate:
 1383              	.LFB126:
 1384              		.loc 1 1016 0
 1385              		.cfi_startproc
 1386              		@ args = 0, pretend = 0, frame = 0
 1387              		@ frame_needed = 0, uses_anonymous_args = 0
 1388              		@ link register save eliminated.
 1389              	.LVL123:
 1390              		.loc 1 1023 0
 1391 0000 144B     		ldr	r3, .L130
 1392 0002 5B68     		ldr	r3, [r3, #4]
 1393              	.LVL124:
 1394              		.loc 1 1016 0
 1395 0004 F0B4     		push	{r4, r5, r6, r7}
 1396              		.cfi_def_cfa_offset 16
 1397              		.cfi_offset 4, -16
 1398              		.cfi_offset 5, -12
 1399              		.cfi_offset 6, -8
 1400              		.cfi_offset 7, -4
 1401              		.loc 1 1026 0
 1402 0006 C3F30742 		ubfx	r2, r3, #16, #8
 1403              		.loc 1 1028 0
 1404 000a 03F03F04 		and	r4, r3, #63
 1405              		.loc 1 1029 0
 1406 000e C3F34236 		ubfx	r6, r3, #13, #3
 1407              		.loc 1 1027 0
 1408 0012 C3F30423 		ubfx	r3, r3, #8, #5
 1409              	.LVL125:
 1410              		.loc 1 1029 0
 1411 0016 0E70     		strb	r6, [r1]
 1412              		.loc 1 1028 0
 1413 0018 8C70     		strb	r4, [r1, #2]
 1414              		.loc 1 1026 0
 1415 001a CA70     		strb	r2, [r1, #3]
 1416              		.loc 1 1027 0
 1417 001c 4B70     		strb	r3, [r1, #1]
 1418              		.loc 1 1032 0
 1419 001e B8B9     		cbnz	r0, .L128
 1420              	.LVL126:
 1421              	.LBB132:
ARM GAS  /tmp/ccadBNMM.s 			page 26


 1422              	.LBB133:
 1423              		.loc 1 2580 0
 1424 0020 1E09     		lsrs	r6, r3, #4
 1425              	.LBE133:
 1426              	.LBE132:
 1427              	.LBB137:
 1428              	.LBB138:
 1429 0022 2509     		lsrs	r5, r4, #4
 1430              	.LBE138:
 1431              	.LBE137:
 1432              	.LBB141:
 1433              	.LBB142:
 1434 0024 1009     		lsrs	r0, r2, #4
 1435              	.LVL127:
 1436              	.LBE142:
 1437              	.LBE141:
 1438              	.LBB145:
 1439              	.LBB134:
 1440 0026 B700     		lsls	r7, r6, #2
 1441              	.LBE134:
 1442              	.LBE145:
 1443              	.LBB146:
 1444              	.LBB139:
 1445 0028 05EB8505 		add	r5, r5, r5, lsl #2
 1446              		.loc 1 2581 0
 1447 002c 04F00F04 		and	r4, r4, #15
 1448              	.LBE139:
 1449              	.LBE146:
 1450              	.LBB147:
 1451              	.LBB135:
 1452 0030 03F00F03 		and	r3, r3, #15
 1453              		.loc 1 2580 0
 1454 0034 3E44     		add	r6, r6, r7
 1455              	.LBE135:
 1456              	.LBE147:
 1457              	.LBB148:
 1458              	.LBB143:
 1459 0036 00EB8000 		add	r0, r0, r0, lsl #2
 1460              		.loc 1 2581 0
 1461 003a 02F00F02 		and	r2, r2, #15
 1462              	.LVL128:
 1463              	.LBE143:
 1464              	.LBE148:
 1465              	.LBB149:
 1466              	.LBB140:
 1467 003e 04EB4505 		add	r5, r4, r5, lsl #1
 1468              	.LBE140:
 1469              	.LBE149:
 1470              	.LBB150:
 1471              	.LBB136:
 1472 0042 03EB4603 		add	r3, r3, r6, lsl #1
 1473              	.LBE136:
 1474              	.LBE150:
 1475              	.LBB151:
 1476              	.LBB144:
 1477 0046 02EB4000 		add	r0, r2, r0, lsl #1
 1478              	.LBE144:
ARM GAS  /tmp/ccadBNMM.s 			page 27


 1479              	.LBE151:
 1480              		.loc 1 1037 0
 1481 004a 8D70     		strb	r5, [r1, #2]
 1482              		.loc 1 1036 0
 1483 004c 4B70     		strb	r3, [r1, #1]
 1484              		.loc 1 1035 0
 1485 004e C870     		strb	r0, [r1, #3]
 1486              	.LVL129:
 1487              	.L128:
 1488              		.loc 1 1040 0
 1489 0050 F0BC     		pop	{r4, r5, r6, r7}
 1490 0052 7047     		bx	lr
 1491              	.L131:
 1492              		.align	2
 1493              	.L130:
 1494 0054 00280040 		.word	1073752064
 1495              		.cfi_endproc
 1496              	.LFE126:
 1497              		.size	RTC_GetDate, .-RTC_GetDate
 1498 0058 AFF30080 		.section	.text.RTC_SetAlarm,"ax",%progbits
 1498      AFF30080 
 1499              		.align	2
 1500              		.p2align 4,,15
 1501              		.global	RTC_SetAlarm
 1502              		.thumb
 1503              		.thumb_func
 1504              		.type	RTC_SetAlarm, %function
 1505              	RTC_SetAlarm:
 1506              	.LFB127:
 1507              		.loc 1 1076 0
 1508              		.cfi_startproc
 1509              		@ args = 0, pretend = 0, frame = 0
 1510              		@ frame_needed = 0, uses_anonymous_args = 0
 1511              		@ link register save eliminated.
 1512              	.LVL130:
 1513 0000 F0B4     		push	{r4, r5, r6, r7}
 1514              		.cfi_def_cfa_offset 16
 1515              		.cfi_offset 4, -16
 1516              		.cfi_offset 5, -12
 1517              		.cfi_offset 6, -8
 1518              		.cfi_offset 7, -4
 1519              		.loc 1 1087 0
 1520 0002 3E4B     		ldr	r3, .L158
 1521              		.loc 1 1085 0
 1522 0004 0028     		cmp	r0, #0
 1523 0006 4BD1     		bne	.L133
 1524              		.loc 1 1087 0
 1525 0008 9E68     		ldr	r6, [r3, #8]
 1526 000a 16F04006 		ands	r6, r6, #64
 1527 000e 6DD1     		bne	.L134
 1528              		.loc 1 1094 0
 1529 0010 D670     		strb	r6, [r2, #3]
 1530              	.L135:
 1531              		.loc 1 1151 0
 1532 0012 1378     		ldrb	r3, [r2]	@ zero_extendqisi2
 1533              	.LVL131:
 1534              	.LBB152:
ARM GAS  /tmp/ccadBNMM.s 			page 28


 1535              	.LBB153:
 1536              		.loc 1 2563 0
 1537 0014 092B     		cmp	r3, #9
 1538 0016 6CD9     		bls	.L156
 1539              		.loc 1 2561 0
 1540 0018 0020     		movs	r0, #0
 1541              	.LVL132:
 1542              	.L152:
 1543              		.loc 1 2566 0
 1544 001a 0A3B     		subs	r3, r3, #10
 1545              	.LVL133:
 1546 001c DBB2     		uxtb	r3, r3
 1547              	.LVL134:
 1548              		.loc 1 2565 0
 1549 001e 0130     		adds	r0, r0, #1
 1550              	.LVL135:
 1551              		.loc 1 2563 0
 1552 0020 092B     		cmp	r3, #9
 1553              		.loc 1 2565 0
 1554 0022 C0B2     		uxtb	r0, r0
 1555              	.LVL136:
 1556              		.loc 1 2563 0
 1557 0024 F9D8     		bhi	.L152
 1558 0026 0001     		lsls	r0, r0, #4
 1559              	.LVL137:
 1560 0028 C4B2     		uxtb	r4, r0
 1561              	.LVL138:
 1562              	.L151:
 1563              	.LBE153:
 1564              	.LBE152:
 1565              		.loc 1 1152 0
 1566 002a 5078     		ldrb	r0, [r2, #1]	@ zero_extendqisi2
 1567              	.LVL139:
 1568              		.loc 1 1151 0
 1569 002c 2343     		orrs	r3, r3, r4
 1570              	.LBB155:
 1571              	.LBB156:
 1572              		.loc 1 2563 0
 1573 002e 0928     		cmp	r0, #9
 1574              	.LBE156:
 1575              	.LBE155:
 1576              		.loc 1 1151 0
 1577 0030 4FEA0343 		lsl	r3, r3, #16
 1578              	.LBB159:
 1579              	.LBB157:
 1580              		.loc 1 2563 0
 1581 0034 5FD9     		bls	.L153
 1582              		.loc 1 2561 0
 1583 0036 0024     		movs	r4, #0
 1584              	.LVL140:
 1585              	.L141:
 1586              		.loc 1 2566 0
 1587 0038 0A38     		subs	r0, r0, #10
 1588              	.LVL141:
 1589 003a C0B2     		uxtb	r0, r0
 1590              	.LVL142:
 1591              		.loc 1 2565 0
ARM GAS  /tmp/ccadBNMM.s 			page 29


 1592 003c 0134     		adds	r4, r4, #1
 1593              	.LVL143:
 1594              		.loc 1 2563 0
 1595 003e 0928     		cmp	r0, #9
 1596              		.loc 1 2565 0
 1597 0040 E4B2     		uxtb	r4, r4
 1598              	.LVL144:
 1599              		.loc 1 2563 0
 1600 0042 F9D8     		bhi	.L141
 1601 0044 2401     		lsls	r4, r4, #4
 1602              	.LVL145:
 1603 0046 E7B2     		uxtb	r7, r4
 1604              	.LVL146:
 1605              	.L139:
 1606              	.LBE157:
 1607              	.LBE159:
 1608              		.loc 1 1153 0
 1609 0048 9478     		ldrb	r4, [r2, #2]	@ zero_extendqisi2
 1610              	.LVL147:
 1611              		.loc 1 1152 0
 1612 004a 3843     		orrs	r0, r0, r7
 1613              	.LBB160:
 1614              	.LBB161:
 1615              		.loc 1 2563 0
 1616 004c 092C     		cmp	r4, #9
 1617              	.LBE161:
 1618              	.LBE160:
 1619              		.loc 1 1152 0
 1620 004e 4FEA0027 		lsl	r7, r0, #8
 1621              	.LBB163:
 1622              	.LBB162:
 1623              		.loc 1 2561 0
 1624 0052 4FF00005 		mov	r5, #0
 1625              		.loc 1 2563 0
 1626 0056 07D9     		bls	.L142
 1627              	.LVL148:
 1628              	.L144:
 1629              		.loc 1 2566 0
 1630 0058 0A3C     		subs	r4, r4, #10
 1631              	.LVL149:
 1632 005a E4B2     		uxtb	r4, r4
 1633              	.LVL150:
 1634              		.loc 1 2565 0
 1635 005c 0135     		adds	r5, r5, #1
 1636              	.LVL151:
 1637              		.loc 1 2563 0
 1638 005e 092C     		cmp	r4, #9
 1639              		.loc 1 2565 0
 1640 0060 EDB2     		uxtb	r5, r5
 1641              	.LVL152:
 1642              		.loc 1 2563 0
 1643 0062 F9D8     		bhi	.L144
 1644 0064 2D01     		lsls	r5, r5, #4
 1645              	.LVL153:
 1646 0066 EDB2     		uxtb	r5, r5
 1647              	.LVL154:
 1648              	.L142:
ARM GAS  /tmp/ccadBNMM.s 			page 30


 1649              	.LBE162:
 1650              	.LBE163:
 1651              		.loc 1 1155 0
 1652 0068 107B     		ldrb	r0, [r2, #12]	@ zero_extendqisi2
 1653              	.LVL155:
 1654              	.LBB164:
 1655              	.LBB165:
 1656              		.loc 1 2563 0
 1657 006a 0928     		cmp	r0, #9
 1658              	.LBE165:
 1659              	.LBE164:
 1660              		.loc 1 1153 0
 1661 006c 45EA0404 		orr	r4, r5, r4
 1662              	.LBB167:
 1663              	.LBB166:
 1664              		.loc 1 2561 0
 1665 0070 4FF00005 		mov	r5, #0
 1666              		.loc 1 2563 0
 1667 0074 07D9     		bls	.L145
 1668              	.LVL156:
 1669              	.L147:
 1670              		.loc 1 2566 0
 1671 0076 0A38     		subs	r0, r0, #10
 1672              	.LVL157:
 1673 0078 C0B2     		uxtb	r0, r0
 1674              	.LVL158:
 1675              		.loc 1 2565 0
 1676 007a 0135     		adds	r5, r5, #1
 1677              	.LVL159:
 1678              		.loc 1 2563 0
 1679 007c 0928     		cmp	r0, #9
 1680              		.loc 1 2565 0
 1681 007e EDB2     		uxtb	r5, r5
 1682              	.LVL160:
 1683              		.loc 1 2563 0
 1684 0080 F9D8     		bhi	.L147
 1685 0082 2D01     		lsls	r5, r5, #4
 1686              	.LVL161:
 1687 0084 EDB2     		uxtb	r5, r5
 1688              	.LVL162:
 1689              	.L145:
 1690              	.LBE166:
 1691              	.LBE167:
 1692              		.loc 1 1151 0
 1693 0086 D2F804C0 		ldr	ip, [r2, #4]
 1694 008a 9268     		ldr	r2, [r2, #8]
 1695              	.LVL163:
 1696 008c 4CEA0202 		orr	r2, ip, r2
 1697              		.loc 1 1152 0
 1698 0090 1643     		orrs	r6, r6, r2
 1699              		.loc 1 1153 0
 1700 0092 3343     		orrs	r3, r3, r6
 1701              		.loc 1 1154 0
 1702 0094 1F43     		orrs	r7, r7, r3
 1703              		.loc 1 1155 0
 1704 0096 2843     		orrs	r0, r0, r5
 1705 0098 3C43     		orrs	r4, r4, r7
ARM GAS  /tmp/ccadBNMM.s 			page 31


 1706              		.loc 1 1151 0
 1707 009a 44EA0060 		orr	r0, r4, r0, lsl #24
 1708              	.LVL164:
 1709 009e 13E0     		b	.L150
 1710              	.LVL165:
 1711              	.L133:
 1712              		.loc 1 1111 0
 1713 00a0 9B68     		ldr	r3, [r3, #8]
 1714 00a2 13F04003 		ands	r3, r3, #64
 1715 00a6 1ED1     		bne	.L136
 1716              		.loc 1 1119 0
 1717 00a8 D370     		strb	r3, [r2, #3]
 1718              	.L137:
 1719              		.loc 1 1141 0
 1720 00aa 5768     		ldr	r7, [r2, #4]
 1721 00ac 9068     		ldr	r0, [r2, #8]
 1722              	.LVL166:
 1723              		.loc 1 1143 0
 1724 00ae 9678     		ldrb	r6, [r2, #2]	@ zero_extendqisi2
 1725              		.loc 1 1141 0
 1726 00b0 1578     		ldrb	r5, [r2]	@ zero_extendqisi2
 1727              		.loc 1 1142 0
 1728 00b2 5478     		ldrb	r4, [r2, #1]	@ zero_extendqisi2
 1729              		.loc 1 1145 0
 1730 00b4 127B     		ldrb	r2, [r2, #12]	@ zero_extendqisi2
 1731              	.LVL167:
 1732              		.loc 1 1141 0
 1733 00b6 3843     		orrs	r0, r0, r7
 1734              		.loc 1 1142 0
 1735 00b8 3043     		orrs	r0, r0, r6
 1736              		.loc 1 1143 0
 1737 00ba 40EA0540 		orr	r0, r0, r5, lsl #16
 1738              		.loc 1 1144 0
 1739 00be 40EA0420 		orr	r0, r0, r4, lsl #8
 1740              		.loc 1 1145 0
 1741 00c2 40EA0260 		orr	r0, r0, r2, lsl #24
 1742              		.loc 1 1141 0
 1743 00c6 1843     		orrs	r0, r0, r3
 1744              	.LVL168:
 1745              	.L150:
 1746              		.loc 1 1161 0
 1747 00c8 0C4B     		ldr	r3, .L158
 1748 00ca CA25     		movs	r5, #202
 1749              		.loc 1 1162 0
 1750 00cc 5322     		movs	r2, #83
 1751              		.loc 1 1165 0
 1752 00ce B1F5807F 		cmp	r1, #256
 1753              		.loc 1 1161 0
 1754 00d2 5D62     		str	r5, [r3, #36]
 1755              		.loc 1 1162 0
 1756 00d4 5A62     		str	r2, [r3, #36]
 1757              		.loc 1 1167 0
 1758 00d6 0CBF     		ite	eq
 1759 00d8 D861     		streq	r0, [r3, #28]
 1760              		.loc 1 1171 0
 1761 00da 1862     		strne	r0, [r3, #32]
 1762              		.loc 1 1175 0
ARM GAS  /tmp/ccadBNMM.s 			page 32


 1763 00dc 074B     		ldr	r3, .L158
 1764 00de FF22     		movs	r2, #255
 1765 00e0 5A62     		str	r2, [r3, #36]
 1766              		.loc 1 1176 0
 1767 00e2 F0BC     		pop	{r4, r5, r6, r7}
 1768 00e4 7047     		bx	lr
 1769              	.LVL169:
 1770              	.L136:
 1771 00e6 D378     		ldrb	r3, [r2, #3]	@ zero_extendqisi2
 1772 00e8 1B04     		lsls	r3, r3, #16
 1773 00ea DEE7     		b	.L137
 1774              	.L134:
 1775 00ec D678     		ldrb	r6, [r2, #3]	@ zero_extendqisi2
 1776 00ee 3604     		lsls	r6, r6, #16
 1777 00f0 8FE7     		b	.L135
 1778              	.LVL170:
 1779              	.L156:
 1780              	.LBB168:
 1781              	.LBB154:
 1782              		.loc 1 2563 0
 1783 00f2 0024     		movs	r4, #0
 1784 00f4 99E7     		b	.L151
 1785              	.LVL171:
 1786              	.L153:
 1787              	.LBE154:
 1788              	.LBE168:
 1789              	.LBB169:
 1790              	.LBB158:
 1791 00f6 0027     		movs	r7, #0
 1792 00f8 A6E7     		b	.L139
 1793              	.L159:
 1794 00fa 00BF     		.align	2
 1795              	.L158:
 1796 00fc 00280040 		.word	1073752064
 1797              	.LBE158:
 1798              	.LBE169:
 1799              		.cfi_endproc
 1800              	.LFE127:
 1801              		.size	RTC_SetAlarm, .-RTC_SetAlarm
 1802              		.section	.text.RTC_AlarmStructInit,"ax",%progbits
 1803              		.align	2
 1804              		.p2align 4,,15
 1805              		.global	RTC_AlarmStructInit
 1806              		.thumb
 1807              		.thumb_func
 1808              		.type	RTC_AlarmStructInit, %function
 1809              	RTC_AlarmStructInit:
 1810              	.LFB128:
 1811              		.loc 1 1187 0
 1812              		.cfi_startproc
 1813              		@ args = 0, pretend = 0, frame = 0
 1814              		@ frame_needed = 0, uses_anonymous_args = 0
 1815              		@ link register save eliminated.
 1816              	.LVL172:
 1817              		.loc 1 1189 0
 1818 0000 0023     		movs	r3, #0
 1819              		.loc 1 1196 0
ARM GAS  /tmp/ccadBNMM.s 			page 33


 1820 0002 0122     		movs	r2, #1
 1821 0004 0273     		strb	r2, [r0, #12]
 1822              		.loc 1 1189 0
 1823 0006 C370     		strb	r3, [r0, #3]
 1824              		.loc 1 1190 0
 1825 0008 0370     		strb	r3, [r0]
 1826              		.loc 1 1191 0
 1827 000a 4370     		strb	r3, [r0, #1]
 1828              		.loc 1 1192 0
 1829 000c 8370     		strb	r3, [r0, #2]
 1830              		.loc 1 1195 0
 1831 000e 8360     		str	r3, [r0, #8]
 1832              		.loc 1 1199 0
 1833 0010 4360     		str	r3, [r0, #4]
 1834 0012 7047     		bx	lr
 1835              		.cfi_endproc
 1836              	.LFE128:
 1837              		.size	RTC_AlarmStructInit, .-RTC_AlarmStructInit
 1838 0014 AFF30080 		.section	.text.RTC_GetAlarm,"ax",%progbits
 1838      AFF30080 
 1838      AFF30080 
 1839              		.align	2
 1840              		.p2align 4,,15
 1841              		.global	RTC_GetAlarm
 1842              		.thumb
 1843              		.thumb_func
 1844              		.type	RTC_GetAlarm, %function
 1845              	RTC_GetAlarm:
 1846              	.LFB129:
 1847              		.loc 1 1217 0
 1848              		.cfi_startproc
 1849              		@ args = 0, pretend = 0, frame = 0
 1850              		@ frame_needed = 0, uses_anonymous_args = 0
 1851              		@ link register save eliminated.
 1852              	.LVL173:
 1853              		.loc 1 1227 0
 1854 0000 234B     		ldr	r3, .L165
 1855              		.loc 1 1225 0
 1856 0002 B1F5807F 		cmp	r1, #256
 1857              		.loc 1 1227 0
 1858 0006 0CBF     		ite	eq
 1859 0008 DB69     		ldreq	r3, [r3, #28]
 1860              	.LVL174:
 1861              		.loc 1 1231 0
 1862 000a 1B6A     		ldrne	r3, [r3, #32]
 1863              	.LVL175:
 1864              		.loc 1 1217 0
 1865 000c 2DE9F001 		push	{r4, r5, r6, r7, r8}
 1866              		.cfi_def_cfa_offset 20
 1867              		.cfi_offset 4, -20
 1868              		.cfi_offset 5, -16
 1869              		.cfi_offset 6, -12
 1870              		.cfi_offset 7, -8
 1871              		.cfi_offset 8, -4
 1872              		.loc 1 1239 0
 1873 0010 DEB2     		uxtb	r6, r3
 1874              		.loc 1 1241 0
ARM GAS  /tmp/ccadBNMM.s 			page 34


 1875 0012 03F48008 		and	r8, r3, #4194304
 1876              		.loc 1 1235 0
 1877 0016 C3F30545 		ubfx	r5, r3, #16, #6
 1878              		.loc 1 1237 0
 1879 001a C3F30624 		ubfx	r4, r3, #8, #7
 1880              		.loc 1 1242 0
 1881 001e C3F30561 		ubfx	r1, r3, #24, #6
 1882              	.LVL176:
 1883              		.loc 1 1243 0
 1884 0022 03F0804C 		and	ip, r3, #1073741824
 1885              		.loc 1 1239 0
 1886 0026 06F07F07 		and	r7, r6, #127
 1887              		.loc 1 1241 0
 1888 002a 4FEA1848 		lsr	r8, r8, #16
 1889              		.loc 1 1244 0
 1890 002e 03F08033 		and	r3, r3, #-2139062144
 1891              	.LVL177:
 1892              		.loc 1 1239 0
 1893 0032 9770     		strb	r7, [r2, #2]
 1894              		.loc 1 1241 0
 1895 0034 82F80380 		strb	r8, [r2, #3]
 1896              		.loc 1 1235 0
 1897 0038 1570     		strb	r5, [r2]
 1898              		.loc 1 1237 0
 1899 003a 5470     		strb	r4, [r2, #1]
 1900              		.loc 1 1242 0
 1901 003c 1173     		strb	r1, [r2, #12]
 1902              		.loc 1 1243 0
 1903 003e C2F808C0 		str	ip, [r2, #8]
 1904              		.loc 1 1244 0
 1905 0042 5360     		str	r3, [r2, #4]
 1906              		.loc 1 1246 0
 1907 0044 08BB     		cbnz	r0, .L161
 1908              	.LVL178:
 1909              	.LBB170:
 1910              	.LBB171:
 1911              		.loc 1 2580 0
 1912 0046 4FEA151C 		lsr	ip, r5, #4
 1913              	.LBE171:
 1914              	.LBE170:
 1915              	.LBB174:
 1916              	.LBB175:
 1917 004a 2009     		lsrs	r0, r4, #4
 1918              	.LVL179:
 1919              	.LBE175:
 1920              	.LBE174:
 1921              	.LBB178:
 1922              	.LBB179:
 1923 004c 0B09     		lsrs	r3, r1, #4
 1924              	.LBE179:
 1925              	.LBE178:
 1926              	.LBB182:
 1927              	.LBB183:
 1928 004e 3F09     		lsrs	r7, r7, #4
 1929 0050 07EB8707 		add	r7, r7, r7, lsl #2
 1930              		.loc 1 2581 0
 1931 0054 06F00F06 		and	r6, r6, #15
ARM GAS  /tmp/ccadBNMM.s 			page 35


 1932              	.LBE183:
 1933              	.LBE182:
 1934              	.LBB185:
 1935              	.LBB172:
 1936              		.loc 1 2580 0
 1937 0058 0CEB8C0C 		add	ip, ip, ip, lsl #2
 1938              		.loc 1 2581 0
 1939 005c 05F00F05 		and	r5, r5, #15
 1940              	.LVL180:
 1941              	.LBE172:
 1942              	.LBE185:
 1943              	.LBB186:
 1944              	.LBB176:
 1945              		.loc 1 2580 0
 1946 0060 00EB8000 		add	r0, r0, r0, lsl #2
 1947              		.loc 1 2581 0
 1948 0064 04F00F04 		and	r4, r4, #15
 1949              	.LBE176:
 1950              	.LBE186:
 1951              	.LBB187:
 1952              	.LBB180:
 1953              		.loc 1 2580 0
 1954 0068 03EB8303 		add	r3, r3, r3, lsl #2
 1955              		.loc 1 2581 0
 1956 006c 01F00F01 		and	r1, r1, #15
 1957              	.LBE180:
 1958              	.LBE187:
 1959              	.LBB188:
 1960              	.LBB184:
 1961 0070 06EB4707 		add	r7, r6, r7, lsl #1
 1962              	.LBE184:
 1963              	.LBE188:
 1964              	.LBB189:
 1965              	.LBB173:
 1966 0074 05EB4C0C 		add	ip, r5, ip, lsl #1
 1967              	.LBE173:
 1968              	.LBE189:
 1969              	.LBB190:
 1970              	.LBB177:
 1971 0078 04EB4000 		add	r0, r4, r0, lsl #1
 1972              	.LBE177:
 1973              	.LBE190:
 1974              	.LBB191:
 1975              	.LBB181:
 1976 007c 01EB4303 		add	r3, r1, r3, lsl #1
 1977              	.LBE181:
 1978              	.LBE191:
 1979              		.loc 1 1252 0
 1980 0080 9770     		strb	r7, [r2, #2]
 1981              		.loc 1 1248 0
 1982 0082 82F800C0 		strb	ip, [r2]
 1983              	.LVL181:
 1984              		.loc 1 1250 0
 1985 0086 5070     		strb	r0, [r2, #1]
 1986              	.LVL182:
 1987              		.loc 1 1254 0
 1988 0088 1373     		strb	r3, [r2, #12]
ARM GAS  /tmp/ccadBNMM.s 			page 36


 1989              	.L161:
 1990              		.loc 1 1256 0
 1991 008a BDE8F001 		pop	{r4, r5, r6, r7, r8}
 1992 008e 7047     		bx	lr
 1993              	.L166:
 1994              		.align	2
 1995              	.L165:
 1996 0090 00280040 		.word	1073752064
 1997              		.cfi_endproc
 1998              	.LFE129:
 1999              		.size	RTC_GetAlarm, .-RTC_GetAlarm
 2000 0094 AFF30080 		.section	.text.RTC_AlarmCmd,"ax",%progbits
 2000      AFF30080 
 2000      AFF30080 
 2001              		.align	2
 2002              		.p2align 4,,15
 2003              		.global	RTC_AlarmCmd
 2004              		.thumb
 2005              		.thumb_func
 2006              		.type	RTC_AlarmCmd, %function
 2007              	RTC_AlarmCmd:
 2008              	.LFB130:
 2009              		.loc 1 1271 0
 2010              		.cfi_startproc
 2011              		@ args = 0, pretend = 0, frame = 8
 2012              		@ frame_needed = 0, uses_anonymous_args = 0
 2013              		@ link register save eliminated.
 2014              	.LVL183:
 2015 0000 30B4     		push	{r4, r5}
 2016              		.cfi_def_cfa_offset 8
 2017              		.cfi_offset 4, -8
 2018              		.cfi_offset 5, -4
 2019              		.loc 1 1281 0
 2020 0002 154B     		ldr	r3, .L174
 2021              		.loc 1 1271 0
 2022 0004 82B0     		sub	sp, sp, #8
 2023              		.cfi_def_cfa_offset 16
 2024              		.loc 1 1282 0
 2025 0006 5322     		movs	r2, #83
 2026              		.loc 1 1272 0
 2027 0008 0025     		movs	r5, #0
 2028              		.loc 1 1281 0
 2029 000a CA24     		movs	r4, #202
 2030              		.loc 1 1272 0
 2031 000c 0195     		str	r5, [sp, #4]
 2032              	.LVL184:
 2033              		.loc 1 1281 0
 2034 000e 5C62     		str	r4, [r3, #36]
 2035              		.loc 1 1282 0
 2036 0010 5A62     		str	r2, [r3, #36]
 2037              		.loc 1 1287 0
 2038 0012 9A68     		ldr	r2, [r3, #8]
 2039              		.loc 1 1285 0
 2040 0014 E1B9     		cbnz	r1, .L173
 2041              		.loc 1 1294 0
 2042 0016 22EA0002 		bic	r2, r2, r0
 2043 001a 9A60     		str	r2, [r3, #8]
ARM GAS  /tmp/ccadBNMM.s 			page 37


 2044 001c 000A     		lsrs	r0, r0, #8
 2045              	.LVL185:
 2046              		.loc 1 1299 0
 2047 001e 1946     		mov	r1, r3
 2048              	.LVL186:
 2049 0020 00E0     		b	.L172
 2050              	.LVL187:
 2051              	.L170:
 2052              		.loc 1 1301 0 discriminator 1
 2053 0022 4AB9     		cbnz	r2, .L171
 2054              	.LVL188:
 2055              	.L172:
 2056              		.loc 1 1299 0 discriminator 1
 2057 0024 CA68     		ldr	r2, [r1, #12]
 2058              		.loc 1 1300 0 discriminator 1
 2059 0026 019B     		ldr	r3, [sp, #4]
 2060 0028 0133     		adds	r3, r3, #1
 2061 002a 0193     		str	r3, [sp, #4]
 2062              		.loc 1 1301 0 discriminator 1
 2063 002c 019B     		ldr	r3, [sp, #4]
 2064 002e B3F5005F 		cmp	r3, #8192
 2065              		.loc 1 1299 0 discriminator 1
 2066 0032 00EA0202 		and	r2, r0, r2
 2067              	.LVL189:
 2068              		.loc 1 1301 0 discriminator 1
 2069 0036 F4D1     		bne	.L170
 2070              	.L171:
 2071              		.loc 1 1303 0
 2072 0038 074B     		ldr	r3, .L174
 2073 003a DB68     		ldr	r3, [r3, #12]
 2074 003c 0342     		tst	r3, r0
 2075              		.loc 1 1289 0
 2076 003e 0CBF     		ite	eq
 2077 0040 0020     		moveq	r0, #0
 2078 0042 0120     		movne	r0, #1
 2079              	.LVL190:
 2080              	.L169:
 2081              		.loc 1 1314 0
 2082 0044 044B     		ldr	r3, .L174
 2083 0046 FF22     		movs	r2, #255
 2084 0048 5A62     		str	r2, [r3, #36]
 2085              		.loc 1 1317 0
 2086 004a 02B0     		add	sp, sp, #8
 2087              		@ sp needed
 2088 004c 30BC     		pop	{r4, r5}
 2089 004e 7047     		bx	lr
 2090              	.LVL191:
 2091              	.L173:
 2092              		.loc 1 1287 0
 2093 0050 1043     		orrs	r0, r0, r2
 2094              	.LVL192:
 2095 0052 9860     		str	r0, [r3, #8]
 2096              	.LVL193:
 2097              		.loc 1 1289 0
 2098 0054 0120     		movs	r0, #1
 2099 0056 F5E7     		b	.L169
 2100              	.L175:
ARM GAS  /tmp/ccadBNMM.s 			page 38


 2101              		.align	2
 2102              	.L174:
 2103 0058 00280040 		.word	1073752064
 2104              		.cfi_endproc
 2105              	.LFE130:
 2106              		.size	RTC_AlarmCmd, .-RTC_AlarmCmd
 2107 005c AFF30080 		.section	.text.RTC_AlarmSubSecondConfig,"ax",%progbits
 2108              		.align	2
 2109              		.p2align 4,,15
 2110              		.global	RTC_AlarmSubSecondConfig
 2111              		.thumb
 2112              		.thumb_func
 2113              		.type	RTC_AlarmSubSecondConfig, %function
 2114              	RTC_AlarmSubSecondConfig:
 2115              	.LFB131:
 2116              		.loc 1 1365 0
 2117              		.cfi_startproc
 2118              		@ args = 0, pretend = 0, frame = 0
 2119              		@ frame_needed = 0, uses_anonymous_args = 0
 2120              		@ link register save eliminated.
 2121              	.LVL194:
 2122 0000 30B4     		push	{r4, r5}
 2123              		.cfi_def_cfa_offset 8
 2124              		.cfi_offset 4, -8
 2125              		.cfi_offset 5, -4
 2126              		.loc 1 1374 0
 2127 0002 084B     		ldr	r3, .L179
 2128              		.loc 1 1378 0
 2129 0004 0A43     		orrs	r2, r2, r1
 2130              	.LVL195:
 2131              		.loc 1 1374 0
 2132 0006 CA25     		movs	r5, #202
 2133              		.loc 1 1375 0
 2134 0008 5324     		movs	r4, #83
 2135              		.loc 1 1380 0
 2136 000a B0F5807F 		cmp	r0, #256
 2137              		.loc 1 1374 0
 2138 000e 5D62     		str	r5, [r3, #36]
 2139              		.loc 1 1375 0
 2140 0010 5C62     		str	r4, [r3, #36]
 2141              		.loc 1 1383 0
 2142 0012 0CBF     		ite	eq
 2143 0014 5A64     		streq	r2, [r3, #68]
 2144              		.loc 1 1388 0
 2145 0016 9A64     		strne	r2, [r3, #72]
 2146              		.loc 1 1392 0
 2147 0018 024B     		ldr	r3, .L179
 2148 001a FF22     		movs	r2, #255
 2149              	.LVL196:
 2150 001c 5A62     		str	r2, [r3, #36]
 2151              		.loc 1 1394 0
 2152 001e 30BC     		pop	{r4, r5}
 2153 0020 7047     		bx	lr
 2154              	.L180:
 2155 0022 00BF     		.align	2
 2156              	.L179:
 2157 0024 00280040 		.word	1073752064
ARM GAS  /tmp/ccadBNMM.s 			page 39


 2158              		.cfi_endproc
 2159              	.LFE131:
 2160              		.size	RTC_AlarmSubSecondConfig, .-RTC_AlarmSubSecondConfig
 2161 0028 AFF30080 		.section	.text.RTC_GetAlarmSubSecond,"ax",%progbits
 2161      AFF30080 
 2162              		.align	2
 2163              		.p2align 4,,15
 2164              		.global	RTC_GetAlarmSubSecond
 2165              		.thumb
 2166              		.thumb_func
 2167              		.type	RTC_GetAlarmSubSecond, %function
 2168              	RTC_GetAlarmSubSecond:
 2169              	.LFB132:
 2170              		.loc 1 1406 0
 2171              		.cfi_startproc
 2172              		@ args = 0, pretend = 0, frame = 0
 2173              		@ frame_needed = 0, uses_anonymous_args = 0
 2174              		@ link register save eliminated.
 2175              	.LVL197:
 2176              		.loc 1 1412 0
 2177 0000 044B     		ldr	r3, .L184
 2178              		.loc 1 1410 0
 2179 0002 B0F5807F 		cmp	r0, #256
 2180              		.loc 1 1412 0
 2181 0006 0CBF     		ite	eq
 2182 0008 586C     		ldreq	r0, [r3, #68]
 2183              	.LVL198:
 2184              		.loc 1 1416 0
 2185 000a 986C     		ldrne	r0, [r3, #72]
 2186 000c C0F30E00 		ubfx	r0, r0, #0, #15
 2187              	.LVL199:
 2188              		.loc 1 1420 0
 2189 0010 7047     		bx	lr
 2190              	.L185:
 2191 0012 00BF     		.align	2
 2192              	.L184:
 2193 0014 00280040 		.word	1073752064
 2194              		.cfi_endproc
 2195              	.LFE132:
 2196              		.size	RTC_GetAlarmSubSecond, .-RTC_GetAlarmSubSecond
 2197 0018 AFF30080 		.section	.text.RTC_WakeUpClockConfig,"ax",%progbits
 2197      AFF30080 
 2198              		.align	2
 2199              		.p2align 4,,15
 2200              		.global	RTC_WakeUpClockConfig
 2201              		.thumb
 2202              		.thumb_func
 2203              		.type	RTC_WakeUpClockConfig, %function
 2204              	RTC_WakeUpClockConfig:
 2205              	.LFB133:
 2206              		.loc 1 1454 0
 2207              		.cfi_startproc
 2208              		@ args = 0, pretend = 0, frame = 0
 2209              		@ frame_needed = 0, uses_anonymous_args = 0
 2210              		@ link register save eliminated.
 2211              	.LVL200:
 2212              		.loc 1 1459 0
ARM GAS  /tmp/ccadBNMM.s 			page 40


 2213 0000 074B     		ldr	r3, .L187
 2214 0002 CA21     		movs	r1, #202
 2215              		.loc 1 1460 0
 2216 0004 5322     		movs	r2, #83
 2217              		.loc 1 1459 0
 2218 0006 5962     		str	r1, [r3, #36]
 2219              		.loc 1 1460 0
 2220 0008 5A62     		str	r2, [r3, #36]
 2221              		.loc 1 1463 0
 2222 000a 9A68     		ldr	r2, [r3, #8]
 2223 000c 22F00702 		bic	r2, r2, #7
 2224 0010 9A60     		str	r2, [r3, #8]
 2225              		.loc 1 1466 0
 2226 0012 9968     		ldr	r1, [r3, #8]
 2227              		.loc 1 1469 0
 2228 0014 FF22     		movs	r2, #255
 2229              		.loc 1 1466 0
 2230 0016 0843     		orrs	r0, r0, r1
 2231              	.LVL201:
 2232 0018 9860     		str	r0, [r3, #8]
 2233              		.loc 1 1469 0
 2234 001a 5A62     		str	r2, [r3, #36]
 2235 001c 7047     		bx	lr
 2236              	.L188:
 2237 001e 00BF     		.align	2
 2238              	.L187:
 2239 0020 00280040 		.word	1073752064
 2240              		.cfi_endproc
 2241              	.LFE133:
 2242              		.size	RTC_WakeUpClockConfig, .-RTC_WakeUpClockConfig
 2243 0024 AFF30080 		.section	.text.RTC_SetWakeUpCounter,"ax",%progbits
 2243      AFF30080 
 2243      AFF30080 
 2244              		.align	2
 2245              		.p2align 4,,15
 2246              		.global	RTC_SetWakeUpCounter
 2247              		.thumb
 2248              		.thumb_func
 2249              		.type	RTC_SetWakeUpCounter, %function
 2250              	RTC_SetWakeUpCounter:
 2251              	.LFB134:
 2252              		.loc 1 1481 0
 2253              		.cfi_startproc
 2254              		@ args = 0, pretend = 0, frame = 0
 2255              		@ frame_needed = 0, uses_anonymous_args = 0
 2256              		@ link register save eliminated.
 2257              	.LVL202:
 2258              		.loc 1 1486 0
 2259 0000 054B     		ldr	r3, .L190
 2260              		.loc 1 1481 0
 2261 0002 10B4     		push	{r4}
 2262              		.cfi_def_cfa_offset 4
 2263              		.cfi_offset 4, -4
 2264              		.loc 1 1487 0
 2265 0004 5321     		movs	r1, #83
 2266              		.loc 1 1486 0
 2267 0006 CA24     		movs	r4, #202
ARM GAS  /tmp/ccadBNMM.s 			page 41


 2268              		.loc 1 1493 0
 2269 0008 FF22     		movs	r2, #255
 2270              		.loc 1 1486 0
 2271 000a 5C62     		str	r4, [r3, #36]
 2272              		.loc 1 1487 0
 2273 000c 5962     		str	r1, [r3, #36]
 2274              		.loc 1 1494 0
 2275 000e 5DF8044B 		ldr	r4, [sp], #4
 2276              		.loc 1 1490 0
 2277 0012 5861     		str	r0, [r3, #20]
 2278              		.loc 1 1493 0
 2279 0014 5A62     		str	r2, [r3, #36]
 2280              		.loc 1 1494 0
 2281 0016 7047     		bx	lr
 2282              	.L191:
 2283              		.align	2
 2284              	.L190:
 2285 0018 00280040 		.word	1073752064
 2286              		.cfi_endproc
 2287              	.LFE134:
 2288              		.size	RTC_SetWakeUpCounter, .-RTC_SetWakeUpCounter
 2289 001c AFF30080 		.section	.text.RTC_GetWakeUpCounter,"ax",%progbits
 2290              		.align	2
 2291              		.p2align 4,,15
 2292              		.global	RTC_GetWakeUpCounter
 2293              		.thumb
 2294              		.thumb_func
 2295              		.type	RTC_GetWakeUpCounter, %function
 2296              	RTC_GetWakeUpCounter:
 2297              	.LFB135:
 2298              		.loc 1 1502 0
 2299              		.cfi_startproc
 2300              		@ args = 0, pretend = 0, frame = 0
 2301              		@ frame_needed = 0, uses_anonymous_args = 0
 2302              		@ link register save eliminated.
 2303              		.loc 1 1504 0
 2304 0000 014B     		ldr	r3, .L193
 2305 0002 5869     		ldr	r0, [r3, #20]
 2306              		.loc 1 1505 0
 2307 0004 80B2     		uxth	r0, r0
 2308 0006 7047     		bx	lr
 2309              	.L194:
 2310              		.align	2
 2311              	.L193:
 2312 0008 00280040 		.word	1073752064
 2313              		.cfi_endproc
 2314              	.LFE135:
 2315              		.size	RTC_GetWakeUpCounter, .-RTC_GetWakeUpCounter
 2316 000c AFF30080 		.section	.text.RTC_WakeUpCmd,"ax",%progbits
 2317              		.align	2
 2318              		.p2align 4,,15
 2319              		.global	RTC_WakeUpCmd
 2320              		.thumb
 2321              		.thumb_func
 2322              		.type	RTC_WakeUpCmd, %function
 2323              	RTC_WakeUpCmd:
 2324              	.LFB136:
ARM GAS  /tmp/ccadBNMM.s 			page 42


 2325              		.loc 1 1514 0
 2326              		.cfi_startproc
 2327              		@ args = 0, pretend = 0, frame = 8
 2328              		@ frame_needed = 0, uses_anonymous_args = 0
 2329              		@ link register save eliminated.
 2330              	.LVL203:
 2331 0000 10B4     		push	{r4}
 2332              		.cfi_def_cfa_offset 4
 2333              		.cfi_offset 4, -4
 2334              		.loc 1 1523 0
 2335 0002 1449     		ldr	r1, .L205
 2336              		.loc 1 1514 0
 2337 0004 83B0     		sub	sp, sp, #12
 2338              		.cfi_def_cfa_offset 16
 2339              		.loc 1 1524 0
 2340 0006 5323     		movs	r3, #83
 2341              		.loc 1 1515 0
 2342 0008 0024     		movs	r4, #0
 2343              		.loc 1 1523 0
 2344 000a CA22     		movs	r2, #202
 2345              		.loc 1 1515 0
 2346 000c 0194     		str	r4, [sp, #4]
 2347              	.LVL204:
 2348              		.loc 1 1523 0
 2349 000e 4A62     		str	r2, [r1, #36]
 2350              		.loc 1 1524 0
 2351 0010 4B62     		str	r3, [r1, #36]
 2352              		.loc 1 1529 0
 2353 0012 8B68     		ldr	r3, [r1, #8]
 2354              		.loc 1 1526 0
 2355 0014 C8B9     		cbnz	r0, .L203
 2356              		.loc 1 1535 0
 2357 0016 23F48063 		bic	r3, r3, #1024
 2358 001a 8B60     		str	r3, [r1, #8]
 2359 001c 00E0     		b	.L199
 2360              	.LVL205:
 2361              	.L204:
 2362              		.loc 1 1541 0 discriminator 1
 2363 001e 4AB9     		cbnz	r2, .L198
 2364              	.LVL206:
 2365              	.L199:
 2366              		.loc 1 1539 0 discriminator 1
 2367 0020 CA68     		ldr	r2, [r1, #12]
 2368              		.loc 1 1540 0 discriminator 1
 2369 0022 019B     		ldr	r3, [sp, #4]
 2370 0024 0133     		adds	r3, r3, #1
 2371 0026 0193     		str	r3, [sp, #4]
 2372              		.loc 1 1541 0 discriminator 1
 2373 0028 019B     		ldr	r3, [sp, #4]
 2374 002a B3F5005F 		cmp	r3, #8192
 2375              		.loc 1 1539 0 discriminator 1
 2376 002e 02F00402 		and	r2, r2, #4
 2377              	.LVL207:
 2378              		.loc 1 1541 0 discriminator 1
 2379 0032 F4D1     		bne	.L204
 2380              	.L198:
 2381              		.loc 1 1543 0
ARM GAS  /tmp/ccadBNMM.s 			page 43


 2382 0034 074B     		ldr	r3, .L205
 2383 0036 D868     		ldr	r0, [r3, #12]
 2384              	.LVL208:
 2385              		.loc 1 1530 0
 2386 0038 C0F38000 		ubfx	r0, r0, #2, #1
 2387              	.LVL209:
 2388              	.L197:
 2389              		.loc 1 1554 0
 2390 003c 054B     		ldr	r3, .L205
 2391 003e FF22     		movs	r2, #255
 2392 0040 5A62     		str	r2, [r3, #36]
 2393              		.loc 1 1557 0
 2394 0042 03B0     		add	sp, sp, #12
 2395              		@ sp needed
 2396 0044 5DF8044B 		ldr	r4, [sp], #4
 2397 0048 7047     		bx	lr
 2398              	.LVL210:
 2399              	.L203:
 2400              		.loc 1 1529 0
 2401 004a 43F48063 		orr	r3, r3, #1024
 2402 004e 8B60     		str	r3, [r1, #8]
 2403              	.LVL211:
 2404              		.loc 1 1530 0
 2405 0050 0120     		movs	r0, #1
 2406              	.LVL212:
 2407 0052 F3E7     		b	.L197
 2408              	.L206:
 2409              		.align	2
 2410              	.L205:
 2411 0054 00280040 		.word	1073752064
 2412              		.cfi_endproc
 2413              	.LFE136:
 2414              		.size	RTC_WakeUpCmd, .-RTC_WakeUpCmd
 2415 0058 AFF30080 		.section	.text.RTC_DayLightSavingConfig,"ax",%progbits
 2415      AFF30080 
 2416              		.align	2
 2417              		.p2align 4,,15
 2418              		.global	RTC_DayLightSavingConfig
 2419              		.thumb
 2420              		.thumb_func
 2421              		.type	RTC_DayLightSavingConfig, %function
 2422              	RTC_DayLightSavingConfig:
 2423              	.LFB137:
 2424              		.loc 1 1590 0
 2425              		.cfi_startproc
 2426              		@ args = 0, pretend = 0, frame = 0
 2427              		@ frame_needed = 0, uses_anonymous_args = 0
 2428              		@ link register save eliminated.
 2429              	.LVL213:
 2430              		.loc 1 1596 0
 2431 0000 094B     		ldr	r3, .L208
 2432              		.loc 1 1590 0
 2433 0002 10B4     		push	{r4}
 2434              		.cfi_def_cfa_offset 4
 2435              		.cfi_offset 4, -4
 2436              		.loc 1 1597 0
 2437 0004 5322     		movs	r2, #83
ARM GAS  /tmp/ccadBNMM.s 			page 44


 2438              		.loc 1 1596 0
 2439 0006 CA24     		movs	r4, #202
 2440 0008 5C62     		str	r4, [r3, #36]
 2441              		.loc 1 1597 0
 2442 000a 5A62     		str	r2, [r3, #36]
 2443              		.loc 1 1600 0
 2444 000c 9A68     		ldr	r2, [r3, #8]
 2445              		.loc 1 1607 0
 2446 000e 5DF8044B 		ldr	r4, [sp], #4
 2447              		.loc 1 1600 0
 2448 0012 22F48022 		bic	r2, r2, #262144
 2449 0016 9A60     		str	r2, [r3, #8]
 2450              		.loc 1 1603 0
 2451 0018 9A68     		ldr	r2, [r3, #8]
 2452 001a 1143     		orrs	r1, r1, r2
 2453              	.LVL214:
 2454 001c 0843     		orrs	r0, r0, r1
 2455              	.LVL215:
 2456              		.loc 1 1606 0
 2457 001e FF21     		movs	r1, #255
 2458              		.loc 1 1603 0
 2459 0020 9860     		str	r0, [r3, #8]
 2460              		.loc 1 1606 0
 2461 0022 5962     		str	r1, [r3, #36]
 2462              		.loc 1 1607 0
 2463 0024 7047     		bx	lr
 2464              	.L209:
 2465 0026 00BF     		.align	2
 2466              	.L208:
 2467 0028 00280040 		.word	1073752064
 2468              		.cfi_endproc
 2469              	.LFE137:
 2470              		.size	RTC_DayLightSavingConfig, .-RTC_DayLightSavingConfig
 2471 002c AFF30080 		.section	.text.RTC_GetStoreOperation,"ax",%progbits
 2472              		.align	2
 2473              		.p2align 4,,15
 2474              		.global	RTC_GetStoreOperation
 2475              		.thumb
 2476              		.thumb_func
 2477              		.type	RTC_GetStoreOperation, %function
 2478              	RTC_GetStoreOperation:
 2479              	.LFB138:
 2480              		.loc 1 1617 0
 2481              		.cfi_startproc
 2482              		@ args = 0, pretend = 0, frame = 0
 2483              		@ frame_needed = 0, uses_anonymous_args = 0
 2484              		@ link register save eliminated.
 2485              		.loc 1 1618 0
 2486 0000 024B     		ldr	r3, .L211
 2487 0002 9868     		ldr	r0, [r3, #8]
 2488              		.loc 1 1619 0
 2489 0004 00F48020 		and	r0, r0, #262144
 2490 0008 7047     		bx	lr
 2491              	.L212:
 2492 000a 00BF     		.align	2
 2493              	.L211:
 2494 000c 00280040 		.word	1073752064
ARM GAS  /tmp/ccadBNMM.s 			page 45


 2495              		.cfi_endproc
 2496              	.LFE138:
 2497              		.size	RTC_GetStoreOperation, .-RTC_GetStoreOperation
 2498              		.section	.text.RTC_OutputConfig,"ax",%progbits
 2499              		.align	2
 2500              		.p2align 4,,15
 2501              		.global	RTC_OutputConfig
 2502              		.thumb
 2503              		.thumb_func
 2504              		.type	RTC_OutputConfig, %function
 2505              	RTC_OutputConfig:
 2506              	.LFB139:
 2507              		.loc 1 1655 0
 2508              		.cfi_startproc
 2509              		@ args = 0, pretend = 0, frame = 0
 2510              		@ frame_needed = 0, uses_anonymous_args = 0
 2511              		@ link register save eliminated.
 2512              	.LVL216:
 2513              		.loc 1 1661 0
 2514 0000 094B     		ldr	r3, .L214
 2515              		.loc 1 1655 0
 2516 0002 10B4     		push	{r4}
 2517              		.cfi_def_cfa_offset 4
 2518              		.cfi_offset 4, -4
 2519              		.loc 1 1662 0
 2520 0004 5322     		movs	r2, #83
 2521              		.loc 1 1661 0
 2522 0006 CA24     		movs	r4, #202
 2523 0008 5C62     		str	r4, [r3, #36]
 2524              		.loc 1 1662 0
 2525 000a 5A62     		str	r2, [r3, #36]
 2526              		.loc 1 1665 0
 2527 000c 9A68     		ldr	r2, [r3, #8]
 2528              		.loc 1 1672 0
 2529 000e 5DF8044B 		ldr	r4, [sp], #4
 2530              		.loc 1 1665 0
 2531 0012 22F4E002 		bic	r2, r2, #7340032
 2532 0016 9A60     		str	r2, [r3, #8]
 2533              		.loc 1 1668 0
 2534 0018 9A68     		ldr	r2, [r3, #8]
 2535 001a 1143     		orrs	r1, r1, r2
 2536              	.LVL217:
 2537 001c 0843     		orrs	r0, r0, r1
 2538              	.LVL218:
 2539              		.loc 1 1671 0
 2540 001e FF21     		movs	r1, #255
 2541              		.loc 1 1668 0
 2542 0020 9860     		str	r0, [r3, #8]
 2543              		.loc 1 1671 0
 2544 0022 5962     		str	r1, [r3, #36]
 2545              		.loc 1 1672 0
 2546 0024 7047     		bx	lr
 2547              	.L215:
 2548 0026 00BF     		.align	2
 2549              	.L214:
 2550 0028 00280040 		.word	1073752064
 2551              		.cfi_endproc
ARM GAS  /tmp/ccadBNMM.s 			page 46


 2552              	.LFE139:
 2553              		.size	RTC_OutputConfig, .-RTC_OutputConfig
 2554 002c AFF30080 		.section	.text.RTC_CalibOutputCmd,"ax",%progbits
 2555              		.align	2
 2556              		.p2align 4,,15
 2557              		.global	RTC_CalibOutputCmd
 2558              		.thumb
 2559              		.thumb_func
 2560              		.type	RTC_CalibOutputCmd, %function
 2561              	RTC_CalibOutputCmd:
 2562              	.LFB140:
 2563              		.loc 1 1698 0
 2564              		.cfi_startproc
 2565              		@ args = 0, pretend = 0, frame = 0
 2566              		@ frame_needed = 0, uses_anonymous_args = 0
 2567              		@ link register save eliminated.
 2568              	.LVL219:
 2569              		.loc 1 1703 0
 2570 0000 0A4B     		ldr	r3, .L220
 2571              		.loc 1 1704 0
 2572 0002 5322     		movs	r2, #83
 2573              		.loc 1 1703 0
 2574 0004 CA21     		movs	r1, #202
 2575 0006 5962     		str	r1, [r3, #36]
 2576              		.loc 1 1704 0
 2577 0008 5A62     		str	r2, [r3, #36]
 2578              		.loc 1 1709 0
 2579 000a 9A68     		ldr	r2, [r3, #8]
 2580              		.loc 1 1706 0
 2581 000c 30B9     		cbnz	r0, .L219
 2582              		.loc 1 1714 0
 2583 000e 22F40002 		bic	r2, r2, #8388608
 2584 0012 9A60     		str	r2, [r3, #8]
 2585              		.loc 1 1718 0
 2586 0014 054B     		ldr	r3, .L220
 2587 0016 FF22     		movs	r2, #255
 2588 0018 5A62     		str	r2, [r3, #36]
 2589 001a 7047     		bx	lr
 2590              	.L219:
 2591              		.loc 1 1709 0
 2592 001c 42F40002 		orr	r2, r2, #8388608
 2593 0020 9A60     		str	r2, [r3, #8]
 2594              		.loc 1 1718 0
 2595 0022 024B     		ldr	r3, .L220
 2596 0024 FF22     		movs	r2, #255
 2597 0026 5A62     		str	r2, [r3, #36]
 2598 0028 7047     		bx	lr
 2599              	.L221:
 2600 002a 00BF     		.align	2
 2601              	.L220:
 2602 002c 00280040 		.word	1073752064
 2603              		.cfi_endproc
 2604              	.LFE140:
 2605              		.size	RTC_CalibOutputCmd, .-RTC_CalibOutputCmd
 2606              		.section	.text.RTC_CalibOutputConfig,"ax",%progbits
 2607              		.align	2
 2608              		.p2align 4,,15
ARM GAS  /tmp/ccadBNMM.s 			page 47


 2609              		.global	RTC_CalibOutputConfig
 2610              		.thumb
 2611              		.thumb_func
 2612              		.type	RTC_CalibOutputConfig, %function
 2613              	RTC_CalibOutputConfig:
 2614              	.LFB141:
 2615              		.loc 1 1730 0
 2616              		.cfi_startproc
 2617              		@ args = 0, pretend = 0, frame = 0
 2618              		@ frame_needed = 0, uses_anonymous_args = 0
 2619              		@ link register save eliminated.
 2620              	.LVL220:
 2621              		.loc 1 1735 0
 2622 0000 074B     		ldr	r3, .L223
 2623 0002 CA21     		movs	r1, #202
 2624              		.loc 1 1736 0
 2625 0004 5322     		movs	r2, #83
 2626              		.loc 1 1735 0
 2627 0006 5962     		str	r1, [r3, #36]
 2628              		.loc 1 1736 0
 2629 0008 5A62     		str	r2, [r3, #36]
 2630              		.loc 1 1739 0
 2631 000a 9A68     		ldr	r2, [r3, #8]
 2632 000c 22F40022 		bic	r2, r2, #524288
 2633 0010 9A60     		str	r2, [r3, #8]
 2634              		.loc 1 1742 0
 2635 0012 9968     		ldr	r1, [r3, #8]
 2636              		.loc 1 1745 0
 2637 0014 FF22     		movs	r2, #255
 2638              		.loc 1 1742 0
 2639 0016 0843     		orrs	r0, r0, r1
 2640              	.LVL221:
 2641 0018 9860     		str	r0, [r3, #8]
 2642              		.loc 1 1745 0
 2643 001a 5A62     		str	r2, [r3, #36]
 2644 001c 7047     		bx	lr
 2645              	.L224:
 2646 001e 00BF     		.align	2
 2647              	.L223:
 2648 0020 00280040 		.word	1073752064
 2649              		.cfi_endproc
 2650              	.LFE141:
 2651              		.size	RTC_CalibOutputConfig, .-RTC_CalibOutputConfig
 2652 0024 AFF30080 		.section	.text.RTC_SmoothCalibConfig,"ax",%progbits
 2652      AFF30080 
 2652      AFF30080 
 2653              		.align	2
 2654              		.p2align 4,,15
 2655              		.global	RTC_SmoothCalibConfig
 2656              		.thumb
 2657              		.thumb_func
 2658              		.type	RTC_SmoothCalibConfig, %function
 2659              	RTC_SmoothCalibConfig:
 2660              	.LFB142:
 2661              		.loc 1 1768 0
 2662              		.cfi_startproc
 2663              		@ args = 0, pretend = 0, frame = 0
ARM GAS  /tmp/ccadBNMM.s 			page 48


 2664              		@ frame_needed = 0, uses_anonymous_args = 0
 2665              		@ link register save eliminated.
 2666              	.LVL222:
 2667 0000 30B4     		push	{r4, r5}
 2668              		.cfi_def_cfa_offset 8
 2669              		.cfi_offset 4, -8
 2670              		.cfi_offset 5, -4
 2671              		.loc 1 1778 0
 2672 0002 114D     		ldr	r5, .L244
 2673 0004 CA24     		movs	r4, #202
 2674              		.loc 1 1779 0
 2675 0006 5323     		movs	r3, #83
 2676              		.loc 1 1778 0
 2677 0008 6C62     		str	r4, [r5, #36]
 2678              		.loc 1 1779 0
 2679 000a 6B62     		str	r3, [r5, #36]
 2680              		.loc 1 1782 0
 2681 000c EB68     		ldr	r3, [r5, #12]
 2682 000e DC03     		lsls	r4, r3, #15
 2683 0010 0AD5     		bpl	.L226
 2684              		.loc 1 1785 0 discriminator 1
 2685 0012 EB68     		ldr	r3, [r5, #12]
 2686 0014 DB03     		lsls	r3, r3, #15
 2687 0016 07D5     		bpl	.L226
 2688              		.loc 1 1785 0 is_stmt 0
 2689 0018 4FF48053 		mov	r3, #4096
 2690 001c 01E0     		b	.L227
 2691              	.LVL223:
 2692              	.L243:
 2693              		.loc 1 1785 0 discriminator 2
 2694 001e 013B     		subs	r3, r3, #1
 2695              	.LVL224:
 2696 0020 02D0     		beq	.L226
 2697              	.LVL225:
 2698              	.L227:
 2699              		.loc 1 1785 0
 2700 0022 EC68     		ldr	r4, [r5, #12]
 2701 0024 E403     		lsls	r4, r4, #15
 2702 0026 FAD4     		bmi	.L243
 2703              	.LVL226:
 2704              	.L226:
 2705              		.loc 1 1792 0 is_stmt 1
 2706 0028 074B     		ldr	r3, .L244
 2707 002a DC68     		ldr	r4, [r3, #12]
 2708 002c E403     		lsls	r4, r4, #15
 2709 002e 08D4     		bmi	.L229
 2710              		.loc 1 1795 0
 2711 0030 1143     		orrs	r1, r1, r2
 2712              	.LVL227:
 2713 0032 0843     		orrs	r0, r0, r1
 2714              	.LVL228:
 2715 0034 D863     		str	r0, [r3, #60]
 2716              	.LVL229:
 2717              		.loc 1 1797 0
 2718 0036 0120     		movs	r0, #1
 2719              	.LVL230:
 2720              	.L228:
ARM GAS  /tmp/ccadBNMM.s 			page 49


 2721              		.loc 1 1805 0
 2722 0038 034B     		ldr	r3, .L244
 2723 003a FF22     		movs	r2, #255
 2724              	.LVL231:
 2725 003c 5A62     		str	r2, [r3, #36]
 2726              		.loc 1 1808 0
 2727 003e 30BC     		pop	{r4, r5}
 2728 0040 7047     		bx	lr
 2729              	.LVL232:
 2730              	.L229:
 2731              		.loc 1 1801 0
 2732 0042 0020     		movs	r0, #0
 2733              	.LVL233:
 2734 0044 F8E7     		b	.L228
 2735              	.L245:
 2736 0046 00BF     		.align	2
 2737              	.L244:
 2738 0048 00280040 		.word	1073752064
 2739              		.cfi_endproc
 2740              	.LFE142:
 2741              		.size	RTC_SmoothCalibConfig, .-RTC_SmoothCalibConfig
 2742 004c AFF30080 		.section	.text.RTC_TimeStampCmd,"ax",%progbits
 2743              		.align	2
 2744              		.p2align 4,,15
 2745              		.global	RTC_TimeStampCmd
 2746              		.thumb
 2747              		.thumb_func
 2748              		.type	RTC_TimeStampCmd, %function
 2749              	RTC_TimeStampCmd:
 2750              	.LFB143:
 2751              		.loc 1 1842 0
 2752              		.cfi_startproc
 2753              		@ args = 0, pretend = 0, frame = 0
 2754              		@ frame_needed = 0, uses_anonymous_args = 0
 2755              		@ link register save eliminated.
 2756              	.LVL234:
 2757              		.loc 1 1850 0
 2758 0000 0B4B     		ldr	r3, .L250
 2759 0002 9B68     		ldr	r3, [r3, #8]
 2760 0004 23F40063 		bic	r3, r3, #2048
 2761              		.loc 1 1842 0
 2762 0008 10B4     		push	{r4}
 2763              		.cfi_def_cfa_offset 4
 2764              		.cfi_offset 4, -4
 2765              		.loc 1 1850 0
 2766 000a 23F00803 		bic	r3, r3, #8
 2767              	.LVL235:
 2768              		.loc 1 1853 0
 2769 000e 59B9     		cbnz	r1, .L249
 2770              		.loc 1 1859 0
 2771 0010 1843     		orrs	r0, r0, r3
 2772              	.LVL236:
 2773              	.L248:
 2774              		.loc 1 1863 0
 2775 0012 074B     		ldr	r3, .L250
 2776 0014 CA24     		movs	r4, #202
 2777              		.loc 1 1864 0
ARM GAS  /tmp/ccadBNMM.s 			page 50


 2778 0016 5321     		movs	r1, #83
 2779              	.LVL237:
 2780              		.loc 1 1870 0
 2781 0018 FF22     		movs	r2, #255
 2782              		.loc 1 1863 0
 2783 001a 5C62     		str	r4, [r3, #36]
 2784              		.loc 1 1864 0
 2785 001c 5962     		str	r1, [r3, #36]
 2786              		.loc 1 1871 0
 2787 001e 5DF8044B 		ldr	r4, [sp], #4
 2788              		.loc 1 1867 0
 2789 0022 9860     		str	r0, [r3, #8]
 2790              		.loc 1 1870 0
 2791 0024 5A62     		str	r2, [r3, #36]
 2792              		.loc 1 1871 0
 2793 0026 7047     		bx	lr
 2794              	.LVL238:
 2795              	.L249:
 2796              		.loc 1 1855 0
 2797 0028 43F40063 		orr	r3, r3, #2048
 2798              	.LVL239:
 2799 002c 1843     		orrs	r0, r0, r3
 2800              	.LVL240:
 2801 002e F0E7     		b	.L248
 2802              	.L251:
 2803              		.align	2
 2804              	.L250:
 2805 0030 00280040 		.word	1073752064
 2806              		.cfi_endproc
 2807              	.LFE143:
 2808              		.size	RTC_TimeStampCmd, .-RTC_TimeStampCmd
 2809 0034 AFF30080 		.section	.text.RTC_GetTimeStamp,"ax",%progbits
 2809      AFF30080 
 2809      AFF30080 
 2810              		.align	2
 2811              		.p2align 4,,15
 2812              		.global	RTC_GetTimeStamp
 2813              		.thumb
 2814              		.thumb_func
 2815              		.type	RTC_GetTimeStamp, %function
 2816              	RTC_GetTimeStamp:
 2817              	.LFB144:
 2818              		.loc 1 1887 0
 2819              		.cfi_startproc
 2820              		@ args = 0, pretend = 0, frame = 0
 2821              		@ frame_needed = 0, uses_anonymous_args = 0
 2822              		@ link register save eliminated.
 2823              	.LVL241:
 2824 0000 2DE9F003 		push	{r4, r5, r6, r7, r8, r9}
 2825              		.cfi_def_cfa_offset 24
 2826              		.cfi_offset 4, -24
 2827              		.cfi_offset 5, -20
 2828              		.cfi_offset 6, -16
 2829              		.cfi_offset 7, -12
 2830              		.cfi_offset 8, -8
 2831              		.cfi_offset 9, -4
 2832              		.loc 1 1894 0
ARM GAS  /tmp/ccadBNMM.s 			page 51


 2833 0004 2C4C     		ldr	r4, .L254
 2834 0006 236B     		ldr	r3, [r4, #48]
 2835              	.LVL242:
 2836              		.loc 1 1895 0
 2837 0008 646B     		ldr	r4, [r4, #52]
 2838              	.LVL243:
 2839              		.loc 1 1901 0
 2840 000a 03F4800C 		and	ip, r3, #4194304
 2841              		.loc 1 1898 0
 2842 000e C3F30549 		ubfx	r9, r3, #16, #6
 2843              		.loc 1 1899 0
 2844 0012 C3F30628 		ubfx	r8, r3, #8, #7
 2845              		.loc 1 1905 0
 2846 0016 C4F30426 		ubfx	r6, r4, #8, #5
 2847              		.loc 1 1906 0
 2848 001a 04F03F05 		and	r5, r4, #63
 2849              		.loc 1 1900 0
 2850 001e 03F07F03 		and	r3, r3, #127
 2851              	.LVL244:
 2852              		.loc 1 1901 0
 2853 0022 4FEA1C4C 		lsr	ip, ip, #16
 2854              		.loc 1 1904 0
 2855 0026 0027     		movs	r7, #0
 2856              		.loc 1 1907 0
 2857 0028 C4F34234 		ubfx	r4, r4, #13, #3
 2858              	.LVL245:
 2859              		.loc 1 1898 0
 2860 002c 81F80090 		strb	r9, [r1]
 2861              		.loc 1 1899 0
 2862 0030 81F80180 		strb	r8, [r1, #1]
 2863              		.loc 1 1900 0
 2864 0034 8B70     		strb	r3, [r1, #2]
 2865              		.loc 1 1901 0
 2866 0036 81F803C0 		strb	ip, [r1, #3]
 2867              		.loc 1 1904 0
 2868 003a D770     		strb	r7, [r2, #3]
 2869              		.loc 1 1905 0
 2870 003c 5670     		strb	r6, [r2, #1]
 2871              		.loc 1 1906 0
 2872 003e 9570     		strb	r5, [r2, #2]
 2873              		.loc 1 1907 0
 2874 0040 1470     		strb	r4, [r2]
 2875              		.loc 1 1910 0
 2876 0042 A8BB     		cbnz	r0, .L252
 2877              		.loc 1 1913 0
 2878 0044 0E78     		ldrb	r6, [r1]	@ zero_extendqisi2
 2879              	.LVL246:
 2880              		.loc 1 1914 0
 2881 0046 4C78     		ldrb	r4, [r1, #1]	@ zero_extendqisi2
 2882              	.LVL247:
 2883              		.loc 1 1915 0
 2884 0048 8B78     		ldrb	r3, [r1, #2]	@ zero_extendqisi2
 2885              	.LVL248:
 2886              	.LBB192:
 2887              	.LBB193:
 2888              		.loc 1 2580 0
 2889 004a 3709     		lsrs	r7, r6, #4
ARM GAS  /tmp/ccadBNMM.s 			page 52


 2890              	.LBE193:
 2891              	.LBE192:
 2892              	.LBB197:
 2893              	.LBB198:
 2894 004c 2509     		lsrs	r5, r4, #4
 2895              	.LBE198:
 2896              	.LBE197:
 2897              	.LBB202:
 2898              	.LBB203:
 2899 004e 1809     		lsrs	r0, r3, #4
 2900              	.LVL249:
 2901              	.LBE203:
 2902              	.LBE202:
 2903              	.LBB207:
 2904              	.LBB194:
 2905              		.loc 1 2581 0
 2906 0050 06F00F06 		and	r6, r6, #15
 2907              	.LVL250:
 2908              	.LBE194:
 2909              	.LBE207:
 2910              	.LBB208:
 2911              	.LBB199:
 2912 0054 04F00F04 		and	r4, r4, #15
 2913              	.LVL251:
 2914              	.LBE199:
 2915              	.LBE208:
 2916              	.LBB209:
 2917              	.LBB204:
 2918 0058 03F00F03 		and	r3, r3, #15
 2919              	.LVL252:
 2920              	.LBE204:
 2921              	.LBE209:
 2922              	.LBB210:
 2923              	.LBB195:
 2924              		.loc 1 2580 0
 2925 005c 07EB8707 		add	r7, r7, r7, lsl #2
 2926              	.LBE195:
 2927              	.LBE210:
 2928              	.LBB211:
 2929              	.LBB200:
 2930 0060 05EB8505 		add	r5, r5, r5, lsl #2
 2931              	.LBE200:
 2932              	.LBE211:
 2933              	.LBB212:
 2934              	.LBB205:
 2935 0064 00EB8000 		add	r0, r0, r0, lsl #2
 2936              	.LBE205:
 2937              	.LBE212:
 2938              	.LBB213:
 2939              	.LBB201:
 2940              		.loc 1 2581 0
 2941 0068 04EB4505 		add	r5, r4, r5, lsl #1
 2942              	.LBE201:
 2943              	.LBE213:
 2944              	.LBB214:
 2945              	.LBB206:
 2946 006c 03EB4000 		add	r0, r3, r0, lsl #1
ARM GAS  /tmp/ccadBNMM.s 			page 53


 2947              	.LBE206:
 2948              	.LBE214:
 2949              	.LBB215:
 2950              	.LBB196:
 2951 0070 06EB4707 		add	r7, r6, r7, lsl #1
 2952              	.LBE196:
 2953              	.LBE215:
 2954              		.loc 1 1913 0
 2955 0074 0F70     		strb	r7, [r1]
 2956              	.LVL253:
 2957              		.loc 1 1914 0
 2958 0076 4D70     		strb	r5, [r1, #1]
 2959              	.LVL254:
 2960              		.loc 1 1915 0
 2961 0078 8870     		strb	r0, [r1, #2]
 2962              	.LVL255:
 2963              		.loc 1 1918 0
 2964 007a 5578     		ldrb	r5, [r2, #1]	@ zero_extendqisi2
 2965              	.LVL256:
 2966              		.loc 1 1919 0
 2967 007c 9078     		ldrb	r0, [r2, #2]	@ zero_extendqisi2
 2968              	.LVL257:
 2969              		.loc 1 1920 0
 2970 007e 1378     		ldrb	r3, [r2]	@ zero_extendqisi2
 2971              	.LVL258:
 2972              	.LBB216:
 2973              	.LBB217:
 2974              		.loc 1 2580 0
 2975 0080 2E09     		lsrs	r6, r5, #4
 2976              	.LBE217:
 2977              	.LBE216:
 2978              	.LBB220:
 2979              	.LBB221:
 2980 0082 0409     		lsrs	r4, r0, #4
 2981              	.LBE221:
 2982              	.LBE220:
 2983              	.LBB224:
 2984              	.LBB225:
 2985 0084 1909     		lsrs	r1, r3, #4
 2986              	.LVL259:
 2987              	.LBE225:
 2988              	.LBE224:
 2989              	.LBB228:
 2990              	.LBB218:
 2991 0086 06EB8606 		add	r6, r6, r6, lsl #2
 2992              		.loc 1 2581 0
 2993 008a 05F00F05 		and	r5, r5, #15
 2994              	.LVL260:
 2995              	.LBE218:
 2996              	.LBE228:
 2997              	.LBB229:
 2998              	.LBB222:
 2999              		.loc 1 2580 0
 3000 008e 04EB8404 		add	r4, r4, r4, lsl #2
 3001              		.loc 1 2581 0
 3002 0092 00F00F00 		and	r0, r0, #15
 3003              	.LVL261:
ARM GAS  /tmp/ccadBNMM.s 			page 54


 3004              	.LBE222:
 3005              	.LBE229:
 3006              	.LBB230:
 3007              	.LBB226:
 3008              		.loc 1 2580 0
 3009 0096 01EB8101 		add	r1, r1, r1, lsl #2
 3010              		.loc 1 2581 0
 3011 009a 03F00F03 		and	r3, r3, #15
 3012              	.LVL262:
 3013              	.LBE226:
 3014              	.LBE230:
 3015              	.LBB231:
 3016              	.LBB219:
 3017 009e 05EB4606 		add	r6, r5, r6, lsl #1
 3018              	.LBE219:
 3019              	.LBE231:
 3020              	.LBB232:
 3021              	.LBB223:
 3022 00a2 00EB4404 		add	r4, r0, r4, lsl #1
 3023              	.LBE223:
 3024              	.LBE232:
 3025              	.LBB233:
 3026              	.LBB227:
 3027 00a6 03EB4101 		add	r1, r3, r1, lsl #1
 3028              	.LBE227:
 3029              	.LBE233:
 3030              		.loc 1 1918 0
 3031 00aa 5670     		strb	r6, [r2, #1]
 3032              	.LVL263:
 3033              		.loc 1 1919 0
 3034 00ac 9470     		strb	r4, [r2, #2]
 3035              	.LVL264:
 3036              		.loc 1 1920 0
 3037 00ae 1170     		strb	r1, [r2]
 3038              	.LVL265:
 3039              	.L252:
 3040              		.loc 1 1922 0
 3041 00b0 BDE8F003 		pop	{r4, r5, r6, r7, r8, r9}
 3042 00b4 7047     		bx	lr
 3043              	.L255:
 3044 00b6 00BF     		.align	2
 3045              	.L254:
 3046 00b8 00280040 		.word	1073752064
 3047              		.cfi_endproc
 3048              	.LFE144:
 3049              		.size	RTC_GetTimeStamp, .-RTC_GetTimeStamp
 3050 00bc AFF30080 		.section	.text.RTC_GetTimeStampSubSecond,"ax",%progbits
 3051              		.align	2
 3052              		.p2align 4,,15
 3053              		.global	RTC_GetTimeStampSubSecond
 3054              		.thumb
 3055              		.thumb_func
 3056              		.type	RTC_GetTimeStampSubSecond, %function
 3057              	RTC_GetTimeStampSubSecond:
 3058              	.LFB145:
 3059              		.loc 1 1930 0
 3060              		.cfi_startproc
ARM GAS  /tmp/ccadBNMM.s 			page 55


 3061              		@ args = 0, pretend = 0, frame = 0
 3062              		@ frame_needed = 0, uses_anonymous_args = 0
 3063              		@ link register save eliminated.
 3064              		.loc 1 1932 0
 3065 0000 014B     		ldr	r3, .L257
 3066 0002 986B     		ldr	r0, [r3, #56]
 3067              		.loc 1 1933 0
 3068 0004 7047     		bx	lr
 3069              	.L258:
 3070 0006 00BF     		.align	2
 3071              	.L257:
 3072 0008 00280040 		.word	1073752064
 3073              		.cfi_endproc
 3074              	.LFE145:
 3075              		.size	RTC_GetTimeStampSubSecond, .-RTC_GetTimeStampSubSecond
 3076 000c AFF30080 		.section	.text.RTC_TamperTriggerConfig,"ax",%progbits
 3077              		.align	2
 3078              		.p2align 4,,15
 3079              		.global	RTC_TamperTriggerConfig
 3080              		.thumb
 3081              		.thumb_func
 3082              		.type	RTC_TamperTriggerConfig, %function
 3083              	RTC_TamperTriggerConfig:
 3084              	.LFB146:
 3085              		.loc 1 1968 0
 3086              		.cfi_startproc
 3087              		@ args = 0, pretend = 0, frame = 0
 3088              		@ frame_needed = 0, uses_anonymous_args = 0
 3089              		@ link register save eliminated.
 3090              	.LVL266:
 3091              		.loc 1 1977 0
 3092 0000 054B     		ldr	r3, .L263
 3093 0002 1A6C     		ldr	r2, [r3, #64]
 3094              		.loc 1 1974 0
 3095 0004 19B1     		cbz	r1, .L262
 3096              		.loc 1 1982 0
 3097 0006 42EA4000 		orr	r0, r2, r0, lsl #1
 3098              	.LVL267:
 3099 000a 1864     		str	r0, [r3, #64]
 3100 000c 7047     		bx	lr
 3101              	.LVL268:
 3102              	.L262:
 3103              		.loc 1 1977 0
 3104 000e 22EA4000 		bic	r0, r2, r0, lsl #1
 3105              	.LVL269:
 3106 0012 1864     		str	r0, [r3, #64]
 3107 0014 7047     		bx	lr
 3108              	.L264:
 3109 0016 00BF     		.align	2
 3110              	.L263:
 3111 0018 00280040 		.word	1073752064
 3112              		.cfi_endproc
 3113              	.LFE146:
 3114              		.size	RTC_TamperTriggerConfig, .-RTC_TamperTriggerConfig
 3115 001c AFF30080 		.section	.text.RTC_TamperCmd,"ax",%progbits
 3116              		.align	2
 3117              		.p2align 4,,15
ARM GAS  /tmp/ccadBNMM.s 			page 56


 3118              		.global	RTC_TamperCmd
 3119              		.thumb
 3120              		.thumb_func
 3121              		.type	RTC_TamperCmd, %function
 3122              	RTC_TamperCmd:
 3123              	.LFB147:
 3124              		.loc 1 1998 0
 3125              		.cfi_startproc
 3126              		@ args = 0, pretend = 0, frame = 0
 3127              		@ frame_needed = 0, uses_anonymous_args = 0
 3128              		@ link register save eliminated.
 3129              	.LVL270:
 3130              		.loc 1 2006 0
 3131 0000 044B     		ldr	r3, .L269
 3132 0002 1A6C     		ldr	r2, [r3, #64]
 3133              		.loc 1 2003 0
 3134 0004 19B9     		cbnz	r1, .L268
 3135              		.loc 1 2011 0
 3136 0006 22EA0000 		bic	r0, r2, r0
 3137              	.LVL271:
 3138 000a 1864     		str	r0, [r3, #64]
 3139 000c 7047     		bx	lr
 3140              	.LVL272:
 3141              	.L268:
 3142              		.loc 1 2006 0
 3143 000e 1043     		orrs	r0, r0, r2
 3144              	.LVL273:
 3145 0010 1864     		str	r0, [r3, #64]
 3146 0012 7047     		bx	lr
 3147              	.L270:
 3148              		.align	2
 3149              	.L269:
 3150 0014 00280040 		.word	1073752064
 3151              		.cfi_endproc
 3152              	.LFE147:
 3153              		.size	RTC_TamperCmd, .-RTC_TamperCmd
 3154 0018 AFF30080 		.section	.text.RTC_TamperFilterConfig,"ax",%progbits
 3154      AFF30080 
 3155              		.align	2
 3156              		.p2align 4,,15
 3157              		.global	RTC_TamperFilterConfig
 3158              		.thumb
 3159              		.thumb_func
 3160              		.type	RTC_TamperFilterConfig, %function
 3161              	RTC_TamperFilterConfig:
 3162              	.LFB148:
 3163              		.loc 1 2029 0
 3164              		.cfi_startproc
 3165              		@ args = 0, pretend = 0, frame = 0
 3166              		@ frame_needed = 0, uses_anonymous_args = 0
 3167              		@ link register save eliminated.
 3168              	.LVL274:
 3169              		.loc 1 2034 0
 3170 0000 044B     		ldr	r3, .L272
 3171 0002 1A6C     		ldr	r2, [r3, #64]
 3172 0004 22F4C052 		bic	r2, r2, #6144
 3173 0008 1A64     		str	r2, [r3, #64]
ARM GAS  /tmp/ccadBNMM.s 			page 57


 3174              		.loc 1 2037 0
 3175 000a 1A6C     		ldr	r2, [r3, #64]
 3176 000c 1043     		orrs	r0, r0, r2
 3177              	.LVL275:
 3178 000e 1864     		str	r0, [r3, #64]
 3179 0010 7047     		bx	lr
 3180              	.L273:
 3181 0012 00BF     		.align	2
 3182              	.L272:
 3183 0014 00280040 		.word	1073752064
 3184              		.cfi_endproc
 3185              	.LFE148:
 3186              		.size	RTC_TamperFilterConfig, .-RTC_TamperFilterConfig
 3187 0018 AFF30080 		.section	.text.RTC_TamperSamplingFreqConfig,"ax",%progbits
 3187      AFF30080 
 3188              		.align	2
 3189              		.p2align 4,,15
 3190              		.global	RTC_TamperSamplingFreqConfig
 3191              		.thumb
 3192              		.thumb_func
 3193              		.type	RTC_TamperSamplingFreqConfig, %function
 3194              	RTC_TamperSamplingFreqConfig:
 3195              	.LFB149:
 3196              		.loc 1 2063 0
 3197              		.cfi_startproc
 3198              		@ args = 0, pretend = 0, frame = 0
 3199              		@ frame_needed = 0, uses_anonymous_args = 0
 3200              		@ link register save eliminated.
 3201              	.LVL276:
 3202              		.loc 1 2068 0
 3203 0000 044B     		ldr	r3, .L275
 3204 0002 1A6C     		ldr	r2, [r3, #64]
 3205 0004 22F4E062 		bic	r2, r2, #1792
 3206 0008 1A64     		str	r2, [r3, #64]
 3207              		.loc 1 2071 0
 3208 000a 1A6C     		ldr	r2, [r3, #64]
 3209 000c 1043     		orrs	r0, r0, r2
 3210              	.LVL277:
 3211 000e 1864     		str	r0, [r3, #64]
 3212 0010 7047     		bx	lr
 3213              	.L276:
 3214 0012 00BF     		.align	2
 3215              	.L275:
 3216 0014 00280040 		.word	1073752064
 3217              		.cfi_endproc
 3218              	.LFE149:
 3219              		.size	RTC_TamperSamplingFreqConfig, .-RTC_TamperSamplingFreqConfig
 3220 0018 AFF30080 		.section	.text.RTC_TamperPinsPrechargeDuration,"ax",%progbits
 3220      AFF30080 
 3221              		.align	2
 3222              		.p2align 4,,15
 3223              		.global	RTC_TamperPinsPrechargeDuration
 3224              		.thumb
 3225              		.thumb_func
 3226              		.type	RTC_TamperPinsPrechargeDuration, %function
 3227              	RTC_TamperPinsPrechargeDuration:
 3228              	.LFB150:
ARM GAS  /tmp/ccadBNMM.s 			page 58


 3229              		.loc 1 2086 0
 3230              		.cfi_startproc
 3231              		@ args = 0, pretend = 0, frame = 0
 3232              		@ frame_needed = 0, uses_anonymous_args = 0
 3233              		@ link register save eliminated.
 3234              	.LVL278:
 3235              		.loc 1 2091 0
 3236 0000 044B     		ldr	r3, .L278
 3237 0002 1A6C     		ldr	r2, [r3, #64]
 3238 0004 22F4C042 		bic	r2, r2, #24576
 3239 0008 1A64     		str	r2, [r3, #64]
 3240              		.loc 1 2094 0
 3241 000a 1A6C     		ldr	r2, [r3, #64]
 3242 000c 1043     		orrs	r0, r0, r2
 3243              	.LVL279:
 3244 000e 1864     		str	r0, [r3, #64]
 3245 0010 7047     		bx	lr
 3246              	.L279:
 3247 0012 00BF     		.align	2
 3248              	.L278:
 3249 0014 00280040 		.word	1073752064
 3250              		.cfi_endproc
 3251              	.LFE150:
 3252              		.size	RTC_TamperPinsPrechargeDuration, .-RTC_TamperPinsPrechargeDuration
 3253 0018 AFF30080 		.section	.text.RTC_TimeStampOnTamperDetectionCmd,"ax",%progbits
 3253      AFF30080 
 3254              		.align	2
 3255              		.p2align 4,,15
 3256              		.global	RTC_TimeStampOnTamperDetectionCmd
 3257              		.thumb
 3258              		.thumb_func
 3259              		.type	RTC_TimeStampOnTamperDetectionCmd, %function
 3260              	RTC_TimeStampOnTamperDetectionCmd:
 3261              	.LFB151:
 3262              		.loc 1 2106 0
 3263              		.cfi_startproc
 3264              		@ args = 0, pretend = 0, frame = 0
 3265              		@ frame_needed = 0, uses_anonymous_args = 0
 3266              		@ link register save eliminated.
 3267              	.LVL280:
 3268              		.loc 1 2113 0
 3269 0000 054B     		ldr	r3, .L284
 3270 0002 1A6C     		ldr	r2, [r3, #64]
 3271              		.loc 1 2110 0
 3272 0004 18B9     		cbnz	r0, .L283
 3273              		.loc 1 2118 0
 3274 0006 22F08002 		bic	r2, r2, #128
 3275 000a 1A64     		str	r2, [r3, #64]
 3276 000c 7047     		bx	lr
 3277              	.L283:
 3278              		.loc 1 2113 0
 3279 000e 42F08002 		orr	r2, r2, #128
 3280 0012 1A64     		str	r2, [r3, #64]
 3281 0014 7047     		bx	lr
 3282              	.L285:
 3283 0016 00BF     		.align	2
 3284              	.L284:
ARM GAS  /tmp/ccadBNMM.s 			page 59


 3285 0018 00280040 		.word	1073752064
 3286              		.cfi_endproc
 3287              	.LFE151:
 3288              		.size	RTC_TimeStampOnTamperDetectionCmd, .-RTC_TimeStampOnTamperDetectionCmd
 3289 001c AFF30080 		.section	.text.RTC_TamperPullUpCmd,"ax",%progbits
 3290              		.align	2
 3291              		.p2align 4,,15
 3292              		.global	RTC_TamperPullUpCmd
 3293              		.thumb
 3294              		.thumb_func
 3295              		.type	RTC_TamperPullUpCmd, %function
 3296              	RTC_TamperPullUpCmd:
 3297              	.LFB152:
 3298              		.loc 1 2129 0
 3299              		.cfi_startproc
 3300              		@ args = 0, pretend = 0, frame = 0
 3301              		@ frame_needed = 0, uses_anonymous_args = 0
 3302              		@ link register save eliminated.
 3303              	.LVL281:
 3304              		.loc 1 2136 0
 3305 0000 054B     		ldr	r3, .L290
 3306 0002 1A6C     		ldr	r2, [r3, #64]
 3307              		.loc 1 2133 0
 3308 0004 18B9     		cbnz	r0, .L289
 3309              		.loc 1 2141 0
 3310 0006 42F40042 		orr	r2, r2, #32768
 3311 000a 1A64     		str	r2, [r3, #64]
 3312 000c 7047     		bx	lr
 3313              	.L289:
 3314              		.loc 1 2136 0
 3315 000e 22F40042 		bic	r2, r2, #32768
 3316 0012 1A64     		str	r2, [r3, #64]
 3317 0014 7047     		bx	lr
 3318              	.L291:
 3319 0016 00BF     		.align	2
 3320              	.L290:
 3321 0018 00280040 		.word	1073752064
 3322              		.cfi_endproc
 3323              	.LFE152:
 3324              		.size	RTC_TamperPullUpCmd, .-RTC_TamperPullUpCmd
 3325 001c AFF30080 		.section	.text.RTC_WriteBackupRegister,"ax",%progbits
 3326              		.align	2
 3327              		.p2align 4,,15
 3328              		.global	RTC_WriteBackupRegister
 3329              		.thumb
 3330              		.thumb_func
 3331              		.type	RTC_WriteBackupRegister, %function
 3332              	RTC_WriteBackupRegister:
 3333              	.LFB153:
 3334              		.loc 1 2170 0
 3335              		.cfi_startproc
 3336              		@ args = 0, pretend = 0, frame = 8
 3337              		@ frame_needed = 0, uses_anonymous_args = 0
 3338              		@ link register save eliminated.
 3339              	.LVL282:
 3340 0000 82B0     		sub	sp, sp, #8
 3341              		.cfi_def_cfa_offset 8
ARM GAS  /tmp/ccadBNMM.s 			page 60


 3342              		.loc 1 2171 0
 3343 0002 0022     		movs	r2, #0
 3344              		.loc 1 2176 0
 3345 0004 054B     		ldr	r3, .L293
 3346              		.loc 1 2171 0
 3347 0006 0192     		str	r2, [sp, #4]
 3348              		.loc 1 2176 0
 3349 0008 0193     		str	r3, [sp, #4]
 3350              		.loc 1 2177 0
 3351 000a 019B     		ldr	r3, [sp, #4]
 3352 000c 03EB8000 		add	r0, r3, r0, lsl #2
 3353              	.LVL283:
 3354 0010 0190     		str	r0, [sp, #4]
 3355              		.loc 1 2180 0
 3356 0012 019B     		ldr	r3, [sp, #4]
 3357 0014 1960     		str	r1, [r3]
 3358              		.loc 1 2181 0
 3359 0016 02B0     		add	sp, sp, #8
 3360              		@ sp needed
 3361 0018 7047     		bx	lr
 3362              	.L294:
 3363 001a 00BF     		.align	2
 3364              	.L293:
 3365 001c 50280040 		.word	1073752144
 3366              		.cfi_endproc
 3367              	.LFE153:
 3368              		.size	RTC_WriteBackupRegister, .-RTC_WriteBackupRegister
 3369              		.section	.text.RTC_ReadBackupRegister,"ax",%progbits
 3370              		.align	2
 3371              		.p2align 4,,15
 3372              		.global	RTC_ReadBackupRegister
 3373              		.thumb
 3374              		.thumb_func
 3375              		.type	RTC_ReadBackupRegister, %function
 3376              	RTC_ReadBackupRegister:
 3377              	.LFB154:
 3378              		.loc 1 2191 0
 3379              		.cfi_startproc
 3380              		@ args = 0, pretend = 0, frame = 8
 3381              		@ frame_needed = 0, uses_anonymous_args = 0
 3382              		@ link register save eliminated.
 3383              	.LVL284:
 3384 0000 82B0     		sub	sp, sp, #8
 3385              		.cfi_def_cfa_offset 8
 3386              		.loc 1 2192 0
 3387 0002 0022     		movs	r2, #0
 3388              		.loc 1 2197 0
 3389 0004 054B     		ldr	r3, .L296
 3390              		.loc 1 2192 0
 3391 0006 0192     		str	r2, [sp, #4]
 3392              		.loc 1 2197 0
 3393 0008 0193     		str	r3, [sp, #4]
 3394              		.loc 1 2198 0
 3395 000a 019B     		ldr	r3, [sp, #4]
 3396 000c 03EB8000 		add	r0, r3, r0, lsl #2
 3397              	.LVL285:
 3398 0010 0190     		str	r0, [sp, #4]
ARM GAS  /tmp/ccadBNMM.s 			page 61


 3399              		.loc 1 2201 0
 3400 0012 019B     		ldr	r3, [sp, #4]
 3401 0014 1868     		ldr	r0, [r3]
 3402              		.loc 1 2202 0
 3403 0016 02B0     		add	sp, sp, #8
 3404              		@ sp needed
 3405 0018 7047     		bx	lr
 3406              	.L297:
 3407 001a 00BF     		.align	2
 3408              	.L296:
 3409 001c 50280040 		.word	1073752144
 3410              		.cfi_endproc
 3411              	.LFE154:
 3412              		.size	RTC_ReadBackupRegister, .-RTC_ReadBackupRegister
 3413              		.section	.text.RTC_OutputTypeConfig,"ax",%progbits
 3414              		.align	2
 3415              		.p2align 4,,15
 3416              		.global	RTC_OutputTypeConfig
 3417              		.thumb
 3418              		.thumb_func
 3419              		.type	RTC_OutputTypeConfig, %function
 3420              	RTC_OutputTypeConfig:
 3421              	.LFB155:
 3422              		.loc 1 2231 0
 3423              		.cfi_startproc
 3424              		@ args = 0, pretend = 0, frame = 0
 3425              		@ frame_needed = 0, uses_anonymous_args = 0
 3426              		@ link register save eliminated.
 3427              	.LVL286:
 3428              		.loc 1 2235 0
 3429 0000 044B     		ldr	r3, .L299
 3430 0002 1A6C     		ldr	r2, [r3, #64]
 3431 0004 22F48022 		bic	r2, r2, #262144
 3432 0008 1A64     		str	r2, [r3, #64]
 3433              		.loc 1 2236 0
 3434 000a 1A6C     		ldr	r2, [r3, #64]
 3435 000c 1043     		orrs	r0, r0, r2
 3436              	.LVL287:
 3437 000e 1864     		str	r0, [r3, #64]
 3438 0010 7047     		bx	lr
 3439              	.L300:
 3440 0012 00BF     		.align	2
 3441              	.L299:
 3442 0014 00280040 		.word	1073752064
 3443              		.cfi_endproc
 3444              	.LFE155:
 3445              		.size	RTC_OutputTypeConfig, .-RTC_OutputTypeConfig
 3446 0018 AFF30080 		.section	.text.RTC_SynchroShiftConfig,"ax",%progbits
 3446      AFF30080 
 3447              		.align	2
 3448              		.p2align 4,,15
 3449              		.global	RTC_SynchroShiftConfig
 3450              		.thumb
 3451              		.thumb_func
 3452              		.type	RTC_SynchroShiftConfig, %function
 3453              	RTC_SynchroShiftConfig:
 3454              	.LFB156:
ARM GAS  /tmp/ccadBNMM.s 			page 62


 3455              		.loc 1 2269 0
 3456              		.cfi_startproc
 3457              		@ args = 0, pretend = 0, frame = 0
 3458              		@ frame_needed = 0, uses_anonymous_args = 0
 3459              	.LVL288:
 3460 0000 10B5     		push	{r4, lr}
 3461              		.cfi_def_cfa_offset 8
 3462              		.cfi_offset 4, -8
 3463              		.cfi_offset 14, -4
 3464              		.loc 1 2278 0
 3465 0002 184C     		ldr	r4, .L322
 3466 0004 CA22     		movs	r2, #202
 3467              		.loc 1 2279 0
 3468 0006 5323     		movs	r3, #83
 3469              		.loc 1 2278 0
 3470 0008 6262     		str	r2, [r4, #36]
 3471              		.loc 1 2279 0
 3472 000a 6362     		str	r3, [r4, #36]
 3473              		.loc 1 2282 0
 3474 000c E368     		ldr	r3, [r4, #12]
 3475 000e 1A07     		lsls	r2, r3, #28
 3476 0010 0AD5     		bpl	.L302
 3477              		.loc 1 2285 0 discriminator 1
 3478 0012 E368     		ldr	r3, [r4, #12]
 3479 0014 1B07     		lsls	r3, r3, #28
 3480 0016 07D5     		bpl	.L302
 3481              		.loc 1 2285 0 is_stmt 0
 3482 0018 4FF40053 		mov	r3, #8192
 3483 001c 01E0     		b	.L303
 3484              	.LVL289:
 3485              	.L320:
 3486              		.loc 1 2285 0 discriminator 2
 3487 001e 013B     		subs	r3, r3, #1
 3488              	.LVL290:
 3489 0020 02D0     		beq	.L302
 3490              	.LVL291:
 3491              	.L303:
 3492              		.loc 1 2285 0
 3493 0022 E268     		ldr	r2, [r4, #12]
 3494 0024 1207     		lsls	r2, r2, #28
 3495 0026 FAD4     		bmi	.L320
 3496              	.LVL292:
 3497              	.L302:
 3498              		.loc 1 2292 0 is_stmt 1
 3499 0028 0E4A     		ldr	r2, .L322
 3500 002a D368     		ldr	r3, [r2, #12]
 3501 002c 13F00803 		ands	r3, r3, #8
 3502 0030 13D1     		bne	.L305
 3503              		.loc 1 2295 0
 3504 0032 9468     		ldr	r4, [r2, #8]
 3505 0034 E406     		lsls	r4, r4, #27
 3506 0036 04D5     		bpl	.L321
 3507              		.loc 1 2320 0
 3508 0038 0A4A     		ldr	r2, .L322
 3509 003a FF21     		movs	r1, #255
 3510              	.LVL293:
 3511              		.loc 1 2316 0
ARM GAS  /tmp/ccadBNMM.s 			page 63


 3512 003c 1846     		mov	r0, r3
 3513              	.LVL294:
 3514              		.loc 1 2320 0
 3515 003e 5162     		str	r1, [r2, #36]
 3516              		.loc 1 2323 0
 3517 0040 10BD     		pop	{r4, pc}
 3518              	.LVL295:
 3519              	.L321:
 3520              		.loc 1 2298 0
 3521 0042 0143     		orrs	r1, r1, r0
 3522              	.LVL296:
 3523 0044 D162     		str	r1, [r2, #44]
 3524              		.loc 1 2300 0
 3525 0046 FFF7FEFF 		bl	RTC_WaitForSynchro
 3526              	.LVL297:
 3527              		.loc 1 2320 0
 3528 004a 064A     		ldr	r2, .L322
 3529              		.loc 1 2311 0
 3530 004c 0030     		adds	r0, r0, #0
 3531              		.loc 1 2320 0
 3532 004e 4FF0FF01 		mov	r1, #255
 3533              		.loc 1 2311 0
 3534 0052 18BF     		it	ne
 3535 0054 0120     		movne	r0, #1
 3536              	.LVL298:
 3537              		.loc 1 2320 0
 3538 0056 5162     		str	r1, [r2, #36]
 3539              		.loc 1 2323 0
 3540 0058 10BD     		pop	{r4, pc}
 3541              	.LVL299:
 3542              	.L305:
 3543              		.loc 1 2320 0
 3544 005a 024A     		ldr	r2, .L322
 3545 005c FF21     		movs	r1, #255
 3546              	.LVL300:
 3547              		.loc 1 2316 0
 3548 005e 0020     		movs	r0, #0
 3549              	.LVL301:
 3550              		.loc 1 2320 0
 3551 0060 5162     		str	r1, [r2, #36]
 3552              		.loc 1 2323 0
 3553 0062 10BD     		pop	{r4, pc}
 3554              	.L323:
 3555              		.align	2
 3556              	.L322:
 3557 0064 00280040 		.word	1073752064
 3558              		.cfi_endproc
 3559              	.LFE156:
 3560              		.size	RTC_SynchroShiftConfig, .-RTC_SynchroShiftConfig
 3561 0068 AFF30080 		.section	.text.RTC_ITConfig,"ax",%progbits
 3561      AFF30080 
 3562              		.align	2
 3563              		.p2align 4,,15
 3564              		.global	RTC_ITConfig
 3565              		.thumb
 3566              		.thumb_func
 3567              		.type	RTC_ITConfig, %function
ARM GAS  /tmp/ccadBNMM.s 			page 64


 3568              	RTC_ITConfig:
 3569              	.LFB157:
 3570              		.loc 1 2385 0
 3571              		.cfi_startproc
 3572              		@ args = 0, pretend = 0, frame = 0
 3573              		@ frame_needed = 0, uses_anonymous_args = 0
 3574              		@ link register save eliminated.
 3575              	.LVL302:
 3576              		.loc 1 2391 0
 3577 0000 114B     		ldr	r3, .L328
 3578              		.loc 1 2385 0
 3579 0002 10B4     		push	{r4}
 3580              		.cfi_def_cfa_offset 4
 3581              		.cfi_offset 4, -4
 3582              		.loc 1 2392 0
 3583 0004 5322     		movs	r2, #83
 3584              		.loc 1 2391 0
 3585 0006 CA24     		movs	r4, #202
 3586 0008 5C62     		str	r4, [r3, #36]
 3587              		.loc 1 2392 0
 3588 000a 5A62     		str	r2, [r3, #36]
 3589              		.loc 1 2397 0
 3590 000c 9A68     		ldr	r2, [r3, #8]
 3591              		.loc 1 2394 0
 3592 000e 81B9     		cbnz	r1, .L327
 3593              		.loc 1 2404 0
 3594 0010 20F00401 		bic	r1, r0, #4
 3595              	.LVL303:
 3596 0014 22EA0102 		bic	r2, r2, r1
 3597 0018 9A60     		str	r2, [r3, #8]
 3598              		.loc 1 2406 0
 3599 001a 1A6C     		ldr	r2, [r3, #64]
 3600 001c 00F00400 		and	r0, r0, #4
 3601              	.LVL304:
 3602 0020 22EA0000 		bic	r0, r2, r0
 3603 0024 1864     		str	r0, [r3, #64]
 3604              	.L326:
 3605              		.loc 1 2409 0
 3606 0026 084B     		ldr	r3, .L328
 3607              		.loc 1 2410 0
 3608 0028 5DF8044B 		ldr	r4, [sp], #4
 3609              		.loc 1 2409 0
 3610 002c FF22     		movs	r2, #255
 3611 002e 5A62     		str	r2, [r3, #36]
 3612              		.loc 1 2410 0
 3613 0030 7047     		bx	lr
 3614              	.LVL305:
 3615              	.L327:
 3616              		.loc 1 2397 0
 3617 0032 20F00401 		bic	r1, r0, #4
 3618              	.LVL306:
 3619 0036 0A43     		orrs	r2, r2, r1
 3620 0038 9A60     		str	r2, [r3, #8]
 3621              		.loc 1 2399 0
 3622 003a 1A6C     		ldr	r2, [r3, #64]
 3623 003c 00F00400 		and	r0, r0, #4
 3624              	.LVL307:
ARM GAS  /tmp/ccadBNMM.s 			page 65


 3625 0040 1043     		orrs	r0, r0, r2
 3626 0042 1864     		str	r0, [r3, #64]
 3627 0044 EFE7     		b	.L326
 3628              	.L329:
 3629 0046 00BF     		.align	2
 3630              	.L328:
 3631 0048 00280040 		.word	1073752064
 3632              		.cfi_endproc
 3633              	.LFE157:
 3634              		.size	RTC_ITConfig, .-RTC_ITConfig
 3635 004c AFF30080 		.section	.text.RTC_GetFlagStatus,"ax",%progbits
 3636              		.align	2
 3637              		.p2align 4,,15
 3638              		.global	RTC_GetFlagStatus
 3639              		.thumb
 3640              		.thumb_func
 3641              		.type	RTC_GetFlagStatus, %function
 3642              	RTC_GetFlagStatus:
 3643              	.LFB158:
 3644              		.loc 1 2435 0
 3645              		.cfi_startproc
 3646              		@ args = 0, pretend = 0, frame = 0
 3647              		@ frame_needed = 0, uses_anonymous_args = 0
 3648              		@ link register save eliminated.
 3649              	.LVL308:
 3650              		.loc 1 2443 0
 3651 0000 044A     		ldr	r2, .L331
 3652 0002 054B     		ldr	r3, .L331+4
 3653 0004 D268     		ldr	r2, [r2, #12]
 3654              	.LVL309:
 3655 0006 1340     		ands	r3, r3, r2
 3656              	.LVL310:
 3657              		.loc 1 2446 0
 3658 0008 0342     		tst	r3, r0
 3659              		.loc 1 2455 0
 3660 000a 0CBF     		ite	eq
 3661 000c 0020     		moveq	r0, #0
 3662 000e 0120     		movne	r0, #1
 3663              	.LVL311:
 3664 0010 7047     		bx	lr
 3665              	.L332:
 3666 0012 00BF     		.align	2
 3667              	.L331:
 3668 0014 00280040 		.word	1073752064
 3669 0018 7FFF0100 		.word	130943
 3670              		.cfi_endproc
 3671              	.LFE158:
 3672              		.size	RTC_GetFlagStatus, .-RTC_GetFlagStatus
 3673 001c AFF30080 		.section	.text.RTC_ClearFlag,"ax",%progbits
 3674              		.align	2
 3675              		.p2align 4,,15
 3676              		.global	RTC_ClearFlag
 3677              		.thumb
 3678              		.thumb_func
 3679              		.type	RTC_ClearFlag, %function
 3680              	RTC_ClearFlag:
 3681              	.LFB159:
ARM GAS  /tmp/ccadBNMM.s 			page 66


 3682              		.loc 1 2473 0
 3683              		.cfi_startproc
 3684              		@ args = 0, pretend = 0, frame = 0
 3685              		@ frame_needed = 0, uses_anonymous_args = 0
 3686              		@ link register save eliminated.
 3687              	.LVL312:
 3688              		.loc 1 2478 0
 3689 0000 054A     		ldr	r2, .L334
 3690 0002 064B     		ldr	r3, .L334+4
 3691 0004 D168     		ldr	r1, [r2, #12]
 3692 0006 0340     		ands	r3, r3, r0
 3693 0008 01F08001 		and	r1, r1, #128
 3694 000c 43F08003 		orr	r3, r3, #128
 3695 0010 61EA0303 		orn	r3, r1, r3
 3696 0014 D360     		str	r3, [r2, #12]
 3697 0016 7047     		bx	lr
 3698              	.L335:
 3699              		.align	2
 3700              	.L334:
 3701 0018 00280040 		.word	1073752064
 3702 001c 7FFF0100 		.word	130943
 3703              		.cfi_endproc
 3704              	.LFE159:
 3705              		.size	RTC_ClearFlag, .-RTC_ClearFlag
 3706              		.section	.text.RTC_GetITStatus,"ax",%progbits
 3707              		.align	2
 3708              		.p2align 4,,15
 3709              		.global	RTC_GetITStatus
 3710              		.thumb
 3711              		.thumb_func
 3712              		.type	RTC_GetITStatus, %function
 3713              	RTC_GetITStatus:
 3714              	.LFB160:
 3715              		.loc 1 2495 0
 3716              		.cfi_startproc
 3717              		@ args = 0, pretend = 0, frame = 0
 3718              		@ frame_needed = 0, uses_anonymous_args = 0
 3719              		@ link register save eliminated.
 3720              	.LVL313:
 3721              		.loc 1 2503 0
 3722 0000 0D4B     		ldr	r3, .L339
 3723              		.loc 1 2495 0
 3724 0002 30B4     		push	{r4, r5}
 3725              		.cfi_def_cfa_offset 8
 3726              		.cfi_offset 4, -8
 3727              		.cfi_offset 5, -4
 3728              		.loc 1 2503 0
 3729 0004 1C6C     		ldr	r4, [r3, #64]
 3730              	.LVL314:
 3731              		.loc 1 2506 0
 3732 0006 9968     		ldr	r1, [r3, #8]
 3733              	.LVL315:
 3734              		.loc 1 2509 0
 3735 0008 DD68     		ldr	r5, [r3, #12]
 3736              	.LVL316:
 3737              		.loc 1 2506 0
 3738 000a 820C     		lsrs	r2, r0, #18
ARM GAS  /tmp/ccadBNMM.s 			page 67


 3739              		.loc 1 2503 0
 3740 000c 04F00403 		and	r3, r4, #4
 3741              		.loc 1 2506 0
 3742 0010 20FA02F2 		lsr	r2, r0, r2
 3743              	.LVL317:
 3744 0014 03EAD232 		and	r2, r3, r2, lsr #15
 3745              	.LVL318:
 3746 0018 00EA0103 		and	r3, r0, r1
 3747              		.loc 1 2512 0
 3748 001c 1343     		orrs	r3, r2, r3
 3749 001e 07D0     		beq	.L338
 3750              		.loc 1 2509 0 discriminator 1
 3751 0020 ADB2     		uxth	r5, r5
 3752              	.LVL319:
 3753              		.loc 1 2512 0 discriminator 1
 3754 0022 15EA1015 		ands	r5, r5, r0, lsr #4
 3755              		.loc 1 2514 0 discriminator 1
 3756 0026 0CBF     		ite	eq
 3757 0028 0020     		moveq	r0, #0
 3758 002a 0120     		movne	r0, #1
 3759              	.LVL320:
 3760              		.loc 1 2521 0 discriminator 1
 3761 002c 30BC     		pop	{r4, r5}
 3762              	.LVL321:
 3763 002e 7047     		bx	lr
 3764              	.LVL322:
 3765              	.L338:
 3766              		.loc 1 2518 0
 3767 0030 1846     		mov	r0, r3
 3768              	.LVL323:
 3769              		.loc 1 2521 0
 3770 0032 30BC     		pop	{r4, r5}
 3771              	.LVL324:
 3772 0034 7047     		bx	lr
 3773              	.L340:
 3774 0036 00BF     		.align	2
 3775              	.L339:
 3776 0038 00280040 		.word	1073752064
 3777              		.cfi_endproc
 3778              	.LFE160:
 3779              		.size	RTC_GetITStatus, .-RTC_GetITStatus
 3780 003c AFF30080 		.section	.text.RTC_ClearITPendingBit,"ax",%progbits
 3781              		.align	2
 3782              		.p2align 4,,15
 3783              		.global	RTC_ClearITPendingBit
 3784              		.thumb
 3785              		.thumb_func
 3786              		.type	RTC_ClearITPendingBit, %function
 3787              	RTC_ClearITPendingBit:
 3788              	.LFB161:
 3789              		.loc 1 2537 0
 3790              		.cfi_startproc
 3791              		@ args = 0, pretend = 0, frame = 0
 3792              		@ frame_needed = 0, uses_anonymous_args = 0
 3793              		@ link register save eliminated.
 3794              	.LVL325:
 3795              		.loc 1 2547 0
ARM GAS  /tmp/ccadBNMM.s 			page 68


 3796 0000 054B     		ldr	r3, .L342
 3797 0002 DA68     		ldr	r2, [r3, #12]
 3798 0004 C0F30F10 		ubfx	r0, r0, #4, #16
 3799              	.LVL326:
 3800 0008 40F08000 		orr	r0, r0, #128
 3801 000c 02F08002 		and	r2, r2, #128
 3802 0010 62EA0002 		orn	r2, r2, r0
 3803 0014 DA60     		str	r2, [r3, #12]
 3804 0016 7047     		bx	lr
 3805              	.L343:
 3806              		.align	2
 3807              	.L342:
 3808 0018 00280040 		.word	1073752064
 3809              		.cfi_endproc
 3810              	.LFE161:
 3811              		.size	RTC_ClearITPendingBit, .-RTC_ClearITPendingBit
 3812 001c AFF30080 		.text
 3813              	.Letext0:
 3814              		.file 2 "/usr/include/newlib/machine/_default_types.h"
 3815              		.file 3 "/usr/include/newlib/stdint.h"
 3816              		.file 4 "../../../../os/hal/platforms/STM32F30x/stm32f30x.h"
 3817              		.file 5 "../../../../ext/stm32lib/inc/stm32f30x_rtc.h"
 3818              		.file 6 "../../../../os/ports/common/ARMCMx/CMSIS/include/core_cm4.h"