ARM GAS  /tmp/ccadBNMM.s 			page 1


   1              		.syntax unified
   2              		.cpu cortex-m4
   3              		.eabi_attribute 27, 3
   4              		.fpu fpv4-sp-d16
   5              		.eabi_attribute 20, 1
   6              		.eabi_attribute 21, 1
   7              		.eabi_attribute 23, 3
   8              		.eabi_attribute 24, 1
   9              		.eabi_attribute 25, 1
  10              		.eabi_attribute 26, 1
  11              		.eabi_attribute 30, 2
  12              		.eabi_attribute 34, 1
  13              		.eabi_attribute 18, 4
  14              		.thumb
  15              		.file	"stm32f30x_rtc.c"
  16              		.text
  17              	.Ltext0:
  18              		.cfi_sections	.debug_frame
  19              		.section	.text.RTC_StructInit,"ax",%progbits
  20              		.align	2
  21              		.p2align 4,,15
  22              		.global	RTC_StructInit
  23              		.thumb
  24              		.thumb_func
  25              		.type	RTC_StructInit, %function
  26              	RTC_StructInit:
  27              	.LFB113:
  28              		.file 1 "../../../../ext/stm32lib/src/stm32f30x_rtc.c"
  29              		.loc 1 456 0
  30              		.cfi_startproc
  31              		@ args = 0, pretend = 0, frame = 0
  32              		@ frame_needed = 0, uses_anonymous_args = 0
  33              		@ link register save eliminated.
  34              	.LVL0:
  35              		.loc 1 464 0
  36 0000 0021     		movs	r1, #0
  37 0002 7F22     		movs	r2, #127
  38 0004 FF23     		movs	r3, #255
  39 0006 80E80E00 		stmia	r0, {r1, r2, r3}
  40 000a 7047     		bx	lr
  41              		.cfi_endproc
  42              	.LFE113:
  43              		.size	RTC_StructInit, .-RTC_StructInit
  44 000c AFF30080 		.section	.text.RTC_WriteProtectionCmd,"ax",%progbits
  45              		.align	2
  46              		.p2align 4,,15
  47              		.global	RTC_WriteProtectionCmd
  48              		.thumb
  49              		.thumb_func
  50              		.type	RTC_WriteProtectionCmd, %function
  51              	RTC_WriteProtectionCmd:
  52              	.LFB114:
  53              		.loc 1 478 0
  54              		.cfi_startproc
  55              		@ args = 0, pretend = 0, frame = 0
  56              		@ frame_needed = 0, uses_anonymous_args = 0
  57              		@ link register save eliminated.
ARM GAS  /tmp/ccadBNMM.s 			page 2


  58              	.LVL1:
  59              		.loc 1 485 0
  60 0000 044B     		ldr	r3, .L7
  61              		.loc 1 482 0
  62 0002 20B9     		cbnz	r0, .L6
  63              		.loc 1 490 0
  64 0004 CA21     		movs	r1, #202
  65              		.loc 1 491 0
  66 0006 5322     		movs	r2, #83
  67              		.loc 1 490 0
  68 0008 5962     		str	r1, [r3, #36]
  69              		.loc 1 491 0
  70 000a 5A62     		str	r2, [r3, #36]
  71 000c 7047     		bx	lr
  72              	.L6:
  73              		.loc 1 485 0
  74 000e FF22     		movs	r2, #255
  75 0010 5A62     		str	r2, [r3, #36]
  76 0012 7047     		bx	lr
  77              	.L8:
  78              		.align	2
  79              	.L7:
  80 0014 00280040 		.word	1073752064
  81              		.cfi_endproc
  82              	.LFE114:
  83              		.size	RTC_WriteProtectionCmd, .-RTC_WriteProtectionCmd
  84 0018 AFF30080 		.section	.text.RTC_EnterInitMode,"ax",%progbits
  84      AFF30080 
  85              		.align	2
  86              		.p2align 4,,15
  87              		.global	RTC_EnterInitMode
  88              		.thumb
  89              		.thumb_func
  90              		.type	RTC_EnterInitMode, %function
  91              	RTC_EnterInitMode:
  92              	.LFB115:
  93              		.loc 1 505 0
  94              		.cfi_startproc
  95              		@ args = 0, pretend = 0, frame = 8
  96              		@ frame_needed = 0, uses_anonymous_args = 0
  97              		@ link register save eliminated.
  98 0000 82B0     		sub	sp, sp, #8
  99              		.cfi_def_cfa_offset 8
 100              		.loc 1 506 0
 101 0002 0023     		movs	r3, #0
 102              		.loc 1 511 0
 103 0004 0E49     		ldr	r1, .L18
 104              		.loc 1 506 0
 105 0006 0193     		str	r3, [sp, #4]
 106              	.LVL2:
 107              		.loc 1 511 0
 108 0008 CB68     		ldr	r3, [r1, #12]
 109 000a 5B06     		lsls	r3, r3, #25
 110 000c 14D4     		bmi	.L13
 111              		.loc 1 514 0
 112 000e 4FF0FF33 		mov	r3, #-1
 113 0012 CB60     		str	r3, [r1, #12]
ARM GAS  /tmp/ccadBNMM.s 			page 3


 114 0014 00E0     		b	.L12
 115              	.LVL3:
 116              	.L17:
 117              		.loc 1 521 0 discriminator 1
 118 0016 4AB9     		cbnz	r2, .L11
 119              	.LVL4:
 120              	.L12:
 121              		.loc 1 519 0 discriminator 1
 122 0018 CA68     		ldr	r2, [r1, #12]
 123              		.loc 1 520 0 discriminator 1
 124 001a 019B     		ldr	r3, [sp, #4]
 125 001c 0133     		adds	r3, r3, #1
 126 001e 0193     		str	r3, [sp, #4]
 127              		.loc 1 521 0 discriminator 1
 128 0020 019B     		ldr	r3, [sp, #4]
 129 0022 B3F5005F 		cmp	r3, #8192
 130              		.loc 1 519 0 discriminator 1
 131 0026 02F04002 		and	r2, r2, #64
 132              	.LVL5:
 133              		.loc 1 521 0 discriminator 1
 134 002a F4D1     		bne	.L17
 135              	.L11:
 136              	.LBB76:
 137              	.LBB77:
 138              		.loc 1 523 0
 139 002c 044B     		ldr	r3, .L18
 140 002e D868     		ldr	r0, [r3, #12]
 141              		.loc 1 525 0
 142 0030 C0F38010 		ubfx	r0, r0, #6, #1
 143              	.LVL6:
 144              	.LBE77:
 145              	.LBE76:
 146              		.loc 1 538 0
 147 0034 02B0     		add	sp, sp, #8
 148              		@ sp needed
 149 0036 7047     		bx	lr
 150              	.LVL7:
 151              	.L13:
 152              		.loc 1 534 0
 153 0038 0120     		movs	r0, #1
 154              	.LVL8:
 155              		.loc 1 538 0
 156 003a 02B0     		add	sp, sp, #8
 157              		@ sp needed
 158 003c 7047     		bx	lr
 159              	.L19:
 160 003e 00BF     		.align	2
 161              	.L18:
 162 0040 00280040 		.word	1073752064
 163              		.cfi_endproc
 164              	.LFE115:
 165              		.size	RTC_EnterInitMode, .-RTC_EnterInitMode
 166 0044 AFF30080 		.section	.text.RTC_Init,"ax",%progbits
 166      AFF30080 
 166      AFF30080 
 167              		.align	2
 168              		.p2align 4,,15
ARM GAS  /tmp/ccadBNMM.s 			page 4


 169              		.global	RTC_Init
 170              		.thumb
 171              		.thumb_func
 172              		.type	RTC_Init, %function
 173              	RTC_Init:
 174              	.LFB112:
 175              		.loc 1 410 0
 176              		.cfi_startproc
 177              		@ args = 0, pretend = 0, frame = 0
 178              		@ frame_needed = 0, uses_anonymous_args = 0
 179              	.LVL9:
 180 0000 38B5     		push	{r3, r4, r5, lr}
 181              		.cfi_def_cfa_offset 16
 182              		.cfi_offset 3, -16
 183              		.cfi_offset 4, -12
 184              		.cfi_offset 5, -8
 185              		.cfi_offset 14, -4
 186              		.loc 1 419 0
 187 0002 104C     		ldr	r4, .L23
 188 0004 CA22     		movs	r2, #202
 189              		.loc 1 420 0
 190 0006 5323     		movs	r3, #83
 191              		.loc 1 419 0
 192 0008 6262     		str	r2, [r4, #36]
 193              		.loc 1 420 0
 194 000a 6362     		str	r3, [r4, #36]
 195              		.loc 1 410 0
 196 000c 0546     		mov	r5, r0
 197              		.loc 1 423 0
 198 000e FFF7FEFF 		bl	RTC_EnterInitMode
 199              	.LVL10:
 200 0012 98B1     		cbz	r0, .L21
 201              		.loc 1 430 0
 202 0014 A368     		ldr	r3, [r4, #8]
 203 0016 23F04003 		bic	r3, r3, #64
 204 001a A360     		str	r3, [r4, #8]
 205              		.loc 1 432 0
 206 001c A268     		ldr	r2, [r4, #8]
 207 001e 2B68     		ldr	r3, [r5]
 208 0020 1343     		orrs	r3, r3, r2
 209 0022 A360     		str	r3, [r4, #8]
 210              		.loc 1 435 0
 211 0024 AB68     		ldr	r3, [r5, #8]
 212 0026 2361     		str	r3, [r4, #16]
 213              		.loc 1 436 0
 214 0028 2369     		ldr	r3, [r4, #16]
 215 002a 6A68     		ldr	r2, [r5, #4]
 216 002c 43EA0243 		orr	r3, r3, r2, lsl #16
 217 0030 2361     		str	r3, [r4, #16]
 218              	.LBB78:
 219              	.LBB79:
 220              		.loc 1 552 0
 221 0032 E368     		ldr	r3, [r4, #12]
 222 0034 23F08003 		bic	r3, r3, #128
 223 0038 E360     		str	r3, [r4, #12]
 224              	.LVL11:
 225              	.LBE79:
ARM GAS  /tmp/ccadBNMM.s 			page 5


 226              	.LBE78:
 227              		.loc 1 441 0
 228 003a 0120     		movs	r0, #1
 229              	.LVL12:
 230              	.L21:
 231              		.loc 1 444 0
 232 003c 014B     		ldr	r3, .L23
 233 003e FF22     		movs	r2, #255
 234 0040 5A62     		str	r2, [r3, #36]
 235              		.loc 1 447 0
 236 0042 38BD     		pop	{r3, r4, r5, pc}
 237              	.LVL13:
 238              	.L24:
 239              		.align	2
 240              	.L23:
 241 0044 00280040 		.word	1073752064
 242              		.cfi_endproc
 243              	.LFE112:
 244              		.size	RTC_Init, .-RTC_Init
 245 0048 AFF30080 		.section	.text.RTC_ExitInitMode,"ax",%progbits
 245      AFF30080 
 246              		.align	2
 247              		.p2align 4,,15
 248              		.global	RTC_ExitInitMode
 249              		.thumb
 250              		.thumb_func
 251              		.type	RTC_ExitInitMode, %function
 252              	RTC_ExitInitMode:
 253              	.LFB116:
 254              		.loc 1 550 0
 255              		.cfi_startproc
 256              		@ args = 0, pretend = 0, frame = 0
 257              		@ frame_needed = 0, uses_anonymous_args = 0
 258              		@ link register save eliminated.
 259              		.loc 1 552 0
 260 0000 024B     		ldr	r3, .L26
 261 0002 DA68     		ldr	r2, [r3, #12]
 262 0004 22F08002 		bic	r2, r2, #128
 263 0008 DA60     		str	r2, [r3, #12]
 264 000a 7047     		bx	lr
 265              	.L27:
 266              		.align	2
 267              	.L26:
 268 000c 00280040 		.word	1073752064
 269              		.cfi_endproc
 270              	.LFE116:
 271              		.size	RTC_ExitInitMode, .-RTC_ExitInitMode
 272              		.section	.text.RTC_WaitForSynchro,"ax",%progbits
 273              		.align	2
 274              		.p2align 4,,15
 275              		.global	RTC_WaitForSynchro
 276              		.thumb
 277              		.thumb_func
 278              		.type	RTC_WaitForSynchro, %function
 279              	RTC_WaitForSynchro:
 280              	.LFB117:
 281              		.loc 1 572 0
ARM GAS  /tmp/ccadBNMM.s 			page 6


 282              		.cfi_startproc
 283              		@ args = 0, pretend = 0, frame = 8
 284              		@ frame_needed = 0, uses_anonymous_args = 0
 285              		@ link register save eliminated.
 286 0000 82B0     		sub	sp, sp, #8
 287              		.cfi_def_cfa_offset 8
 288              		.loc 1 573 0
 289 0002 0023     		movs	r3, #0
 290              		.loc 1 577 0
 291 0004 1149     		ldr	r1, .L37
 292              		.loc 1 573 0
 293 0006 0193     		str	r3, [sp, #4]
 294              	.LVL14:
 295              		.loc 1 577 0
 296 0008 8B68     		ldr	r3, [r1, #8]
 297 000a 9B06     		lsls	r3, r3, #26
 298 000c 1BD4     		bmi	.L32
 299              		.loc 1 586 0
 300 000e 5323     		movs	r3, #83
 301              		.loc 1 585 0
 302 0010 CA22     		movs	r2, #202
 303 0012 4A62     		str	r2, [r1, #36]
 304              		.loc 1 586 0
 305 0014 4B62     		str	r3, [r1, #36]
 306              		.loc 1 589 0
 307 0016 CB68     		ldr	r3, [r1, #12]
 308 0018 23F0A003 		bic	r3, r3, #160
 309 001c CB60     		str	r3, [r1, #12]
 310 001e 00E0     		b	.L31
 311              	.LVL15:
 312              	.L36:
 313              		.loc 1 596 0 discriminator 1
 314 0020 4AB9     		cbnz	r2, .L30
 315              	.LVL16:
 316              	.L31:
 317              		.loc 1 594 0 discriminator 1
 318 0022 CA68     		ldr	r2, [r1, #12]
 319              		.loc 1 595 0 discriminator 1
 320 0024 019B     		ldr	r3, [sp, #4]
 321 0026 0133     		adds	r3, r3, #1
 322 0028 0193     		str	r3, [sp, #4]
 323              		.loc 1 596 0 discriminator 1
 324 002a 019B     		ldr	r3, [sp, #4]
 325 002c B3F5004F 		cmp	r3, #32768
 326              		.loc 1 594 0 discriminator 1
 327 0030 02F02002 		and	r2, r2, #32
 328              	.LVL17:
 329              		.loc 1 596 0 discriminator 1
 330 0034 F4D1     		bne	.L36
 331              	.L30:
 332              	.LBB82:
 333              	.LBB83:
 334              		.loc 1 598 0
 335 0036 054B     		ldr	r3, .L37
 336 0038 D868     		ldr	r0, [r3, #12]
 337              		.loc 1 608 0
 338 003a FF22     		movs	r2, #255
ARM GAS  /tmp/ccadBNMM.s 			page 7


 339              	.LVL18:
 340              		.loc 1 600 0
 341 003c C0F34010 		ubfx	r0, r0, #5, #1
 342              	.LVL19:
 343              		.loc 1 608 0
 344 0040 5A62     		str	r2, [r3, #36]
 345              	.LVL20:
 346              	.LBE83:
 347              	.LBE82:
 348              		.loc 1 612 0
 349 0042 02B0     		add	sp, sp, #8
 350              		@ sp needed
 351 0044 7047     		bx	lr
 352              	.LVL21:
 353              	.L32:
 354              		.loc 1 580 0
 355 0046 0120     		movs	r0, #1
 356              	.LVL22:
 357              		.loc 1 612 0
 358 0048 02B0     		add	sp, sp, #8
 359              		@ sp needed
 360 004a 7047     		bx	lr
 361              	.L38:
 362              		.align	2
 363              	.L37:
 364 004c 00280040 		.word	1073752064
 365              		.cfi_endproc
 366              	.LFE117:
 367              		.size	RTC_WaitForSynchro, .-RTC_WaitForSynchro
 368              		.section	.text.RTC_DeInit,"ax",%progbits
 369              		.align	2
 370              		.p2align 4,,15
 371              		.global	RTC_DeInit
 372              		.thumb
 373              		.thumb_func
 374              		.type	RTC_DeInit, %function
 375              	RTC_DeInit:
 376              	.LFB111:
 377              		.loc 1 327 0
 378              		.cfi_startproc
 379              		@ args = 0, pretend = 0, frame = 8
 380              		@ frame_needed = 0, uses_anonymous_args = 0
 381 0000 30B5     		push	{r4, r5, lr}
 382              		.cfi_def_cfa_offset 12
 383              		.cfi_offset 4, -12
 384              		.cfi_offset 5, -8
 385              		.cfi_offset 14, -4
 386              		.loc 1 333 0
 387 0002 204C     		ldr	r4, .L53
 388              		.loc 1 327 0
 389 0004 83B0     		sub	sp, sp, #12
 390              		.cfi_def_cfa_offset 24
 391              		.loc 1 328 0
 392 0006 0025     		movs	r5, #0
 393              		.loc 1 333 0
 394 0008 CA22     		movs	r2, #202
 395              		.loc 1 334 0
ARM GAS  /tmp/ccadBNMM.s 			page 8


 396 000a 5323     		movs	r3, #83
 397              		.loc 1 328 0
 398 000c 0195     		str	r5, [sp, #4]
 399              	.LVL23:
 400              		.loc 1 333 0
 401 000e 6262     		str	r2, [r4, #36]
 402              		.loc 1 334 0
 403 0010 6362     		str	r3, [r4, #36]
 404              		.loc 1 337 0
 405 0012 FFF7FEFF 		bl	RTC_EnterInitMode
 406              	.LVL24:
 407 0016 C0B1     		cbz	r0, .L44
 408              		.loc 1 345 0
 409 0018 42F20113 		movw	r3, #8449
 410              		.loc 1 344 0
 411 001c 2560     		str	r5, [r4]
 412              		.loc 1 345 0
 413 001e 6360     		str	r3, [r4, #4]
 414              		.loc 1 348 0
 415 0020 A368     		ldr	r3, [r4, #8]
 416 0022 03F00703 		and	r3, r3, #7
 417 0026 A360     		str	r3, [r4, #8]
 418              		.loc 1 353 0
 419 0028 2146     		mov	r1, r4
 420 002a 00E0     		b	.L43
 421              	.LVL25:
 422              	.L51:
 423              		.loc 1 355 0 discriminator 1
 424 002c 4AB9     		cbnz	r2, .L42
 425              	.LVL26:
 426              	.L43:
 427              		.loc 1 353 0 discriminator 1
 428 002e CA68     		ldr	r2, [r1, #12]
 429              		.loc 1 354 0 discriminator 1
 430 0030 019B     		ldr	r3, [sp, #4]
 431 0032 0133     		adds	r3, r3, #1
 432 0034 0193     		str	r3, [sp, #4]
 433              		.loc 1 355 0 discriminator 1
 434 0036 019B     		ldr	r3, [sp, #4]
 435 0038 B3F5005F 		cmp	r3, #8192
 436              		.loc 1 353 0 discriminator 1
 437 003c 02F00402 		and	r2, r2, #4
 438              	.LVL27:
 439              		.loc 1 355 0 discriminator 1
 440 0040 F4D1     		bne	.L51
 441              	.L42:
 442              		.loc 1 357 0
 443 0042 104B     		ldr	r3, .L53
 444 0044 DA68     		ldr	r2, [r3, #12]
 445              	.LVL28:
 446 0046 5207     		lsls	r2, r2, #29
 447 0048 05D4     		bmi	.L52
 448              	.L44:
 449              		.loc 1 339 0
 450 004a 0020     		movs	r0, #0
 451              	.L41:
 452              	.LVL29:
ARM GAS  /tmp/ccadBNMM.s 			page 9


 453              		.loc 1 393 0
 454 004c 0D4B     		ldr	r3, .L53
 455 004e FF22     		movs	r2, #255
 456 0050 5A62     		str	r2, [r3, #36]
 457              		.loc 1 396 0
 458 0052 03B0     		add	sp, sp, #12
 459              		@ sp needed
 460 0054 30BD     		pop	{r4, r5, pc}
 461              	.LVL30:
 462              	.L52:
 463              		.loc 1 364 0
 464 0056 0022     		movs	r2, #0
 465              		.loc 1 365 0
 466 0058 4FF6FF70 		movw	r0, #65535
 467              		.loc 1 366 0
 468 005c 0A49     		ldr	r1, .L53+4
 469              		.loc 1 364 0
 470 005e 9C68     		ldr	r4, [r3, #8]
 471 0060 9A60     		str	r2, [r3, #8]
 472              		.loc 1 365 0
 473 0062 5861     		str	r0, [r3, #20]
 474              		.loc 1 366 0
 475 0064 1961     		str	r1, [r3, #16]
 476              		.loc 1 367 0
 477 0066 DA61     		str	r2, [r3, #28]
 478              		.loc 1 368 0
 479 0068 1A62     		str	r2, [r3, #32]
 480              		.loc 1 369 0
 481 006a DA62     		str	r2, [r3, #44]
 482              		.loc 1 370 0
 483 006c DA63     		str	r2, [r3, #60]
 484              		.loc 1 371 0
 485 006e 5A64     		str	r2, [r3, #68]
 486              		.loc 1 372 0
 487 0070 9A64     		str	r2, [r3, #72]
 488              		.loc 1 375 0
 489 0072 DA60     		str	r2, [r3, #12]
 490              		.loc 1 378 0
 491 0074 1A64     		str	r2, [r3, #64]
 492              		.loc 1 381 0
 493 0076 FFF7FEFF 		bl	RTC_WaitForSynchro
 494              	.LVL31:
 495              		.loc 1 339 0
 496 007a 0030     		adds	r0, r0, #0
 497 007c 18BF     		it	ne
 498 007e 0120     		movne	r0, #1
 499 0080 E4E7     		b	.L41
 500              	.L54:
 501 0082 00BF     		.align	2
 502              	.L53:
 503 0084 00280040 		.word	1073752064
 504 0088 FF007F00 		.word	8323327
 505              		.cfi_endproc
 506              	.LFE111:
 507              		.size	RTC_DeInit, .-RTC_DeInit
 508 008c AFF30080 		.section	.text.RTC_RefClockCmd,"ax",%progbits
 509              		.align	2
ARM GAS  /tmp/ccadBNMM.s 			page 10


 510              		.p2align 4,,15
 511              		.global	RTC_RefClockCmd
 512              		.thumb
 513              		.thumb_func
 514              		.type	RTC_RefClockCmd, %function
 515              	RTC_RefClockCmd:
 516              	.LFB118:
 517              		.loc 1 623 0
 518              		.cfi_startproc
 519              		@ args = 0, pretend = 0, frame = 0
 520              		@ frame_needed = 0, uses_anonymous_args = 0
 521              	.LVL32:
 522 0000 38B5     		push	{r3, r4, r5, lr}
 523              		.cfi_def_cfa_offset 16
 524              		.cfi_offset 3, -16
 525              		.cfi_offset 4, -12
 526              		.cfi_offset 5, -8
 527              		.cfi_offset 14, -4
 528              		.loc 1 630 0
 529 0002 0E4C     		ldr	r4, .L61
 530 0004 CA22     		movs	r2, #202
 531              		.loc 1 631 0
 532 0006 5323     		movs	r3, #83
 533              		.loc 1 630 0
 534 0008 6262     		str	r2, [r4, #36]
 535              		.loc 1 631 0
 536 000a 6362     		str	r3, [r4, #36]
 537              		.loc 1 623 0
 538 000c 0546     		mov	r5, r0
 539              		.loc 1 634 0
 540 000e FFF7FEFF 		bl	RTC_EnterInitMode
 541              	.LVL33:
 542 0012 50B1     		cbz	r0, .L56
 543              		.loc 1 643 0
 544 0014 A368     		ldr	r3, [r4, #8]
 545              		.loc 1 640 0
 546 0016 65B9     		cbnz	r5, .L60
 547              		.loc 1 648 0
 548 0018 23F01003 		bic	r3, r3, #16
 549 001c A360     		str	r3, [r4, #8]
 550              	.L58:
 551              	.LBB84:
 552              	.LBB85:
 553              		.loc 1 552 0
 554 001e 074B     		ldr	r3, .L61
 555 0020 DA68     		ldr	r2, [r3, #12]
 556 0022 22F08002 		bic	r2, r2, #128
 557 0026 DA60     		str	r2, [r3, #12]
 558              	.LVL34:
 559              	.LBE85:
 560              	.LBE84:
 561              		.loc 1 653 0
 562 0028 0120     		movs	r0, #1
 563              	.LVL35:
 564              	.L56:
 565              		.loc 1 657 0
 566 002a 044B     		ldr	r3, .L61
ARM GAS  /tmp/ccadBNMM.s 			page 11


 567 002c FF22     		movs	r2, #255
 568 002e 5A62     		str	r2, [r3, #36]
 569              		.loc 1 660 0
 570 0030 38BD     		pop	{r3, r4, r5, pc}
 571              	.LVL36:
 572              	.L60:
 573              		.loc 1 643 0
 574 0032 43F01003 		orr	r3, r3, #16
 575 0036 A360     		str	r3, [r4, #8]
 576 0038 F1E7     		b	.L58
 577              	.L62:
 578 003a 00BF     		.align	2
 579              	.L61:
 580 003c 00280040 		.word	1073752064
 581              		.cfi_endproc
 582              	.LFE118:
 583              		.size	RTC_RefClockCmd, .-RTC_RefClockCmd
 584              		.section	.text.RTC_BypassShadowCmd,"ax",%progbits
 585              		.align	2
 586              		.p2align 4,,15
 587              		.global	RTC_BypassShadowCmd
 588              		.thumb
 589              		.thumb_func
 590              		.type	RTC_BypassShadowCmd, %function
 591              	RTC_BypassShadowCmd:
 592              	.LFB119:
 593              		.loc 1 671 0
 594              		.cfi_startproc
 595              		@ args = 0, pretend = 0, frame = 0
 596              		@ frame_needed = 0, uses_anonymous_args = 0
 597              		@ link register save eliminated.
 598              	.LVL37:
 599              		.loc 1 676 0
 600 0000 0A4B     		ldr	r3, .L67
 601              		.loc 1 677 0
 602 0002 5322     		movs	r2, #83
 603              		.loc 1 676 0
 604 0004 CA21     		movs	r1, #202
 605 0006 5962     		str	r1, [r3, #36]
 606              		.loc 1 677 0
 607 0008 5A62     		str	r2, [r3, #36]
 608              		.loc 1 682 0
 609 000a 9A68     		ldr	r2, [r3, #8]
 610              		.loc 1 679 0
 611 000c 30B9     		cbnz	r0, .L66
 612              		.loc 1 687 0
 613 000e 02F0DF02 		and	r2, r2, #223
 614 0012 9A60     		str	r2, [r3, #8]
 615              		.loc 1 691 0
 616 0014 054B     		ldr	r3, .L67
 617 0016 FF22     		movs	r2, #255
 618 0018 5A62     		str	r2, [r3, #36]
 619 001a 7047     		bx	lr
 620              	.L66:
 621              		.loc 1 682 0
 622 001c 42F02002 		orr	r2, r2, #32
 623 0020 9A60     		str	r2, [r3, #8]
ARM GAS  /tmp/ccadBNMM.s 			page 12


 624              		.loc 1 691 0
 625 0022 024B     		ldr	r3, .L67
 626 0024 FF22     		movs	r2, #255
 627 0026 5A62     		str	r2, [r3, #36]
 628 0028 7047     		bx	lr
 629              	.L68:
 630 002a 00BF     		.align	2
 631              	.L67:
 632 002c 00280040 		.word	1073752064
 633              		.cfi_endproc
 634              	.LFE119:
 635              		.size	RTC_BypassShadowCmd, .-RTC_BypassShadowCmd
 636              		.section	.text.RTC_SetTime,"ax",%progbits
 637              		.align	2
 638              		.p2align 4,,15
 639              		.global	RTC_SetTime
 640              		.thumb
 641              		.thumb_func
 642              		.type	RTC_SetTime, %function
 643              	RTC_SetTime:
 644              	.LFB120:
 645              		.loc 1 725 0
 646              		.cfi_startproc
 647              		@ args = 0, pretend = 0, frame = 0
 648              		@ frame_needed = 0, uses_anonymous_args = 0
 649              	.LVL38:
 650 0000 38B5     		push	{r3, r4, r5, lr}
 651              		.cfi_def_cfa_offset 16
 652              		.cfi_offset 3, -16
 653              		.cfi_offset 4, -12
 654              		.cfi_offset 5, -8
 655              		.cfi_offset 14, -4
 656              		.loc 1 734 0
 657 0002 394B     		ldr	r3, .L93
 658              		.loc 1 732 0
 659 0004 0028     		cmp	r0, #0
 660 0006 36D1     		bne	.L70
 661              		.loc 1 734 0
 662 0008 9C68     		ldr	r4, [r3, #8]
 663 000a 14F04004 		ands	r4, r4, #64
 664 000e 58D1     		bne	.L71
 665              		.loc 1 741 0
 666 0010 CC70     		strb	r4, [r1, #3]
 667              	.L72:
 668              		.loc 1 774 0
 669 0012 0B78     		ldrb	r3, [r1]	@ zero_extendqisi2
 670              	.LVL39:
 671              	.LBB86:
 672              	.LBB87:
 673              		.loc 1 2563 0
 674 0014 092B     		cmp	r3, #9
 675              		.loc 1 2561 0
 676 0016 4FF00002 		mov	r2, #0
 677              		.loc 1 2563 0
 678 001a 07D9     		bls	.L84
 679              	.LVL40:
 680              	.L85:
ARM GAS  /tmp/ccadBNMM.s 			page 13


 681              		.loc 1 2566 0
 682 001c 0A3B     		subs	r3, r3, #10
 683              	.LVL41:
 684 001e DBB2     		uxtb	r3, r3
 685              	.LVL42:
 686              		.loc 1 2565 0
 687 0020 0132     		adds	r2, r2, #1
 688              	.LVL43:
 689              		.loc 1 2563 0
 690 0022 092B     		cmp	r3, #9
 691              		.loc 1 2565 0
 692 0024 D2B2     		uxtb	r2, r2
 693              	.LVL44:
 694              		.loc 1 2563 0
 695 0026 F9D8     		bhi	.L85
 696 0028 1201     		lsls	r2, r2, #4
 697              	.LVL45:
 698 002a D2B2     		uxtb	r2, r2
 699              	.LVL46:
 700              	.L84:
 701              	.LBE87:
 702              	.LBE86:
 703              		.loc 1 775 0
 704 002c 4878     		ldrb	r0, [r1, #1]	@ zero_extendqisi2
 705              	.LVL47:
 706              		.loc 1 774 0
 707 002e 1343     		orrs	r3, r3, r2
 708              	.LBB88:
 709              	.LBB89:
 710              		.loc 1 2563 0
 711 0030 0928     		cmp	r0, #9
 712              	.LBE89:
 713              	.LBE88:
 714              		.loc 1 774 0
 715 0032 4FEA0343 		lsl	r3, r3, #16
 716              	.LBB92:
 717              	.LBB90:
 718              		.loc 1 2563 0
 719 0036 54D9     		bls	.L86
 720              		.loc 1 2561 0
 721 0038 0022     		movs	r2, #0
 722              	.LVL48:
 723              	.L78:
 724              		.loc 1 2566 0
 725 003a 0A38     		subs	r0, r0, #10
 726              	.LVL49:
 727 003c C0B2     		uxtb	r0, r0
 728              	.LVL50:
 729              		.loc 1 2565 0
 730 003e 0132     		adds	r2, r2, #1
 731              	.LVL51:
 732              		.loc 1 2563 0
 733 0040 0928     		cmp	r0, #9
 734              		.loc 1 2565 0
 735 0042 D2B2     		uxtb	r2, r2
 736              	.LVL52:
 737              		.loc 1 2563 0
ARM GAS  /tmp/ccadBNMM.s 			page 14


 738 0044 F9D8     		bhi	.L78
 739 0046 1201     		lsls	r2, r2, #4
 740              	.LVL53:
 741 0048 D5B2     		uxtb	r5, r2
 742              	.LVL54:
 743              	.L76:
 744              	.LBE90:
 745              	.LBE92:
 746              		.loc 1 776 0
 747 004a 8A78     		ldrb	r2, [r1, #2]	@ zero_extendqisi2
 748              	.LVL55:
 749              		.loc 1 775 0
 750 004c 2843     		orrs	r0, r0, r5
 751              	.LBB93:
 752              	.LBB94:
 753              		.loc 1 2563 0
 754 004e 092A     		cmp	r2, #9
 755              	.LBE94:
 756              	.LBE93:
 757              		.loc 1 775 0
 758 0050 4FEA0020 		lsl	r0, r0, #8
 759              	.LBB96:
 760              	.LBB95:
 761              		.loc 1 2561 0
 762 0054 4FF00001 		mov	r1, #0
 763              	.LVL56:
 764              		.loc 1 2563 0
 765 0058 07D9     		bls	.L79
 766              	.LVL57:
 767              	.L81:
 768              		.loc 1 2566 0
 769 005a 0A3A     		subs	r2, r2, #10
 770              	.LVL58:
 771 005c D2B2     		uxtb	r2, r2
 772              	.LVL59:
 773              		.loc 1 2565 0
 774 005e 0131     		adds	r1, r1, #1
 775              	.LVL60:
 776              		.loc 1 2563 0
 777 0060 092A     		cmp	r2, #9
 778              		.loc 1 2565 0
 779 0062 C9B2     		uxtb	r1, r1
 780              	.LVL61:
 781              		.loc 1 2563 0
 782 0064 F9D8     		bhi	.L81
 783 0066 0901     		lsls	r1, r1, #4
 784              	.LVL62:
 785 0068 C9B2     		uxtb	r1, r1
 786              	.LVL63:
 787              	.L79:
 788              	.LBE95:
 789              	.LBE96:
 790              		.loc 1 774 0
 791 006a 1C43     		orrs	r4, r4, r3
 792              		.loc 1 775 0
 793 006c 44EA0005 		orr	r5, r4, r0
 794              		.loc 1 776 0
ARM GAS  /tmp/ccadBNMM.s 			page 15


 795 0070 0A43     		orrs	r2, r2, r1
 796              		.loc 1 774 0
 797 0072 1543     		orrs	r5, r5, r2
 798              	.LVL64:
 799 0074 0CE0     		b	.L83
 800              	.LVL65:
 801              	.L70:
 802              		.loc 1 749 0
 803 0076 9B68     		ldr	r3, [r3, #8]
 804 0078 13F04003 		ands	r3, r3, #64
 805 007c 24D1     		bne	.L73
 806              		.loc 1 757 0
 807 007e CB70     		strb	r3, [r1, #3]
 808              	.L74:
 809              		.loc 1 768 0
 810 0080 4D78     		ldrb	r5, [r1, #1]	@ zero_extendqisi2
 811              		.loc 1 767 0
 812 0082 0878     		ldrb	r0, [r1]	@ zero_extendqisi2
 813              	.LVL66:
 814              		.loc 1 769 0
 815 0084 8A78     		ldrb	r2, [r1, #2]	@ zero_extendqisi2
 816              		.loc 1 768 0
 817 0086 2D02     		lsls	r5, r5, #8
 818              		.loc 1 767 0
 819 0088 45EA0045 		orr	r5, r5, r0, lsl #16
 820              		.loc 1 768 0
 821 008c 1543     		orrs	r5, r5, r2
 822              		.loc 1 767 0
 823 008e 1D43     		orrs	r5, r5, r3
 824              	.LVL67:
 825              	.L83:
 826              		.loc 1 781 0
 827 0090 154C     		ldr	r4, .L93
 828 0092 CA21     		movs	r1, #202
 829              		.loc 1 782 0
 830 0094 5323     		movs	r3, #83
 831              		.loc 1 781 0
 832 0096 6162     		str	r1, [r4, #36]
 833              		.loc 1 782 0
 834 0098 6362     		str	r3, [r4, #36]
 835              		.loc 1 785 0
 836 009a FFF7FEFF 		bl	RTC_EnterInitMode
 837              	.LVL68:
 838 009e 60B1     		cbz	r0, .L82
 839              		.loc 1 792 0
 840 00a0 05F07F32 		and	r2, r5, #2139062143
 841 00a4 22F0FE42 		bic	r2, r2, #2130706432
 842 00a8 2260     		str	r2, [r4]
 843              	.LBB97:
 844              	.LBB98:
 845              		.loc 1 552 0
 846 00aa E368     		ldr	r3, [r4, #12]
 847 00ac 23F08003 		bic	r3, r3, #128
 848 00b0 E360     		str	r3, [r4, #12]
 849              	.LBE98:
 850              	.LBE97:
 851              		.loc 1 798 0
ARM GAS  /tmp/ccadBNMM.s 			page 16


 852 00b2 A368     		ldr	r3, [r4, #8]
 853 00b4 9B06     		lsls	r3, r3, #26
 854 00b6 0AD5     		bpl	.L92
 855              		.loc 1 811 0
 856 00b8 0120     		movs	r0, #1
 857              	.L82:
 858              	.LVL69:
 859              		.loc 1 816 0
 860 00ba 0B4B     		ldr	r3, .L93
 861 00bc FF22     		movs	r2, #255
 862 00be 5A62     		str	r2, [r3, #36]
 863 00c0 38BD     		pop	{r3, r4, r5, pc}
 864              	.LVL70:
 865              	.L71:
 866 00c2 CC78     		ldrb	r4, [r1, #3]	@ zero_extendqisi2
 867 00c4 2404     		lsls	r4, r4, #16
 868 00c6 A4E7     		b	.L72
 869              	.L73:
 870 00c8 CB78     		ldrb	r3, [r1, #3]	@ zero_extendqisi2
 871 00ca 1B04     		lsls	r3, r3, #16
 872 00cc D8E7     		b	.L74
 873              	.LVL71:
 874              	.L92:
 875              		.loc 1 800 0
 876 00ce FFF7FEFF 		bl	RTC_WaitForSynchro
 877              	.LVL72:
 878              		.loc 1 816 0
 879 00d2 054B     		ldr	r3, .L93
 880              		.loc 1 787 0
 881 00d4 0030     		adds	r0, r0, #0
 882              		.loc 1 816 0
 883 00d6 4FF0FF02 		mov	r2, #255
 884              		.loc 1 787 0
 885 00da 18BF     		it	ne
 886 00dc 0120     		movne	r0, #1
 887              	.LVL73:
 888              		.loc 1 816 0
 889 00de 5A62     		str	r2, [r3, #36]
 890 00e0 38BD     		pop	{r3, r4, r5, pc}
 891              	.LVL74:
 892              	.L86:
 893              	.LBB99:
 894              	.LBB91:
 895              		.loc 1 2563 0
 896 00e2 0025     		movs	r5, #0
 897 00e4 B1E7     		b	.L76
 898              	.L94:
 899 00e6 00BF     		.align	2
 900              	.L93:
 901 00e8 00280040 		.word	1073752064
 902              	.LBE91:
 903              	.LBE99:
 904              		.cfi_endproc
 905              	.LFE120:
 906              		.size	RTC_SetTime, .-RTC_SetTime
 907 00ec AFF30080 		.section	.text.RTC_TimeStructInit,"ax",%progbits
 908              		.align	2
ARM GAS  /tmp/ccadBNMM.s 			page 17


 909              		.p2align 4,,15
 910              		.global	RTC_TimeStructInit
 911              		.thumb
 912              		.thumb_func
 913              		.type	RTC_TimeStructInit, %function
 914              	RTC_TimeStructInit:
 915              	.LFB121:
 916              		.loc 1 829 0
 917              		.cfi_startproc
 918              		@ args = 0, pretend = 0, frame = 0
 919              		@ frame_needed = 0, uses_anonymous_args = 0
 920              		@ link register save eliminated.
 921              	.LVL75:
 922              		.loc 1 831 0
 923 0000 0023     		movs	r3, #0
 924 0002 C370     		strb	r3, [r0, #3]
 925              		.loc 1 832 0
 926 0004 0370     		strb	r3, [r0]
 927              		.loc 1 833 0
 928 0006 4370     		strb	r3, [r0, #1]
 929              		.loc 1 834 0
 930 0008 8370     		strb	r3, [r0, #2]
 931 000a 7047     		bx	lr
 932              		.cfi_endproc
 933              	.LFE121:
 934              		.size	RTC_TimeStructInit, .-RTC_TimeStructInit
 935 000c AFF30080 		.section	.text.RTC_GetTime,"ax",%progbits
 936              		.align	2
 937              		.p2align 4,,15
 938              		.global	RTC_GetTime
 939              		.thumb
 940              		.thumb_func
 941              		.type	RTC_GetTime, %function
 942              	RTC_GetTime:
 943              	.LFB122:
 944              		.loc 1 848 0
 945              		.cfi_startproc
 946              		@ args = 0, pretend = 0, frame = 0
 947              		@ frame_needed = 0, uses_anonymous_args = 0
 948              		@ link register save eliminated.
 949              	.LVL76:
 950              		.loc 1 855 0
 951 0000 154B     		ldr	r3, .L98
 952 0002 1B68     		ldr	r3, [r3]
 953              	.LVL77:
 954              		.loc 1 848 0
 955 0004 70B4     		push	{r4, r5, r6}
 956              		.cfi_def_cfa_offset 12
 957              		.cfi_offset 4, -12
 958              		.cfi_offset 5, -8
 959              		.cfi_offset 6, -4
 960              		.loc 1 861 0
 961 0006 03F48006 		and	r6, r3, #4194304
 962              		.loc 1 860 0
 963 000a 03F07F04 		and	r4, r3, #127
 964              		.loc 1 858 0
 965 000e C3F30542 		ubfx	r2, r3, #16, #6
ARM GAS  /tmp/ccadBNMM.s 			page 18


 966              		.loc 1 861 0
 967 0012 360C     		lsrs	r6, r6, #16
 968              		.loc 1 859 0
 969 0014 C3F30623 		ubfx	r3, r3, #8, #7
 970              	.LVL78:
 971              		.loc 1 861 0
 972 0018 CE70     		strb	r6, [r1, #3]
 973              		.loc 1 860 0
 974 001a 8C70     		strb	r4, [r1, #2]
 975              		.loc 1 858 0
 976 001c 0A70     		strb	r2, [r1]
 977              		.loc 1 859 0
 978 001e 4B70     		strb	r3, [r1, #1]
 979              		.loc 1 864 0
 980 0020 B8B9     		cbnz	r0, .L96
 981              	.LVL79:
 982              	.LBB100:
 983              	.LBB101:
 984              		.loc 1 2580 0
 985 0022 2509     		lsrs	r5, r4, #4
 986              	.LBE101:
 987              	.LBE100:
 988              	.LBB104:
 989              	.LBB105:
 990 0024 1609     		lsrs	r6, r2, #4
 991              	.LBE105:
 992              	.LBE104:
 993              	.LBB108:
 994              	.LBB109:
 995 0026 1809     		lsrs	r0, r3, #4
 996              	.LVL80:
 997              	.LBE109:
 998              	.LBE108:
 999              	.LBB112:
 1000              	.LBB102:
 1001 0028 05EB8505 		add	r5, r5, r5, lsl #2
 1002              		.loc 1 2581 0
 1003 002c 04F00F04 		and	r4, r4, #15
 1004              	.LBE102:
 1005              	.LBE112:
 1006              	.LBB113:
 1007              	.LBB106:
 1008              		.loc 1 2580 0
 1009 0030 06EB8606 		add	r6, r6, r6, lsl #2
 1010              		.loc 1 2581 0
 1011 0034 02F00F02 		and	r2, r2, #15
 1012              	.LVL81:
 1013              	.LBE106:
 1014              	.LBE113:
 1015              	.LBB114:
 1016              	.LBB110:
 1017              		.loc 1 2580 0
 1018 0038 00EB8000 		add	r0, r0, r0, lsl #2
 1019              		.loc 1 2581 0
 1020 003c 03F00F03 		and	r3, r3, #15
 1021              	.LBE110:
 1022              	.LBE114:
ARM GAS  /tmp/ccadBNMM.s 			page 19


 1023              	.LBB115:
 1024              	.LBB103:
 1025 0040 04EB4505 		add	r5, r4, r5, lsl #1
 1026              	.LBE103:
 1027              	.LBE115:
 1028              	.LBB116:
 1029              	.LBB107:
 1030 0044 02EB4606 		add	r6, r2, r6, lsl #1
 1031              	.LBE107:
 1032              	.LBE116:
 1033              	.LBB117:
 1034              	.LBB111:
 1035 0048 03EB4003 		add	r3, r3, r0, lsl #1
 1036              	.LBE111:
 1037              	.LBE117:
 1038              		.loc 1 869 0
 1039 004c 8D70     		strb	r5, [r1, #2]
 1040              		.loc 1 867 0
 1041 004e 0E70     		strb	r6, [r1]
 1042              	.LVL82:
 1043              		.loc 1 868 0
 1044 0050 4B70     		strb	r3, [r1, #1]
 1045              	.LVL83:
 1046              	.L96:
 1047              		.loc 1 871 0
 1048 0052 70BC     		pop	{r4, r5, r6}
 1049 0054 7047     		bx	lr
 1050              	.L99:
 1051 0056 00BF     		.align	2
 1052              	.L98:
 1053 0058 00280040 		.word	1073752064
 1054              		.cfi_endproc
 1055              	.LFE122:
 1056              		.size	RTC_GetTime, .-RTC_GetTime
 1057 005c AFF30080 		.section	.text.RTC_GetSubSecond,"ax",%progbits
 1058              		.align	2
 1059              		.p2align 4,,15
 1060              		.global	RTC_GetSubSecond
 1061              		.thumb
 1062              		.thumb_func
 1063              		.type	RTC_GetSubSecond, %function
 1064              	RTC_GetSubSecond:
 1065              	.LFB123:
 1066              		.loc 1 881 0
 1067              		.cfi_startproc
 1068              		@ args = 0, pretend = 0, frame = 0
 1069              		@ frame_needed = 0, uses_anonymous_args = 0
 1070              		@ link register save eliminated.
 1071              	.LVL84:
 1072              		.loc 1 885 0
 1073 0000 014B     		ldr	r3, .L101
 1074 0002 986A     		ldr	r0, [r3, #40]
 1075              	.LVL85:
 1076              		.loc 1 888 0
 1077 0004 5B68     		ldr	r3, [r3, #4]
 1078              		.loc 1 891 0
 1079 0006 7047     		bx	lr
ARM GAS  /tmp/ccadBNMM.s 			page 20


 1080              	.L102:
 1081              		.align	2
 1082              	.L101:
 1083 0008 00280040 		.word	1073752064
 1084              		.cfi_endproc
 1085              	.LFE123:
 1086              		.size	RTC_GetSubSecond, .-RTC_GetSubSecond
 1087 000c AFF30080 		.section	.text.RTC_SetDate,"ax",%progbits
 1088              		.align	2
 1089              		.p2align 4,,15
 1090              		.global	RTC_SetDate
 1091              		.thumb
 1092              		.thumb_func
 1093              		.type	RTC_SetDate, %function
 1094              	RTC_SetDate:
 1095              	.LFB124:
 1096              		.loc 1 906 0
 1097              		.cfi_startproc
 1098              		@ args = 0, pretend = 0, frame = 0
 1099              		@ frame_needed = 0, uses_anonymous_args = 0
 1100              	.LVL86:
 1101 0000 38B5     		push	{r3, r4, r5, lr}
 1102              		.cfi_def_cfa_offset 16
 1103              		.cfi_offset 3, -16
 1104              		.cfi_offset 4, -12
 1105              		.cfi_offset 5, -8
 1106              		.cfi_offset 14, -4
 1107              		.loc 1 913 0
 1108 0002 0028     		cmp	r0, #0
 1109 0004 39D1     		bne	.L104
 1110              		.loc 1 913 0 is_stmt 0 discriminator 1
 1111 0006 4A78     		ldrb	r2, [r1, #1]	@ zero_extendqisi2
 1112 0008 D006     		lsls	r0, r2, #27
 1113              	.LVL87:
 1114 000a 04D5     		bpl	.L105
 1115              		.loc 1 915 0 is_stmt 1
 1116 000c 22F01002 		bic	r2, r2, #16
 1117 0010 0A32     		adds	r2, r2, #10
 1118 0012 D2B2     		uxtb	r2, r2
 1119 0014 4A70     		strb	r2, [r1, #1]
 1120              	.L105:
 1121              		.loc 1 943 0
 1122 0016 CB78     		ldrb	r3, [r1, #3]	@ zero_extendqisi2
 1123              	.LVL88:
 1124              	.LBB118:
 1125              	.LBB119:
 1126              		.loc 1 2563 0
 1127 0018 092B     		cmp	r3, #9
 1128              		.loc 1 2561 0
 1129 001a 4FF00000 		mov	r0, #0
 1130              		.loc 1 2563 0
 1131 001e 07D9     		bls	.L114
 1132              	.LVL89:
 1133              	.L115:
 1134              		.loc 1 2566 0
 1135 0020 0A3B     		subs	r3, r3, #10
 1136              	.LVL90:
ARM GAS  /tmp/ccadBNMM.s 			page 21


 1137 0022 DBB2     		uxtb	r3, r3
 1138              	.LVL91:
 1139              		.loc 1 2565 0
 1140 0024 0130     		adds	r0, r0, #1
 1141              	.LVL92:
 1142              		.loc 1 2563 0
 1143 0026 092B     		cmp	r3, #9
 1144              		.loc 1 2565 0
 1145 0028 C0B2     		uxtb	r0, r0
 1146              	.LVL93:
 1147              		.loc 1 2563 0
 1148 002a F9D8     		bhi	.L115
 1149 002c 0001     		lsls	r0, r0, #4
 1150              	.LVL94:
 1151 002e C0B2     		uxtb	r0, r0
 1152              	.LVL95:
 1153              	.L114:
 1154              	.LBE119:
 1155              	.LBE118:
 1156              		.loc 1 943 0
 1157 0030 0343     		orrs	r3, r3, r0
 1158              	.LBB120:
 1159              	.LBB121:
 1160              		.loc 1 2563 0
 1161 0032 092A     		cmp	r2, #9
 1162              	.LBE121:
 1163              	.LBE120:
 1164              		.loc 1 943 0
 1165 0034 4FEA0343 		lsl	r3, r3, #16
 1166              	.LVL96:
 1167              	.LBB124:
 1168              	.LBB122:
 1169              		.loc 1 2563 0
 1170 0038 4CD9     		bls	.L118
 1171              		.loc 1 2561 0
 1172 003a 0020     		movs	r0, #0
 1173              	.LVL97:
 1174              	.L109:
 1175              		.loc 1 2566 0
 1176 003c 0A3A     		subs	r2, r2, #10
 1177              	.LVL98:
 1178 003e D2B2     		uxtb	r2, r2
 1179              	.LVL99:
 1180              		.loc 1 2565 0
 1181 0040 0130     		adds	r0, r0, #1
 1182              	.LVL100:
 1183              		.loc 1 2563 0
 1184 0042 092A     		cmp	r2, #9
 1185              		.loc 1 2565 0
 1186 0044 C0B2     		uxtb	r0, r0
 1187              	.LVL101:
 1188              		.loc 1 2563 0
 1189 0046 F9D8     		bhi	.L109
 1190 0048 0001     		lsls	r0, r0, #4
 1191              	.LVL102:
 1192 004a C5B2     		uxtb	r5, r0
 1193              	.LVL103:
ARM GAS  /tmp/ccadBNMM.s 			page 22


 1194              	.L107:
 1195              	.LBE122:
 1196              	.LBE124:
 1197              		.loc 1 945 0
 1198 004c 8878     		ldrb	r0, [r1, #2]	@ zero_extendqisi2
 1199              	.LVL104:
 1200              		.loc 1 944 0
 1201 004e 2A43     		orrs	r2, r2, r5
 1202              	.LBB125:
 1203              	.LBB126:
 1204              		.loc 1 2563 0
 1205 0050 0928     		cmp	r0, #9
 1206              	.LBE126:
 1207              	.LBE125:
 1208              		.loc 1 944 0
 1209 0052 4FEA0222 		lsl	r2, r2, #8
 1210              	.LBB128:
 1211              	.LBB127:
 1212              		.loc 1 2561 0
 1213 0056 4FF00004 		mov	r4, #0
 1214              		.loc 1 2563 0
 1215 005a 07D9     		bls	.L110
 1216              	.LVL105:
 1217              	.L112:
 1218              		.loc 1 2566 0
 1219 005c 0A38     		subs	r0, r0, #10
 1220              	.LVL106:
 1221 005e C0B2     		uxtb	r0, r0
 1222              	.LVL107:
 1223              		.loc 1 2565 0
 1224 0060 0134     		adds	r4, r4, #1
 1225              	.LVL108:
 1226              		.loc 1 2563 0
 1227 0062 0928     		cmp	r0, #9
 1228              		.loc 1 2565 0
 1229 0064 E4B2     		uxtb	r4, r4
 1230              	.LVL109:
 1231              		.loc 1 2563 0
 1232 0066 F9D8     		bhi	.L112
 1233 0068 2401     		lsls	r4, r4, #4
 1234              	.LVL110:
 1235 006a E4B2     		uxtb	r4, r4
 1236              	.LVL111:
 1237              	.L110:
 1238              	.LBE127:
 1239              	.LBE128:
 1240              		.loc 1 946 0
 1241 006c 0D78     		ldrb	r5, [r1]	@ zero_extendqisi2
 1242              		.loc 1 943 0
 1243 006e 43EA4535 		orr	r5, r3, r5, lsl #13
 1244              		.loc 1 944 0
 1245 0072 1543     		orrs	r5, r5, r2
 1246              		.loc 1 945 0
 1247 0074 2043     		orrs	r0, r0, r4
 1248              		.loc 1 943 0
 1249 0076 0543     		orrs	r5, r5, r0
 1250              	.LVL112:
ARM GAS  /tmp/ccadBNMM.s 			page 23


 1251 0078 09E0     		b	.L116
 1252              	.LVL113:
 1253              	.L104:
 1254              		.loc 1 937 0
 1255 007a 4D78     		ldrb	r5, [r1, #1]	@ zero_extendqisi2
 1256              		.loc 1 936 0
 1257 007c CA78     		ldrb	r2, [r1, #3]	@ zero_extendqisi2
 1258              		.loc 1 938 0
 1259 007e 8B78     		ldrb	r3, [r1, #2]	@ zero_extendqisi2
 1260              		.loc 1 939 0
 1261 0080 0878     		ldrb	r0, [r1]	@ zero_extendqisi2
 1262              	.LVL114:
 1263              		.loc 1 937 0
 1264 0082 2D02     		lsls	r5, r5, #8
 1265              		.loc 1 936 0
 1266 0084 45EA0245 		orr	r5, r5, r2, lsl #16
 1267              		.loc 1 937 0
 1268 0088 1D43     		orrs	r5, r5, r3
 1269              		.loc 1 936 0
 1270 008a 45EA4035 		orr	r5, r5, r0, lsl #13
 1271              	.LVL115:
 1272              	.L116:
 1273              		.loc 1 950 0
 1274 008e 124C     		ldr	r4, .L125
 1275 0090 CA22     		movs	r2, #202
 1276              		.loc 1 951 0
 1277 0092 5323     		movs	r3, #83
 1278              		.loc 1 950 0
 1279 0094 6262     		str	r2, [r4, #36]
 1280              		.loc 1 951 0
 1281 0096 6362     		str	r3, [r4, #36]
 1282              		.loc 1 954 0
 1283 0098 FFF7FEFF 		bl	RTC_EnterInitMode
 1284              	.LVL116:
 1285 009c 60B1     		cbz	r0, .L113
 1286              		.loc 1 961 0
 1287 009e 25F07F40 		bic	r0, r5, #-16777216
 1288 00a2 20F0C000 		bic	r0, r0, #192
 1289 00a6 6060     		str	r0, [r4, #4]
 1290              	.LBB129:
 1291              	.LBB130:
 1292              		.loc 1 552 0
 1293 00a8 E368     		ldr	r3, [r4, #12]
 1294 00aa 23F08003 		bic	r3, r3, #128
 1295 00ae E360     		str	r3, [r4, #12]
 1296              	.LBE130:
 1297              	.LBE129:
 1298              		.loc 1 967 0
 1299 00b0 A368     		ldr	r3, [r4, #8]
 1300 00b2 9B06     		lsls	r3, r3, #26
 1301 00b4 04D5     		bpl	.L124
 1302              		.loc 1 980 0
 1303 00b6 0120     		movs	r0, #1
 1304              	.L113:
 1305              	.LVL117:
 1306              		.loc 1 984 0
 1307 00b8 074B     		ldr	r3, .L125
ARM GAS  /tmp/ccadBNMM.s 			page 24


 1308 00ba FF22     		movs	r2, #255
 1309 00bc 5A62     		str	r2, [r3, #36]
 1310 00be 38BD     		pop	{r3, r4, r5, pc}
 1311              	.LVL118:
 1312              	.L124:
 1313              		.loc 1 969 0
 1314 00c0 FFF7FEFF 		bl	RTC_WaitForSynchro
 1315              	.LVL119:
 1316              		.loc 1 984 0
 1317 00c4 044B     		ldr	r3, .L125
 1318              		.loc 1 956 0
 1319 00c6 0030     		adds	r0, r0, #0
 1320              		.loc 1 984 0
 1321 00c8 4FF0FF02 		mov	r2, #255
 1322              		.loc 1 956 0
 1323 00cc 18BF     		it	ne
 1324 00ce 0120     		movne	r0, #1
 1325              	.LVL120:
 1326              		.loc 1 984 0
 1327 00d0 5A62     		str	r2, [r3, #36]
 1328 00d2 38BD     		pop	{r3, r4, r5, pc}
 1329              	.LVL121:
 1330              	.L118:
 1331              	.LBB131:
 1332              	.LBB123:
 1333              		.loc 1 2563 0
 1334 00d4 0025     		movs	r5, #0
 1335 00d6 B9E7     		b	.L107
 1336              	.L126:
 1337              		.align	2
 1338              	.L125:
 1339 00d8 00280040 		.word	1073752064
 1340              	.LBE123:
 1341              	.LBE131:
 1342              		.cfi_endproc
 1343              	.LFE124:
 1344              		.size	RTC_SetDate, .-RTC_SetDate
 1345 00dc AFF30080 		.section	.text.RTC_DateStructInit,"ax",%progbits
 1346              		.align	2
 1347              		.p2align 4,,15
 1348              		.global	RTC_DateStructInit
 1349              		.thumb
 1350              		.thumb_func
 1351              		.type	RTC_DateStructInit, %function
 1352              	RTC_DateStructInit:
 1353              	.LFB125:
 1354              		.loc 1 997 0
 1355              		.cfi_startproc
 1356              		@ args = 0, pretend = 0, frame = 0
 1357              		@ frame_needed = 0, uses_anonymous_args = 0
 1358              		@ link register save eliminated.
 1359              	.LVL122:
 1360              		.loc 1 999 0
 1361 0000 0123     		movs	r3, #1
 1362              		.loc 1 1002 0
 1363 0002 0022     		movs	r2, #0
 1364 0004 C270     		strb	r2, [r0, #3]
ARM GAS  /tmp/ccadBNMM.s 			page 25


 1365              		.loc 1 999 0
 1366 0006 0370     		strb	r3, [r0]
 1367              		.loc 1 1000 0
 1368 0008 8370     		strb	r3, [r0, #2]
 1369              		.loc 1 1001 0
 1370 000a 4370     		strb	r3, [r0, #1]
 1371 000c 7047     		bx	lr
 1372              		.cfi_endproc
 1373              	.LFE125:
 1374              		.size	RTC_DateStructInit, .-RTC_DateStructInit
 1375 000e 00BF     		.section	.text.RTC_GetDate,"ax",%progbits
 1376              		.align	2
 1377              		.p2align 4,,15
 1378              		.global	RTC_GetDate
 1379              		.thumb
 1380              		.thumb_func
 1381              		.type	RTC_GetDate, %function
 1382              	RTC_GetDate:
 1383              	.LFB126:
 1384              		.loc 1 1016 0
 1385              		.cfi_startproc
 1386              		@ args = 0, pretend = 0, frame = 0
 1387              		@ frame_needed = 0, uses_anonymous_args = 0
 1388              		@ link register save eliminated.
 1389              	.LVL123:
 1390              		.loc 1 1023 0
 1391 0000 144B     		ldr	r3, .L130
 1392 0002 5B68     		ldr	r3, [r3, #4]
 1393              	.LVL124:
 1394              		.loc 1 1016 0
 1395 0004 F0B4     		push	{r4, r5, r6, r7}
 1396              		.cfi_def_cfa_offset 16
 1397              		.cfi_offset 4, -16
 1398              		.cfi_offset 5, -12
 1399              		.cfi_offset 6, -8
 1400              		.cfi_offset 7, -4
 1401              		.loc 1 1026 0
 1402 0006 C3F30742 		ubfx	r2, r3, #16, #8
 1403              		.loc 1 1028 0
 1404 000a 03F03F04 		and	r4, r3, #63
 1405              		.loc 1 1029 0
 1406 000e C3F34236 		ubfx	r6, r3, #13, #3
 1407              		.loc 1 1027 0
 1408 0012 C3F30423 		ubfx	r3, r3, #8, #5
 1409              	.LVL125:
 1410              		.loc 1 1029 0
 1411 0016 0E70     		strb	r6, [r1]
 1412              		.loc 1 1028 0
 1413 0018 8C70     		strb	r4, [r1, #2]
 1414              		.loc 1 1026 0
 1415 001a CA70     		strb	r2, [r1, #3]
 1416              		.loc 1 1027 0
 1417 001c 4B70     		strb	r3, [r1, #1]
 1418              		.loc 1 1032 0
 1419 001e B8B9     		cbnz	r0, .L128
 1420              	.LVL126:
 1421              	.LBB132:
ARM GAS  /tmp/ccadBNMM.s 			page 26


 1422              	.LBB133:
 1423              		.loc 1 2580 0
 1424 0020 1E09     		lsrs	r6, r3, #4
 1425              	.LBE133:
 1426              	.LBE132:
 1427              	.LBB137:
 1428              	.LBB138:
 1429 0022 2509     		lsrs	r5, r4, #4
 1430              	.LBE138:
 1431              	.LBE137:
 1432              	.LBB141:
 1433              	.LBB142:
 1434 0024 1009     		lsrs	r0, r2, #4
 1435              	.LVL127:
 1436              	.LBE142:
 1437              	.LBE141:
 1438              	.LBB145:
 1439              	.LBB134:
 1440 0026 B700     		lsls	r7, r6, #2
 1441              	.LBE134:
 1442              	.LBE145:
 1443              	.LBB146:
 1444              	.LBB139:
 1445 0028 05EB8505 		add	r5, r5, r5, lsl #2
 1446              		.loc 1 2581 0
 1447 002c 04F00F04 		and	r4, r4, #15
 1448              	.LBE139:
 1449              	.LBE146:
 1450              	.LBB147:
 1451              	.LBB135:
 1452 0030 03F00F03 		and	r3, r3, #15
 1453              		.loc 1 2580 0
 1454 0034 3E44     		add	r6, r6, r7
 1455              	.LBE135:
 1456              	.LBE147:
 1457              	.LBB148:
 1458              	.LBB143:
 1459 0036 00EB8000 		add	r0, r0, r0, lsl #2
 1460              		.loc 1 2581 0
 1461 003a 02F00F02 		and	r2, r2, #15
 1462              	.LVL128:
 1463              	.LBE143:
 1464              	.LBE148:
 1465              	.LBB149:
 1466              	.LBB140:
 1467 003e 04EB4505 		add	r5, r4, r5, lsl #1
 1468              	.LBE140:
 1469              	.LBE149:
 1470              	.LBB150:
 1471              	.LBB136:
 1472 0042 03EB4603 		add	r3, r3, r6, lsl #1
 1473              	.LBE136:
 1474              	.LBE150:
 1475              	.LBB151:
 1476              	.LBB144:
 1477 0046 02EB4000 		add	r0, r2, r0, lsl #1
 1478              	.LBE144:
ARM GAS  /tmp/ccadBNMM.s 			page 27


 1479              	.LBE151:
 1480              		.loc 1 1037 0
 1481 004a 8D70     		strb	r5, [r1, #2]
 1482              		.loc 1 1036 0
 1483 004c 4B70     		strb	r3, [r1, #1]
 1484              		.loc 1 1035 0
 1485 004e C870     		strb	r0, [r1, #3]
 1486              	.LVL129:
 1487              	.L128:
 1488              		.loc 1 1040 0
 1489 0050 F0BC     		pop	{r4, r5, r6, r7}
 1490 0052 7047     		bx	lr
 1491              	.L131:
 1492              		.align	2
 1493              	.L130:
 1494 0054 00280040 		.word	1073752064
 1495              		.cfi_endproc
 1496              	.LFE126:
 1497              		.size	RTC_GetDate, .-RTC_GetDate
 1498 0058 AFF30080 		.section	.text.RTC_SetAlarm,"ax",%progbits
 1498      AFF30080 
 1499              		.align	2
 1500              		.p2align 4,,15
 1501              		.global	RTC_SetAlarm
 1502              		.thumb
 1503              		.thumb_func
 1504              		.type	RTC_SetAlarm, %function
 1505              	RTC_SetAlarm:
 1506              	.LFB127:
 1507              		.loc 1 1076 0
 1508              		.cfi_startproc
 1509              		@ args = 0, pretend = 0, frame = 0
 1510              		@ frame_needed = 0, uses_anonymous_args = 0
 1511              		@ link register save eliminated.
 1512              	.LVL130:
 1513 0000 F0B4     		push	{r4, r5, r6, r7}
 1514              		.cfi_def_cfa_offset 16
 1515              		.cfi_offset 4, -16
 1516              		.cfi_offset 5, -12
 1517              		.cfi_offset 6, -8
 1518              		.cfi_offset 7, -4
 1519              		.loc 1 1087 0
 1520 0002 3E4B     		ldr	r3, .L158
 1521              		.loc 1 1085 0
 1522 0004 0028     		cmp	r0, #0
 1523 0006 4BD1     		bne	.L133
 1524              		.loc 1 1087 0
 1525 0008 9E68     		ldr	r6, [r3, #8]
 1526 000a 16F04006 		ands	r6, r6, #64
 1527 000e 6DD1     		bne	.L134
 1528              		.loc 1 1094 0
 1529 0010 D670     		strb	r6, [r2, #3]
 1530              	.L135:
 1531              		.loc 1 1151 0
 1532 0012 1378     		ldrb	r3, [r2]	@ zero_extendqisi2
 1533              	.LVL131:
 1534              	.LBB152:
ARM GAS  /tmp/ccadBNMM.s 			page 28


 1535              	.LBB153:
 1536              		.loc 1 2563 0
 1537 0014 092B     		cmp	r3, #9
 1538 0016 6CD9     		bls	.L156
 1539              		.loc 1 2561 0
 1540 0018 0020     		movs	r0, #0
 1541              	.LVL132:
 1542              	.L152:
 1543              		.loc 1 2566 0
 1544 001a 0A3B     		subs	r3, r3, #10
 1545              	.LVL133:
 1546 001c DBB2     		uxtb	r3, r3
 1547              	.LVL134:
 1548              		.loc 1 2565 0
 1549 001e 0130     		adds	r0, r0, #1
 1550              	.LVL135:
 1551              		.loc 1 2563 0
 1552 0020 092B     		cmp	r3, #9
 1553              		.loc 1 2565 0
 1554 0022 C0B2     		uxtb	r0, r0
 1555              	.LVL136:
 1556              		.loc 1 2563 0
 1557 0024 F9D8     		bhi	.L152
 1558 0026 0001     		lsls	r0, r0, #4
 1559              	.LVL137:
 1560 0028 C4B2     		uxtb	r4, r0
 1561              	.LVL138:
 1562              	.L151:
 1563              	.LBE153:
 1564              	.LBE152:
 1565              		.loc 1 1152 0
 1566 002a 5078     		ldrb	r0, [r2, #1]	@ zero_extendqisi2
 1567              	.LVL139:
 1568              		.loc 1 1151 0
 1569 002c 2343     		orrs	r3, r3, r4
 1570              	.LBB155:
 1571              	.LBB156:
 1572              		.loc 1 2563 0
 1573 002e 0928     		cmp	r0, #9
 1574              	.LBE156:
 1575              	.LBE155:
 1576              		.loc 1 1151 0
 1577 0030 4FEA0343 		lsl	r3, r3, #16
 1578              	.LBB159:
 1579              	.LBB157:
 1580              		.loc 1 2563 0
 1581 0034 5FD9     		bls	.L153
 1582              		.loc 1 2561 0
 1583 0036 0024     		movs	r4, #0
 1584              	.LVL140:
 1585              	.L141:
 1586              		.loc 1 2566 0
 1587 0038 0A38     		subs	r0, r0, #10
 1588              	.LVL141:
 1589 003a C0B2     		uxtb	r0, r0
 1590              	.LVL142:
 1591              		.loc 1 2565 0
ARM GAS  /tmp/ccadBNMM.s 			page 29


 1592 003c 0134     		adds	r4, r4, #1
 1593              	.LVL143:
 1594              		.loc 1 2563 0
 1595 003e 0928     		cmp	r0, #9
 1596              		.loc 1 2565 0
 1597 0040 E4B2     		uxtb	r4, r4
 1598              	.LVL144:
 1599              		.loc 1 2563 0
 1600 0042 F9D8     		bhi	.L141
 1601 0044 2401     		lsls	r4, r4, #4
 1602              	.LVL145:
 1603 0046 E7B2     		uxtb	r7, r4
 1604              	.LVL146:
 1605              	.L139:
 1606              	.LBE157:
 1607              	.LBE159:
 1608              		.loc 1 1153 0
 1609 0048 9478     		ldrb	r4, [r2, #2]	@ zero_extendqisi2
 1610              	.LVL147:
 1611              		.loc 1 1152 0
 1612 004a 3843     		orrs	r0, r0, r7
 1613              	.LBB160:
 1614              	.LBB161:
 1615              		.loc 1 2563 0
 1616 004c 092C     		cmp	r4, #9
 1617              	.LBE161:
 1618              	.LBE160:
 1619              		.loc 1 1152 0
 1620 004e 4FEA0027 		lsl	r7, r0, #8
 1621              	.LBB163:
 1622              	.LBB162:
 1623              		.loc 1 2561 0
 1624 0052 4FF00005 		mov	r5, #0
 1625              		.loc 1 2563 0
 1626 0056 07D9     		bls	.L142
 1627              	.LVL148:
 1628              	.L144:
 1629              		.loc 1 2566 0
 1630 0058 0A3C     		subs	r4, r4, #10
 1631              	.LVL149:
 1632 005a E4B2     		uxtb	r4, r4
 1633              	.LVL150:
 1634              		.loc 1 2565 0
 1635 005c 0135     		adds	r5, r5, #1
 1636              	.LVL151:
 1637              		.loc 1 2563 0
 1638 005e 092C     		cmp	r4, #9
 1639              		.loc 1 2565 0
 1640 0060 EDB2     		uxtb	r5, r5
 1641              	.LVL152:
 1642              		.loc 1 2563 0
 1643 0062 F9D8     		bhi	.L144
 1644 0064 2D01     		lsls	r5, r5, #4
 1645              	.LVL153:
 1646 0066 EDB2     		uxtb	r5, r5
 1647              	.LVL154:
 1648              	.L142:
ARM GAS  /tmp/ccadBNMM.s 			page 30


 1649              	.LBE162:
 1650              	.LBE163:
 1651              		.loc 1 1155 0
 1652 0068 107B     		ldrb	r0, [r2, #12]	@ zero_extendqisi2
 1653              	.LVL155:
 1654              	.LBB164:
 1655              	.LBB165:
 1656              		.loc 1 2563 0
 1657 006a 0928     		cmp	r0, #9
 1658              	.LBE165:
 1659              	.LBE164:
 1660              		.loc 1 1153 0
 1661 006c 45EA0404 		orr	r4, r5, r4
 1662              	.LBB167:
 1663              	.LBB166:
 1664              		.loc 1 2561 0
 1665 0070 4FF00005 		mov	r5, #0
 1666              		.loc 1 2563 0
 1667 0074 07D9     		bls	.L145
 1668              	.LVL156:
 1669              	.L147:
 1670              		.loc 1 2566 0
 1671 0076 0A38     		subs	r0, r0, #10
 1672              	.LVL157:
 1673 0078 C0B2     		uxtb	r0, r0
 1674              	.LVL158:
 1675              		.loc 1 2565 0
 1676 007a 0135     		adds	r5, r5, #1
 1677              	.LVL159:
 1678              		.loc 1 2563 0
 1679 007c 0928     		cmp	r0, #9
 1680              		.loc 1 2565 0
 1681 007e EDB2     		uxtb	r5, r5
 1682              	.LVL160:
 1683              		.loc 1 2563 0
 1684 0080 F9D8     		bhi	.L147
 1685 0082 2D01     		lsls	r5, r5, #4
 1686              	.LVL161:
 1687 0084 EDB2     		uxtb	r5, r5
 1688              	.LVL162:
 1689              	.L145:
 1690              	.LBE166:
 1691              	.LBE167:
 1692              		.loc 1 1151 0
 1693 0086 D2F804C0 		ldr	ip, [r2, #4]
 1694 008a 9268     		ldr	r2, [r2, #8]
 1695              	.LVL163:
 1696 008c 4CEA0202 		orr	r2, ip, r2
 1697              		.loc 1 1152 0
 1698 0090 1643     		orrs	r6, r6, r2
 1699              		.loc 1 1153 0
 1700 0092 3343     		orrs	r3, r3, r6
 1701              		.loc 1 1154 0
 1702 0094 1F43     		orrs	r7, r7, r3
 1703              		.loc 1 1155 0
 1704 0096 2843     		orrs	r0, r0, r5
 1705 0098 3C43     		orrs	r4, r4, r7
ARM GAS  /tmp/ccadBNMM.s 			page 31


 1706              		.loc 1 1151 0
 1707 009a 44EA0060 		orr	r0, r4, r0, lsl #24
 1708              	.LVL164:
 1709 009e 13E0     		b	.L150
 1710              	.LVL165:
 1711              	.L133:
 1712              		.loc 1 1111 0
 1713 00a0 9B68     		ldr	r3, [r3, #8]
 1714 00a2 13F04003 		ands	r3, r3, #64
 1715 00a6 1ED1     		bne	.L136
 1716              		.loc 1 1119 0
 1717 00a8 D370     		strb	r3, [r2, #3]
 1718              	.L137:
 1719              		.loc 1 1141 0
 1720 00aa 5768     		ldr	r7, [r2, #4]
 1721 00ac 9068     		ldr	r0, [r2, #8]
 1722              	.LVL166:
 1723              		.loc 1 1143 0
 1724 00ae 9678     		ldrb	r6, [r2, #2]	@ zero_extendqisi2
 1725              		.loc 1 1141 0
 1726 00b0 1578     		ldrb	r5, [r2]	@ zero_extendqisi2
 1727              		.loc 1 1142 0
 1728 00b2 5478     		ldrb	r4, [r2, #1]	@ zero_extendqisi2
 1729              		.loc 1 1145 0
 1730 00b4 127B     		ldrb	r2, [r2, #12]	@ zero_extendqisi2
 1731              	.LVL167:
 1732              		.loc 1 1141 0
 1733 00b6 3843     		orrs	r0, r0, r7
 1734              		.loc 1 1142 0
 1735 00b8 3043     		orrs	r0, r0, r6
 1736              		.loc 1 1143 0
 1737 00ba 40EA0540 		orr	r0, r0, r5, lsl #16
 1738              		.loc 1 1144 0
 1739 00be 40EA0420 		orr	r0, r0, r4, lsl #8
 1740              		.loc 1 1145 0
 1741 00c2 40EA0260 		orr	r0, r0, r2, lsl #24
 1742              		.loc 1 1141 0
 1743 00c6 1843     		orrs	r0, r0, r3
 1744              	.LVL168:
 1745              	.L150:
 1746              		.loc 1 1161 0
 1747 00c8 0C4B     		ldr	r3, .L158
 1748 00ca CA25     		movs	r5, #202
 1749              		.loc 1 1162 0
 1750 00cc 5322     		movs	r2, #83
 1751              		.loc 1 1165 0
 1752 00ce B1F5807F 		cmp	r1, #256
 1753              		.loc 1 1161 0
 1754 00d2 5D62     		str	r5, [r3, #36]
 1755              		.loc 1 1162 0
 1756 00d4 5A62     		str	r2, [r3, #36]
 1757              		.loc 1 1167 0
 1758 00d6 0CBF     		ite	eq
 1759 00d8 D861     		streq	r0, [r3, #28]
 1760              		.loc 1 1171 0
 1761 00da 1862     		strne	r0, [r3, #32]
 1762              		.loc 1 1175 0
ARM GAS  /tmp/ccadBNMM.s 			page 32


 1763 00dc 074B     		ldr	r3, .L158
 1764 00de FF22     		movs	r2, #255
 1765 00e0 5A62     		str	r2, [r3, #36]
 1766              		.loc 1 1176 0
 1767 00e2 F0BC     		pop	{r4, r5, r6, r7}
 1768 00e4 7047     		bx	lr
 1769              	.LVL169:
 1770              	.L136:
 1771 00e6 D378     		ldrb	r3, [r2, #3]	@ zero_extendqisi2
 1772 00e8 1B04     		lsls	r3, r3, #16
 1773 00ea DEE7     		b	.L137
 1774              	.L134:
 1775 00ec D678     		ldrb	r6, [r2, #3]	@ zero_extendqisi2
 1776 00ee 3604     		lsls	r6, r6, #16
 1777 00f0 8FE7     		b	.L135
 1778              	.LVL170:
 1779              	.L156:
 1780              	.LBB168:
 1781              	.LBB154:
 1782              		.loc 1 2563 0
 1783 00f2 0024     		movs	r4, #0
 1784 00f4 99E7     		b	.L151
 1785              	.LVL171:
 1786              	.L153:
 1787              	.LBE154:
 1788              	.LBE168:
 1789              	.LBB169:
 1790              	.LBB158:
 1791 00f6 0027     		movs	r7, #0
 1792 00f8 A6E7     		b	.L139
 1793              	.L159:
 1794 00fa 00BF     		.align	2
 1795              	.L158:
 1796 00fc 00280040 		.word	1073752064
 1797              	.LBE158:
 1798              	.LBE169:
 1799              		.cfi_endproc
 1800              	.LFE127:
 1801              		.size	RTC_SetAlarm, .-RTC_SetAlarm
 1802              		.section	.text.RTC_AlarmStructInit,"ax",%progbits
 1803              		.align	2
 1804              		.p2align 4,,15
 1805              		.global	RTC_AlarmStructInit
 1806              		.thumb
 1807              		.thumb_func
 1808              		.type	RTC_AlarmStructInit, %function
 1809              	RTC_AlarmStructInit:
 1810              	.LFB128:
 1811              		.loc 1 1187 0
 1812              		.cfi_startproc
 1813              		@ args = 0, pretend = 0, frame = 0
 1814              		@ frame_needed = 0, uses_anonymous_args = 0
 1815              		@ link register save eliminated.
 1816              	.LVL172:
 1817              		.loc 1 1189 0
 1818 0000 0023     		movs	r3, #0
 1819              		.loc 1 1196 0
ARM GAS  /tmp/ccadBNMM.s 			page 33


 1820 0002 0122     		movs	r2, #1
 1821 0004 0273     		strb	r2, [r0, #12]
 1822              		.loc 1 1189 0
 1823 0006 C370     		strb	r3, [r0, #3]
 1824              		.loc 1 1190 0
 1825 0008 0370     		strb	r3, [r0]
 1826              		.loc 1 1191 0
 1827 000a 4370     		strb	r3, [r0, #1]
 1828              		.loc 1 1192 0
 1829 000c 8370     		strb	r3, [r0, #2]
 1830              		.loc 1 1195 0
 1831 000e 8360     		str	r3, [r0, #8]
 1832              		.loc 1 1199 0
 1833 0010 4360     		str	r3, [r0, #4]
 1834 0012 7047     		bx	lr
 1835              		.cfi_endproc
 1836              	.LFE128:
 1837              		.size	RTC_AlarmStructInit, .-RTC_AlarmStructInit
 1838 0014 AFF30080 		.section	.text.RTC_GetAlarm,"ax",%progbits
 1838      AFF30080 
 1838      AFF30080 
 1839              		.align	2
 1840              		.p2align 4,,15
 1841              		.global	RTC_GetAlarm
 1842              		.thumb
 1843              		.thumb_func
 1844              		.type	RTC_GetAlarm, %function
 1845              	RTC_GetAlarm:
 1846              	.LFB129:
 1847              		.loc 1 1217 0
 1848              		.cfi_startproc
 1849              		@ args = 0, pretend = 0, frame = 0
 1850              		@ frame_needed = 0, uses_anonymous_args = 0
 1851              		@ link register save eliminated.
 1852              	.LVL173:
 1853              		.loc 1 1227 0
 1854 0000 234B     		ldr	r3, .L165
 1855              		.loc 1 1225 0
 1856 0002 B1F5807F 		cmp	r1, #256
 1857              		.loc 1 1227 0
 1858 0006 0CBF     		ite	eq
 1859 0008 DB69     		ldreq	r3, [r3, #28]
 1860              	.LVL174:
 1861              		.loc 1 1231 0
 1862 000a 1B6A     		ldrne	r3, [r3, #32]
 1863              	.LVL175:
 1864              		.loc 1 1217 0
 1865 000c 2DE9F001 		push	{r4, r5, r6, r7, r8}
 1866              		.cfi_def_cfa_offset 20
 1867              		.cfi_offset 4, -20
 1868              		.cfi_offset 5, -16
 1869              		.cfi_offset 6, -12
 1870              		.cfi_offset 7, -8
 1871              		.cfi_offset 8, -4
 1872              		.loc 1 1239 0
 1873 0010 DEB2     		uxtb	r6, r3
 1874              		.loc 1 1241 0
ARM GAS  /tmp/ccadBNMM.s 			page 34


 1875 0012 03F48008 		and	r8, r3, #4194304
 1876              		.loc 1 1235 0
 1877 0016 C3F30545 		ubfx	r5, r3, #16, #6
 1878              		.loc 1 1237 0
 1879 001a C3F30624 		ubfx	r4, r3, #8, #7
 1880              		.loc 1 1242 0
 1881 001e C3F30561 		ubfx	r1, r3, #24, #6
 1882              	.LVL176:
 1883              		.loc 1 1243 0
 1884 0022 03F0804C 		and	ip, r3, #1073741824
 1885              		.loc 1 1239 0
 1886 0026 06F07F07 		and	r7, r6, #127
 1887              		.loc 1 1241 0
 1888 002a 4FEA1848 		lsr	r8, r8, #16
 1889              		.loc 1 1244 0
 1890 002e 03F08033 		and	r3, r3, #-2139062144
 1891              	.LVL177:
 1892              		.loc 1 1239 0
 1893 0032 9770     		strb	r7, [r2, #2]
 1894              		.loc 1 1241 0
 1895 0034 82F80380 		strb	r8, [r2, #3]
 1896              		.loc 1 1235 0
 1897 0038 1570     		strb	r5, [r2]
 1898              		.loc 1 1237 0
 1899 003a 5470     		strb	r4, [r2, #1]
 1900              		.loc 1 1242 0
 1901 003c 1173     		strb	r1, [r2, #12]
 1902              		.loc 1 1243 0
 1903 003e C2F808C0 		str	ip, [r2, #8]
 1904              		.loc 1 1244 0
 1905 0042 5360     		str	r3, [r2, #4]
 1906              		.loc 1 1246 0
 1907 0044 08BB     		cbnz	r0, .L161
 1908              	.LVL178:
 1909              	.LBB170:
 1910              	.LBB171:
 1911              		.loc 1 2580 0
 1912 0046 4FEA151C 		lsr	ip, r5, #4
 1913              	.LBE171:
 1914              	.LBE170:
 1915              	.LBB174:
 1916              	.LBB175:
 1917 004a 2009     		lsrs	r0, r4, #4
 1918              	.LVL179:
 1919              	.LBE175:
 1920              	.LBE174:
 1921              	.LBB178:
 1922              	.LBB179:
 1923 004c 0B09     		lsrs	r3, r1, #4
 1924              	.LBE179:
 1925              	.LBE178:
 1926              	.LBB182:
 1927              	.LBB183:
 1928 004e 3F09     		lsrs	r7, r7, #4
 1929 0050 07EB8707 		add	r7, r7, r7, lsl #2
 1930              		.loc 1 2581 0
 1931 0054 06F00F06 		and	r6, r6, #15
ARM GAS  /tmp/ccadBNMM.s 			page 35


 1932              	.LBE183:
 1933              	.LBE182:
 1934              	.LBB185:
 1935              	.LBB172:
 1936              		.loc 1 2580 0
 1937 0058 0CEB8C0C 		add	ip, ip, ip, lsl #2
 1938              		.loc 1 2581 0
 1939 005c 05F00F05 		and	r5, r5, #15
 1940              	.LVL180:
 1941              	.LBE172:
 1942              	.LBE185:
 1943              	.LBB186:
 1944              	.LBB176:
 1945              		.loc 1 2580 0
 1946 0060 00EB8000 		add	r0, r0, r0, lsl #2
 1947              		.loc 1 2581 0
 1948 0064 04F00F04 		and	r4, r4, #15
 1949              	.LBE176:
 1950              	.LBE186:
 1951              	.LBB187:
 1952              	.LBB180:
 1953              		.loc 1 2580 0
 1954 0068 03EB8303 		add	r3, r3, r3, lsl #2
 1955              		.loc 1 2581 0
 1956 006c 01F00F01 		and	r1, r1, #15
 1957              	.LBE180:
 1958              	.LBE187:
 1959              	.LBB188:
 1960              	.LBB184:
 1961 0070 06EB4707 		add	r7, r6, r7, lsl #1
 1962              	.LBE184:
 1963              	.LBE188:
 1964              	.LBB189:
 1965              	.LBB173:
 1966 0074 05EB4C0C 		add	ip, r5, ip, lsl #1
 1967              	.LBE173:
 1968              	.LBE189:
 1969              	.LBB190:
 1970              	.LBB177:
 1971 0078 04EB4000 		add	r0, r4, r0, lsl #1
 1972              	.LBE177:
 1973              	.LBE190:
 1974              	.LBB191:
 1975              	.LBB181:
 1976 007c 01EB4303 		add	r3, r1, r3, lsl #1
 1977              	.LBE181:
 1978              	.LBE191:
 1979              		.loc 1 1252 0
 1980 0080 9770     		strb	r7, [r2, #2]
 1981              		.loc 1 1248 0
 1982 0082 82F800C0 		strb	ip, [r2]
 1983              	.LVL181:
 1984              		.loc 1 1250 0
 1985 0086 5070     		strb	r0, [r2, #1]
 1986              	.LVL182:
 1987              		.loc 1 1254 0
 1988 0088 1373     		strb	r3, [r2, #12]
ARM GAS  /tmp/ccadBNMM.s 			page 36


 1989              	.L161:
 1990              		.loc 1 1256 0
 1991 008a BDE8F001 		pop	{r4, r5, r6, r7, r8}
 1992 008e 7047     		bx	lr
 1993              	.L166:
 1994              		.align	2
 1995              	.L165:
 1996 0090 00280040 		.word	1073752064
 1997              		.cfi_endproc
 1998              	.LFE129:
 1999              		.size	RTC_GetAlarm, .-RTC_GetAlarm
 2000 0094 AFF30080 		.section	.text.RTC_AlarmCmd,"ax",%progbits
 2000      AFF30080 
 2000      AFF30080 
 2001              		.align	2
 2002              		.p2align 4,,15
 2003              		.global	RTC_AlarmCmd
 2004              		.thumb
 2005              		.thumb_func
 2006              		.type	RTC_AlarmCmd, %function
 2007              	RTC_AlarmCmd:
 2008              	.LFB130:
 2009              		.loc 1 1271 0
 2010              		.cfi_startproc
 2011              		@ args = 0, pretend = 0, frame = 8
 2012              		@ frame_needed = 0, uses_anonymous_args = 0
 2013              		@ link register save eliminated.
 2014              	.LVL183:
 2015 0000 30B4     		push	{r4, r5}
 2016              		.cfi_def_cfa_offset 8
 2017              		.cfi_offset 4, -8
 2018              		.cfi_offset 5, -4
 2019              		.loc 1 1281 0
 2020 0002 154B     		ldr	r3, .L174
 2021              		.loc 1 1271 0
 2022 0004 82B0     		sub	sp, sp, #8
 2023              		.cfi_def_cfa_offset 16
 2024              		.loc 1 1282 0
 2025 0006 5322     		movs	r2, #83
 2026              		.loc 1 1272 0
 2027 0008 0025     		movs	r5, #0
 2028              		.loc 1 1281 0
 2029 000a CA24     		movs	r4, #202
 2030              		.loc 1 1272 0
 2031 000c 0195     		str	r5, [sp, #4]
 2032              	.LVL184:
 2033              		.loc 1 1281 0
 2034 000e 5C62     		str	r4, [r3, #36]
 2035              		.loc 1 1282 0
 2036 0010 5A62     		str	r2, [r3, #36]
 2037              		.loc 1 1287 0
 2038 0012 9A68     		ldr	r2, [r3, #8]
 2039              		.loc 1 1285 0
 2040 0014 E1B9     		cbnz	r1, .L173
 2041              		.loc 1 1294 0
 2042 0016 22EA0002 		bic	r2, r2, r0
 2043 001a 9A60     		str	r2, [r3, #8]
ARM GAS  /tmp/ccadBNMM.s 			page 37


 2044 001c 000A     		lsrs	r0, r0, #8
 2045              	.LVL185:
 2046              		.loc 1 1299 0
 2047 001e 1946     		mov	r1, r3
 2048              	.LVL186:
 2049 0020 00E0     		b	.L172
 2050              	.LVL187:
 2051              	.L170:
 2052              		.loc 1 1301 0 discriminator 1
 2053 0022 4AB9     		cbnz	r2, .L171
 2054              	.LVL188:
 2055              	.L172:
 2056              		.loc 1 1299 0 discriminator 1
 2057 0024 CA68     		ldr	r2, [r1, #12]
 2058              		.loc 1 1300 0 discriminator 1
 2059 0026 019B     		ldr	r3, [sp, #4]
 2060 0028 0133     		adds	r3, r3, #1
 2061 002a 0193     		str	r3, [sp, #4]
 2062              		.loc 1 1301 0 discriminator 1
 2063 002c 019B     		ldr	r3, [sp, #4]
 2064 002e B3F5005F 		cmp	r3, #8192
 2065              		.loc 1 1299 0 discriminator 1
 2066 0032 00EA0202 		and	r2, r0, r2
 2067              	.LVL189:
 2068              		.loc 1 1301 0 discriminator 1
 2069 0036 F4D1     		bne	.L170
 2070              	.L171:
 2071              		.loc 1 1303 0
 2072 0038 074B     		ldr	r3, .L174
 2073 003a DB68     		ldr	r3, [r3, #12]
 2074 003c 0342     		tst	r3, r0
 2075              		.loc 1 1289 0
 2076 003e 0CBF     		ite	eq
 2077 0040 0020     		moveq	r0, #0
 2078 0042 0120     		movne	r0, #1
 2079              	.LVL190:
 2080              	.L169:
 2081              		.loc 1 1314 0
 2082 0044 044B     		ldr	r3, .L174
 2083 0046 FF22     		movs	r2, #255
 2084 0048 5A62     		str	r2, [r3, #36]
 2085              		.loc 1 1317 0
 2086 004a 02B0     		add	sp, sp, #8
 2087              		@ sp needed
 2088 004c 30BC     		pop	{r4, r5}
 2089 004e 7047     		bx	lr
 2090              	.LVL191:
 2091              	.L173:
 2092              		.loc 1 1287 0
 2093 0050 1043     		orrs	r0, r0, r2
 2094              	.LVL192:
 2095 0052 9860     		str	r0, [r3, #8]
 2096              	.LVL193:
 2097              		.loc 1 1289 0
 2098 0054 0120     		movs	r0, #1
 2099 0056 F5E7     		b	.L169
 2100              	.L175:
ARM GAS  /tmp/ccadBNMM.s 			page 38


 2101              		.align	2
 2102              	.L174:
 2103 0058 00280040 		.word	1073752064
 2104              		.cfi_endproc
 2105              	.LFE130:
 2106              		.size	RTC_AlarmCmd, .-RTC_AlarmCmd
 2107 005c AFF30080 		.section	.text.RTC_AlarmSubSecondConfig,"ax",%progbits
 2108              		.align	2
 2109              		.p2align 4,,15
 2110              		.global	RTC_AlarmSubSecondConfig
 2111              		.thumb
 2112              		.thumb_func
 2113              		.type	RTC_AlarmSubSecondConfig, %function
 2114              	RTC_AlarmSubSecondConfig:
 2115              	.LFB131:
 2116              		.loc 1 1365 0
 2117              		.cfi_startproc
 2118              		@ args = 0, pretend = 0, frame = 0
 2119              		@ frame_needed = 0, uses_anonymous_args = 0
 2120              		@ link register save eliminated.
 2121              	.LVL194:
 2122 0000 30B4     		push	{r4, r5}
 2123              		.cfi_def_cfa_offset 8
 2124              		.cfi_offset 4, -8
 2125              		.cfi_offset 5, -4
 2126              		.loc 1 1374 0
 2127 0002 084B     		ldr	r3, .L179
 2128              		.loc 1 1378 0
 2129 0004 0A43     		orrs	r2, r2, r1
 2130              	.LVL195:
 2131              		.loc 1 1374 0
 2132 0006 CA25     		movs	r5, #202
 2133              		.loc 1 1375 0
 2134 0008 5324     		movs	r4, #83
 2135              		.loc 1 1380 0
 2136 000a B0F5807F 		cmp	r0, #256
 2137              		.loc 1 1374 0
 2138 000e 5D62     		str	r5, [r3, #36]
 2139              		.loc 1 1375 0
 2140 0010 5C62     		str	r4, [r3, #36]
 2141              		.loc 1 1383 0
 2142 0012 0CBF     		ite	eq
 2143 0014 5A64     		streq	r2, [r3, #68]
 2144              		.loc 1 1388 0
 2145 0016 9A64     		strne	r2, [r3, #72]
 2146              		.loc 1 1392 0
 2147 0018 024B     		ldr	r3, .L179
 2148 001a FF22     		movs	r2, #255
 2149              	.LVL196:
 2150 001c 5A62     		str	r2, [r3, #36]
 2151              		.loc 1 1394 0
 2152 001e 30BC     		pop	{r4, r5}
 2153 0020 7047     		bx	lr
 2154              	.L180:
 2155 0022 00BF     		.align	2
 2156              	.L179:
 2157 0024 00280040 		.word	1073752064
ARM GAS  /tmp/ccadBNMM.s 			page 39


 2158              		.cfi_endproc
 2159              	.LFE131:
 2160              		.size	RTC_AlarmSubSecondConfig, .-RTC_AlarmSubSecondConfig
 2161 0028 AFF30080 		.section	.text.RTC_GetAlarmSubSecond,"ax",%progbits
 2161      AFF30080 
 2162              		.align	2
 2163              		.p2align 4,,15
 2164              		.global	RTC_GetAlarmSubSecond
 2165              		.thumb
 2166              		.thumb_func
 2167              		.type	RTC_GetAlarmSubSecond, %function
 2168              	RTC_GetAlarmSubSecond:
 2169              	.LFB132:
 2170              		.loc 1 1406 0
 2171              		.cfi_startproc
 2172              		@ args = 0, pretend = 0, frame = 0
 2173              		@ frame_needed = 0, uses_anonymous_args = 0
 2174              		@ link register save eliminated.
 2175              	.LVL197:
 2176              		.loc 1 1412 0
 2177 0000 044B     		ldr	r3, .L184
 2178              		.loc 1 1410 0
 2179 0002 B0F5807F 		cmp	r0, #256
 2180              		.loc 1 1412 0
 2181 0006 0CBF     		ite	eq
 2182 0008 586C     		ldreq	r0, [r3, #68]
 2183              	.LVL198:
 2184              		.loc 1 1416 0
 2185 000a 986C     		ldrne	r0, [r3, #72]
 2186 000c C0F30E00 		ubfx	r0, r0, #0, #15
 2187              	.LVL199:
 2188              		.loc 1 1420 0
 2189 0010 7047     		bx	lr
 2190              	.L185:
 2191 0012 00BF     		.align	2
 2192              	.L184:
 2193 0014 00280040 		.word	1073752064
 2194              		.cfi_endproc
 2195              	.LFE132:
 2196              		.size	RTC_GetAlarmSubSecond, .-RTC_GetAlarmSubSecond
 2197 0018 AFF30080 		.section	.text.RTC_WakeUpClockConfig,"ax",%progbits
 2197      AFF30080 
 2198              		.align	2
 2199              		.p2align 4,,15
 2200              		.global	RTC_WakeUpClockConfig
 2201              		.thumb
 2202              		.thumb_func
 2203              		.type	RTC_WakeUpClockConfig, %function
 2204              	RTC_WakeUpClockConfig:
 2205              	.LFB133:
 2206              		.loc 1 1454 0
 2207              		.cfi_startproc
 2208              		@ args = 0, pretend = 0, frame = 0
 2209              		@ frame_needed = 0, uses_anonymous_args = 0
 2210              		@ link register save eliminated.
 2211              	.LVL200:
 2212              		.loc 1 1459 0
ARM GAS  /tmp/ccadBNMM.s 			page 40


 2213 0000 074B     		ldr	r3, .L187
 2214 0002 CA21     		movs	r1, #202
 2215              		.loc 1 1460 0
 2216 0004 5322     		movs	r2, #83
 2217              		.loc 1 1459 0
 2218 0006 5962     		str	r1, [r3, #36]
 2219              		.loc 1 1460 0
 2220 0008 5A62     		str	r2, [r3, #36]
 2221              		.loc 1 1463 0
 2222 000a 9A68     		ldr	r2, [r3, #8]
 2223 000c 22F00702 		bic	r2, r2, #7
 2224 0010 9A60     		str	r2, [r3, #8]
 2225              		.loc 1 1466 0
 2226 0012 9968     		ldr	r1, [r3, #8]
 2227              		.loc 1 1469 0
 2228 0014 FF22     		movs	r2, #255
 2229              		.loc 1 1466 0
 2230 0016 0843     		orrs	r0, r0, r1
 2231              	.LVL201:
 2232 0018 9860     		str	r0, [r3, #8]
 2233              		.loc 1 1469 0
 2234 001a 5A62     		str	r2, [r3, #36]
 2235 001c 7047     		bx	lr
 2236              	.L188:
 2237 001e 00BF     		.align	2
 2238              	.L187:
 2239 0020 00280040 		.word	1073752064
 2240              		.cfi_endproc
 2241              	.LFE133:
 2242              		.size	RTC_WakeUpClockConfig, .-RTC_WakeUpClockConfig
 2243 0024 AFF30080 		.section	.text.RTC_SetWakeUpCounter,"ax",%progbits
 2243      AFF30080 
 2243      AFF30080 
 2244              		.align	2
 2245              		.p2align 4,,15
 2246              		.global	RTC_SetWakeUpCounter
 2247              		.thumb
 2248              		.thumb_func
 2249              		.type	RTC_SetWakeUpCounter, %function
 2250              	RTC_SetWakeUpCounter:
 2251              	.LFB134:
 2252              		.loc 1 1481 0
 2253              		.cfi_startproc
 2254              		@ args = 0, pretend = 0, frame = 0
 2255              		@ frame_needed = 0, uses_anonymous_args = 0
 2256              		@ link register save eliminated.
 2257              	.LVL202:
 2258              		.loc 1 1486 0
 2259 0000 054B     		ldr	r3, .L190
 2260              		.loc 1 1481 0
 2261 0002 10B4     		push	{r4}
 2262              		.cfi_def_cfa_offset 4
 2263              		.cfi_offset 4, -4
 2264              		.loc 1 1487 0
 2265 0004 5321     		movs	r1, #83
 2266              		.loc 1 1486 0
 2267 0006 CA24     		movs	r4, #202
ARM GAS  /tmp/ccadBNMM.s 			page 41


 2268              		.loc 1 1493 0
 2269 0008 FF22     		movs	r2, #255
 2270              		.loc 1 1486 0
 2271 000a 5C62     		str	r4, [r3, #36]
 2272              		.loc 1 1487 0
 2273 000c 5962     		str	r1, [r3, #36]
 2274              		.loc 1 1494 0
 2275 000e 5DF8044B 		ldr	r4, [sp], #4
 2276              		.loc 1 1490 0
 2277 0012 5861     		str	r0, [r3, #20]
 2278              		.loc 1 1493 0
 2279 0014 5A62     		str	r2, [r3, #36]
 2280              		.loc 1 1494 0
 2281 0016 7047     		bx	lr
 2282              	.L191:
 2283              		.align	2
 2284              	.L190:
 2285 0018 00280040 		.word	1073752064
 2286              		.cfi_endproc
 2287              	.LFE134:
 2288              		.size	RTC_SetWakeUpCounter, .-RTC_SetWakeUpCounter
 2289 001c AFF30080 		.section	.text.RTC_GetWakeUpCounter,"ax",%progbits
 2290              		.align	2
 2291              		.p2align 4,,15
 2292              		.global	RTC_GetWakeUpCounter
 2293              		.thumb
 2294              		.thumb_func
 2295              		.type	RTC_GetWakeUpCounter, %function
 2296              	RTC_GetWakeUpCounter:
 2297              	.LFB135:
 2298              		.loc 1 1502 0
 2299              		.cfi_startproc
 2300              		@ args = 0, pretend = 0, frame = 0
 2301              		@ frame_needed = 0, uses_anonymous_args = 0
 2302              		@ link register save eliminated.
 2303              		.loc 1 1504 0
 2304 0000 014B     		ldr	r3, .L193
 2305 0002 5869     		ldr	r0, [r3, #20]
 2306              		.loc 1 1505 0
 2307 0004 80B2     		uxth	r0, r0
 2308 0006 7047     		bx	lr
 2309              	.L194:
 2310              		.align	2
 2311              	.L193:
 2312 0008 00280040 		.word	1073752064
 2313              		.cfi_endproc
 2314              	.LFE135:
 2315              		.size	RTC_GetWakeUpCounter, .-RTC_GetWakeUpCounter
 2316 000c AFF30080 		.section	.text.RTC_WakeUpCmd,"ax",%progbits
 2317              		.align	2
 2318              		.p2align 4,,15
 2319              		.global	RTC_WakeUpCmd
 2320              		.thumb
 2321              		.thumb_func
 2322              		.type	RTC_WakeUpCmd, %function
 2323              	RTC_WakeUpCmd:
 2324              	.LFB136:
ARM GAS  /tmp/ccadBNMM.s 			page 42


 2325              		.loc 1 1514 0
 2326              		.cfi_startproc
 2327              		@ args = 0, pretend = 0, frame = 8
 2328              		@ frame_needed = 0, uses_anonymous_args = 0
 2329              		@ link register save eliminated.
 2330              	.LVL203:
 2331 0000 10B4     		push	{r4}
 2332              		.cfi_def_cfa_offset 4
 2333              		.cfi_offset 4, -4
 2334              		.loc 1 1523 0
 2335 0002 1449     		ldr	r1, .L205
 2336              		.loc 1 1514 0
 2337 0004 83B0     		sub	sp, sp, #12
 2338              		.cfi_def_cfa_offset 16
 2339              		.loc 1 1524 0
 2340 0006 5323     		movs	r3, #83
 2341              		.loc 1 1515 0
 2342 0008 0024     		movs	r4, #0
 2343              		.loc 1 1523 0
 2344 000a CA22     		movs	r2, #202
 2345              		.loc 1 1515 0
 2346 000c 0194     		str	r4, [sp, #4]
 2347              	.LVL204:
 2348              		.loc 1 1523 0
 2349 000e 4A62     		str	r2, [r1, #36]
 2350              		.loc 1 1524 0
 2351 0010 4B62     		str	r3, [r1, #36]
 2352              		.loc 1 1529 0
 2353 0012 8B68     		ldr	r3, [r1, #8]
 2354              		.loc 1 1526 0
 2355 0014 C8B9     		cbnz	r0, .L203
 2356              		.loc 1 1535 0
 2357 0016 23F48063 		bic	r3, r3, #1024
 2358 001a 8B60     		str	r3, [r1, #8]
 2359 001c 00E0     		b	.L199
 2360              	.LVL205:
 2361              	.L204:
 2362              		.loc 1 1541 0 discriminator 1
 2363 001e 4AB9     		cbnz	r2, .L198
 2364              	.LVL206:
 2365              	.L199:
 2366              		.loc 1 1539 0 discriminator 1
 2367 0020 CA68     		ldr	r2, [r1, #12]
 2368              		.loc 1 1540 0 discriminator 1
 2369 0022 019B     		ldr	r3, [sp, #4]
 2370 0024 0133     		adds	r3, r3, #1
 2371 0026 0193     		str	r3, [sp, #4]
 2372              		.loc 1 1541 0 discriminator 1
 2373 0028 019B     		ldr	r3, [sp, #4]
 2374 002a B3F5005F 		cmp	r3, #8192
 2375              		.loc 1 1539 0 discriminator 1
 2376 002e 02F00402 		and	r2, r2, #4
 2377              	.LVL207:
 2378              		.loc 1 1541 0 discriminator 1
 2379 0032 F4D1     		bne	.L204
 2380              	.L198:
 2381              		.loc 1 1543 0
ARM GAS  /tmp/ccadBNMM.s 			page 43


 2382 0034 074B     		ldr	r3, .L205
 2383 0036 D868     		ldr	r0, [r3, #12]
 2384              	.LVL208:
 2385              		.loc 1 1530 0
 2386 0038 C0F38000 		ubfx	r0, r0, #2, #1
 2387              	.LVL209:
 2388              	.L197:
 2389              		.loc 1 1554 0
 2390 003c 054B     		ldr	r3, .L205
 2391 003e FF22     		movs	r2, #255
 2392 0040 5A62     		str	r2, [r3, #36]
 2393              		.loc 1 1557 0
 2394 0042 03B0     		add	sp, sp, #12
 2395              		@ sp needed
 2396 0044 5DF8044B 		ldr	r4, [sp], #4
 2397 0048 7047     		bx	lr
 2398              	.LVL210:
 2399              	.L203:
 2400              		.loc 1 1529 0
 2401 004a 43F48063 		orr	r3, r3, #1024
 2402 004e 8B60     		str	r3, [r1, #8]
 2403              	.LVL211:
 2404              		.loc 1 1530 0
 2405 0050 0120     		movs	r0, #1
 2406              	.LVL212:
 2407 0052 F3E7     		b	.L197
 2408              	.L206:
 2409              		.align	2
 2410              	.L205:
 2411 0054 00280040 		.word	1073752064
 2412              		.cfi_endproc
 2413              	.LFE136:
 2414              		.size	RTC_WakeUpCmd, .-RTC_WakeUpCmd
 2415 0058 AFF30080 		.section	.text.RTC_DayLightSavingConfig,"ax",%progbits
 2415      AFF30080 
 2416              		.align	2
 2417              		.p2align 4,,15
 2418              		.global	RTC_DayLightSavingConfig
 2419              		.thumb
 2420              		.thumb_func
 2421              		.type	RTC_DayLightSavingConfig, %function
 2422              	RTC_DayLightSavingConfig:
 2423              	.LFB137:
 2424              		.loc 1 1590 0
 2425              		.cfi_startproc
 2426              		@ args = 0, pretend = 0, frame = 0
 2427              		@ frame_needed = 0, uses_anonymous_args = 0
 2428              		@ link register save eliminated.
 2429              	.LVL213:
 2430              		.loc 1 1596 0
 2431 0000 094B     		ldr	r3, .L208
 2432              		.loc 1 1590 0
 2433 0002 10B4     		push	{r4}
 2434              		.cfi_def_cfa_offset 4
 2435              		.cfi_offset 4, -4
 2436              		.loc 1 1597 0
 2437 0004 5322     		movs	r2, #83
ARM GAS  /tmp/ccadBNMM.s 			page 44


 2438              		.loc 1 1596 0
 2439 0006 CA24     		movs	r4, #202
 2440 0008 5C62     		str	r4, [r3, #36]
 2441              		.loc 1 1597 0
 2442 000a 5A62     		str	r2, [r3, #36]
 2443              		.loc 1 1600 0
 2444 000c 9A68     		ldr	r2, [r3, #8]
 2445              		.loc 1 1607 0
 2446 000e 5DF8044B 		ldr	r4, [sp], #4
 2447              		.loc 1 1600 0
 2448 0012 22F48022 		bic	r2, r2, #262144
 2449 0016 9A60     		str	r2, [r3, #8]
 2450              		.loc 1 1603 0
 2451 0018 9A68     		ldr	r2, [r3, #8]
 2452 001a 1143     		orrs	r1, r1, r2
 2453              	.LVL214:
 2454 001c 0843     		orrs	r0, r0, r1
 2455              	.LVL215:
 2456              		.loc 1 1606 0
 2457 001e FF21     		movs	r1, #255
 2458              		.loc 1 1603 0
 2459 0020 9860     		str	r0, [r3, #8]
 2460              		.loc 1 1606 0
 2461 0022 5962     		str	r1, [r3, #36]
 2462              		.loc 1 1607 0
 2463 0024 7047     		bx	lr
 2464              	.L209:
 2465 0026 00BF     		.align	2
 2466              	.L208:
 2467 0028 00280040 		.word	1073752064
 2468              		.cfi_endproc
 2469              	.LFE137:
 2470              		.size	RTC_DayLightSavingConfig, .-RTC_DayLightSavingConfig
 2471 002c AFF30080 		.section	.text.RTC_GetStoreOperation,"ax",%progbits
 2472              		.align	2
 2473              		.p2align 4,,15
 2474              		.global	RTC_GetStoreOperation
 2475              		.thumb
 2476              		.thumb_func
 2477              		.type	RTC_GetStoreOperation, %function
 2478              	RTC_GetStoreOperation:
 2479              	.LFB138:
 2480              		.loc 1 1617 0
 2481              		.cfi_startproc
 2482              		@ args = 0, pretend = 0, frame = 0
 2483              		@ frame_needed = 0, uses_anonymous_args = 0
 2484              		@ link register save eliminated.
 2485              		.loc 1 1618 0
 2486 0000 024B     		ldr	r3, .L211
 2487 0002 9868     		ldr	r0, [r3, #8]
 2488              		.loc 1 1619 0
 2489 0004 00F48020 		and	r0, r0, #262144
 2490 0008 7047     		bx	lr
 2491              	.L212:
 2492 000a 00BF     		.align	2
 2493              	.L211:
 2494 000c 00280040 		.word	1073752064
ARM GAS  /tmp/ccadBNMM.s 			page 45


 2495              		.cfi_endproc
 2496              	.LFE138:
 2497              		.size	RTC_GetStoreOperation, .-RTC_GetStoreOperation
 2498              		.section	.text.RTC_OutputConfig,"ax",%progbits
 2499              		.align	2
 2500              		.p2align 4,,15
 2501              		.global	RTC_OutputConfig
 2502              		.thumb
 2503              		.thumb_func
 2504              		.type	RTC_OutputConfig, %function
 2505              	RTC_OutputConfig:
 2506              	.LFB139:
 2507              		.loc 1 1655 0
 2508              		.cfi_startproc
 2509              		@ args = 0, pretend = 0, frame = 0
 2510              		@ frame_needed = 0, uses_anonymous_args = 0
 2511              		@ link register save eliminated.
 2512              	.LVL216:
 2513              		.loc 1 1661 0
 2514 0000 094B     		ldr	r3, .L214
 2515              		.loc 1 1655 0
 2516 0002 10B4     		push	{r4}
 2517              		.cfi_def_cfa_offset 4
 2518              		.cfi_offset 4, -4
 2519              		.loc 1 1662 0
 2520 0004 5322     		movs	r2, #83
 2521              		.loc 1 1661 0
 2522 0006 CA24     		movs	r4, #202
 2523 0008 5C62     		str	r4, [r3, #36]
 2524              		.loc 1 1662 0
 2525 000a 5A62     		str	r2, [r3, #36]
 2526              		.loc 1 1665 0
 2527 000c 9A68     		ldr	r2, [r3, #8]
 2528              		.loc 1 1672 0
 2529 000e 5DF8044B 		ldr	r4, [sp], #4
 2530              		.loc 1 1665 0
 2531 0012 22F4E002 		bic	r2, r2, #7340032
 2532 0016 9A60     		str	r2, [r3, #8]
 2533              		.loc 1 1668 0
 2534 0018 9A68     		ldr	r2, [r3, #8]
 2535 001a 1143     		orrs	r1, r1, r2
 2536              	.LVL217:
 2537 001c 0843     		orrs	r0, r0, r1
 2538              	.LVL218:
 2539              		.loc 1 1671 0
 2540 001e FF21     		movs	r1, #255
 2541              		.loc 1 1668 0
 2542 0020 9860     		str	r0, [r3, #8]
 2543              		.loc 1 1671 0
 2544 0022 5962     		str	r1, [r3, #36]
 2545              		.loc 1 1672 0
 2546 0024 7047     		bx	lr
 2547              	.L215:
 2548 0026 00BF     		.align	2
 2549              	.L214:
 2550 0028 00280040 		.word	1073752064
 2551              		.cfi_endproc
ARM GAS  /tmp/ccadBNMM.s 			page 46


 2552              	.LFE139:
 2553              		.size	RTC_OutputConfig, .-RTC_OutputConfig
 2554 002c AFF30080 		.section	.text.RTC_CalibOutputCmd,"ax",%progbits
 2555              		.align	2
 2556              		.p2align 4,,15
 2557              		.global	RTC_CalibOutputCmd
 2558              		.thumb
 2559              		.thumb_func
 2560              		.type	RTC_CalibOutputCmd, %function
 2561              	RTC_CalibOutputCmd:
 2562              	.LFB140:
 2563              		.loc 1 1698 0
 2564              		.cfi_startproc
 2565              		@ args = 0, pretend = 0, frame = 0
 2566              		@ frame_needed = 0, uses_anonymous_args = 0
 2567              		@ link register save eliminated.
 2568              	.LVL219:
 2569              		.loc 1 1703 0
 2570 0000 0A4B     		ldr	r3, .L220
 2571              		.loc 1 1704 0
 2572 0002 5322     		movs	r2, #83
 2573              		.loc 1 1703 0
 2574 0004 CA21     		movs	r1, #202
 2575 0006 5962     		str	r1, [r3, #36]
 2576              		.loc 1 1704 0
 2577 0008 5A62     		str	r2, [r3, #36]
 2578              		.loc 1 1709 0
 2579 000a 9A68     		ldr	r2, [r3, #8]
 2580              		.loc 1 1706 0
 2581 000c 30B9     		cbnz	r0, .L219
 2582              		.loc 1 1714 0
 2583 000e 22F40002 		bic	r2, r2, #8388608
 2584 0012 9A60     		str	r2, [r3, #8]
 2585              		.loc 1 1718 0
 2586 0014 054B     		ldr	r3, .L220
 2587 0016 FF22     		movs	r2, #255
 2588 0018 5A62     		str	r2, [r3, #36]
 2589 001a 7047     		bx	lr
 2590              	.L219:
 2591              		.loc 1 1709 0
 2592 001c 42F40002 		orr	r2, r2, #8388608
 2593 0020 9A60     		str	r2, [r3, #8]
 2594              		.loc 1 1718 0
 2595 0022 024B     		ldr	r3, .L220
 2596 0024 FF22     		movs	r2, #255
 2597 0026 5A62     		str	r2, [r3, #36]
 2598 0028 7047     		bx	lr
 2599              	.L221:
 2600 002a 00BF     		.align	2
 2601              	.L220:
 2602 002c 00280040 		.word	1073752064
 2603              		.cfi_endproc
 2604              	.LFE140:
 2605              		.size	RTC_CalibOutputCmd, .-RTC_CalibOutputCmd
 2606              		.section	.text.RTC_CalibOutputConfig,"ax",%progbits
 2607              		.align	2
 2608              		.p2align 4,,15
ARM GAS  /tmp/ccadBNMM.s 			page 47


 2609              		.global	RTC_CalibOutputConfig
 2610              		.thumb
 2611              		.thumb_func
 2612              		.type	RTC_CalibOutputConfig, %function
 2613              	RTC_CalibOutputConfig:
 2614              	.LFB141:
 2615              		.loc 1 1730 0
 2616              		.cfi_startproc
 2617              		@ args = 0, pretend = 0, frame = 0
 2618              		@ frame_needed = 0, uses_anonymous_args = 0
 2619              		@ link register save eliminated.
 2620              	.LVL220:
 2621              		.loc 1 1735 0
 2622 0000 074B     		ldr	r3, .L223
 2623 0002 CA21     		movs	r1, #202
 2624              		.loc 1 1736 0
 2625 0004 5322     		movs	r2, #83
 2626              		.loc 1 1735 0
 2627 0006 5962     		str	r1, [r3, #36]
 2628              		.loc 1 1736 0
 2629 0008 5A62     		str	r2, [r3, #36]
 2630              		.loc 1 1739 0
 2631 000a 9A68     		ldr	r2, [r3, #8]
 2632 000c 22F40022 		bic	r2, r2, #524288
 2633 0010 9A60     		str	r2, [r3, #8]
 2634              		.loc 1 1742 0
 2635 0012 9968     		ldr	r1, [r3, #8]
 2636              		.loc 1 1745 0
 2637 0014 FF22     		movs	r2, #255
 2638              		.loc 1 1742 0
 2639 0016 0843     		orrs	r0, r0, r1
 2640              	.LVL221:
 2641 0018 9860     		str	r0, [r3, #8]
 2642              		.loc 1 1745 0
 2643 001a 5A62     		str	r2, [r3, #36]
 2644 001c 7047     		bx	lr
 2645              	.L224:
 2646 001e 00BF     		.align	2
 2647              	.L223:
 2648 0020 00280040 		.word	1073752064
 2649              		.cfi_endproc
 2650              	.LFE141:
 2651              		.size	RTC_CalibOutputConfig, .-RTC_CalibOutputConfig
 2652 0024 AFF30080 		.section	.text.RTC_SmoothCalibConfig,"ax",%progbits
 2652      AFF30080 
 2652      AFF30080 
 2653              		.align	2
 2654              		.p2align 4,,15
 2655              		.global	RTC_SmoothCalibConfig
 2656              		.thumb
 2657              		.thumb_func
 2658              		.type	RTC_SmoothCalibConfig, %function
 2659              	RTC_SmoothCalibConfig:
 2660              	.LFB142:
 2661              		.loc 1 1768 0
 2662              		.cfi_startproc
 2663              		@ args = 0, pretend = 0, frame = 0
ARM GAS  /tmp/ccadBNMM.s 			page 48


 2664              		@ frame_needed = 0, uses_anonymous_args = 0
 2665              		@ link register save eliminated.
 2666              	.LVL222:
 2667 0000 30B4     		push	{r4, r5}
 2668              		.cfi_def_cfa_offset 8
 2669              		.cfi_offset 4, -8
 2670              		.cfi_offset 5, -4
 2671              		.loc 1 1778 0
 2672 0002 114D     		ldr	r5, .L244
 2673 0004 CA24     		movs	r4, #202
 2674              		.loc 1 1779 0
 2675 0006 5323     		movs	r3, #83
 2676              		.loc 1 1778 0
 2677 0008 6C62     		str	r4, [r5, #36]
 2678              		.loc 1 1779 0
 2679 000a 6B62     		str	r3, [r5, #36]
 2680              		.loc 1 1782 0
 2681 000c EB68     		ldr	r3, [r5, #12]
 2682 000e DC03     		lsls	r4, r3, #15
 2683 0010 0AD5     		bpl	.L226
 2684              		.loc 1 1785 0 discriminator 1
 2685 0012 EB68     		ldr	r3, [r5, #12]
 2686 0014 DB03     		lsls	r3, r3, #15
 2687 0016 07D5     		bpl	.L226
 2688              		.loc 1 1785 0 is_stmt 0
 2689 0018 4FF48053 		mov	r3, #4096
 2690 001c 01E0     		b	.L227
 2691              	.LVL223:
 2692              	.L243:
 2693              		.loc 1 1785 0 discriminator 2
 2694 001e 013B     		subs	r3, r3, #1
 2695              	.LVL224:
 2696 0020 02D0     		beq	.L226
 2697              	.LVL225:
 2698              	.L227:
 2699              		.loc 1 1785 0
 2700 0022 EC68     		ldr	r4, [r5, #12]
 2701 0024 E403     		lsls	r4, r4, #15
 2702 0026 FAD4     		bmi	.L243
 2703              	.LVL226:
 2704              	.L226:
 2705              		.loc 1 1792 0 is_stmt 1
 2706 0028 074B     		ldr	r3, .L244
 2707 002a DC68     		ldr	r4, [r3, #12]
 2708 002c E403     		lsls	r4, r4, #15
 2709 002e 08D4     		bmi	.L229
 2710              		.loc 1 1795 0
 2711 0030 1143     		orrs	r1, r1, r2
 2712              	.LVL227:
 2713 0032 0843     		orrs	r0, r0, r1
 2714              	.LVL228:
 2715 0034 D863     		str	r0, [r3, #60]
 2716              	.LVL229:
 2717              		.loc 1 1797 0
 2718 0036 0120     		movs	r0, #1
 2719              	.LVL230:
 2720              	.L228:
ARM GAS  /tmp/ccadBNMM.s 			page 49


 2721              		.loc 1 1805 0
 2722 0038 034B     		ldr	r3, .L244
 2723 003a FF22     		movs	r2, #255
 2724              	.LVL231:
 2725 003c 5A62     		str	r2, [r3, #36]
 2726              		.loc 1 1808 0
 2727 003e 30BC     		pop	{r4, r5}
 2728 0040 7047     		bx	lr
 2729              	.LVL232:
 2730              	.L229:
 2731              		.loc 1 1801 0
 2732 0042 0020     		movs	r0, #0
 2733              	.LVL233:
 2734 0044 F8E7     		b	.L228
 2735              	.L245:
 2736 0046 00BF     		.align	2
 2737              	.L244:
 2738 0048 00280040 		.word	1073752064
 2739              		.cfi_endproc
 2740              	.LFE142:
 2741              		.size	RTC_SmoothCalibConfig, .-RTC_SmoothCalibConfig
 2742 004c AFF30080 		.section	.text.RTC_TimeStampCmd,"ax",%progbits
 2743              		.align	2
 2744              		.p2align 4,,15
 2745              		.global	RTC_TimeStampCmd
 2746              		.thumb
 2747              		.thumb_func
 2748              		.type	RTC_TimeStampCmd, %function
 2749              	RTC_TimeStampCmd:
 2750              	.LFB143:
 2751              		.loc 1 1842 0
 2752              		.cfi_startproc
 2753              		@ args = 0, pretend = 0, frame = 0
 2754              		@ frame_needed = 0, uses_anonymous_args = 0
 2755              		@ link register save eliminated.
 2756              	.LVL234:
 2757              		.loc 1 1850 0
 2758 0000 0B4B     		ldr	r3, .L250
 2759 0002 9B68     		ldr	r3, [r3, #8]
 2760 0004 23F40063 		bic	r3, r3, #2048
 2761              		.loc 1 1842 0
 2762 0008 10B4     		push	{r4}
 2763              		.cfi_def_cfa_offset 4
 2764              		.cfi_offset 4, -4
 2765              		.loc 1 1850 0
 2766 000a 23F00803 		bic	r3, r3, #8
 2767              	.LVL235:
 2768              		.loc 1 1853 0
 2769 000e 59B9     		cbnz	r1, .L249
 2770              		.loc 1 1859 0
 2771 0010 1843     		orrs	r0, r0, r3
 2772              	.LVL236:
 2773              	.L248:
 2774              		.loc 1 1863 0
 2775 0012 074B     		ldr	r3, .L250
 2776 0014 CA24     		movs	r4, #202
 2777              		.loc 1 1864 0
ARM GAS  /tmp/ccadBNMM.s 			page 50


 2778 0016 5321     		movs	r1, #83
 2779              	.LVL237:
 2780              		.loc 1 1870 0
 2781 0018 FF22     		movs	r2, #255
 2782              		.loc 1 1863 0
 2783 001a 5C62     		str	r4, [r3, #36]
 2784              		.loc 1 1864 0
 2785 001c 5962     		str	r1, [r3, #36]
 2786              		.loc 1 1871 0
 2787 001e 5DF8044B 		ldr	r4, [sp], #4
 2788              		.loc 1 1867 0
 2789 0022 9860     		str	r0, [r3, #8]
 2790              		.loc 1 1870 0
 2791 0024 5A62     		str	r2, [r3, #36]
 2792              		.loc 1 1871 0
 2793 0026 7047     		bx	lr
 2794              	.LVL238:
 2795              	.L249:
 2796              		.loc 1 1855 0
 2797 0028 43F40063 		orr	r3, r3, #2048
 2798              	.LVL239:
 2799 002c 1843     		orrs	r0, r0, r3
 2800              	.LVL240:
 2801 002e F0E7     		b	.L248
 2802              	.L251:
 2803              		.align	2
 2804              	.L250:
 2805 0030 00280040 		.word	1073752064
 2806              		.cfi_endproc
 2807              	.LFE143:
 2808              		.size	RTC_TimeStampCmd, .-RTC_TimeStampCmd
 2809 0034 AFF30080 		.section	.text.RTC_GetTimeStamp,"ax",%progbits
 2809      AFF30080 
 2809      AFF30080 
 2810              		.align	2
 2811              		.p2align 4,,15
 2812              		.global	RTC_GetTimeStamp
 2813              		.thumb
 2814              		.thumb_func
 2815              		.type	RTC_GetTimeStamp, %function
 2816              	RTC_GetTimeStamp:
 2817              	.LFB144:
 2818              		.loc 1 1887 0
 2819              		.cfi_startproc
 2820              		@ args = 0, pretend = 0, frame = 0
 2821              		@ frame_needed = 0, uses_anonymous_args = 0
 2822              		@ link register save eliminated.
 2823              	.LVL241:
 2824 0000 2DE9F003 		push	{r4, r5, r6, r7, r8, r9}
 2825              		.cfi_def_cfa_offset 24
 2826              		.cfi_offset 4, -24
 2827              		.cfi_offset 5, -20
 2828              		.cfi_offset 6, -16
 2829              		.cfi_offset 7, -12
 2830              		.cfi_offset 8, -8
 2831              		.cfi_offset 9, -4
 2832              		.loc 1 1894 0
ARM GAS  /tmp/ccadBNMM.s 			page 51


 2833 0004 2C4C     		ldr	r4, .L254
 2834 0006 236B     		ldr	r3, [r4, #48]
 2835              	.LVL242:
 2836              		.loc 1 1895 0
 2837 0008 646B     		ldr	r4, [r4, #52]
 2838              	.LVL243:
 2839              		.loc 1 1901 0
 2840 000a 03F4800C 		and	ip, r3, #4194304
 2841              		.loc 1 1898 0
 2842 000e C3F30549 		ubfx	r9, r3, #16, #6
 2843              		.loc 1 1899 0
 2844 0012 C3F30628 		ubfx	r8, r3, #8, #7
 2845              		.loc 1 1905 0
 2846 0016 C4F30426 		ubfx	r6, r4, #8, #5
 2847              		.loc 1 1906 0
 2848 001a 04F03F05 		and	r5, r4, #63
 2849              		.loc 1 1900 0
 2850 001e 03F07F03 		and	r3, r3, #127
 2851              	.LVL244:
 2852              		.loc 1 1901 0
 2853 0022 4FEA1C4C 		lsr	ip, ip, #16
 2854              		.loc 1 1904 0
 2855 0026 0027     		movs	r7, #0
 2856              		.loc 1 1907 0
 2857 0028 C4F34234 		ubfx	r4, r4, #13, #3
 2858              	.LVL245:
 2859              		.loc 1 1898 0
 2860 002c 81F80090 		strb	r9, [r1]
 2861              		.loc 1 1899 0
 2862 0030 81F80180 		strb	r8, [r1, #1]
 2863              		.loc 1 1900 0
 2864 0034 8B70     		strb	r3, [r1, #2]
 2865              		.loc 1 1901 0
 2866 0036 81F803C0 		strb	ip, [r1, #3]
 2867              		.loc 1 1904 0
 2868 003a D770     		strb	r7, [r2, #3]
 2869              		.loc 1 1905 0
 2870 003c 5670     		strb	r6, [r2, #1]
 2871              		.loc 1 1906 0
 2872 003e 9570     		strb	r5, [r2, #2]
 2873              		.loc 1 1907 0
 2874 0040 1470     		strb	r4, [r2]
 2875              		.loc 1 1910 0
 2876 0042 A8BB     		cbnz	r0, .L252
 2877              		.loc 1 1913 0
 2878 0044 0E78     		ldrb	r6, [r1]	@ zero_extendqisi2
 2879              	.LVL246:
 2880              		.loc 1 1914 0
 2881 0046 4C78     		ldrb	r4, [r1, #1]	@ zero_extendqisi2
 2882              	.LVL247:
 2883              		.loc 1 1915 0
 2884 0048 8B78     		ldrb	r3, [r1, #2]	@ zero_extendqisi2
 2885              	.LVL248:
 2886              	.LBB192:
 2887              	.LBB193:
 2888              		.loc 1 2580 0
 2889 004a 3709     		lsrs	r7, r6, #4
ARM GAS  /tmp/ccadBNMM.s 			page 52


 2890              	.LBE193:
 2891              	.LBE192:
 2892              	.LBB197:
 2893              	.LBB198:
 2894 004c 2509     		lsrs	r5, r4, #4
 2895              	.LBE198:
 2896              	.LBE197:
 2897              	.LBB202:
 2898              	.LBB203:
 2899 004e 1809     		lsrs	r0, r3, #4
 2900              	.LVL249:
 2901              	.LBE203:
 2902              	.LBE202:
 2903              	.LBB207:
 2904              	.LBB194:
 2905              		.loc 1 2581 0
 2906 0050 06F00F06 		and	r6, r6, #15
 2907              	.LVL250:
 2908              	.LBE194:
 2909              	.LBE207:
 2910              	.LBB208:
 2911              	.LBB199:
 2912 0054 04F00F04 		and	r4, r4, #15
 2913              	.LVL251:
 2914              	.LBE199:
 2915              	.LBE208:
 2916              	.LBB209:
 2917              	.LBB204:
 2918 0058 03F00F03 		and	r3, r3, #15
 2919              	.LVL252:
 2920              	.LBE204:
 2921              	.LBE209:
 2922              	.LBB210:
 2923              	.LBB195:
 2924              		.loc 1 2580 0
 2925 005c 07EB8707 		add	r7, r7, r7, lsl #2
 2926              	.LBE195:
 2927              	.LBE210:
 2928              	.LBB211:
 2929              	.LBB200:
 2930 0060 05EB8505 		add	r5, r5, r5, lsl #2
 2931              	.LBE200:
 2932              	.LBE211:
 2933              	.LBB212:
 2934              	.LBB205:
 2935 0064 00EB8000 		add	r0, r0, r0, lsl #2
 2936              	.LBE205:
 2937              	.LBE212:
 2938              	.LBB213:
 2939              	.LBB201:
 2940              		.loc 1 2581 0
 2941 0068 04EB4505 		add	r5, r4, r5, lsl #1
 2942              	.LBE201:
 2943              	.LBE213:
 2944              	.LBB214:
 2945              	.LBB206:
 2946 006c 03EB4000 		add	r0, r3, r0, lsl #1
ARM GAS  /tmp/ccadBNMM.s 			page 53


 2947              	.LBE206:
 2948              	.LBE214:
 2949              	.LBB215:
 2950              	.LBB196:
 2951 0070 06EB4707 		add	r7, r6, r7, lsl #1
 2952              	.LBE196:
 2953              	.LBE215:
 2954              		.loc 1 1913 0
 2955 0074 0F70     		strb	r7, [r1]
 2956              	.LVL253:
 2957              		.loc 1 1914 0
 2958 0076 4D70     		strb	r5, [r1, #1]
 2959              	.LVL254:
 2960              		.loc 1 1915 0
 2961 0078 8870     		strb	r0, [r1, #2]
 2962              	.LVL255:
 2963              		.loc 1 1918 0
 2964 007a 5578     		ldrb	r5, [r2, #1]	@ zero_extendqisi2
 2965              	.LVL256:
 2966              		.loc 1 1919 0
 2967 007c 9078     		ldrb	r0, [r2, #2]	@ zero_extendqisi2
 2968              	.LVL257:
 2969              		.loc 1 1920 0
 2970 007e 1378     		ldrb	r3, [r2]	@ zero_extendqisi2
 2971              	.LVL258:
 2972              	.LBB216:
 2973              	.LBB217:
 2974              		.loc 1 2580 0
 2975 0080 2E09     		lsrs	r6, r5, #4
 2976              	.LBE217:
 2977              	.LBE216:
 2978              	.LBB220:
 2979              	.LBB221:
 2980 0082 0409     		lsrs	r4, r0, #4
 2981              	.LBE221:
 2982              	.LBE220:
 2983              	.LBB224:
 2984              	.LBB225:
 2985 0084 1909     		lsrs	r1, r3, #4
 2986              	.LVL259:
 2987              	.LBE225:
 2988              	.LBE224:
 2989              	.LBB228:
 2990              	.LBB218:
 2991 0086 06EB8606 		add	r6, r6, r6, lsl #2
 2992              		.loc 1 2581 0
 2993 008a 05F00F05 		and	r5, r5, #15
 2994              	.LVL260:
 2995              	.LBE218:
 2996              	.LBE228:
 2997              	.LBB229:
 2998              	.LBB222:
 2999              		.loc 1 2580 0
 3000 008e 04EB8404 		add	r4, r4, r4, lsl #2
 3001              		.loc 1 2581 0
 3002 0092 00F00F00 		and	r0, r0, #15
 3003              	.LVL261:
ARM GAS  /tmp/ccadBNMM.s 			page 54


 3004              	.LBE222:
 3005              	.LBE229:
 3006              	.LBB230:
 3007              	.LBB226:
 3008              		.loc 1 2580 0
 3009 0096 01EB8101 		add	r1, r1, r1, lsl #2
 3010              		.loc 1 2581 0
 3011 009a 03F00F03 		and	r3, r3, #15
 3012              	.LVL262:
 3013              	.LBE226:
 3014              	.LBE230:
 3015              	.LBB231:
 3016              	.LBB219:
 3017 009e 05EB4606 		add	r6, r5, r6, lsl #1
 3018              	.LBE219:
 3019              	.LBE231:
 3020              	.LBB232:
 3021              	.LBB223:
 3022 00a2 00EB4404 		add	r4, r0, r4, lsl #1
 3023              	.LBE223:
 3024              	.LBE232:
 3025              	.LBB233:
 3026              	.LBB227:
 3027 00a6 03EB4101 		add	r1, r3, r1, lsl #1
 3028              	.LBE227:
 3029              	.LBE233:
 3030              		.loc 1 1918 0
 3031 00aa 5670     		strb	r6, [r2, #1]
 3032              	.LVL263:
 3033              		.loc 1 1919 0
 3034 00ac 9470     		strb	r4, [r2, #2]
 3035              	.LVL264:
 3036              		.loc 1 1920 0
 3037 00ae 1170     		strb	r1, [r2]
 3038              	.LVL265:
 3039              	.L252:
 3040              		.loc 1 1922 0
 3041 00b0 BDE8F003 		pop	{r4, r5, r6, r7, r8, r9}
 3042 00b4 7047     		bx	lr
 3043              	.L255:
 3044 00b6 00BF     		.align	2
 3045              	.L254:
 3046 00b8 00280040 		.word	1073752064
 3047              		.cfi_endproc
 3048              	.LFE144:
 3049              		.size	RTC_GetTimeStamp, .-RTC_GetTimeStamp
 3050 00bc AFF30080 		.section	.text.RTC_GetTimeStampSubSecond,"ax",%progbits
 3051              		.align	2
 3052              		.p2align 4,,15
 3053              		.global	RTC_GetTimeStampSubSecond
 3054              		.thumb
 3055              		.thumb_func
 3056              		.type	RTC_GetTimeStampSubSecond, %function
 3057              	RTC_GetTimeStampSubSecond:
 3058              	.LFB145:
 3059              		.loc 1 1930 0
 3060              		.cfi_startproc
ARM GAS  /tmp/ccadBNMM.s 			page 55


 3061              		@ args = 0, pretend = 0, frame = 0
 3062              		@ frame_needed = 0, uses_anonymous_args = 0
 3063              		@ link register save eliminated.
 3064              		.loc 1 1932 0
 3065 0000 014B     		ldr	r3, .L257
 3066 0002 986B     		ldr	r0, [r3, #56]
 3067              		.loc 1 1933 0
 3068 0004 7047     		bx	lr
 3069              	.L258:
 3070 0006 00BF     		.align	2
 3071              	.L257:
 3072 0008 00280040 		.word	1073752064
 3073              		.cfi_endproc
 3074              	.LFE145:
 3075              		.size	RTC_GetTimeStampSubSecond, .-RTC_GetTimeStampSubSecond
 3076 000c AFF30080 		.section	.text.RTC_TamperTriggerConfig,"ax",%progbits
 3077              		.align	2
 3078              		.p2align 4,,15
 3079              		.global	RTC_TamperTriggerConfig
 3080              		.thumb
 3081              		.thumb_func
 3082              		.type	RTC_TamperTriggerConfig, %function
 3083              	RTC_TamperTriggerConfig:
 3084              	.LFB146:
 3085              		.loc 1 1968 0
 3086              		.cfi_startproc
 3087              		@ args = 0, pretend = 0, frame = 0
 3088              		@ frame_needed = 0, uses_anonymous_args = 0
 3089              		@ link register save eliminated.
 3090              	.LVL266:
 3091              		.loc 1 1977 0
 3092 0000 054B     		ldr	r3, .L263
 3093 0002 1A6C     		ldr	r2, [r3, #64]
 3094              		.loc 1 1974 0
 3095 0004 19B1     		cbz	r1, .L262
 3096              		.loc 1 1982 0
 3097 0006 42EA4000 		orr	r0, r2, r0, lsl #1
 3098              	.LVL267:
 3099 000a 1864     		str	r0, [r3, #64]
 3100 000c 7047     		bx	lr
 3101              	.LVL268:
 3102              	.L262:
 3103              		.loc 1 1977 0
 3104 000e 22EA4000 		bic	r0, r2, r0, lsl #1
 3105              	.LVL269:
 3106 0012 1864     		str	r0, [r3, #64]
 3107 0014 7047     		bx	lr
 3108              	.L264:
 3109 0016 00BF     		.align	2
 3110              	.L263:
 3111 0018 00280040 		.word	1073752064
 3112              		.cfi_endproc
 3113              	.LFE146:
 3114              		.size	RTC_TamperTriggerConfig, .-RTC_TamperTriggerConfig
 3115 001c AFF30080 		.section	.text.RTC_TamperCmd,"ax",%progbits
 3116              		.align	2
 3117              		.p2align 4,,15
ARM GAS  /tmp/ccadBNMM.s 			page 56


 3118              		.global	RTC_TamperCmd
 3119              		.thumb
 3120              		.thumb_func
 3121              		.type	RTC_TamperCmd, %function
 3122              	RTC_TamperCmd:
 3123              	.LFB147:
 3124              		.loc 1 1998 0
 3125              		.cfi_startproc
 3126              		@ args = 0, pretend = 0, frame = 0
 3127              		@ frame_needed = 0, uses_anonymous_args = 0
 3128              		@ link register save eliminated.
 3129              	.LVL270:
 3130              		.loc 1 2006 0
 3131 0000 044B     		ldr	r3, .L269
 3132 0002 1A6C     		ldr	r2, [r3, #64]
 3133              		.loc 1 2003 0
 3134 0004 19B9     		cbnz	r1, .L268
 3135              		.loc 1 2011 0
 3136 0006 22EA0000 		bic	r0, r2, r0
 3137              	.LVL271:
 3138 000a 1864     		str	r0, [r3, #64]
 3139 000c 7047     		bx	lr
 3140              	.LVL272:
 3141              	.L268:
 3142              		.loc 1 2006 0
 3143 000e 1043     		orrs	r0, r0, r2
 3144              	.LVL273:
 3145 0010 1864     		str	r0, [r3, #64]
 3146 0012 7047     		bx	lr
 3147              	.L270:
 3148              		.align	2
 3149              	.L269:
 3150 0014 00280040 		.word	1073752064
 3151              		.cfi_endproc
 3152              	.LFE147:
 3153              		.size	RTC_TamperCmd, .-RTC_TamperCmd
 3154 0018 AFF30080 		.section	.text.RTC_TamperFilterConfig,"ax",%progbits
 3154      AFF30080 
 3155              		.align	2
 3156              		.p2align 4,,15
 3157              		.global	RTC_TamperFilterConfig
 3158              		.thumb
 3159              		.thumb_func
 3160              		.type	RTC_TamperFilterConfig, %function
 3161              	RTC_TamperFilterConfig:
 3162              	.LFB148:
 3163              		.loc 1 2029 0
 3164              		.cfi_startproc
 3165              		@ args = 0, pretend = 0, frame = 0
 3166              		@ frame_needed = 0, uses_anonymous_args = 0
 3167              		@ link register save eliminated.
 3168              	.LVL274:
 3169              		.loc 1 2034 0
 3170 0000 044B     		ldr	r3, .L272
 3171 0002 1A6C     		ldr	r2, [r3, #64]
 3172 0004 22F4C052 		bic	r2, r2, #6144
 3173 0008 1A64     		str	r2, [r3, #64]
ARM GAS  /tmp/ccadBNMM.s 			page 57


 3174              		.loc 1 2037 0
 3175 000a 1A6C     		ldr	r2, [r3, #64]
 3176 000c 1043     		orrs	r0, r0, r2
 3177              	.LVL275:
 3178 000e 1864     		str	r0, [r3, #64]
 3179 0010 7047     		bx	lr
 3180              	.L273:
 3181 0012 00BF     		.align	2
 3182              	.L272:
 3183 0014 00280040 		.word	1073752064
 3184              		.cfi_endproc
 3185              	.LFE148:
 3186              		.size	RTC_TamperFilterConfig, .-RTC_TamperFilterConfig
 3187 0018 AFF30080 		.section	.text.RTC_TamperSamplingFreqConfig,"ax",%progbits
 3187      AFF30080 
 3188              		.align	2
 3189              		.p2align 4,,15
 3190              		.global	RTC_TamperSamplingFreqConfig
 3191              		.thumb
 3192              		.thumb_func
 3193              		.type	RTC_TamperSamplingFreqConfig, %function
 3194              	RTC_TamperSamplingFreqConfig:
 3195              	.LFB149:
 3196              		.loc 1 2063 0
 3197              		.cfi_startproc
 3198              		@ args = 0, pretend = 0, frame = 0
 3199              		@ frame_needed = 0, uses_anonymous_args = 0
 3200              		@ link register save eliminated.
 3201              	.LVL276:
 3202              		.loc 1 2068 0
 3203 0000 044B     		ldr	r3, .L275
 3204 0002 1A6C     		ldr	r2, [r3, #64]
 3205 0004 22F4E062 		bic	r2, r2, #1792
 3206 0008 1A64     		str	r2, [r3, #64]
 3207              		.loc 1 2071 0
 3208 000a 1A6C     		ldr	r2, [r3, #64]
 3209 000c 1043     		orrs	r0, r0, r2
 3210              	.LVL277:
 3211 000e 1864     		str	r0, [r3, #64]
 3212 0010 7047     		bx	lr
 3213              	.L276:
 3214 0012 00BF     		.align	2
 3215              	.L275:
 3216 0014 00280040 		.word	1073752064
 3217              		.cfi_endproc
 3218              	.LFE149:
 3219              		.size	RTC_TamperSamplingFreqConfig, .-RTC_TamperSamplingFreqConfig
 3220 0018 AFF30080 		.section	.text.RTC_TamperPinsPrechargeDuration,"ax",%progbits
 3220      AFF30080 
 3221              		.align	2
 3222              		.p2align 4,,15
 3223              		.global	RTC_TamperPinsPrechargeDuration
 3224              		.thumb
 3225              		.thumb_func
 3226              		.type	RTC_TamperPinsPrechargeDuration, %function
 3227              	RTC_TamperPinsPrechargeDuration:
 3228              	.LFB150:
ARM GAS  /tmp/ccadBNMM.s 			page 58


 3229              		.loc 1 2086 0
 3230              		.cfi_startproc
 3231              		@ args = 0, pretend = 0, frame = 0
 3232              		@ frame_needed = 0, uses_anonymous_args = 0
 3233              		@ link register save eliminated.
 3234              	.LVL278:
 3235              		.loc 1 2091 0
 3236 0000 044B     		ldr	r3, .L278
 3237 0002 1A6C     		ldr	r2, [r3, #64]
 3238 0004 22F4C042 		bic	r2, r2, #24576
 3239 0008 1A64     		str	r2, [r3, #64]
 3240              		.loc 1 2094 0
 3241 000a 1A6C     		ldr	r2, [r3, #64]
 3242 000c 1043     		orrs	r0, r0, r2
 3243              	.LVL279:
 3244 000e 1864     		str	r0, [r3, #64]
 3245 0010 7047     		bx	lr
 3246              	.L279:
 3247 0012 00BF     		.align	2
 3248              	.L278:
 3249 0014 00280040 		.word	1073752064
 3250              		.cfi_endproc
 3251              	.LFE150:
 3252              		.size	RTC_TamperPinsPrechargeDuration, .-RTC_TamperPinsPrechargeDuration
 3253 0018 AFF30080 		.section	.text.RTC_TimeStampOnTamperDetectionCmd,"ax",%progbits
 3253      AFF30080 
 3254              		.align	2
 3255              		.p2align 4,,15
 3256              		.global	RTC_TimeStampOnTamperDetectionCmd
 3257              		.thumb
 3258              		.thumb_func
 3259              		.type	RTC_TimeStampOnTamperDetectionCmd, %function
 3260              	RTC_TimeStampOnTamperDetectionCmd:
 3261              	.LFB151:
 3262              		.loc 1 2106 0
 3263              		.cfi_startproc
 3264              		@ args = 0, pretend = 0, frame = 0
 3265              		@ frame_needed = 0, uses_anonymous_args = 0
 3266              		@ link register save eliminated.
 3267              	.LVL280:
 3268              		.loc 1 2113 0
 3269 0000 054B     		ldr	r3, .L284
 3270 0002 1A6C     		ldr	r2, [r3, #64]
 3271              		.loc 1 2110 0
 3272 0004 18B9     		cbnz	r0, .L283
 3273              		.loc 1 2118 0
 3274 0006 22F08002 		bic	r2, r2, #128
 3275 000a 1A64     		str	r2, [r3, #64]
 3276 000c 7047     		bx	lr
 3277              	.L283:
 3278              		.loc 1 2113 0
 3279 000e 42F08002 		orr	r2, r2, #128
 3280 0012 1A64     		str	r2, [r3, #64]
 3281 0014 7047     		bx	lr
 3282              	.L285:
 3283 0016 00BF     		.align	2
 3284              	.L284:
ARM GAS  /tmp/ccadBNMM.s 			page 59


 3285 0018 00280040 		.word	1073752064
 3286              		.cfi_endproc
 3287              	.LFE151:
 3288              		.size	RTC_TimeStampOnTamperDetectionCmd, .-RTC_TimeStampOnTamperDetectionCmd
 3289 001c AFF30080 		.section	.text.RTC_TamperPullUpCmd,"ax",%progbits
 3290              		.align	2
 3291              		.p2align 4,,15
 3292              		.global	RTC_TamperPullUpCmd
 3293              		.thumb
 3294              		.thumb_func
 3295              		.type	RTC_TamperPullUpCmd, %function
 3296              	RTC_TamperPullUpCmd:
 3297              	.LFB152:
 3298              		.loc 1 2129 0
 3299              		.cfi_startproc
 3300              		@ args = 0, pretend = 0, frame = 0
 3301              		@ frame_needed = 0, uses_anonymous_args = 0
 3302              		@ link register save eliminated.
 3303              	.LVL281:
 3304              		.loc 1 2136 0
 3305 0000 054B     		ldr	r3, .L290
 3306 0002 1A6C     		ldr	r2, [r3, #64]
 3307              		.loc 1 2133 0
 3308 0004 18B9     		cbnz	r0, .L289
 3309              		.loc 1 2141 0
 3310 0006 42F40042 		orr	r2, r2, #32768
 3311 000a 1A64     		str	r2, [r3, #64]
 3312 000c 7047     		bx	lr
 3313              	.L289:
 3314              		.loc 1 2136 0
 3315 000e 22F40042 		bic	r2, r2, #32768
 3316 0012 1A64     		str	r2, [r3, #64]
 3317 0014 7047     		bx	lr
 3318              	.L291:
 3319 0016 00BF     		.align	2
 3320              	.L290:
 3321 0018 00280040 		.word	1073752064
 3322              		.cfi_endproc
 3323              	.LFE152:
 3324              		.size	RTC_TamperPullUpCmd, .-RTC_TamperPullUpCmd
 3325 001c AFF30080 		.section	.text.RTC_WriteBackupRegister,"ax",%progbits
 3326              		.align	2
 3327              		.p2align 4,,15
 3328              		.global	RTC_WriteBackupRegister
 3329              		.thumb
 3330              		.thumb_func
 3331              		.type	RTC_WriteBackupRegister, %function
 3332              	RTC_WriteBackupRegister:
 3333              	.LFB153:
 3334              		.loc 1 2170 0
 3335              		.cfi_startproc
 3336              		@ args = 0, pretend = 0, frame = 8
 3337              		@ frame_needed = 0, uses_anonymous_args = 0
 3338              		@ link register save eliminated.
 3339              	.LVL282:
 3340 0000 82B0     		sub	sp, sp, #8
 3341              		.cfi_def_cfa_offset 8
ARM GAS  /tmp/ccadBNMM.s 			page 60


 3342              		.loc 1 2171 0
 3343 0002 0022     		movs	r2, #0
 3344              		.loc 1 2176 0
 3345 0004 054B     		ldr	r3, .L293
 3346              		.loc 1 2171 0
 3347 0006 0192     		str	r2, [sp, #4]
 3348              		.loc 1 2176 0
 3349 0008 0193     		str	r3, [sp, #4]
 3350              		.loc 1 2177 0
 3351 000a 019B     		ldr	r3, [sp, #4]
 3352 000c 03EB8000 		add	r0, r3, r0, lsl #2
 3353              	.LVL283:
 3354 0010 0190     		str	r0, [sp, #4]
 3355              		.loc 1 2180 0
 3356 0012 019B     		ldr	r3, [sp, #4]
 3357 0014 1960     		str	r1, [r3]
 3358              		.loc 1 2181 0
 3359 0016 02B0     		add	sp, sp, #8
 3360              		@ sp needed
 3361 0018 7047     		bx	lr
 3362              	.L294:
 3363 001a 00BF     		.align	2
 3364              	.L293:
 3365 001c 50280040 		.word	1073752144
 3366              		.cfi_endproc
 3367              	.LFE153:
 3368              		.size	RTC_WriteBackupRegister, .-RTC_WriteBackupRegister
 3369              		.section	.text.RTC_ReadBackupRegister,"ax",%progbits
 3370              		.align	2
 3371              		.p2align 4,,15
 3372              		.global	RTC_ReadBackupRegister
 3373              		.thumb
 3374              		.thumb_func
 3375              		.type	RTC_ReadBackupRegister, %function
 3376              	RTC_ReadBackupRegister:
 3377              	.LFB154:
 3378              		.loc 1 2191 0
 3379              		.cfi_startproc
 3380              		@ args = 0, pretend = 0, frame = 8
 3381              		@ frame_needed = 0, uses_anonymous_args = 0
 3382              		@ link register save eliminated.
 3383              	.LVL284:
 3384 0000 82B0     		sub	sp, sp, #8
 3385              		.cfi_def_cfa_offset 8
 3386              		.loc 1 2192 0
 3387 0002 0022     		movs	r2, #0
 3388              		.loc 1 2197 0
 3389 0004 054B     		ldr	r3, .L296
 3390              		.loc 1 2192 0
 3391 0006 0192     		str	r2, [sp, #4]
 3392              		.loc 1 2197 0
 3393 0008 0193     		str	r3, [sp, #4]
 3394              		.loc 1 2198 0
 3395 000a 019B     		ldr	r3, [sp, #4]
 3396 000c 03EB8000 		add	r0, r3, r0, lsl #2
 3397              	.LVL285:
 3398 0010 0190     		str	r0, [sp, #4]
ARM GAS  /tmp/ccadBNMM.s 			page 61


 3399              		.loc 1 2201 0
 3400 0012 019B     		ldr	r3, [sp, #4]
 3401 0014 1868     		ldr	r0, [r3]
 3402              		.loc 1 2202 0
 3403 0016 02B0     		add	sp, sp, #8
 3404              		@ sp needed
 3405 0018 7047     		bx	lr
 3406              	.L297:
 3407 001a 00BF     		.align	2
 3408              	.L296:
 3409 001c 50280040 		.word	1073752144
 3410              		.cfi_endproc
 3411              	.LFE154:
 3412              		.size	RTC_ReadBackupRegister, .-RTC_ReadBackupRegister
 3413              		.section	.text.RTC_OutputTypeConfig,"ax",%progbits
 3414              		.align	2
 3415              		.p2align 4,,15
 3416              		.global	RTC_OutputTypeConfig
 3417              		.thumb
 3418              		.thumb_func
 3419              		.type	RTC_OutputTypeConfig, %function
 3420              	RTC_OutputTypeConfig:
 3421              	.LFB155:
 3422              		.loc 1 2231 0
 3423              		.cfi_startproc
 3424              		@ args = 0, pretend = 0, frame = 0
 3425              		@ frame_needed = 0, uses_anonymous_args = 0
 3426              		@ link register save eliminated.
 3427              	.LVL286:
 3428              		.loc 1 2235 0
 3429 0000 044B     		ldr	r3, .L299
 3430 0002 1A6C     		ldr	r2, [r3, #64]
 3431 0004 22F48022 		bic	r2, r2, #262144
 3432 0008 1A64     		str	r2, [r3, #64]
 3433              		.loc 1 2236 0
 3434 000a 1A6C     		ldr	r2, [r3, #64]
 3435 000c 1043     		orrs	r0, r0, r2
 3436              	.LVL287:
 3437 000e 1864     		str	r0, [r3, #64]
 3438 0010 7047     		bx	lr
 3439              	.L300:
 3440 0012 00BF     		.align	2
 3441              	.L299:
 3442 0014 00280040 		.word	1073752064
 3443              		.cfi_endproc
 3444              	.LFE155:
 3445              		.size	RTC_OutputTypeConfig, .-RTC_OutputTypeConfig
 3446 0018 AFF30080 		.section	.text.RTC_SynchroShiftConfig,"ax",%progbits
 3446      AFF30080 
 3447              		.align	2
 3448              		.p2align 4,,15
 3449              		.global	RTC_SynchroShiftConfig
 3450              		.thumb
 3451              		.thumb_func
 3452              		.type	RTC_SynchroShiftConfig, %function
 3453              	RTC_SynchroShiftConfig:
 3454              	.LFB156:
ARM GAS  /tmp/ccadBNMM.s 			page 62


 3455              		.loc 1 2269 0
 3456              		.cfi_startproc
 3457              		@ args = 0, pretend = 0, frame = 0
 3458              		@ frame_needed = 0, uses_anonymous_args = 0
 3459              	.LVL288:
 3460 0000 10B5     		push	{r4, lr}
 3461              		.cfi_def_cfa_offset 8
 3462              		.cfi_offset 4, -8
 3463              		.cfi_offset 14, -4
 3464              		.loc 1 2278 0
 3465 0002 184C     		ldr	r4, .L322
 3466 0004 CA22     		movs	r2, #202
 3467              		.loc 1 2279 0
 3468 0006 5323     		movs	r3, #83
 3469              		.loc 1 2278 0
 3470 0008 6262     		str	r2, [r4, #36]
 3471              		.loc 1 2279 0
 3472 000a 6362     		str	r3, [r4, #36]
 3473              		.loc 1 2282 0
 3474 000c E368     		ldr	r3, [r4, #12]
 3475 000e 1A07     		lsls	r2, r3, #28
 3476 0010 0AD5     		bpl	.L302
 3477              		.loc 1 2285 0 discriminator 1
 3478 0012 E368     		ldr	r3, [r4, #12]
 3479 0014 1B07     		lsls	r3, r3, #28
 3480 0016 07D5     		bpl	.L302
 3481              		.loc 1 2285 0 is_stmt 0
 3482 0018 4FF40053 		mov	r3, #8192
 3483 001c 01E0     		b	.L303
 3484              	.LVL289:
 3485              	.L320:
 3486              		.loc 1 2285 0 discriminator 2
 3487 001e 013B     		subs	r3, r3, #1
 3488              	.LVL290:
 3489 0020 02D0     		beq	.L302
 3490              	.LVL291:
 3491              	.L303:
 3492              		.loc 1 2285 0
 3493 0022 E268     		ldr	r2, [r4, #12]
 3494 0024 1207     		lsls	r2, r2, #28
 3495 0026 FAD4     		bmi	.L320
 3496              	.LVL292:
 3497              	.L302:
 3498              		.loc 1 2292 0 is_stmt 1
 3499 0028 0E4A     		ldr	r2, .L322
 3500 002a D368     		ldr	r3, [r2, #12]
 3501 002c 13F00803 		ands	r3, r3, #8
 3502 0030 13D1     		bne	.L305
 3503              		.loc 1 2295 0
 3504 0032 9468     		ldr	r4, [r2, #8]
 3505 0034 E406     		lsls	r4, r4, #27
 3506 0036 04D5     		bpl	.L321
 3507              		.loc 1 2320 0
 3508 0038 0A4A     		ldr	r2, .L322
 3509 003a FF21     		movs	r1, #255
 3510              	.LVL293:
 3511              		.loc 1 2316 0
ARM GAS  /tmp/ccadBNMM.s 			page 63


 3512 003c 1846     		mov	r0, r3
 3513              	.LVL294:
 3514              		.loc 1 2320 0
 3515 003e 5162     		str	r1, [r2, #36]
 3516              		.loc 1 2323 0
 3517 0040 10BD     		pop	{r4, pc}
 3518              	.LVL295:
 3519              	.L321:
 3520              		.loc 1 2298 0
 3521 0042 0143     		orrs	r1, r1, r0
 3522              	.LVL296:
 3523 0044 D162     		str	r1, [r2, #44]
 3524              		.loc 1 2300 0
 3525 0046 FFF7FEFF 		bl	RTC_WaitForSynchro
 3526              	.LVL297:
 3527              		.loc 1 2320 0
 3528 004a 064A     		ldr	r2, .L322
 3529              		.loc 1 2311 0
 3530 004c 0030     		adds	r0, r0, #0
 3531              		.loc 1 2320 0
 3532 004e 4FF0FF01 		mov	r1, #255
 3533              		.loc 1 2311 0
 3534 0052 18BF     		it	ne
 3535 0054 0120     		movne	r0, #1
 3536              	.LVL298:
 3537              		.loc 1 2320 0
 3538 0056 5162     		str	r1, [r2, #36]
 3539              		.loc 1 2323 0
 3540 0058 10BD     		pop	{r4, pc}
 3541              	.LVL299:
 3542              	.L305:
 3543              		.loc 1 2320 0
 3544 005a 024A     		ldr	r2, .L322
 3545 005c FF21     		movs	r1, #255
 3546              	.LVL300:
 3547              		.loc 1 2316 0
 3548 005e 0020     		movs	r0, #0
 3549              	.LVL301:
 3550              		.loc 1 2320 0
 3551 0060 5162     		str	r1, [r2, #36]
 3552              		.loc 1 2323 0
 3553 0062 10BD     		pop	{r4, pc}
 3554              	.L323:
 3555              		.align	2
 3556              	.L322:
 3557 0064 00280040 		.word	1073752064
 3558              		.cfi_endproc
 3559              	.LFE156:
 3560              		.size	RTC_SynchroShiftConfig, .-RTC_SynchroShiftConfig
 3561 0068 AFF30080 		.section	.text.RTC_ITConfig,"ax",%progbits
 3561      AFF30080 
 3562              		.align	2
 3563              		.p2align 4,,15
 3564              		.global	RTC_ITConfig
 3565              		.thumb
 3566              		.thumb_func
 3567              		.type	RTC_ITConfig, %function
ARM GAS  /tmp/ccadBNMM.s 			page 64


 3568              	RTC_ITConfig:
 3569              	.LFB157:
 3570              		.loc 1 2385 0
 3571              		.cfi_startproc
 3572              		@ args = 0, pretend = 0, frame = 0
 3573              		@ frame_needed = 0, uses_anonymous_args = 0
 3574              		@ link register save eliminated.
 3575              	.LVL302:
 3576              		.loc 1 2391 0
 3577 0000 114B     		ldr	r3, .L328
 3578              		.loc 1 2385 0
 3579 0002 10B4     		push	{r4}
 3580              		.cfi_def_cfa_offset 4
 3581              		.cfi_offset 4, -4
 3582              		.loc 1 2392 0
 3583 0004 5322     		movs	r2, #83
 3584              		.loc 1 2391 0
 3585 0006 CA24     		movs	r4, #202
 3586 0008 5C62     		str	r4, [r3, #36]
 3587              		.loc 1 2392 0
 3588 000a 5A62     		str	r2, [r3, #36]
 3589              		.loc 1 2397 0
 3590 000c 9A68     		ldr	r2, [r3, #8]
 3591              		.loc 1 2394 0
 3592 000e 81B9     		cbnz	r1, .L327
 3593              		.loc 1 2404 0
 3594 0010 20F00401 		bic	r1, r0, #4
 3595              	.LVL303:
 3596 0014 22EA0102 		bic	r2, r2, r1
 3597 0018 9A60     		str	r2, [r3, #8]
 3598              		.loc 1 2406 0
 3599 001a 1A6C     		ldr	r2, [r3, #64]
 3600 001c 00F00400 		and	r0, r0, #4
 3601              	.LVL304:
 3602 0020 22EA0000 		bic	r0, r2, r0
 3603 0024 1864     		str	r0, [r3, #64]
 3604              	.L326:
 3605              		.loc 1 2409 0
 3606 0026 084B     		ldr	r3, .L328
 3607              		.loc 1 2410 0
 3608 0028 5DF8044B 		ldr	r4, [sp], #4
 3609              		.loc 1 2409 0
 3610 002c FF22     		movs	r2, #255
 3611 002e 5A62     		str	r2, [r3, #36]
 3612              		.loc 1 2410 0
 3613 0030 7047     		bx	lr
 3614              	.LVL305:
 3615              	.L327:
 3616              		.loc 1 2397 0
 3617 0032 20F00401 		bic	r1, r0, #4
 3618              	.LVL306:
 3619 0036 0A43     		orrs	r2, r2, r1
 3620 0038 9A60     		str	r2, [r3, #8]
 3621              		.loc 1 2399 0
 3622 003a 1A6C     		ldr	r2, [r3, #64]
 3623 003c 00F00400 		and	r0, r0, #4
 3624              	.LVL307:
ARM GAS  /tmp/ccadBNMM.s 			page 65


 3625 0040 1043     		orrs	r0, r0, r2
 3626 0042 1864     		str	r0, [r3, #64]
 3627 0044 EFE7     		b	.L326
 3628              	.L329:
 3629 0046 00BF     		.align	2
 3630              	.L328:
 3631 0048 00280040 		.word	1073752064
 3632              		.cfi_endproc
 3633              	.LFE157:
 3634              		.size	RTC_ITConfig, .-RTC_ITConfig
 3635 004c AFF30080 		.section	.text.RTC_GetFlagStatus,"ax",%progbits
 3636              		.align	2
 3637              		.p2align 4,,15
 3638              		.global	RTC_GetFlagStatus
 3639              		.thumb
 3640              		.thumb_func
 3641              		.type	RTC_GetFlagStatus, %function
 3642              	RTC_GetFlagStatus:
 3643              	.LFB158:
 3644              		.loc 1 2435 0
 3645              		.cfi_startproc
 3646              		@ args = 0, pretend = 0, frame = 0
 3647              		@ frame_needed = 0, uses_anonymous_args = 0
 3648              		@ link register save eliminated.
 3649              	.LVL308:
 3650              		.loc 1 2443 0
 3651 0000 044A     		ldr	r2, .L331
 3652 0002 054B     		ldr	r3, .L331+4
 3653 0004 D268     		ldr	r2, [r2, #12]
 3654              	.LVL309:
 3655 0006 1340     		ands	r3, r3, r2
 3656              	.LVL310:
 3657              		.loc 1 2446 0
 3658 0008 0342     		tst	r3, r0
 3659              		.loc 1 2455 0
 3660 000a 0CBF     		ite	eq
 3661 000c 0020     		moveq	r0, #0
 3662 000e 0120     		movne	r0, #1
 3663              	.LVL311:
 3664 0010 7047     		bx	lr
 3665              	.L332:
 3666 0012 00BF     		.align	2
 3667              	.L331:
 3668 0014 00280040 		.word	1073752064
 3669 0018 7FFF0100 		.word	130943
 3670              		.cfi_endproc
 3671              	.LFE158:
 3672              		.size	RTC_GetFlagStatus, .-RTC_GetFlagStatus
 3673 001c AFF30080 		.section	.text.RTC_ClearFlag,"ax",%progbits
 3674              		.align	2
 3675              		.p2align 4,,15
 3676              		.global	RTC_ClearFlag
 3677              		.thumb
 3678              		.thumb_func
 3679              		.type	RTC_ClearFlag, %function
 3680              	RTC_ClearFlag:
 3681              	.LFB159:
ARM GAS  /tmp/ccadBNMM.s 			page 66


 3682              		.loc 1 2473 0
 3683              		.cfi_startproc
 3684              		@ args = 0, pretend = 0, frame = 0
 3685              		@ frame_needed = 0, uses_anonymous_args = 0
 3686              		@ link register save eliminated.
 3687              	.LVL312:
 3688              		.loc 1 2478 0
 3689 0000 054A     		ldr	r2, .L334
 3690 0002 064B     		ldr	r3, .L334+4
 3691 0004 D168     		ldr	r1, [r2, #12]
 3692 0006 0340     		ands	r3, r3, r0
 3693 0008 01F08001 		and	r1, r1, #128
 3694 000c 43F08003 		orr	r3, r3, #128
 3695 0010 61EA0303 		orn	r3, r1, r3
 3696 0014 D360     		str	r3, [r2, #12]
 3697 0016 7047     		bx	lr
 3698              	.L335:
 3699              		.align	2
 3700              	.L334:
 3701 0018 00280040 		.word	1073752064
 3702 001c 7FFF0100 		.word	130943
 3703              		.cfi_endproc
 3704              	.LFE159:
 3705              		.size	RTC_ClearFlag, .-RTC_ClearFlag
 3706              		.section	.text.RTC_GetITStatus,"ax",%progbits
 3707              		.align	2
 3708              		.p2align 4,,15
 3709              		.global	RTC_GetITStatus
 3710              		.thumb
 3711              		.thumb_func
 3712              		.type	RTC_GetITStatus, %function
 3713              	RTC_GetITStatus:
 3714              	.LFB160:
 3715              		.loc 1 2495 0
 3716              		.cfi_startproc
 3717              		@ args = 0, pretend = 0, frame = 0
 3718              		@ frame_needed = 0, uses_anonymous_args = 0
 3719              		@ link register save eliminated.
 3720              	.LVL313:
 3721              		.loc 1 2503 0
 3722 0000 0D4B     		ldr	r3, .L339
 3723              		.loc 1 2495 0
 3724 0002 30B4     		push	{r4, r5}
 3725              		.cfi_def_cfa_offset 8
 3726              		.cfi_offset 4, -8
 3727              		.cfi_offset 5, -4
 3728              		.loc 1 2503 0
 3729 0004 1C6C     		ldr	r4, [r3, #64]
 3730              	.LVL314:
 3731              		.loc 1 2506 0
 3732 0006 9968     		ldr	r1, [r3, #8]
 3733              	.LVL315:
 3734              		.loc 1 2509 0
 3735 0008 DD68     		ldr	r5, [r3, #12]
 3736              	.LVL316:
 3737              		.loc 1 2506 0
 3738 000a 820C     		lsrs	r2, r0, #18
ARM GAS  /tmp/ccadBNMM.s 			page 67


 3739              		.loc 1 2503 0
 3740 000c 04F00403 		and	r3, r4, #4
 3741              		.loc 1 2506 0
 3742 0010 20FA02F2 		lsr	r2, r0, r2
 3743              	.LVL317:
 3744 0014 03EAD232 		and	r2, r3, r2, lsr #15
 3745              	.LVL318:
 3746 0018 00EA0103 		and	r3, r0, r1
 3747              		.loc 1 2512 0
 3748 001c 1343     		orrs	r3, r2, r3
 3749 001e 07D0     		beq	.L338
 3750              		.loc 1 2509 0 discriminator 1
 3751 0020 ADB2     		uxth	r5, r5
 3752              	.LVL319:
 3753              		.loc 1 2512 0 discriminator 1
 3754 0022 15EA1015 		ands	r5, r5, r0, lsr #4
 3755              		.loc 1 2514 0 discriminator 1
 3756 0026 0CBF     		ite	eq
 3757 0028 0020     		moveq	r0, #0
 3758 002a 0120     		movne	r0, #1
 3759              	.LVL320:
 3760              		.loc 1 2521 0 discriminator 1
 3761 002c 30BC     		pop	{r4, r5}
 3762              	.LVL321:
 3763 002e 7047     		bx	lr
 3764              	.LVL322:
 3765              	.L338:
 3766              		.loc 1 2518 0
 3767 0030 1846     		mov	r0, r3
 3768              	.LVL323:
 3769              		.loc 1 2521 0
 3770 0032 30BC     		pop	{r4, r5}
 3771              	.LVL324:
 3772 0034 7047     		bx	lr
 3773              	.L340:
 3774 0036 00BF     		.align	2
 3775              	.L339:
 3776 0038 00280040 		.word	1073752064
 3777              		.cfi_endproc
 3778              	.LFE160:
 3779              		.size	RTC_GetITStatus, .-RTC_GetITStatus
 3780 003c AFF30080 		.section	.text.RTC_ClearITPendingBit,"ax",%progbits
 3781              		.align	2
 3782              		.p2align 4,,15
 3783              		.global	RTC_ClearITPendingBit
 3784              		.thumb
 3785              		.thumb_func
 3786              		.type	RTC_ClearITPendingBit, %function
 3787              	RTC_ClearITPendingBit:
 3788              	.LFB161:
 3789              		.loc 1 2537 0
 3790              		.cfi_startproc
 3791              		@ args = 0, pretend = 0, frame = 0
 3792              		@ frame_needed = 0, uses_anonymous_args = 0
 3793              		@ link register save eliminated.
 3794              	.LVL325:
 3795              		.loc 1 2547 0
ARM GAS  /tmp/ccadBNMM.s 			page 68


 3796 0000 054B     		ldr	r3, .L342
 3797 0002 DA68     		ldr	r2, [r3, #12]
 3798 0004 C0F30F10 		ubfx	r0, r0, #4, #16
 3799              	.LVL326:
 3800 0008 40F08000 		orr	r0, r0, #128
 3801 000c 02F08002 		and	r2, r2, #128
 3802 0010 62EA0002 		orn	r2, r2, r0
 3803 0014 DA60     		str	r2, [r3, #12]
 3804 0016 7047     		bx	lr
 3805              	.L343:
 3806              		.align	2
 3807              	.L342:
 3808 0018 00280040 		.word	1073752064
 3809              		.cfi_endproc
 3810              	.LFE161:
 3811              		.size	RTC_ClearITPendingBit, .-RTC_ClearITPendingBit
 3812 001c AFF30080 		.text
 3813              	.Letext0:
 3814              		.file 2 "/usr/include/newlib/machine/_default_types.h"
 3815              		.file 3 "/usr/include/newlib/stdint.h"
 3816              		.file 4 "../../../../os/hal/platforms/STM32F30x/stm32f30x.h"
 3817              		.file 5 "../../../../ext/stm32lib/inc/stm32f30x_rtc.h"
 3818              		.file 6 "../../../../os/ports/common/ARMCMx/CMSIS/include/core_cm4.h"
 3819              		.section	.debug_info,"",%progbits
 3820              	.Ldebug_info0:
 3821 0000 4F150000 		.4byte	0x154f
 3822 0004 0400     		.2byte	0x4
 3823 0006 00000000 		.4byte	.Ldebug_abbrev0
 3824 000a 04       		.byte	0x4
 3825 000b 01       		.uleb128 0x1
 3826 000c 06090000 		.4byte	.LASF179
 3827 0010 01       		.byte	0x1
 3828 0011 8A080000 		.4byte	.LASF180
 3829 0015 CE030000 		.4byte	.LASF181
 3830 0019 F0020000 		.4byte	.Ldebug_ranges0+0x2f0
 3831 001d 00000000 		.4byte	0
 3832 0021 00000000 		.4byte	.Ldebug_line0
 3833 0025 02       		.uleb128 0x2
 3834 0026 01       		.byte	0x1
 3835 0027 06       		.byte	0x6
 3836 0028 53010000 		.4byte	.LASF0
 3837 002c 03       		.uleb128 0x3
 3838 002d 5C000000 		.4byte	.LASF4
 3839 0031 02       		.byte	0x2
 3840 0032 1D       		.byte	0x1d
 3841 0033 37000000 		.4byte	0x37
 3842 0037 02       		.uleb128 0x2
 3843 0038 01       		.byte	0x1
 3844 0039 08       		.byte	0x8
 3845 003a C0060000 		.4byte	.LASF1
 3846 003e 02       		.uleb128 0x2
 3847 003f 02       		.byte	0x2
 3848 0040 05       		.byte	0x5
 3849 0041 2F070000 		.4byte	.LASF2
 3850 0045 02       		.uleb128 0x2
 3851 0046 02       		.byte	0x2
 3852 0047 07       		.byte	0x7
ARM GAS  /tmp/ccadBNMM.s 			page 69


 3853 0048 77080000 		.4byte	.LASF3
 3854 004c 03       		.uleb128 0x3
 3855 004d 44080000 		.4byte	.LASF5
 3856 0051 02       		.byte	0x2
 3857 0052 3F       		.byte	0x3f
 3858 0053 57000000 		.4byte	0x57
 3859 0057 02       		.uleb128 0x2
 3860 0058 04       		.byte	0x4
 3861 0059 05       		.byte	0x5
 3862 005a C8010000 		.4byte	.LASF6
 3863 005e 03       		.uleb128 0x3
 3864 005f 81020000 		.4byte	.LASF7
 3865 0063 02       		.byte	0x2
 3866 0064 41       		.byte	0x41
 3867 0065 69000000 		.4byte	0x69
 3868 0069 02       		.uleb128 0x2
 3869 006a 04       		.byte	0x4
 3870 006b 07       		.byte	0x7
 3871 006c 8A030000 		.4byte	.LASF8
 3872 0070 02       		.uleb128 0x2
 3873 0071 08       		.byte	0x8
 3874 0072 05       		.byte	0x5
 3875 0073 45010000 		.4byte	.LASF9
 3876 0077 02       		.uleb128 0x2
 3877 0078 08       		.byte	0x8
 3878 0079 07       		.byte	0x7
 3879 007a B6000000 		.4byte	.LASF10
 3880 007e 04       		.uleb128 0x4
 3881 007f 04       		.byte	0x4
 3882 0080 05       		.byte	0x5
 3883 0081 696E7400 		.ascii	"int\000"
 3884 0085 02       		.uleb128 0x2
 3885 0086 04       		.byte	0x4
 3886 0087 07       		.byte	0x7
 3887 0088 F4070000 		.4byte	.LASF11
 3888 008c 03       		.uleb128 0x3
 3889 008d 630A0000 		.4byte	.LASF12
 3890 0091 03       		.byte	0x3
 3891 0092 2A       		.byte	0x2a
 3892 0093 2C000000 		.4byte	0x2c
 3893 0097 03       		.uleb128 0x3
 3894 0098 B8060000 		.4byte	.LASF13
 3895 009c 03       		.byte	0x3
 3896 009d 41       		.byte	0x41
 3897 009e 4C000000 		.4byte	0x4c
 3898 00a2 03       		.uleb128 0x3
 3899 00a3 74070000 		.4byte	.LASF14
 3900 00a7 03       		.byte	0x3
 3901 00a8 42       		.byte	0x42
 3902 00a9 5E000000 		.4byte	0x5e
 3903 00ad 02       		.uleb128 0x2
 3904 00ae 04       		.byte	0x4
 3905 00af 07       		.byte	0x7
 3906 00b0 62050000 		.4byte	.LASF15
 3907 00b4 05       		.uleb128 0x5
 3908 00b5 A2000000 		.4byte	0xa2
 3909 00b9 05       		.uleb128 0x5
ARM GAS  /tmp/ccadBNMM.s 			page 70


 3910 00ba 97000000 		.4byte	0x97
 3911 00be 06       		.uleb128 0x6
 3912 00bf 01       		.byte	0x1
 3913 00c0 04       		.byte	0x4
 3914 00c1 2201     		.2byte	0x122
 3915 00c3 D4000000 		.4byte	0xd4
 3916 00c7 07       		.uleb128 0x7
 3917 00c8 3B030000 		.4byte	.LASF16
 3918 00cc 00       		.sleb128 0
 3919 00cd 08       		.uleb128 0x8
 3920 00ce 53455400 		.ascii	"SET\000"
 3921 00d2 01       		.sleb128 1
 3922 00d3 00       		.byte	0
 3923 00d4 09       		.uleb128 0x9
 3924 00d5 2E000000 		.4byte	.LASF17
 3925 00d9 04       		.byte	0x4
 3926 00da 2201     		.2byte	0x122
 3927 00dc BE000000 		.4byte	0xbe
 3928 00e0 09       		.uleb128 0x9
 3929 00e1 04030000 		.4byte	.LASF18
 3930 00e5 04       		.byte	0x4
 3931 00e6 2201     		.2byte	0x122
 3932 00e8 BE000000 		.4byte	0xbe
 3933 00ec 06       		.uleb128 0x6
 3934 00ed 01       		.byte	0x1
 3935 00ee 04       		.byte	0x4
 3936 00ef 2401     		.2byte	0x124
 3937 00f1 02010000 		.4byte	0x102
 3938 00f5 07       		.uleb128 0x7
 3939 00f6 A7000000 		.4byte	.LASF19
 3940 00fa 00       		.sleb128 0
 3941 00fb 07       		.uleb128 0x7
 3942 00fc 1D020000 		.4byte	.LASF20
 3943 0100 01       		.sleb128 1
 3944 0101 00       		.byte	0
 3945 0102 09       		.uleb128 0x9
 3946 0103 B4050000 		.4byte	.LASF21
 3947 0107 04       		.byte	0x4
 3948 0108 2401     		.2byte	0x124
 3949 010a EC000000 		.4byte	0xec
 3950 010e 06       		.uleb128 0x6
 3951 010f 01       		.byte	0x1
 3952 0110 04       		.byte	0x4
 3953 0111 2701     		.2byte	0x127
 3954 0113 24010000 		.4byte	0x124
 3955 0117 07       		.uleb128 0x7
 3956 0118 6B050000 		.4byte	.LASF22
 3957 011c 00       		.sleb128 0
 3958 011d 07       		.uleb128 0x7
 3959 011e 700A0000 		.4byte	.LASF23
 3960 0122 01       		.sleb128 1
 3961 0123 00       		.byte	0
 3962 0124 09       		.uleb128 0x9
 3963 0125 8C020000 		.4byte	.LASF24
 3964 0129 04       		.byte	0x4
 3965 012a 2701     		.2byte	0x127
 3966 012c 0E010000 		.4byte	0x10e
ARM GAS  /tmp/ccadBNMM.s 			page 71


 3967 0130 0A       		.uleb128 0xa
 3968 0131 90       		.byte	0x90
 3969 0132 04       		.byte	0x4
 3970 0133 9A02     		.2byte	0x29a
 3971 0135 0B030000 		.4byte	0x30b
 3972 0139 0B       		.uleb128 0xb
 3973 013a 545200   		.ascii	"TR\000"
 3974 013d 04       		.byte	0x4
 3975 013e 9C02     		.2byte	0x29c
 3976 0140 B4000000 		.4byte	0xb4
 3977 0144 00       		.byte	0
 3978 0145 0B       		.uleb128 0xb
 3979 0146 445200   		.ascii	"DR\000"
 3980 0149 04       		.byte	0x4
 3981 014a 9D02     		.2byte	0x29d
 3982 014c B4000000 		.4byte	0xb4
 3983 0150 04       		.byte	0x4
 3984 0151 0B       		.uleb128 0xb
 3985 0152 435200   		.ascii	"CR\000"
 3986 0155 04       		.byte	0x4
 3987 0156 9E02     		.2byte	0x29e
 3988 0158 B4000000 		.4byte	0xb4
 3989 015c 08       		.byte	0x8
 3990 015d 0B       		.uleb128 0xb
 3991 015e 49535200 		.ascii	"ISR\000"
 3992 0162 04       		.byte	0x4
 3993 0163 9F02     		.2byte	0x29f
 3994 0165 B4000000 		.4byte	0xb4
 3995 0169 0C       		.byte	0xc
 3996 016a 0C       		.uleb128 0xc
 3997 016b 46030000 		.4byte	.LASF25
 3998 016f 04       		.byte	0x4
 3999 0170 A002     		.2byte	0x2a0
 4000 0172 B4000000 		.4byte	0xb4
 4001 0176 10       		.byte	0x10
 4002 0177 0C       		.uleb128 0xc
 4003 0178 A8070000 		.4byte	.LASF26
 4004 017c 04       		.byte	0x4
 4005 017d A102     		.2byte	0x2a1
 4006 017f B4000000 		.4byte	0xb4
 4007 0183 14       		.byte	0x14
 4008 0184 0C       		.uleb128 0xc
 4009 0185 5D060000 		.4byte	.LASF27
 4010 0189 04       		.byte	0x4
 4011 018a A202     		.2byte	0x2a2
 4012 018c A2000000 		.4byte	0xa2
 4013 0190 18       		.byte	0x18
 4014 0191 0C       		.uleb128 0xc
 4015 0192 25060000 		.4byte	.LASF28
 4016 0196 04       		.byte	0x4
 4017 0197 A302     		.2byte	0x2a3
 4018 0199 B4000000 		.4byte	0xb4
 4019 019d 1C       		.byte	0x1c
 4020 019e 0C       		.uleb128 0xc
 4021 019f 5A070000 		.4byte	.LASF29
 4022 01a3 04       		.byte	0x4
 4023 01a4 A402     		.2byte	0x2a4
ARM GAS  /tmp/ccadBNMM.s 			page 72


 4024 01a6 B4000000 		.4byte	0xb4
 4025 01aa 20       		.byte	0x20
 4026 01ab 0B       		.uleb128 0xb
 4027 01ac 57505200 		.ascii	"WPR\000"
 4028 01b0 04       		.byte	0x4
 4029 01b1 A502     		.2byte	0x2a5
 4030 01b3 B4000000 		.4byte	0xb4
 4031 01b7 24       		.byte	0x24
 4032 01b8 0B       		.uleb128 0xb
 4033 01b9 53535200 		.ascii	"SSR\000"
 4034 01bd 04       		.byte	0x4
 4035 01be A602     		.2byte	0x2a6
 4036 01c0 B4000000 		.4byte	0xb4
 4037 01c4 28       		.byte	0x28
 4038 01c5 0C       		.uleb128 0xc
 4039 01c6 130A0000 		.4byte	.LASF30
 4040 01ca 04       		.byte	0x4
 4041 01cb A702     		.2byte	0x2a7
 4042 01cd B4000000 		.4byte	0xb4
 4043 01d1 2C       		.byte	0x2c
 4044 01d2 0C       		.uleb128 0xc
 4045 01d3 BB040000 		.4byte	.LASF31
 4046 01d7 04       		.byte	0x4
 4047 01d8 A802     		.2byte	0x2a8
 4048 01da B4000000 		.4byte	0xb4
 4049 01de 30       		.byte	0x30
 4050 01df 0C       		.uleb128 0xc
 4051 01e0 41030000 		.4byte	.LASF32
 4052 01e4 04       		.byte	0x4
 4053 01e5 A902     		.2byte	0x2a9
 4054 01e7 B4000000 		.4byte	0xb4
 4055 01eb 34       		.byte	0x34
 4056 01ec 0C       		.uleb128 0xc
 4057 01ed 8B010000 		.4byte	.LASF33
 4058 01f1 04       		.byte	0x4
 4059 01f2 AA02     		.2byte	0x2aa
 4060 01f4 B4000000 		.4byte	0xb4
 4061 01f8 38       		.byte	0x38
 4062 01f9 0C       		.uleb128 0xc
 4063 01fa 98020000 		.4byte	.LASF34
 4064 01fe 04       		.byte	0x4
 4065 01ff AB02     		.2byte	0x2ab
 4066 0201 B4000000 		.4byte	0xb4
 4067 0205 3C       		.byte	0x3c
 4068 0206 0C       		.uleb128 0xc
 4069 0207 84040000 		.4byte	.LASF35
 4070 020b 04       		.byte	0x4
 4071 020c AC02     		.2byte	0x2ac
 4072 020e B4000000 		.4byte	0xb4
 4073 0212 40       		.byte	0x40
 4074 0213 0C       		.uleb128 0xc
 4075 0214 0D030000 		.4byte	.LASF36
 4076 0218 04       		.byte	0x4
 4077 0219 AD02     		.2byte	0x2ad
 4078 021b B4000000 		.4byte	0xb4
 4079 021f 44       		.byte	0x44
 4080 0220 0C       		.uleb128 0xc
ARM GAS  /tmp/ccadBNMM.s 			page 73


 4081 0221 F9010000 		.4byte	.LASF37
 4082 0225 04       		.byte	0x4
 4083 0226 AE02     		.2byte	0x2ae
 4084 0228 B4000000 		.4byte	0xb4
 4085 022c 48       		.byte	0x48
 4086 022d 0C       		.uleb128 0xc
 4087 022e EE090000 		.4byte	.LASF38
 4088 0232 04       		.byte	0x4
 4089 0233 AF02     		.2byte	0x2af
 4090 0235 A2000000 		.4byte	0xa2
 4091 0239 4C       		.byte	0x4c
 4092 023a 0C       		.uleb128 0xc
 4093 023b 39070000 		.4byte	.LASF39
 4094 023f 04       		.byte	0x4
 4095 0240 B002     		.2byte	0x2b0
 4096 0242 B4000000 		.4byte	0xb4
 4097 0246 50       		.byte	0x50
 4098 0247 0C       		.uleb128 0xc
 4099 0248 64080000 		.4byte	.LASF40
 4100 024c 04       		.byte	0x4
 4101 024d B102     		.2byte	0x2b1
 4102 024f B4000000 		.4byte	0xb4
 4103 0253 54       		.byte	0x54
 4104 0254 0C       		.uleb128 0xc
 4105 0255 E80A0000 		.4byte	.LASF41
 4106 0259 04       		.byte	0x4
 4107 025a B202     		.2byte	0x2b2
 4108 025c B4000000 		.4byte	0xb4
 4109 0260 58       		.byte	0x58
 4110 0261 0C       		.uleb128 0xc
 4111 0262 7F000000 		.4byte	.LASF42
 4112 0266 04       		.byte	0x4
 4113 0267 B302     		.2byte	0x2b3
 4114 0269 B4000000 		.4byte	0xb4
 4115 026d 5C       		.byte	0x5c
 4116 026e 0C       		.uleb128 0xc
 4117 026f F3010000 		.4byte	.LASF43
 4118 0273 04       		.byte	0x4
 4119 0274 B402     		.2byte	0x2b4
 4120 0276 B4000000 		.4byte	0xb4
 4121 027a 60       		.byte	0x60
 4122 027b 0C       		.uleb128 0xc
 4123 027c 5C030000 		.4byte	.LASF44
 4124 0280 04       		.byte	0x4
 4125 0281 B502     		.2byte	0x2b5
 4126 0283 B4000000 		.4byte	0xb4
 4127 0287 64       		.byte	0x64
 4128 0288 0C       		.uleb128 0xc
 4129 0289 EF040000 		.4byte	.LASF45
 4130 028d 04       		.byte	0x4
 4131 028e B602     		.2byte	0x2b6
 4132 0290 B4000000 		.4byte	0xb4
 4133 0294 68       		.byte	0x68
 4134 0295 0C       		.uleb128 0xc
 4135 0296 3C060000 		.4byte	.LASF46
 4136 029a 04       		.byte	0x4
 4137 029b B702     		.2byte	0x2b7
ARM GAS  /tmp/ccadBNMM.s 			page 74


 4138 029d B4000000 		.4byte	0xb4
 4139 02a1 6C       		.byte	0x6c
 4140 02a2 0C       		.uleb128 0xc
 4141 02a3 6A080000 		.4byte	.LASF47
 4142 02a7 04       		.byte	0x4
 4143 02a8 B802     		.2byte	0x2b8
 4144 02aa B4000000 		.4byte	0xb4
 4145 02ae 70       		.byte	0x70
 4146 02af 0C       		.uleb128 0xc
 4147 02b0 0D0A0000 		.4byte	.LASF48
 4148 02b4 04       		.byte	0x4
 4149 02b5 B902     		.2byte	0x2b9
 4150 02b7 B4000000 		.4byte	0xb4
 4151 02bb 74       		.byte	0x74
 4152 02bc 0C       		.uleb128 0xc
 4153 02bd B4040000 		.4byte	.LASF49
 4154 02c1 04       		.byte	0x4
 4155 02c2 BA02     		.2byte	0x2ba
 4156 02c4 B4000000 		.4byte	0xb4
 4157 02c8 78       		.byte	0x78
 4158 02c9 0C       		.uleb128 0xc
 4159 02ca E6050000 		.4byte	.LASF50
 4160 02ce 04       		.byte	0x4
 4161 02cf BB02     		.2byte	0x2bb
 4162 02d1 B4000000 		.4byte	0xb4
 4163 02d5 7C       		.byte	0x7c
 4164 02d6 0C       		.uleb128 0xc
 4165 02d7 47070000 		.4byte	.LASF51
 4166 02db 04       		.byte	0x4
 4167 02dc BC02     		.2byte	0x2bc
 4168 02de B4000000 		.4byte	0xb4
 4169 02e2 80       		.byte	0x80
 4170 02e3 0C       		.uleb128 0xc
 4171 02e4 70080000 		.4byte	.LASF52
 4172 02e8 04       		.byte	0x4
 4173 02e9 BD02     		.2byte	0x2bd
 4174 02eb B4000000 		.4byte	0xb4
 4175 02ef 84       		.byte	0x84
 4176 02f0 0C       		.uleb128 0xc
 4177 02f1 FF0A0000 		.4byte	.LASF53
 4178 02f5 04       		.byte	0x4
 4179 02f6 BE02     		.2byte	0x2be
 4180 02f8 B4000000 		.4byte	0xb4
 4181 02fc 88       		.byte	0x88
 4182 02fd 0C       		.uleb128 0xc
 4183 02fe AF000000 		.4byte	.LASF54
 4184 0302 04       		.byte	0x4
 4185 0303 BF02     		.2byte	0x2bf
 4186 0305 B4000000 		.4byte	0xb4
 4187 0309 8C       		.byte	0x8c
 4188 030a 00       		.byte	0
 4189 030b 09       		.uleb128 0x9
 4190 030c 1A010000 		.4byte	.LASF55
 4191 0310 04       		.byte	0x4
 4192 0311 C002     		.2byte	0x2c0
 4193 0313 30010000 		.4byte	0x130
 4194 0317 0D       		.uleb128 0xd
ARM GAS  /tmp/ccadBNMM.s 			page 75


 4195 0318 0C       		.byte	0xc
 4196 0319 05       		.byte	0x5
 4197 031a 35       		.byte	0x35
 4198 031b 44030000 		.4byte	0x344
 4199 031f 0E       		.uleb128 0xe
 4200 0320 93050000 		.4byte	.LASF56
 4201 0324 05       		.byte	0x5
 4202 0325 37       		.byte	0x37
 4203 0326 A2000000 		.4byte	0xa2
 4204 032a 00       		.byte	0
 4205 032b 0E       		.uleb128 0xe
 4206 032c F5040000 		.4byte	.LASF57
 4207 0330 05       		.byte	0x5
 4208 0331 3A       		.byte	0x3a
 4209 0332 A2000000 		.4byte	0xa2
 4210 0336 04       		.byte	0x4
 4211 0337 0E       		.uleb128 0xe
 4212 0338 DE080000 		.4byte	.LASF58
 4213 033c 05       		.byte	0x5
 4214 033d 3D       		.byte	0x3d
 4215 033e A2000000 		.4byte	0xa2
 4216 0342 08       		.byte	0x8
 4217 0343 00       		.byte	0
 4218 0344 03       		.uleb128 0x3
 4219 0345 CC0A0000 		.4byte	.LASF59
 4220 0349 05       		.byte	0x5
 4221 034a 3F       		.byte	0x3f
 4222 034b 17030000 		.4byte	0x317
 4223 034f 0D       		.uleb128 0xd
 4224 0350 04       		.byte	0x4
 4225 0351 05       		.byte	0x5
 4226 0352 44       		.byte	0x44
 4227 0353 88030000 		.4byte	0x388
 4228 0357 0E       		.uleb128 0xe
 4229 0358 DA010000 		.4byte	.LASF60
 4230 035c 05       		.byte	0x5
 4231 035d 46       		.byte	0x46
 4232 035e 8C000000 		.4byte	0x8c
 4233 0362 00       		.byte	0
 4234 0363 0E       		.uleb128 0xe
 4235 0364 4E070000 		.4byte	.LASF61
 4236 0368 05       		.byte	0x5
 4237 0369 4B       		.byte	0x4b
 4238 036a 8C000000 		.4byte	0x8c
 4239 036e 01       		.byte	0x1
 4240 036f 0E       		.uleb128 0xe
 4241 0370 69040000 		.4byte	.LASF62
 4242 0374 05       		.byte	0x5
 4243 0375 4E       		.byte	0x4e
 4244 0376 8C000000 		.4byte	0x8c
 4245 037a 02       		.byte	0x2
 4246 037b 0E       		.uleb128 0xe
 4247 037c 4E080000 		.4byte	.LASF63
 4248 0380 05       		.byte	0x5
 4249 0381 51       		.byte	0x51
 4250 0382 8C000000 		.4byte	0x8c
 4251 0386 03       		.byte	0x3
ARM GAS  /tmp/ccadBNMM.s 			page 76


 4252 0387 00       		.byte	0
 4253 0388 03       		.uleb128 0x3
 4254 0389 FF050000 		.4byte	.LASF64
 4255 038d 05       		.byte	0x5
 4256 038e 53       		.byte	0x53
 4257 038f 4F030000 		.4byte	0x34f
 4258 0393 0D       		.uleb128 0xd
 4259 0394 04       		.byte	0x4
 4260 0395 05       		.byte	0x5
 4261 0396 58       		.byte	0x58
 4262 0397 CC030000 		.4byte	0x3cc
 4263 039b 0E       		.uleb128 0xe
 4264 039c 9C030000 		.4byte	.LASF65
 4265 03a0 05       		.byte	0x5
 4266 03a1 5A       		.byte	0x5a
 4267 03a2 8C000000 		.4byte	0x8c
 4268 03a6 00       		.byte	0
 4269 03a7 0E       		.uleb128 0xe
 4270 03a8 E4090000 		.4byte	.LASF66
 4271 03ac 05       		.byte	0x5
 4272 03ad 5D       		.byte	0x5d
 4273 03ae 8C000000 		.4byte	0x8c
 4274 03b2 01       		.byte	0x1
 4275 03b3 0E       		.uleb128 0xe
 4276 03b4 E6040000 		.4byte	.LASF67
 4277 03b8 05       		.byte	0x5
 4278 03b9 60       		.byte	0x60
 4279 03ba 8C000000 		.4byte	0x8c
 4280 03be 02       		.byte	0x2
 4281 03bf 0E       		.uleb128 0xe
 4282 03c0 380A0000 		.4byte	.LASF68
 4283 03c4 05       		.byte	0x5
 4284 03c5 63       		.byte	0x63
 4285 03c6 8C000000 		.4byte	0x8c
 4286 03ca 03       		.byte	0x3
 4287 03cb 00       		.byte	0
 4288 03cc 03       		.uleb128 0x3
 4289 03cd 2C060000 		.4byte	.LASF69
 4290 03d1 05       		.byte	0x5
 4291 03d2 65       		.byte	0x65
 4292 03d3 93030000 		.4byte	0x393
 4293 03d7 0D       		.uleb128 0xd
 4294 03d8 10       		.byte	0x10
 4295 03d9 05       		.byte	0x5
 4296 03da 6A       		.byte	0x6a
 4297 03db 10040000 		.4byte	0x410
 4298 03df 0E       		.uleb128 0xe
 4299 03e0 56080000 		.4byte	.LASF70
 4300 03e4 05       		.byte	0x5
 4301 03e5 6C       		.byte	0x6c
 4302 03e6 88030000 		.4byte	0x388
 4303 03ea 00       		.byte	0
 4304 03eb 0E       		.uleb128 0xe
 4305 03ec 4F060000 		.4byte	.LASF71
 4306 03f0 05       		.byte	0x5
 4307 03f1 6E       		.byte	0x6e
 4308 03f2 A2000000 		.4byte	0xa2
ARM GAS  /tmp/ccadBNMM.s 			page 77


 4309 03f6 04       		.byte	0x4
 4310 03f7 0E       		.uleb128 0xe
 4311 03f8 EE080000 		.4byte	.LASF72
 4312 03fc 05       		.byte	0x5
 4313 03fd 71       		.byte	0x71
 4314 03fe A2000000 		.4byte	0xa2
 4315 0402 08       		.byte	0x8
 4316 0403 0E       		.uleb128 0xe
 4317 0404 F8090000 		.4byte	.LASF73
 4318 0408 05       		.byte	0x5
 4319 0409 74       		.byte	0x74
 4320 040a 8C000000 		.4byte	0x8c
 4321 040e 0C       		.byte	0xc
 4322 040f 00       		.byte	0
 4323 0410 03       		.uleb128 0x3
 4324 0411 FC000000 		.4byte	.LASF74
 4325 0415 05       		.byte	0x5
 4326 0416 79       		.byte	0x79
 4327 0417 D7030000 		.4byte	0x3d7
 4328 041b 0F       		.uleb128 0xf
 4329 041c 5F010000 		.4byte	.LASF78
 4330 0420 01       		.byte	0x1
 4331 0421 F801     		.2byte	0x1f8
 4332 0423 24010000 		.4byte	0x124
 4333 0427 01       		.byte	0x1
 4334 0428 51040000 		.4byte	0x451
 4335 042c 10       		.uleb128 0x10
 4336 042d C2030000 		.4byte	.LASF75
 4337 0431 01       		.byte	0x1
 4338 0432 FA01     		.2byte	0x1fa
 4339 0434 B4000000 		.4byte	0xb4
 4340 0438 10       		.uleb128 0x10
 4341 0439 310A0000 		.4byte	.LASF76
 4342 043d 01       		.byte	0x1
 4343 043e FB01     		.2byte	0x1fb
 4344 0440 24010000 		.4byte	0x124
 4345 0444 10       		.uleb128 0x10
 4346 0445 B7030000 		.4byte	.LASF77
 4347 0449 01       		.byte	0x1
 4348 044a FC01     		.2byte	0x1fc
 4349 044c A2000000 		.4byte	0xa2
 4350 0450 00       		.byte	0
 4351 0451 11       		.uleb128 0x11
 4352 0452 79030000 		.4byte	.LASF182
 4353 0456 01       		.byte	0x1
 4354 0457 2502     		.2byte	0x225
 4355 0459 01       		.byte	0x1
 4356 045a 0F       		.uleb128 0xf
 4357 045b 61070000 		.4byte	.LASF79
 4358 045f 01       		.byte	0x1
 4359 0460 3B02     		.2byte	0x23b
 4360 0462 24010000 		.4byte	0x124
 4361 0466 01       		.byte	0x1
 4362 0467 90040000 		.4byte	0x490
 4363 046b 10       		.uleb128 0x10
 4364 046c 75040000 		.4byte	.LASF80
 4365 0470 01       		.byte	0x1
ARM GAS  /tmp/ccadBNMM.s 			page 78


 4366 0471 3D02     		.2byte	0x23d
 4367 0473 B4000000 		.4byte	0xb4
 4368 0477 10       		.uleb128 0x10
 4369 0478 310A0000 		.4byte	.LASF76
 4370 047c 01       		.byte	0x1
 4371 047d 3E02     		.2byte	0x23e
 4372 047f 24010000 		.4byte	0x124
 4373 0483 10       		.uleb128 0x10
 4374 0484 A90A0000 		.4byte	.LASF81
 4375 0488 01       		.byte	0x1
 4376 0489 3F02     		.2byte	0x23f
 4377 048b A2000000 		.4byte	0xa2
 4378 048f 00       		.byte	0
 4379 0490 12       		.uleb128 0x12
 4380 0491 780A0000 		.4byte	.LASF82
 4381 0495 01       		.byte	0x1
 4382 0496 110A     		.2byte	0xa11
 4383 0498 8C000000 		.4byte	0x8c
 4384 049c 01       		.byte	0x1
 4385 049d BA040000 		.4byte	0x4ba
 4386 04a1 13       		.uleb128 0x13
 4387 04a2 5D0A0000 		.4byte	.LASF84
 4388 04a6 01       		.byte	0x1
 4389 04a7 110A     		.2byte	0xa11
 4390 04a9 8C000000 		.4byte	0x8c
 4391 04ad 14       		.uleb128 0x14
 4392 04ae 746D7000 		.ascii	"tmp\000"
 4393 04b2 01       		.byte	0x1
 4394 04b3 130A     		.2byte	0xa13
 4395 04b5 8C000000 		.4byte	0x8c
 4396 04b9 00       		.byte	0
 4397 04ba 12       		.uleb128 0x12
 4398 04bb 410A0000 		.4byte	.LASF83
 4399 04bf 01       		.byte	0x1
 4400 04c0 FF09     		.2byte	0x9ff
 4401 04c2 8C000000 		.4byte	0x8c
 4402 04c6 01       		.byte	0x1
 4403 04c7 E4040000 		.4byte	0x4e4
 4404 04cb 13       		.uleb128 0x13
 4405 04cc 5D0A0000 		.4byte	.LASF84
 4406 04d0 01       		.byte	0x1
 4407 04d1 FF09     		.2byte	0x9ff
 4408 04d3 8C000000 		.4byte	0x8c
 4409 04d7 10       		.uleb128 0x10
 4410 04d8 3F070000 		.4byte	.LASF85
 4411 04dc 01       		.byte	0x1
 4412 04dd 010A     		.2byte	0xa01
 4413 04df 8C000000 		.4byte	0x8c
 4414 04e3 00       		.byte	0
 4415 04e4 15       		.uleb128 0x15
 4416 04e5 3A020000 		.4byte	.LASF86
 4417 04e9 01       		.byte	0x1
 4418 04ea C701     		.2byte	0x1c7
 4419 04ec 00000000 		.4byte	.LFB113
 4420 04f0 0C000000 		.4byte	.LFE113-.LFB113
 4421 04f4 01       		.uleb128 0x1
 4422 04f5 9C       		.byte	0x9c
ARM GAS  /tmp/ccadBNMM.s 			page 79


 4423 04f6 09050000 		.4byte	0x509
 4424 04fa 16       		.uleb128 0x16
 4425 04fb E4010000 		.4byte	.LASF88
 4426 04ff 01       		.byte	0x1
 4427 0500 C701     		.2byte	0x1c7
 4428 0502 09050000 		.4byte	0x509
 4429 0506 01       		.uleb128 0x1
 4430 0507 50       		.byte	0x50
 4431 0508 00       		.byte	0
 4432 0509 17       		.uleb128 0x17
 4433 050a 04       		.byte	0x4
 4434 050b 44030000 		.4byte	0x344
 4435 050f 15       		.uleb128 0x15
 4436 0510 1A0A0000 		.4byte	.LASF87
 4437 0514 01       		.byte	0x1
 4438 0515 DD01     		.2byte	0x1dd
 4439 0517 00000000 		.4byte	.LFB114
 4440 051b 18000000 		.4byte	.LFE114-.LFB114
 4441 051f 01       		.uleb128 0x1
 4442 0520 9C       		.byte	0x9c
 4443 0521 34050000 		.4byte	0x534
 4444 0525 16       		.uleb128 0x16
 4445 0526 00000000 		.4byte	.LASF89
 4446 052a 01       		.byte	0x1
 4447 052b DD01     		.2byte	0x1dd
 4448 052d 02010000 		.4byte	0x102
 4449 0531 01       		.uleb128 0x1
 4450 0532 50       		.byte	0x50
 4451 0533 00       		.byte	0
 4452 0534 18       		.uleb128 0x18
 4453 0535 1B040000 		.4byte	0x41b
 4454 0539 00000000 		.4byte	.LFB115
 4455 053d 44000000 		.4byte	.LFE115-.LFB115
 4456 0541 01       		.uleb128 0x1
 4457 0542 9C       		.byte	0x9c
 4458 0543 7F050000 		.4byte	0x57f
 4459 0547 19       		.uleb128 0x19
 4460 0548 2C040000 		.4byte	0x42c
 4461 054c 02       		.uleb128 0x2
 4462 054d 91       		.byte	0x91
 4463 054e 7C       		.sleb128 -4
 4464 054f 1A       		.uleb128 0x1a
 4465 0550 38040000 		.4byte	0x438
 4466 0554 00000000 		.4byte	.LLST0
 4467 0558 1A       		.uleb128 0x1a
 4468 0559 44040000 		.4byte	0x444
 4469 055d 36000000 		.4byte	.LLST1
 4470 0561 1B       		.uleb128 0x1b
 4471 0562 2C000000 		.4byte	.LBB77
 4472 0566 08000000 		.4byte	.LBE77-.LBB77
 4473 056a 1C       		.uleb128 0x1c
 4474 056b 2C040000 		.4byte	0x42c
 4475 056f 1A       		.uleb128 0x1a
 4476 0570 38040000 		.4byte	0x438
 4477 0574 6C000000 		.4byte	.LLST2
 4478 0578 1C       		.uleb128 0x1c
 4479 0579 44040000 		.4byte	0x444
ARM GAS  /tmp/ccadBNMM.s 			page 80


 4480 057d 00       		.byte	0
 4481 057e 00       		.byte	0
 4482 057f 1D       		.uleb128 0x1d
 4483 0580 85000000 		.4byte	.LASF90
 4484 0584 01       		.byte	0x1
 4485 0585 9901     		.2byte	0x199
 4486 0587 24010000 		.4byte	0x124
 4487 058b 00000000 		.4byte	.LFB112
 4488 058f 48000000 		.4byte	.LFE112-.LFB112
 4489 0593 01       		.uleb128 0x1
 4490 0594 9C       		.byte	0x9c
 4491 0595 D3050000 		.4byte	0x5d3
 4492 0599 1E       		.uleb128 0x1e
 4493 059a E4010000 		.4byte	.LASF88
 4494 059e 01       		.byte	0x1
 4495 059f 9901     		.2byte	0x199
 4496 05a1 09050000 		.4byte	0x509
 4497 05a5 7F000000 		.4byte	.LLST3
 4498 05a9 1F       		.uleb128 0x1f
 4499 05aa 310A0000 		.4byte	.LASF76
 4500 05ae 01       		.byte	0x1
 4501 05af 9B01     		.2byte	0x19b
 4502 05b1 24010000 		.4byte	0x124
 4503 05b5 AB000000 		.4byte	.LLST4
 4504 05b9 20       		.uleb128 0x20
 4505 05ba 51040000 		.4byte	0x451
 4506 05be 32000000 		.4byte	.LBB78
 4507 05c2 08000000 		.4byte	.LBE78-.LBB78
 4508 05c6 01       		.byte	0x1
 4509 05c7 B701     		.2byte	0x1b7
 4510 05c9 21       		.uleb128 0x21
 4511 05ca 12000000 		.4byte	.LVL10
 4512 05ce 1B040000 		.4byte	0x41b
 4513 05d2 00       		.byte	0
 4514 05d3 22       		.uleb128 0x22
 4515 05d4 51040000 		.4byte	0x451
 4516 05d8 00000000 		.4byte	.LFB116
 4517 05dc 10000000 		.4byte	.LFE116-.LFB116
 4518 05e0 01       		.uleb128 0x1
 4519 05e1 9C       		.byte	0x9c
 4520 05e2 18       		.uleb128 0x18
 4521 05e3 5A040000 		.4byte	0x45a
 4522 05e7 00000000 		.4byte	.LFB117
 4523 05eb 50000000 		.4byte	.LFE117-.LFB117
 4524 05ef 01       		.uleb128 0x1
 4525 05f0 9C       		.byte	0x9c
 4526 05f1 2D060000 		.4byte	0x62d
 4527 05f5 19       		.uleb128 0x19
 4528 05f6 6B040000 		.4byte	0x46b
 4529 05fa 02       		.uleb128 0x2
 4530 05fb 91       		.byte	0x91
 4531 05fc 7C       		.sleb128 -4
 4532 05fd 1A       		.uleb128 0x1a
 4533 05fe 77040000 		.4byte	0x477
 4534 0602 D6000000 		.4byte	.LLST5
 4535 0606 1A       		.uleb128 0x1a
 4536 0607 83040000 		.4byte	0x483
ARM GAS  /tmp/ccadBNMM.s 			page 81


 4537 060b 0C010000 		.4byte	.LLST6
 4538 060f 1B       		.uleb128 0x1b
 4539 0610 36000000 		.4byte	.LBB83
 4540 0614 0C000000 		.4byte	.LBE83-.LBB83
 4541 0618 1C       		.uleb128 0x1c
 4542 0619 6B040000 		.4byte	0x46b
 4543 061d 1A       		.uleb128 0x1a
 4544 061e 77040000 		.4byte	0x477
 4545 0622 42010000 		.4byte	.LLST7
 4546 0626 1C       		.uleb128 0x1c
 4547 0627 83040000 		.4byte	0x483
 4548 062b 00       		.byte	0
 4549 062c 00       		.byte	0
 4550 062d 1D       		.uleb128 0x1d
 4551 062e 24070000 		.4byte	.LASF91
 4552 0632 01       		.byte	0x1
 4553 0633 4601     		.2byte	0x146
 4554 0635 24010000 		.4byte	0x124
 4555 0639 00000000 		.4byte	.LFB111
 4556 063d 8C000000 		.4byte	.LFE111-.LFB111
 4557 0641 01       		.uleb128 0x1
 4558 0642 9C       		.byte	0x9c
 4559 0643 89060000 		.4byte	0x689
 4560 0647 23       		.uleb128 0x23
 4561 0648 4B040000 		.4byte	.LASF92
 4562 064c 01       		.byte	0x1
 4563 064d 4801     		.2byte	0x148
 4564 064f B4000000 		.4byte	0xb4
 4565 0653 02       		.uleb128 0x2
 4566 0654 91       		.byte	0x91
 4567 0655 6C       		.sleb128 -20
 4568 0656 1F       		.uleb128 0x1f
 4569 0657 71010000 		.4byte	.LASF93
 4570 065b 01       		.byte	0x1
 4571 065c 4901     		.2byte	0x149
 4572 065e A2000000 		.4byte	0xa2
 4573 0662 55010000 		.4byte	.LLST8
 4574 0666 1F       		.uleb128 0x1f
 4575 0667 310A0000 		.4byte	.LASF76
 4576 066b 01       		.byte	0x1
 4577 066c 4A01     		.2byte	0x14a
 4578 066e 24010000 		.4byte	0x124
 4579 0672 7F010000 		.4byte	.LLST9
 4580 0676 21       		.uleb128 0x21
 4581 0677 16000000 		.4byte	.LVL24
 4582 067b 1B040000 		.4byte	0x41b
 4583 067f 21       		.uleb128 0x21
 4584 0680 7A000000 		.4byte	.LVL31
 4585 0684 5A040000 		.4byte	0x45a
 4586 0688 00       		.byte	0
 4587 0689 1D       		.uleb128 0x1d
 4588 068a 9C060000 		.4byte	.LASF94
 4589 068e 01       		.byte	0x1
 4590 068f 6E02     		.2byte	0x26e
 4591 0691 24010000 		.4byte	0x124
 4592 0695 00000000 		.4byte	.LFB118
 4593 0699 40000000 		.4byte	.LFE118-.LFB118
ARM GAS  /tmp/ccadBNMM.s 			page 82


 4594 069d 01       		.uleb128 0x1
 4595 069e 9C       		.byte	0x9c
 4596 069f DD060000 		.4byte	0x6dd
 4597 06a3 1E       		.uleb128 0x1e
 4598 06a4 00000000 		.4byte	.LASF89
 4599 06a8 01       		.byte	0x1
 4600 06a9 6E02     		.2byte	0x26e
 4601 06ab 02010000 		.4byte	0x102
 4602 06af AA010000 		.4byte	.LLST10
 4603 06b3 1F       		.uleb128 0x1f
 4604 06b4 310A0000 		.4byte	.LASF76
 4605 06b8 01       		.byte	0x1
 4606 06b9 7002     		.2byte	0x270
 4607 06bb 24010000 		.4byte	0x124
 4608 06bf CB010000 		.4byte	.LLST11
 4609 06c3 20       		.uleb128 0x20
 4610 06c4 51040000 		.4byte	0x451
 4611 06c8 1E000000 		.4byte	.LBB84
 4612 06cc 0A000000 		.4byte	.LBE84-.LBB84
 4613 06d0 01       		.byte	0x1
 4614 06d1 8B02     		.2byte	0x28b
 4615 06d3 21       		.uleb128 0x21
 4616 06d4 12000000 		.4byte	.LVL33
 4617 06d8 1B040000 		.4byte	0x41b
 4618 06dc 00       		.byte	0
 4619 06dd 15       		.uleb128 0x15
 4620 06de 06050000 		.4byte	.LASF95
 4621 06e2 01       		.byte	0x1
 4622 06e3 9E02     		.2byte	0x29e
 4623 06e5 00000000 		.4byte	.LFB119
 4624 06e9 30000000 		.4byte	.LFE119-.LFB119
 4625 06ed 01       		.uleb128 0x1
 4626 06ee 9C       		.byte	0x9c
 4627 06ef 02070000 		.4byte	0x702
 4628 06f3 16       		.uleb128 0x16
 4629 06f4 00000000 		.4byte	.LASF89
 4630 06f8 01       		.byte	0x1
 4631 06f9 9E02     		.2byte	0x29e
 4632 06fb 02010000 		.4byte	0x102
 4633 06ff 01       		.uleb128 0x1
 4634 0700 50       		.byte	0x50
 4635 0701 00       		.byte	0
 4636 0702 1D       		.uleb128 0x1d
 4637 0703 E3000000 		.4byte	.LASF96
 4638 0707 01       		.byte	0x1
 4639 0708 D402     		.2byte	0x2d4
 4640 070a 24010000 		.4byte	0x124
 4641 070e 00000000 		.4byte	.LFB120
 4642 0712 EC000000 		.4byte	.LFE120-.LFB120
 4643 0716 01       		.uleb128 0x1
 4644 0717 9C       		.byte	0x9c
 4645 0718 0A080000 		.4byte	0x80a
 4646 071c 1E       		.uleb128 0x1e
 4647 071d 01080000 		.4byte	.LASF97
 4648 0721 01       		.byte	0x1
 4649 0722 D402     		.2byte	0x2d4
 4650 0724 A2000000 		.4byte	0xa2
ARM GAS  /tmp/ccadBNMM.s 			page 83


 4651 0728 02020000 		.4byte	.LLST12
 4652 072c 1E       		.uleb128 0x1e
 4653 072d 5B020000 		.4byte	.LASF98
 4654 0731 01       		.byte	0x1
 4655 0732 D402     		.2byte	0x2d4
 4656 0734 0A080000 		.4byte	0x80a
 4657 0738 55020000 		.4byte	.LLST13
 4658 073c 1F       		.uleb128 0x1f
 4659 073d 91010000 		.4byte	.LASF99
 4660 0741 01       		.byte	0x1
 4661 0742 D602     		.2byte	0x2d6
 4662 0744 A2000000 		.4byte	0xa2
 4663 0748 B3020000 		.4byte	.LLST14
 4664 074c 1F       		.uleb128 0x1f
 4665 074d 310A0000 		.4byte	.LASF76
 4666 0751 01       		.byte	0x1
 4667 0752 D702     		.2byte	0x2d7
 4668 0754 24010000 		.4byte	0x124
 4669 0758 0C030000 		.4byte	.LLST15
 4670 075c 24       		.uleb128 0x24
 4671 075d BA040000 		.4byte	0x4ba
 4672 0761 14000000 		.4byte	.LBB86
 4673 0765 18000000 		.4byte	.LBE86-.LBB86
 4674 0769 01       		.byte	0x1
 4675 076a 0603     		.2byte	0x306
 4676 076c 8D070000 		.4byte	0x78d
 4677 0770 25       		.uleb128 0x25
 4678 0771 CB040000 		.4byte	0x4cb
 4679 0775 4E030000 		.4byte	.LLST16
 4680 0779 1B       		.uleb128 0x1b
 4681 077a 14000000 		.4byte	.LBB87
 4682 077e 18000000 		.4byte	.LBE87-.LBB87
 4683 0782 1A       		.uleb128 0x1a
 4684 0783 D7040000 		.4byte	0x4d7
 4685 0787 85030000 		.4byte	.LLST17
 4686 078b 00       		.byte	0
 4687 078c 00       		.byte	0
 4688 078d 26       		.uleb128 0x26
 4689 078e BA040000 		.4byte	0x4ba
 4690 0792 30000000 		.4byte	.LBB88
 4691 0796 00000000 		.4byte	.Ldebug_ranges0+0
 4692 079a 01       		.byte	0x1
 4693 079b 0703     		.2byte	0x307
 4694 079d BA070000 		.4byte	0x7ba
 4695 07a1 25       		.uleb128 0x25
 4696 07a2 CB040000 		.4byte	0x4cb
 4697 07a6 BC030000 		.4byte	.LLST18
 4698 07aa 27       		.uleb128 0x27
 4699 07ab 00000000 		.4byte	.Ldebug_ranges0+0
 4700 07af 1A       		.uleb128 0x1a
 4701 07b0 D7040000 		.4byte	0x4d7
 4702 07b4 FF030000 		.4byte	.LLST19
 4703 07b8 00       		.byte	0
 4704 07b9 00       		.byte	0
 4705 07ba 26       		.uleb128 0x26
 4706 07bb BA040000 		.4byte	0x4ba
 4707 07bf 4E000000 		.4byte	.LBB93
ARM GAS  /tmp/ccadBNMM.s 			page 84


 4708 07c3 20000000 		.4byte	.Ldebug_ranges0+0x20
 4709 07c7 01       		.byte	0x1
 4710 07c8 0803     		.2byte	0x308
 4711 07ca E7070000 		.4byte	0x7e7
 4712 07ce 25       		.uleb128 0x25
 4713 07cf CB040000 		.4byte	0x4cb
 4714 07d3 42040000 		.4byte	.LLST20
 4715 07d7 27       		.uleb128 0x27
 4716 07d8 20000000 		.4byte	.Ldebug_ranges0+0x20
 4717 07dc 1A       		.uleb128 0x1a
 4718 07dd D7040000 		.4byte	0x4d7
 4719 07e1 79040000 		.4byte	.LLST21
 4720 07e5 00       		.byte	0
 4721 07e6 00       		.byte	0
 4722 07e7 20       		.uleb128 0x20
 4723 07e8 51040000 		.4byte	0x451
 4724 07ec AA000000 		.4byte	.LBB97
 4725 07f0 08000000 		.4byte	.LBE97-.LBB97
 4726 07f4 01       		.byte	0x1
 4727 07f5 1B03     		.2byte	0x31b
 4728 07f7 21       		.uleb128 0x21
 4729 07f8 9E000000 		.4byte	.LVL68
 4730 07fc 1B040000 		.4byte	0x41b
 4731 0800 21       		.uleb128 0x21
 4732 0801 D2000000 		.4byte	.LVL72
 4733 0805 5A040000 		.4byte	0x45a
 4734 0809 00       		.byte	0
 4735 080a 17       		.uleb128 0x17
 4736 080b 04       		.byte	0x4
 4737 080c 88030000 		.4byte	0x388
 4738 0810 15       		.uleb128 0x15
 4739 0811 1A050000 		.4byte	.LASF100
 4740 0815 01       		.byte	0x1
 4741 0816 3C03     		.2byte	0x33c
 4742 0818 00000000 		.4byte	.LFB121
 4743 081c 0C000000 		.4byte	.LFE121-.LFB121
 4744 0820 01       		.uleb128 0x1
 4745 0821 9C       		.byte	0x9c
 4746 0822 35080000 		.4byte	0x835
 4747 0826 16       		.uleb128 0x16
 4748 0827 5B020000 		.4byte	.LASF98
 4749 082b 01       		.byte	0x1
 4750 082c 3C03     		.2byte	0x33c
 4751 082e 0A080000 		.4byte	0x80a
 4752 0832 01       		.uleb128 0x1
 4753 0833 50       		.byte	0x50
 4754 0834 00       		.byte	0
 4755 0835 15       		.uleb128 0x15
 4756 0836 AC060000 		.4byte	.LASF101
 4757 083a 01       		.byte	0x1
 4758 083b 4F03     		.2byte	0x34f
 4759 083d 00000000 		.4byte	.LFB122
 4760 0841 5C000000 		.4byte	.LFE122-.LFB122
 4761 0845 01       		.uleb128 0x1
 4762 0846 9C       		.byte	0x9c
 4763 0847 ED080000 		.4byte	0x8ed
 4764 084b 1E       		.uleb128 0x1e
ARM GAS  /tmp/ccadBNMM.s 			page 85


 4765 084c 01080000 		.4byte	.LASF97
 4766 0850 01       		.byte	0x1
 4767 0851 4F03     		.2byte	0x34f
 4768 0853 A2000000 		.4byte	0xa2
 4769 0857 B0040000 		.4byte	.LLST22
 4770 085b 16       		.uleb128 0x16
 4771 085c 5B020000 		.4byte	.LASF98
 4772 0860 01       		.byte	0x1
 4773 0861 4F03     		.2byte	0x34f
 4774 0863 0A080000 		.4byte	0x80a
 4775 0867 01       		.uleb128 0x1
 4776 0868 51       		.byte	0x51
 4777 0869 1F       		.uleb128 0x1f
 4778 086a 91010000 		.4byte	.LASF99
 4779 086e 01       		.byte	0x1
 4780 086f 5103     		.2byte	0x351
 4781 0871 A2000000 		.4byte	0xa2
 4782 0875 D1040000 		.4byte	.LLST23
 4783 0879 26       		.uleb128 0x26
 4784 087a 90040000 		.4byte	0x490
 4785 087e 22000000 		.4byte	.LBB100
 4786 0882 38000000 		.4byte	.Ldebug_ranges0+0x38
 4787 0886 01       		.byte	0x1
 4788 0887 6503     		.2byte	0x365
 4789 0889 9E080000 		.4byte	0x89e
 4790 088d 28       		.uleb128 0x28
 4791 088e A1040000 		.4byte	0x4a1
 4792 0892 27       		.uleb128 0x27
 4793 0893 38000000 		.4byte	.Ldebug_ranges0+0x38
 4794 0897 1C       		.uleb128 0x1c
 4795 0898 AD040000 		.4byte	0x4ad
 4796 089c 00       		.byte	0
 4797 089d 00       		.byte	0
 4798 089e 26       		.uleb128 0x26
 4799 089f 90040000 		.4byte	0x490
 4800 08a3 24000000 		.4byte	.LBB104
 4801 08a7 58000000 		.4byte	.Ldebug_ranges0+0x58
 4802 08ab 01       		.byte	0x1
 4803 08ac 6303     		.2byte	0x363
 4804 08ae CB080000 		.4byte	0x8cb
 4805 08b2 25       		.uleb128 0x25
 4806 08b3 A1040000 		.4byte	0x4a1
 4807 08b7 F8040000 		.4byte	.LLST24
 4808 08bb 27       		.uleb128 0x27
 4809 08bc 58000000 		.4byte	.Ldebug_ranges0+0x58
 4810 08c0 1A       		.uleb128 0x1a
 4811 08c1 AD040000 		.4byte	0x4ad
 4812 08c5 0B050000 		.4byte	.LLST25
 4813 08c9 00       		.byte	0
 4814 08ca 00       		.byte	0
 4815 08cb 29       		.uleb128 0x29
 4816 08cc 90040000 		.4byte	0x490
 4817 08d0 26000000 		.4byte	.LBB108
 4818 08d4 78000000 		.4byte	.Ldebug_ranges0+0x78
 4819 08d8 01       		.byte	0x1
 4820 08d9 6403     		.2byte	0x364
 4821 08db 28       		.uleb128 0x28
ARM GAS  /tmp/ccadBNMM.s 			page 86


 4822 08dc A1040000 		.4byte	0x4a1
 4823 08e0 27       		.uleb128 0x27
 4824 08e1 78000000 		.4byte	.Ldebug_ranges0+0x78
 4825 08e5 1C       		.uleb128 0x1c
 4826 08e6 AD040000 		.4byte	0x4ad
 4827 08ea 00       		.byte	0
 4828 08eb 00       		.byte	0
 4829 08ec 00       		.byte	0
 4830 08ed 1D       		.uleb128 0x1d
 4831 08ee EE0A0000 		.4byte	.LASF102
 4832 08f2 01       		.byte	0x1
 4833 08f3 7003     		.2byte	0x370
 4834 08f5 A2000000 		.4byte	0xa2
 4835 08f9 00000000 		.4byte	.LFB123
 4836 08fd 0C000000 		.4byte	.LFE123-.LFB123
 4837 0901 01       		.uleb128 0x1
 4838 0902 9C       		.byte	0x9c
 4839 0903 18090000 		.4byte	0x918
 4840 0907 1F       		.uleb128 0x1f
 4841 0908 91010000 		.4byte	.LASF99
 4842 090c 01       		.byte	0x1
 4843 090d 7203     		.2byte	0x372
 4844 090f A2000000 		.4byte	0xa2
 4845 0913 24050000 		.4byte	.LLST26
 4846 0917 00       		.byte	0
 4847 0918 1D       		.uleb128 0x1d
 4848 0919 24020000 		.4byte	.LASF103
 4849 091d 01       		.byte	0x1
 4850 091e 8903     		.2byte	0x389
 4851 0920 24010000 		.4byte	0x124
 4852 0924 00000000 		.4byte	.LFB124
 4853 0928 DC000000 		.4byte	.LFE124-.LFB124
 4854 092c 01       		.uleb128 0x1
 4855 092d 9C       		.byte	0x9c
 4856 092e 200A0000 		.4byte	0xa20
 4857 0932 1E       		.uleb128 0x1e
 4858 0933 01080000 		.4byte	.LASF97
 4859 0937 01       		.byte	0x1
 4860 0938 8903     		.2byte	0x389
 4861 093a A2000000 		.4byte	0xa2
 4862 093e 43050000 		.4byte	.LLST27
 4863 0942 1E       		.uleb128 0x1e
 4864 0943 2D050000 		.4byte	.LASF104
 4865 0947 01       		.byte	0x1
 4866 0948 8903     		.2byte	0x389
 4867 094a 200A0000 		.4byte	0xa20
 4868 094e 7D050000 		.4byte	.LLST28
 4869 0952 1F       		.uleb128 0x1f
 4870 0953 91010000 		.4byte	.LASF99
 4871 0957 01       		.byte	0x1
 4872 0958 8B03     		.2byte	0x38b
 4873 095a A2000000 		.4byte	0xa2
 4874 095e A9050000 		.4byte	.LLST29
 4875 0962 1F       		.uleb128 0x1f
 4876 0963 310A0000 		.4byte	.LASF76
 4877 0967 01       		.byte	0x1
 4878 0968 8C03     		.2byte	0x38c
ARM GAS  /tmp/ccadBNMM.s 			page 87


 4879 096a 24010000 		.4byte	0x124
 4880 096e EB050000 		.4byte	.LLST30
 4881 0972 24       		.uleb128 0x24
 4882 0973 BA040000 		.4byte	0x4ba
 4883 0977 18000000 		.4byte	.LBB118
 4884 097b 18000000 		.4byte	.LBE118-.LBB118
 4885 097f 01       		.byte	0x1
 4886 0980 AF03     		.2byte	0x3af
 4887 0982 A3090000 		.4byte	0x9a3
 4888 0986 25       		.uleb128 0x25
 4889 0987 CB040000 		.4byte	0x4cb
 4890 098b 2D060000 		.4byte	.LLST31
 4891 098f 1B       		.uleb128 0x1b
 4892 0990 18000000 		.4byte	.LBB119
 4893 0994 18000000 		.4byte	.LBE119-.LBB119
 4894 0998 1A       		.uleb128 0x1a
 4895 0999 D7040000 		.4byte	0x4d7
 4896 099d 64060000 		.4byte	.LLST32
 4897 09a1 00       		.byte	0
 4898 09a2 00       		.byte	0
 4899 09a3 26       		.uleb128 0x26
 4900 09a4 BA040000 		.4byte	0x4ba
 4901 09a8 32000000 		.4byte	.LBB120
 4902 09ac 98000000 		.4byte	.Ldebug_ranges0+0x98
 4903 09b0 01       		.byte	0x1
 4904 09b1 B003     		.2byte	0x3b0
 4905 09b3 D0090000 		.4byte	0x9d0
 4906 09b7 25       		.uleb128 0x25
 4907 09b8 CB040000 		.4byte	0x4cb
 4908 09bc 9B060000 		.4byte	.LLST33
 4909 09c0 27       		.uleb128 0x27
 4910 09c1 98000000 		.4byte	.Ldebug_ranges0+0x98
 4911 09c5 1A       		.uleb128 0x1a
 4912 09c6 D7040000 		.4byte	0x4d7
 4913 09ca D1060000 		.4byte	.LLST34
 4914 09ce 00       		.byte	0
 4915 09cf 00       		.byte	0
 4916 09d0 26       		.uleb128 0x26
 4917 09d1 BA040000 		.4byte	0x4ba
 4918 09d5 50000000 		.4byte	.LBB125
 4919 09d9 B8000000 		.4byte	.Ldebug_ranges0+0xb8
 4920 09dd 01       		.byte	0x1
 4921 09de B103     		.2byte	0x3b1
 4922 09e0 FD090000 		.4byte	0x9fd
 4923 09e4 25       		.uleb128 0x25
 4924 09e5 CB040000 		.4byte	0x4cb
 4925 09e9 14070000 		.4byte	.LLST35
 4926 09ed 27       		.uleb128 0x27
 4927 09ee B8000000 		.4byte	.Ldebug_ranges0+0xb8
 4928 09f2 1A       		.uleb128 0x1a
 4929 09f3 D7040000 		.4byte	0x4d7
 4930 09f7 4B070000 		.4byte	.LLST36
 4931 09fb 00       		.byte	0
 4932 09fc 00       		.byte	0
 4933 09fd 20       		.uleb128 0x20
 4934 09fe 51040000 		.4byte	0x451
 4935 0a02 A8000000 		.4byte	.LBB129
ARM GAS  /tmp/ccadBNMM.s 			page 88


 4936 0a06 08000000 		.4byte	.LBE129-.LBB129
 4937 0a0a 01       		.byte	0x1
 4938 0a0b C403     		.2byte	0x3c4
 4939 0a0d 21       		.uleb128 0x21
 4940 0a0e 9C000000 		.4byte	.LVL116
 4941 0a12 1B040000 		.4byte	0x41b
 4942 0a16 21       		.uleb128 0x21
 4943 0a17 C4000000 		.4byte	.LVL119
 4944 0a1b 5A040000 		.4byte	0x45a
 4945 0a1f 00       		.byte	0
 4946 0a20 17       		.uleb128 0x17
 4947 0a21 04       		.byte	0x4
 4948 0a22 CC030000 		.4byte	0x3cc
 4949 0a26 15       		.uleb128 0x15
 4950 0a27 02020000 		.4byte	.LASF105
 4951 0a2b 01       		.byte	0x1
 4952 0a2c E403     		.2byte	0x3e4
 4953 0a2e 00000000 		.4byte	.LFB125
 4954 0a32 0E000000 		.4byte	.LFE125-.LFB125
 4955 0a36 01       		.uleb128 0x1
 4956 0a37 9C       		.byte	0x9c
 4957 0a38 4B0A0000 		.4byte	0xa4b
 4958 0a3c 16       		.uleb128 0x16
 4959 0a3d 2D050000 		.4byte	.LASF104
 4960 0a41 01       		.byte	0x1
 4961 0a42 E403     		.2byte	0x3e4
 4962 0a44 200A0000 		.4byte	0xa20
 4963 0a48 01       		.uleb128 0x1
 4964 0a49 50       		.byte	0x50
 4965 0a4a 00       		.byte	0
 4966 0a4b 15       		.uleb128 0x15
 4967 0a4c D4070000 		.4byte	.LASF106
 4968 0a50 01       		.byte	0x1
 4969 0a51 F703     		.2byte	0x3f7
 4970 0a53 00000000 		.4byte	.LFB126
 4971 0a57 58000000 		.4byte	.LFE126-.LFB126
 4972 0a5b 01       		.uleb128 0x1
 4973 0a5c 9C       		.byte	0x9c
 4974 0a5d 030B0000 		.4byte	0xb03
 4975 0a61 1E       		.uleb128 0x1e
 4976 0a62 01080000 		.4byte	.LASF97
 4977 0a66 01       		.byte	0x1
 4978 0a67 F703     		.2byte	0x3f7
 4979 0a69 A2000000 		.4byte	0xa2
 4980 0a6d 82070000 		.4byte	.LLST37
 4981 0a71 16       		.uleb128 0x16
 4982 0a72 2D050000 		.4byte	.LASF104
 4983 0a76 01       		.byte	0x1
 4984 0a77 F703     		.2byte	0x3f7
 4985 0a79 200A0000 		.4byte	0xa20
 4986 0a7d 01       		.uleb128 0x1
 4987 0a7e 51       		.byte	0x51
 4988 0a7f 1F       		.uleb128 0x1f
 4989 0a80 91010000 		.4byte	.LASF99
 4990 0a84 01       		.byte	0x1
 4991 0a85 F903     		.2byte	0x3f9
 4992 0a87 A2000000 		.4byte	0xa2
ARM GAS  /tmp/ccadBNMM.s 			page 89


 4993 0a8b A3070000 		.4byte	.LLST38
 4994 0a8f 26       		.uleb128 0x26
 4995 0a90 90040000 		.4byte	0x490
 4996 0a94 20000000 		.4byte	.LBB132
 4997 0a98 D0000000 		.4byte	.Ldebug_ranges0+0xd0
 4998 0a9c 01       		.byte	0x1
 4999 0a9d 0C04     		.2byte	0x40c
 5000 0a9f B40A0000 		.4byte	0xab4
 5001 0aa3 28       		.uleb128 0x28
 5002 0aa4 A1040000 		.4byte	0x4a1
 5003 0aa8 27       		.uleb128 0x27
 5004 0aa9 D0000000 		.4byte	.Ldebug_ranges0+0xd0
 5005 0aad 1C       		.uleb128 0x1c
 5006 0aae AD040000 		.4byte	0x4ad
 5007 0ab2 00       		.byte	0
 5008 0ab3 00       		.byte	0
 5009 0ab4 26       		.uleb128 0x26
 5010 0ab5 90040000 		.4byte	0x490
 5011 0ab9 22000000 		.4byte	.LBB137
 5012 0abd F8000000 		.4byte	.Ldebug_ranges0+0xf8
 5013 0ac1 01       		.byte	0x1
 5014 0ac2 0D04     		.2byte	0x40d
 5015 0ac4 D90A0000 		.4byte	0xad9
 5016 0ac8 28       		.uleb128 0x28
 5017 0ac9 A1040000 		.4byte	0x4a1
 5018 0acd 27       		.uleb128 0x27
 5019 0ace F8000000 		.4byte	.Ldebug_ranges0+0xf8
 5020 0ad2 1C       		.uleb128 0x1c
 5021 0ad3 AD040000 		.4byte	0x4ad
 5022 0ad7 00       		.byte	0
 5023 0ad8 00       		.byte	0
 5024 0ad9 29       		.uleb128 0x29
 5025 0ada 90040000 		.4byte	0x490
 5026 0ade 24000000 		.4byte	.LBB141
 5027 0ae2 18010000 		.4byte	.Ldebug_ranges0+0x118
 5028 0ae6 01       		.byte	0x1
 5029 0ae7 0B04     		.2byte	0x40b
 5030 0ae9 25       		.uleb128 0x25
 5031 0aea A1040000 		.4byte	0x4a1
 5032 0aee CA070000 		.4byte	.LLST39
 5033 0af2 27       		.uleb128 0x27
 5034 0af3 18010000 		.4byte	.Ldebug_ranges0+0x118
 5035 0af7 1A       		.uleb128 0x1a
 5036 0af8 AD040000 		.4byte	0x4ad
 5037 0afc DD070000 		.4byte	.LLST40
 5038 0b00 00       		.byte	0
 5039 0b01 00       		.byte	0
 5040 0b02 00       		.byte	0
 5041 0b03 15       		.uleb128 0x15
 5042 0b04 42060000 		.4byte	.LASF107
 5043 0b08 01       		.byte	0x1
 5044 0b09 3304     		.2byte	0x433
 5045 0b0b 00000000 		.4byte	.LFB127
 5046 0b0f 00010000 		.4byte	.LFE127-.LFB127
 5047 0b13 01       		.uleb128 0x1
 5048 0b14 9C       		.byte	0x9c
 5049 0b15 080C0000 		.4byte	0xc08
ARM GAS  /tmp/ccadBNMM.s 			page 90


 5050 0b19 1E       		.uleb128 0x1e
 5051 0b1a 01080000 		.4byte	.LASF97
 5052 0b1e 01       		.byte	0x1
 5053 0b1f 3304     		.2byte	0x433
 5054 0b21 A2000000 		.4byte	0xa2
 5055 0b25 F6070000 		.4byte	.LLST41
 5056 0b29 16       		.uleb128 0x16
 5057 0b2a 30020000 		.4byte	.LASF108
 5058 0b2e 01       		.byte	0x1
 5059 0b2f 3304     		.2byte	0x433
 5060 0b31 A2000000 		.4byte	0xa2
 5061 0b35 01       		.uleb128 0x1
 5062 0b36 51       		.byte	0x51
 5063 0b37 1E       		.uleb128 0x1e
 5064 0b38 4C000000 		.4byte	.LASF109
 5065 0b3c 01       		.byte	0x1
 5066 0b3d 3304     		.2byte	0x433
 5067 0b3f 080C0000 		.4byte	0xc08
 5068 0b43 49080000 		.4byte	.LLST42
 5069 0b47 1F       		.uleb128 0x1f
 5070 0b48 91010000 		.4byte	.LASF99
 5071 0b4c 01       		.byte	0x1
 5072 0b4d 3504     		.2byte	0x435
 5073 0b4f A2000000 		.4byte	0xa2
 5074 0b53 8E080000 		.4byte	.LLST43
 5075 0b57 26       		.uleb128 0x26
 5076 0b58 BA040000 		.4byte	0x4ba
 5077 0b5c 14000000 		.4byte	.LBB152
 5078 0b60 38010000 		.4byte	.Ldebug_ranges0+0x138
 5079 0b64 01       		.byte	0x1
 5080 0b65 7F04     		.2byte	0x47f
 5081 0b67 840B0000 		.4byte	0xb84
 5082 0b6b 25       		.uleb128 0x25
 5083 0b6c CB040000 		.4byte	0x4cb
 5084 0b70 D0080000 		.4byte	.LLST44
 5085 0b74 27       		.uleb128 0x27
 5086 0b75 38010000 		.4byte	.Ldebug_ranges0+0x138
 5087 0b79 1A       		.uleb128 0x1a
 5088 0b7a D7040000 		.4byte	0x4d7
 5089 0b7e 13090000 		.4byte	.LLST45
 5090 0b82 00       		.byte	0
 5091 0b83 00       		.byte	0
 5092 0b84 26       		.uleb128 0x26
 5093 0b85 BA040000 		.4byte	0x4ba
 5094 0b89 2E000000 		.4byte	.LBB155
 5095 0b8d 50010000 		.4byte	.Ldebug_ranges0+0x150
 5096 0b91 01       		.byte	0x1
 5097 0b92 8004     		.2byte	0x480
 5098 0b94 B10B0000 		.4byte	0xbb1
 5099 0b98 25       		.uleb128 0x25
 5100 0b99 CB040000 		.4byte	0x4cb
 5101 0b9d 56090000 		.4byte	.LLST46
 5102 0ba1 27       		.uleb128 0x27
 5103 0ba2 50010000 		.4byte	.Ldebug_ranges0+0x150
 5104 0ba6 1A       		.uleb128 0x1a
 5105 0ba7 D7040000 		.4byte	0x4d7
 5106 0bab 99090000 		.4byte	.LLST47
ARM GAS  /tmp/ccadBNMM.s 			page 91


 5107 0baf 00       		.byte	0
 5108 0bb0 00       		.byte	0
 5109 0bb1 26       		.uleb128 0x26
 5110 0bb2 BA040000 		.4byte	0x4ba
 5111 0bb6 4C000000 		.4byte	.LBB160
 5112 0bba 70010000 		.4byte	.Ldebug_ranges0+0x170
 5113 0bbe 01       		.byte	0x1
 5114 0bbf 8104     		.2byte	0x481
 5115 0bc1 DE0B0000 		.4byte	0xbde
 5116 0bc5 25       		.uleb128 0x25
 5117 0bc6 CB040000 		.4byte	0x4cb
 5118 0bca DC090000 		.4byte	.LLST48
 5119 0bce 27       		.uleb128 0x27
 5120 0bcf 70010000 		.4byte	.Ldebug_ranges0+0x170
 5121 0bd3 1A       		.uleb128 0x1a
 5122 0bd4 D7040000 		.4byte	0x4d7
 5123 0bd8 130A0000 		.4byte	.LLST49
 5124 0bdc 00       		.byte	0
 5125 0bdd 00       		.byte	0
 5126 0bde 29       		.uleb128 0x29
 5127 0bdf BA040000 		.4byte	0x4ba
 5128 0be3 6A000000 		.4byte	.LBB164
 5129 0be7 88010000 		.4byte	.Ldebug_ranges0+0x188
 5130 0beb 01       		.byte	0x1
 5131 0bec 8304     		.2byte	0x483
 5132 0bee 25       		.uleb128 0x25
 5133 0bef CB040000 		.4byte	0x4cb
 5134 0bf3 4A0A0000 		.4byte	.LLST50
 5135 0bf7 27       		.uleb128 0x27
 5136 0bf8 88010000 		.4byte	.Ldebug_ranges0+0x188
 5137 0bfc 1A       		.uleb128 0x1a
 5138 0bfd D7040000 		.4byte	0x4d7
 5139 0c01 810A0000 		.4byte	.LLST51
 5140 0c05 00       		.byte	0
 5141 0c06 00       		.byte	0
 5142 0c07 00       		.byte	0
 5143 0c08 17       		.uleb128 0x17
 5144 0c09 04       		.byte	0x4
 5145 0c0a 10040000 		.4byte	0x410
 5146 0c0e 15       		.uleb128 0x15
 5147 0c0f E0070000 		.4byte	.LASF110
 5148 0c13 01       		.byte	0x1
 5149 0c14 A204     		.2byte	0x4a2
 5150 0c16 00000000 		.4byte	.LFB128
 5151 0c1a 14000000 		.4byte	.LFE128-.LFB128
 5152 0c1e 01       		.uleb128 0x1
 5153 0c1f 9C       		.byte	0x9c
 5154 0c20 330C0000 		.4byte	0xc33
 5155 0c24 16       		.uleb128 0x16
 5156 0c25 4C000000 		.4byte	.LASF109
 5157 0c29 01       		.byte	0x1
 5158 0c2a A204     		.2byte	0x4a2
 5159 0c2c 080C0000 		.4byte	0xc08
 5160 0c30 01       		.uleb128 0x1
 5161 0c31 50       		.byte	0x50
 5162 0c32 00       		.byte	0
 5163 0c33 15       		.uleb128 0x15
ARM GAS  /tmp/ccadBNMM.s 			page 92


 5164 0c34 500A0000 		.4byte	.LASF111
 5165 0c38 01       		.byte	0x1
 5166 0c39 C004     		.2byte	0x4c0
 5167 0c3b 00000000 		.4byte	.LFB129
 5168 0c3f 94000000 		.4byte	.LFE129-.LFB129
 5169 0c43 01       		.uleb128 0x1
 5170 0c44 9C       		.byte	0x9c
 5171 0c45 200D0000 		.4byte	0xd20
 5172 0c49 1E       		.uleb128 0x1e
 5173 0c4a 01080000 		.4byte	.LASF97
 5174 0c4e 01       		.byte	0x1
 5175 0c4f C004     		.2byte	0x4c0
 5176 0c51 A2000000 		.4byte	0xa2
 5177 0c55 B80A0000 		.4byte	.LLST52
 5178 0c59 1E       		.uleb128 0x1e
 5179 0c5a 30020000 		.4byte	.LASF108
 5180 0c5e 01       		.byte	0x1
 5181 0c5f C004     		.2byte	0x4c0
 5182 0c61 A2000000 		.4byte	0xa2
 5183 0c65 D90A0000 		.4byte	.LLST53
 5184 0c69 16       		.uleb128 0x16
 5185 0c6a 4C000000 		.4byte	.LASF109
 5186 0c6e 01       		.byte	0x1
 5187 0c6f C004     		.2byte	0x4c0
 5188 0c71 080C0000 		.4byte	0xc08
 5189 0c75 01       		.uleb128 0x1
 5190 0c76 52       		.byte	0x52
 5191 0c77 1F       		.uleb128 0x1f
 5192 0c78 91010000 		.4byte	.LASF99
 5193 0c7c 01       		.byte	0x1
 5194 0c7d C204     		.2byte	0x4c2
 5195 0c7f A2000000 		.4byte	0xa2
 5196 0c83 FA0A0000 		.4byte	.LLST54
 5197 0c87 26       		.uleb128 0x26
 5198 0c88 90040000 		.4byte	0x490
 5199 0c8c 46000000 		.4byte	.LBB170
 5200 0c90 A0010000 		.4byte	.Ldebug_ranges0+0x1a0
 5201 0c94 01       		.byte	0x1
 5202 0c95 E004     		.2byte	0x4e0
 5203 0c97 B40C0000 		.4byte	0xcb4
 5204 0c9b 25       		.uleb128 0x25
 5205 0c9c A1040000 		.4byte	0x4a1
 5206 0ca0 190B0000 		.4byte	.LLST55
 5207 0ca4 27       		.uleb128 0x27
 5208 0ca5 A0010000 		.4byte	.Ldebug_ranges0+0x1a0
 5209 0ca9 1A       		.uleb128 0x1a
 5210 0caa AD040000 		.4byte	0x4ad
 5211 0cae 2C0B0000 		.4byte	.LLST56
 5212 0cb2 00       		.byte	0
 5213 0cb3 00       		.byte	0
 5214 0cb4 26       		.uleb128 0x26
 5215 0cb5 90040000 		.4byte	0x490
 5216 0cb9 4A000000 		.4byte	.LBB174
 5217 0cbd C0010000 		.4byte	.Ldebug_ranges0+0x1c0
 5218 0cc1 01       		.byte	0x1
 5219 0cc2 E204     		.2byte	0x4e2
 5220 0cc4 D90C0000 		.4byte	0xcd9
ARM GAS  /tmp/ccadBNMM.s 			page 93


 5221 0cc8 28       		.uleb128 0x28
 5222 0cc9 A1040000 		.4byte	0x4a1
 5223 0ccd 27       		.uleb128 0x27
 5224 0cce C0010000 		.4byte	.Ldebug_ranges0+0x1c0
 5225 0cd2 1C       		.uleb128 0x1c
 5226 0cd3 AD040000 		.4byte	0x4ad
 5227 0cd7 00       		.byte	0
 5228 0cd8 00       		.byte	0
 5229 0cd9 26       		.uleb128 0x26
 5230 0cda 90040000 		.4byte	0x490
 5231 0cde 4C000000 		.4byte	.LBB178
 5232 0ce2 E0010000 		.4byte	.Ldebug_ranges0+0x1e0
 5233 0ce6 01       		.byte	0x1
 5234 0ce7 E604     		.2byte	0x4e6
 5235 0ce9 FE0C0000 		.4byte	0xcfe
 5236 0ced 28       		.uleb128 0x28
 5237 0cee A1040000 		.4byte	0x4a1
 5238 0cf2 27       		.uleb128 0x27
 5239 0cf3 E0010000 		.4byte	.Ldebug_ranges0+0x1e0
 5240 0cf7 1C       		.uleb128 0x1c
 5241 0cf8 AD040000 		.4byte	0x4ad
 5242 0cfc 00       		.byte	0
 5243 0cfd 00       		.byte	0
 5244 0cfe 29       		.uleb128 0x29
 5245 0cff 90040000 		.4byte	0x490
 5246 0d03 4E000000 		.4byte	.LBB182
 5247 0d07 00020000 		.4byte	.Ldebug_ranges0+0x200
 5248 0d0b 01       		.byte	0x1
 5249 0d0c E404     		.2byte	0x4e4
 5250 0d0e 28       		.uleb128 0x28
 5251 0d0f A1040000 		.4byte	0x4a1
 5252 0d13 27       		.uleb128 0x27
 5253 0d14 00020000 		.4byte	.Ldebug_ranges0+0x200
 5254 0d18 1C       		.uleb128 0x1c
 5255 0d19 AD040000 		.4byte	0x4ad
 5256 0d1d 00       		.byte	0
 5257 0d1e 00       		.byte	0
 5258 0d1f 00       		.byte	0
 5259 0d20 1D       		.uleb128 0x1d
 5260 0d21 7F060000 		.4byte	.LASF112
 5261 0d25 01       		.byte	0x1
 5262 0d26 F604     		.2byte	0x4f6
 5263 0d28 24010000 		.4byte	0x124
 5264 0d2c 00000000 		.4byte	.LFB130
 5265 0d30 5C000000 		.4byte	.LFE130-.LFB130
 5266 0d34 01       		.uleb128 0x1
 5267 0d35 9C       		.byte	0x9c
 5268 0d36 8A0D0000 		.4byte	0xd8a
 5269 0d3a 1E       		.uleb128 0x1e
 5270 0d3b 30020000 		.4byte	.LASF108
 5271 0d3f 01       		.byte	0x1
 5272 0d40 F604     		.2byte	0x4f6
 5273 0d42 A2000000 		.4byte	0xa2
 5274 0d46 450B0000 		.4byte	.LLST57
 5275 0d4a 1E       		.uleb128 0x1e
 5276 0d4b 00000000 		.4byte	.LASF89
 5277 0d4f 01       		.byte	0x1
ARM GAS  /tmp/ccadBNMM.s 			page 94


 5278 0d50 F604     		.2byte	0x4f6
 5279 0d52 02010000 		.4byte	0x102
 5280 0d56 7F0B0000 		.4byte	.LLST58
 5281 0d5a 23       		.uleb128 0x23
 5282 0d5b 37080000 		.4byte	.LASF113
 5283 0d5f 01       		.byte	0x1
 5284 0d60 F804     		.2byte	0x4f8
 5285 0d62 B4000000 		.4byte	0xb4
 5286 0d66 02       		.uleb128 0x2
 5287 0d67 91       		.byte	0x91
 5288 0d68 74       		.sleb128 -12
 5289 0d69 1F       		.uleb128 0x1f
 5290 0d6a DC0A0000 		.4byte	.LASF114
 5291 0d6e 01       		.byte	0x1
 5292 0d6f F904     		.2byte	0x4f9
 5293 0d71 A2000000 		.4byte	0xa2
 5294 0d75 AB0B0000 		.4byte	.LLST59
 5295 0d79 1F       		.uleb128 0x1f
 5296 0d7a 310A0000 		.4byte	.LASF76
 5297 0d7e 01       		.byte	0x1
 5298 0d7f FA04     		.2byte	0x4fa
 5299 0d81 24010000 		.4byte	0x124
 5300 0d85 E10B0000 		.4byte	.LLST60
 5301 0d89 00       		.byte	0
 5302 0d8a 15       		.uleb128 0x15
 5303 0d8b 66000000 		.4byte	.LASF115
 5304 0d8f 01       		.byte	0x1
 5305 0d90 5405     		.2byte	0x554
 5306 0d92 00000000 		.4byte	.LFB131
 5307 0d96 28000000 		.4byte	.LFE131-.LFB131
 5308 0d9a 01       		.uleb128 0x1
 5309 0d9b 9C       		.byte	0x9c
 5310 0d9c DD0D0000 		.4byte	0xddd
 5311 0da0 16       		.uleb128 0x16
 5312 0da1 30020000 		.4byte	.LASF108
 5313 0da5 01       		.byte	0x1
 5314 0da6 5405     		.2byte	0x554
 5315 0da8 A2000000 		.4byte	0xa2
 5316 0dac 01       		.uleb128 0x1
 5317 0dad 50       		.byte	0x50
 5318 0dae 16       		.uleb128 0x16
 5319 0daf 16030000 		.4byte	.LASF116
 5320 0db3 01       		.byte	0x1
 5321 0db4 5405     		.2byte	0x554
 5322 0db6 A2000000 		.4byte	0xa2
 5323 0dba 01       		.uleb128 0x1
 5324 0dbb 51       		.byte	0x51
 5325 0dbc 1E       		.uleb128 0x1e
 5326 0dbd 17000000 		.4byte	.LASF117
 5327 0dc1 01       		.byte	0x1
 5328 0dc2 5405     		.2byte	0x554
 5329 0dc4 A2000000 		.4byte	0xa2
 5330 0dc8 180C0000 		.4byte	.LLST61
 5331 0dcc 1F       		.uleb128 0x1f
 5332 0dcd 91010000 		.4byte	.LASF99
 5333 0dd1 01       		.byte	0x1
 5334 0dd2 5605     		.2byte	0x556
ARM GAS  /tmp/ccadBNMM.s 			page 95


 5335 0dd4 A2000000 		.4byte	0xa2
 5336 0dd8 390C0000 		.4byte	.LLST62
 5337 0ddc 00       		.byte	0
 5338 0ddd 1D       		.uleb128 0x1d
 5339 0dde 0F060000 		.4byte	.LASF118
 5340 0de2 01       		.byte	0x1
 5341 0de3 7D05     		.2byte	0x57d
 5342 0de5 A2000000 		.4byte	0xa2
 5343 0de9 00000000 		.4byte	.LFB132
 5344 0ded 18000000 		.4byte	.LFE132-.LFB132
 5345 0df1 01       		.uleb128 0x1
 5346 0df2 9C       		.byte	0x9c
 5347 0df3 180E0000 		.4byte	0xe18
 5348 0df7 1E       		.uleb128 0x1e
 5349 0df8 30020000 		.4byte	.LASF108
 5350 0dfc 01       		.byte	0x1
 5351 0dfd 7D05     		.2byte	0x57d
 5352 0dff A2000000 		.4byte	0xa2
 5353 0e03 690C0000 		.4byte	.LLST63
 5354 0e07 1F       		.uleb128 0x1f
 5355 0e08 91010000 		.4byte	.LASF99
 5356 0e0c 01       		.byte	0x1
 5357 0e0d 7F05     		.2byte	0x57f
 5358 0e0f A2000000 		.4byte	0xa2
 5359 0e13 8A0C0000 		.4byte	.LLST64
 5360 0e17 00       		.byte	0
 5361 0e18 15       		.uleb128 0x15
 5362 0e19 4C050000 		.4byte	.LASF119
 5363 0e1d 01       		.byte	0x1
 5364 0e1e AD05     		.2byte	0x5ad
 5365 0e20 00000000 		.4byte	.LFB133
 5366 0e24 24000000 		.4byte	.LFE133-.LFB133
 5367 0e28 01       		.uleb128 0x1
 5368 0e29 9C       		.byte	0x9c
 5369 0e2a 3F0E0000 		.4byte	0xe3f
 5370 0e2e 1E       		.uleb128 0x1e
 5371 0e2f 8C060000 		.4byte	.LASF120
 5372 0e33 01       		.byte	0x1
 5373 0e34 AD05     		.2byte	0x5ad
 5374 0e36 A2000000 		.4byte	0xa2
 5375 0e3a A90C0000 		.4byte	.LLST65
 5376 0e3e 00       		.byte	0
 5377 0e3f 15       		.uleb128 0x15
 5378 0e40 B70A0000 		.4byte	.LASF121
 5379 0e44 01       		.byte	0x1
 5380 0e45 C805     		.2byte	0x5c8
 5381 0e47 00000000 		.4byte	.LFB134
 5382 0e4b 1C000000 		.4byte	.LFE134-.LFB134
 5383 0e4f 01       		.uleb128 0x1
 5384 0e50 9C       		.byte	0x9c
 5385 0e51 640E0000 		.4byte	0xe64
 5386 0e55 16       		.uleb128 0x16
 5387 0e56 ED050000 		.4byte	.LASF122
 5388 0e5a 01       		.byte	0x1
 5389 0e5b C805     		.2byte	0x5c8
 5390 0e5d A2000000 		.4byte	0xa2
 5391 0e61 01       		.uleb128 0x1
ARM GAS  /tmp/ccadBNMM.s 			page 96


 5392 0e62 50       		.byte	0x50
 5393 0e63 00       		.byte	0
 5394 0e64 2A       		.uleb128 0x2a
 5395 0e65 D1040000 		.4byte	.LASF127
 5396 0e69 01       		.byte	0x1
 5397 0e6a DD05     		.2byte	0x5dd
 5398 0e6c A2000000 		.4byte	0xa2
 5399 0e70 00000000 		.4byte	.LFB135
 5400 0e74 0C000000 		.4byte	.LFE135-.LFB135
 5401 0e78 01       		.uleb128 0x1
 5402 0e79 9C       		.byte	0x9c
 5403 0e7a 1D       		.uleb128 0x1d
 5404 0e7b 7D010000 		.4byte	.LASF123
 5405 0e7f 01       		.byte	0x1
 5406 0e80 E905     		.2byte	0x5e9
 5407 0e82 24010000 		.4byte	0x124
 5408 0e86 00000000 		.4byte	.LFB136
 5409 0e8a 58000000 		.4byte	.LFE136-.LFB136
 5410 0e8e 01       		.uleb128 0x1
 5411 0e8f 9C       		.byte	0x9c
 5412 0e90 D40E0000 		.4byte	0xed4
 5413 0e94 1E       		.uleb128 0x1e
 5414 0e95 00000000 		.4byte	.LASF89
 5415 0e99 01       		.byte	0x1
 5416 0e9a E905     		.2byte	0x5e9
 5417 0e9c 02010000 		.4byte	0x102
 5418 0ea0 CA0C0000 		.4byte	.LLST66
 5419 0ea4 23       		.uleb128 0x23
 5420 0ea5 4B040000 		.4byte	.LASF92
 5421 0ea9 01       		.byte	0x1
 5422 0eaa EB05     		.2byte	0x5eb
 5423 0eac B4000000 		.4byte	0xb4
 5424 0eb0 02       		.uleb128 0x2
 5425 0eb1 91       		.byte	0x91
 5426 0eb2 74       		.sleb128 -12
 5427 0eb3 1F       		.uleb128 0x1f
 5428 0eb4 71010000 		.4byte	.LASF93
 5429 0eb8 01       		.byte	0x1
 5430 0eb9 EC05     		.2byte	0x5ec
 5431 0ebb A2000000 		.4byte	0xa2
 5432 0ebf 040D0000 		.4byte	.LLST67
 5433 0ec3 1F       		.uleb128 0x1f
 5434 0ec4 310A0000 		.4byte	.LASF76
 5435 0ec8 01       		.byte	0x1
 5436 0ec9 ED05     		.2byte	0x5ed
 5437 0ecb 24010000 		.4byte	0x124
 5438 0ecf 3A0D0000 		.4byte	.LLST68
 5439 0ed3 00       		.byte	0
 5440 0ed4 15       		.uleb128 0x15
 5441 0ed5 8E000000 		.4byte	.LASF124
 5442 0ed9 01       		.byte	0x1
 5443 0eda 3506     		.2byte	0x635
 5444 0edc 00000000 		.4byte	.LFB137
 5445 0ee0 2C000000 		.4byte	.LFE137-.LFB137
 5446 0ee4 01       		.uleb128 0x1
 5447 0ee5 9C       		.byte	0x9c
 5448 0ee6 0B0F0000 		.4byte	0xf0b
ARM GAS  /tmp/ccadBNMM.s 			page 97


 5449 0eea 1E       		.uleb128 0x1e
 5450 0eeb 39000000 		.4byte	.LASF125
 5451 0eef 01       		.byte	0x1
 5452 0ef0 3506     		.2byte	0x635
 5453 0ef2 A2000000 		.4byte	0xa2
 5454 0ef6 710D0000 		.4byte	.LLST69
 5455 0efa 1E       		.uleb128 0x1e
 5456 0efb 56040000 		.4byte	.LASF126
 5457 0eff 01       		.byte	0x1
 5458 0f00 3506     		.2byte	0x635
 5459 0f02 A2000000 		.4byte	0xa2
 5460 0f06 920D0000 		.4byte	.LLST70
 5461 0f0a 00       		.byte	0
 5462 0f0b 2A       		.uleb128 0x2a
 5463 0f0c CD000000 		.4byte	.LASF128
 5464 0f10 01       		.byte	0x1
 5465 0f11 5006     		.2byte	0x650
 5466 0f13 A2000000 		.4byte	0xa2
 5467 0f17 00000000 		.4byte	.LFB138
 5468 0f1b 10000000 		.4byte	.LFE138-.LFB138
 5469 0f1f 01       		.uleb128 0x1
 5470 0f20 9C       		.byte	0x9c
 5471 0f21 15       		.uleb128 0x15
 5472 0f22 C0040000 		.4byte	.LASF129
 5473 0f26 01       		.byte	0x1
 5474 0f27 7606     		.2byte	0x676
 5475 0f29 00000000 		.4byte	.LFB139
 5476 0f2d 2C000000 		.4byte	.LFE139-.LFB139
 5477 0f31 01       		.uleb128 0x1
 5478 0f32 9C       		.byte	0x9c
 5479 0f33 580F0000 		.4byte	0xf58
 5480 0f37 1E       		.uleb128 0x1e
 5481 0f38 95040000 		.4byte	.LASF130
 5482 0f3c 01       		.byte	0x1
 5483 0f3d 7606     		.2byte	0x676
 5484 0f3f A2000000 		.4byte	0xa2
 5485 0f43 B30D0000 		.4byte	.LLST71
 5486 0f47 1E       		.uleb128 0x1e
 5487 0f48 CE060000 		.4byte	.LASF131
 5488 0f4c 01       		.byte	0x1
 5489 0f4d 7606     		.2byte	0x676
 5490 0f4f A2000000 		.4byte	0xa2
 5491 0f53 D40D0000 		.4byte	.LLST72
 5492 0f57 00       		.byte	0
 5493 0f58 15       		.uleb128 0x15
 5494 0f59 870A0000 		.4byte	.LASF132
 5495 0f5d 01       		.byte	0x1
 5496 0f5e A106     		.2byte	0x6a1
 5497 0f60 00000000 		.4byte	.LFB140
 5498 0f64 30000000 		.4byte	.LFE140-.LFB140
 5499 0f68 01       		.uleb128 0x1
 5500 0f69 9C       		.byte	0x9c
 5501 0f6a 7D0F0000 		.4byte	0xf7d
 5502 0f6e 16       		.uleb128 0x16
 5503 0f6f 00000000 		.4byte	.LASF89
 5504 0f73 01       		.byte	0x1
 5505 0f74 A106     		.2byte	0x6a1
ARM GAS  /tmp/ccadBNMM.s 			page 98


 5506 0f76 02010000 		.4byte	0x102
 5507 0f7a 01       		.uleb128 0x1
 5508 0f7b 50       		.byte	0x50
 5509 0f7c 00       		.byte	0
 5510 0f7d 15       		.uleb128 0x15
 5511 0f7e 98010000 		.4byte	.LASF133
 5512 0f82 01       		.byte	0x1
 5513 0f83 C106     		.2byte	0x6c1
 5514 0f85 00000000 		.4byte	.LFB141
 5515 0f89 24000000 		.4byte	.LFE141-.LFB141
 5516 0f8d 01       		.uleb128 0x1
 5517 0f8e 9C       		.byte	0x9c
 5518 0f8f A40F0000 		.4byte	0xfa4
 5519 0f93 1E       		.uleb128 0x1e
 5520 0f94 3C050000 		.4byte	.LASF134
 5521 0f98 01       		.byte	0x1
 5522 0f99 C106     		.2byte	0x6c1
 5523 0f9b A2000000 		.4byte	0xa2
 5524 0f9f F50D0000 		.4byte	.LLST73
 5525 0fa3 00       		.byte	0
 5526 0fa4 1D       		.uleb128 0x1d
 5527 0fa5 550B0000 		.4byte	.LASF135
 5528 0fa9 01       		.byte	0x1
 5529 0faa E506     		.2byte	0x6e5
 5530 0fac 24010000 		.4byte	0x124
 5531 0fb0 00000000 		.4byte	.LFB142
 5532 0fb4 4C000000 		.4byte	.LFE142-.LFB142
 5533 0fb8 01       		.uleb128 0x1
 5534 0fb9 9C       		.byte	0x9c
 5535 0fba 0F100000 		.4byte	0x100f
 5536 0fbe 1E       		.uleb128 0x1e
 5537 0fbf CE020000 		.4byte	.LASF136
 5538 0fc3 01       		.byte	0x1
 5539 0fc4 E506     		.2byte	0x6e5
 5540 0fc6 A2000000 		.4byte	0xa2
 5541 0fca 160E0000 		.4byte	.LLST74
 5542 0fce 1E       		.uleb128 0x1e
 5543 0fcf AE010000 		.4byte	.LASF137
 5544 0fd3 01       		.byte	0x1
 5545 0fd4 E606     		.2byte	0x6e6
 5546 0fd6 A2000000 		.4byte	0xa2
 5547 0fda 500E0000 		.4byte	.LLST75
 5548 0fde 1E       		.uleb128 0x1e
 5549 0fdf E4020000 		.4byte	.LASF138
 5550 0fe3 01       		.byte	0x1
 5551 0fe4 E706     		.2byte	0x6e7
 5552 0fe6 A2000000 		.4byte	0xa2
 5553 0fea 7C0E0000 		.4byte	.LLST76
 5554 0fee 1F       		.uleb128 0x1f
 5555 0fef 310A0000 		.4byte	.LASF76
 5556 0ff3 01       		.byte	0x1
 5557 0ff4 E906     		.2byte	0x6e9
 5558 0ff6 24010000 		.4byte	0x124
 5559 0ffa A80E0000 		.4byte	.LLST77
 5560 0ffe 1F       		.uleb128 0x1f
 5561 0fff EF000000 		.4byte	.LASF139
 5562 1003 01       		.byte	0x1
ARM GAS  /tmp/ccadBNMM.s 			page 99


 5563 1004 EA06     		.2byte	0x6ea
 5564 1006 A2000000 		.4byte	0xa2
 5565 100a DF0E0000 		.4byte	.LLST78
 5566 100e 00       		.byte	0
 5567 100f 15       		.uleb128 0x15
 5568 1010 26010000 		.4byte	.LASF140
 5569 1014 01       		.byte	0x1
 5570 1015 3107     		.2byte	0x731
 5571 1017 00000000 		.4byte	.LFB143
 5572 101b 34000000 		.4byte	.LFE143-.LFB143
 5573 101f 01       		.uleb128 0x1
 5574 1020 9C       		.byte	0x9c
 5575 1021 56100000 		.4byte	0x1056
 5576 1025 1E       		.uleb128 0x1e
 5577 1026 B7080000 		.4byte	.LASF141
 5578 102a 01       		.byte	0x1
 5579 102b 3107     		.2byte	0x731
 5580 102d A2000000 		.4byte	0xa2
 5581 1031 260F0000 		.4byte	.LLST79
 5582 1035 1E       		.uleb128 0x1e
 5583 1036 00000000 		.4byte	.LASF89
 5584 103a 01       		.byte	0x1
 5585 103b 3107     		.2byte	0x731
 5586 103d 02010000 		.4byte	0x102
 5587 1041 600F0000 		.4byte	.LLST80
 5588 1045 1F       		.uleb128 0x1f
 5589 1046 91010000 		.4byte	.LASF99
 5590 104a 01       		.byte	0x1
 5591 104b 3307     		.2byte	0x733
 5592 104d A2000000 		.4byte	0xa2
 5593 1051 8C0F0000 		.4byte	.LLST81
 5594 1055 00       		.byte	0
 5595 1056 15       		.uleb128 0x15
 5596 1057 4B030000 		.4byte	.LASF142
 5597 105b 01       		.byte	0x1
 5598 105c 5D07     		.2byte	0x75d
 5599 105e 00000000 		.4byte	.LFB144
 5600 1062 BC000000 		.4byte	.LFE144-.LFB144
 5601 1066 01       		.uleb128 0x1
 5602 1067 9C       		.byte	0x9c
 5603 1068 C5110000 		.4byte	0x11c5
 5604 106c 1E       		.uleb128 0x1e
 5605 106d 01080000 		.4byte	.LASF97
 5606 1071 01       		.byte	0x1
 5607 1072 5D07     		.2byte	0x75d
 5608 1074 A2000000 		.4byte	0xa2
 5609 1078 CC0F0000 		.4byte	.LLST82
 5610 107c 1E       		.uleb128 0x1e
 5611 107d A0040000 		.4byte	.LASF143
 5612 1081 01       		.byte	0x1
 5613 1082 5D07     		.2byte	0x75d
 5614 1084 0A080000 		.4byte	0x80a
 5615 1088 ED0F0000 		.4byte	.LLST83
 5616 108c 16       		.uleb128 0x16
 5617 108d F8060000 		.4byte	.LASF144
 5618 1091 01       		.byte	0x1
 5619 1092 5E07     		.2byte	0x75e
ARM GAS  /tmp/ccadBNMM.s 			page 100


 5620 1094 200A0000 		.4byte	0xa20
 5621 1098 01       		.uleb128 0x1
 5622 1099 52       		.byte	0x52
 5623 109a 1F       		.uleb128 0x1f
 5624 109b 15020000 		.4byte	.LASF145
 5625 109f 01       		.byte	0x1
 5626 10a0 6007     		.2byte	0x760
 5627 10a2 A2000000 		.4byte	0xa2
 5628 10a6 0E100000 		.4byte	.LLST84
 5629 10aa 1F       		.uleb128 0x1f
 5630 10ab 71050000 		.4byte	.LASF146
 5631 10af 01       		.byte	0x1
 5632 10b0 6007     		.2byte	0x760
 5633 10b2 A2000000 		.4byte	0xa2
 5634 10b6 35100000 		.4byte	.LLST85
 5635 10ba 26       		.uleb128 0x26
 5636 10bb 90040000 		.4byte	0x490
 5637 10bf 4A000000 		.4byte	.LBB192
 5638 10c3 18020000 		.4byte	.Ldebug_ranges0+0x218
 5639 10c7 01       		.byte	0x1
 5640 10c8 7907     		.2byte	0x779
 5641 10ca E7100000 		.4byte	0x10e7
 5642 10ce 25       		.uleb128 0x25
 5643 10cf A1040000 		.4byte	0x4a1
 5644 10d3 5C100000 		.4byte	.LLST86
 5645 10d7 27       		.uleb128 0x27
 5646 10d8 18020000 		.4byte	.Ldebug_ranges0+0x218
 5647 10dc 1A       		.uleb128 0x1a
 5648 10dd AD040000 		.4byte	0x4ad
 5649 10e1 70100000 		.4byte	.LLST87
 5650 10e5 00       		.byte	0
 5651 10e6 00       		.byte	0
 5652 10e7 26       		.uleb128 0x26
 5653 10e8 90040000 		.4byte	0x490
 5654 10ec 4C000000 		.4byte	.LBB197
 5655 10f0 40020000 		.4byte	.Ldebug_ranges0+0x240
 5656 10f4 01       		.byte	0x1
 5657 10f5 7A07     		.2byte	0x77a
 5658 10f7 14110000 		.4byte	0x1114
 5659 10fb 25       		.uleb128 0x25
 5660 10fc A1040000 		.4byte	0x4a1
 5661 1100 9C100000 		.4byte	.LLST88
 5662 1104 27       		.uleb128 0x27
 5663 1105 40020000 		.4byte	.Ldebug_ranges0+0x240
 5664 1109 1A       		.uleb128 0x1a
 5665 110a AD040000 		.4byte	0x4ad
 5666 110e B0100000 		.4byte	.LLST89
 5667 1112 00       		.byte	0
 5668 1113 00       		.byte	0
 5669 1114 26       		.uleb128 0x26
 5670 1115 90040000 		.4byte	0x490
 5671 1119 4E000000 		.4byte	.LBB202
 5672 111d 68020000 		.4byte	.Ldebug_ranges0+0x268
 5673 1121 01       		.byte	0x1
 5674 1122 7B07     		.2byte	0x77b
 5675 1124 41110000 		.4byte	0x1141
 5676 1128 25       		.uleb128 0x25
ARM GAS  /tmp/ccadBNMM.s 			page 101


 5677 1129 A1040000 		.4byte	0x4a1
 5678 112d DC100000 		.4byte	.LLST90
 5679 1131 27       		.uleb128 0x27
 5680 1132 68020000 		.4byte	.Ldebug_ranges0+0x268
 5681 1136 1A       		.uleb128 0x1a
 5682 1137 AD040000 		.4byte	0x4ad
 5683 113b F0100000 		.4byte	.LLST91
 5684 113f 00       		.byte	0
 5685 1140 00       		.byte	0
 5686 1141 26       		.uleb128 0x26
 5687 1142 90040000 		.4byte	0x490
 5688 1146 80000000 		.4byte	.LBB216
 5689 114a 90020000 		.4byte	.Ldebug_ranges0+0x290
 5690 114e 01       		.byte	0x1
 5691 114f 7E07     		.2byte	0x77e
 5692 1151 6E110000 		.4byte	0x116e
 5693 1155 25       		.uleb128 0x25
 5694 1156 A1040000 		.4byte	0x4a1
 5695 115a 1C110000 		.4byte	.LLST92
 5696 115e 27       		.uleb128 0x27
 5697 115f 90020000 		.4byte	.Ldebug_ranges0+0x290
 5698 1163 1A       		.uleb128 0x1a
 5699 1164 AD040000 		.4byte	0x4ad
 5700 1168 30110000 		.4byte	.LLST93
 5701 116c 00       		.byte	0
 5702 116d 00       		.byte	0
 5703 116e 26       		.uleb128 0x26
 5704 116f 90040000 		.4byte	0x490
 5705 1173 82000000 		.4byte	.LBB220
 5706 1177 B0020000 		.4byte	.Ldebug_ranges0+0x2b0
 5707 117b 01       		.byte	0x1
 5708 117c 7F07     		.2byte	0x77f
 5709 117e 9B110000 		.4byte	0x119b
 5710 1182 25       		.uleb128 0x25
 5711 1183 A1040000 		.4byte	0x4a1
 5712 1187 5C110000 		.4byte	.LLST94
 5713 118b 27       		.uleb128 0x27
 5714 118c B0020000 		.4byte	.Ldebug_ranges0+0x2b0
 5715 1190 1A       		.uleb128 0x1a
 5716 1191 AD040000 		.4byte	0x4ad
 5717 1195 70110000 		.4byte	.LLST95
 5718 1199 00       		.byte	0
 5719 119a 00       		.byte	0
 5720 119b 29       		.uleb128 0x29
 5721 119c 90040000 		.4byte	0x490
 5722 11a0 84000000 		.4byte	.LBB224
 5723 11a4 D0020000 		.4byte	.Ldebug_ranges0+0x2d0
 5724 11a8 01       		.byte	0x1
 5725 11a9 8007     		.2byte	0x780
 5726 11ab 25       		.uleb128 0x25
 5727 11ac A1040000 		.4byte	0x4a1
 5728 11b0 9C110000 		.4byte	.LLST96
 5729 11b4 27       		.uleb128 0x27
 5730 11b5 D0020000 		.4byte	.Ldebug_ranges0+0x2d0
 5731 11b9 1A       		.uleb128 0x1a
 5732 11ba AD040000 		.4byte	0x4ad
 5733 11be B0110000 		.4byte	.LLST97
ARM GAS  /tmp/ccadBNMM.s 			page 102


 5734 11c2 00       		.byte	0
 5735 11c3 00       		.byte	0
 5736 11c4 00       		.byte	0
 5737 11c5 2A       		.uleb128 0x2a
 5738 11c6 79050000 		.4byte	.LASF147
 5739 11ca 01       		.byte	0x1
 5740 11cb 8907     		.2byte	0x789
 5741 11cd A2000000 		.4byte	0xa2
 5742 11d1 00000000 		.4byte	.LFB145
 5743 11d5 0C000000 		.4byte	.LFE145-.LFB145
 5744 11d9 01       		.uleb128 0x1
 5745 11da 9C       		.byte	0x9c
 5746 11db 15       		.uleb128 0x15
 5747 11dc 67060000 		.4byte	.LASF148
 5748 11e0 01       		.byte	0x1
 5749 11e1 AF07     		.2byte	0x7af
 5750 11e3 00000000 		.4byte	.LFB146
 5751 11e7 1C000000 		.4byte	.LFE146-.LFB146
 5752 11eb 01       		.uleb128 0x1
 5753 11ec 9C       		.byte	0x9c
 5754 11ed 10120000 		.4byte	0x1210
 5755 11f1 1E       		.uleb128 0x1e
 5756 11f2 8A040000 		.4byte	.LASF149
 5757 11f6 01       		.byte	0x1
 5758 11f7 AF07     		.2byte	0x7af
 5759 11f9 A2000000 		.4byte	0xa2
 5760 11fd DC110000 		.4byte	.LLST98
 5761 1201 16       		.uleb128 0x16
 5762 1202 A2050000 		.4byte	.LASF150
 5763 1206 01       		.byte	0x1
 5764 1207 AF07     		.2byte	0x7af
 5765 1209 A2000000 		.4byte	0xa2
 5766 120d 01       		.uleb128 0x1
 5767 120e 51       		.byte	0x51
 5768 120f 00       		.byte	0
 5769 1210 15       		.uleb128 0x15
 5770 1211 37010000 		.4byte	.LASF151
 5771 1215 01       		.byte	0x1
 5772 1216 CD07     		.2byte	0x7cd
 5773 1218 00000000 		.4byte	.LFB147
 5774 121c 18000000 		.4byte	.LFE147-.LFB147
 5775 1220 01       		.uleb128 0x1
 5776 1221 9C       		.byte	0x9c
 5777 1222 45120000 		.4byte	0x1245
 5778 1226 1E       		.uleb128 0x1e
 5779 1227 8A040000 		.4byte	.LASF149
 5780 122b 01       		.byte	0x1
 5781 122c CD07     		.2byte	0x7cd
 5782 122e A2000000 		.4byte	0xa2
 5783 1232 16120000 		.4byte	.LLST99
 5784 1236 16       		.uleb128 0x16
 5785 1237 00000000 		.4byte	.LASF89
 5786 123b 01       		.byte	0x1
 5787 123c CD07     		.2byte	0x7cd
 5788 123e 02010000 		.4byte	0x102
 5789 1242 01       		.uleb128 0x1
 5790 1243 51       		.byte	0x51
ARM GAS  /tmp/ccadBNMM.s 			page 103


 5791 1244 00       		.byte	0
 5792 1245 15       		.uleb128 0x15
 5793 1246 AD020000 		.4byte	.LASF152
 5794 124a 01       		.byte	0x1
 5795 124b EC07     		.2byte	0x7ec
 5796 124d 00000000 		.4byte	.LFB148
 5797 1251 18000000 		.4byte	.LFE148-.LFB148
 5798 1255 01       		.uleb128 0x1
 5799 1256 9C       		.byte	0x9c
 5800 1257 6C120000 		.4byte	0x126c
 5801 125b 1E       		.uleb128 0x1e
 5802 125c C3070000 		.4byte	.LASF153
 5803 1260 01       		.byte	0x1
 5804 1261 EC07     		.2byte	0x7ec
 5805 1263 A2000000 		.4byte	0xa2
 5806 1267 50120000 		.4byte	.LLST100
 5807 126b 00       		.byte	0
 5808 126c 15       		.uleb128 0x15
 5809 126d 380B0000 		.4byte	.LASF154
 5810 1271 01       		.byte	0x1
 5811 1272 0E08     		.2byte	0x80e
 5812 1274 00000000 		.4byte	.LFB149
 5813 1278 18000000 		.4byte	.LFE149-.LFB149
 5814 127c 01       		.uleb128 0x1
 5815 127d 9C       		.byte	0x9c
 5816 127e 93120000 		.4byte	0x1293
 5817 1282 1E       		.uleb128 0x1e
 5818 1283 E1060000 		.4byte	.LASF155
 5819 1287 01       		.byte	0x1
 5820 1288 0E08     		.2byte	0x80e
 5821 128a A2000000 		.4byte	0xa2
 5822 128e 71120000 		.4byte	.LLST101
 5823 1292 00       		.byte	0
 5824 1293 15       		.uleb128 0x15
 5825 1294 88070000 		.4byte	.LASF156
 5826 1298 01       		.byte	0x1
 5827 1299 2508     		.2byte	0x825
 5828 129b 00000000 		.4byte	.LFB150
 5829 129f 18000000 		.4byte	.LFE150-.LFB150
 5830 12a3 01       		.uleb128 0x1
 5831 12a4 9C       		.byte	0x9c
 5832 12a5 BA120000 		.4byte	0x12ba
 5833 12a9 1E       		.uleb128 0x1e
 5834 12aa 0C080000 		.4byte	.LASF157
 5835 12ae 01       		.byte	0x1
 5836 12af 2508     		.2byte	0x825
 5837 12b1 A2000000 		.4byte	0xa2
 5838 12b5 92120000 		.4byte	.LLST102
 5839 12b9 00       		.byte	0
 5840 12ba 15       		.uleb128 0x15
 5841 12bb C4050000 		.4byte	.LASF158
 5842 12bf 01       		.byte	0x1
 5843 12c0 3908     		.2byte	0x839
 5844 12c2 00000000 		.4byte	.LFB151
 5845 12c6 1C000000 		.4byte	.LFE151-.LFB151
 5846 12ca 01       		.uleb128 0x1
 5847 12cb 9C       		.byte	0x9c
ARM GAS  /tmp/ccadBNMM.s 			page 104


 5848 12cc DF120000 		.4byte	0x12df
 5849 12d0 16       		.uleb128 0x16
 5850 12d1 00000000 		.4byte	.LASF89
 5851 12d5 01       		.byte	0x1
 5852 12d6 3908     		.2byte	0x839
 5853 12d8 02010000 		.4byte	0x102
 5854 12dc 01       		.uleb128 0x1
 5855 12dd 50       		.byte	0x50
 5856 12de 00       		.byte	0
 5857 12df 15       		.uleb128 0x15
 5858 12e0 170B0000 		.4byte	.LASF159
 5859 12e4 01       		.byte	0x1
 5860 12e5 5008     		.2byte	0x850
 5861 12e7 00000000 		.4byte	.LFB152
 5862 12eb 1C000000 		.4byte	.LFE152-.LFB152
 5863 12ef 01       		.uleb128 0x1
 5864 12f0 9C       		.byte	0x9c
 5865 12f1 04130000 		.4byte	0x1304
 5866 12f5 16       		.uleb128 0x16
 5867 12f6 00000000 		.4byte	.LASF89
 5868 12fa 01       		.byte	0x1
 5869 12fb 5008     		.2byte	0x850
 5870 12fd 02010000 		.4byte	0x102
 5871 1301 01       		.uleb128 0x1
 5872 1302 50       		.byte	0x50
 5873 1303 00       		.byte	0
 5874 1304 15       		.uleb128 0x15
 5875 1305 0C070000 		.4byte	.LASF160
 5876 1309 01       		.byte	0x1
 5877 130a 7908     		.2byte	0x879
 5878 130c 00000000 		.4byte	.LFB153
 5879 1310 20000000 		.4byte	.LFE153-.LFB153
 5880 1314 01       		.uleb128 0x1
 5881 1315 9C       		.byte	0x9c
 5882 1316 48130000 		.4byte	0x1348
 5883 131a 1E       		.uleb128 0x1e
 5884 131b 7D070000 		.4byte	.LASF161
 5885 131f 01       		.byte	0x1
 5886 1320 7908     		.2byte	0x879
 5887 1322 A2000000 		.4byte	0xa2
 5888 1326 B3120000 		.4byte	.LLST103
 5889 132a 16       		.uleb128 0x16
 5890 132b 6B0A0000 		.4byte	.LASF162
 5891 132f 01       		.byte	0x1
 5892 1330 7908     		.2byte	0x879
 5893 1332 A2000000 		.4byte	0xa2
 5894 1336 01       		.uleb128 0x1
 5895 1337 51       		.byte	0x51
 5896 1338 2B       		.uleb128 0x2b
 5897 1339 746D7000 		.ascii	"tmp\000"
 5898 133d 01       		.byte	0x1
 5899 133e 7B08     		.2byte	0x87b
 5900 1340 B4000000 		.4byte	0xb4
 5901 1344 02       		.uleb128 0x2
 5902 1345 91       		.byte	0x91
 5903 1346 7C       		.sleb128 -4
 5904 1347 00       		.byte	0
ARM GAS  /tmp/ccadBNMM.s 			page 105


 5905 1348 1D       		.uleb128 0x1d
 5906 1349 62030000 		.4byte	.LASF163
 5907 134d 01       		.byte	0x1
 5908 134e 8E08     		.2byte	0x88e
 5909 1350 A2000000 		.4byte	0xa2
 5910 1354 00000000 		.4byte	.LFB154
 5911 1358 20000000 		.4byte	.LFE154-.LFB154
 5912 135c 01       		.uleb128 0x1
 5913 135d 9C       		.byte	0x9c
 5914 135e 82130000 		.4byte	0x1382
 5915 1362 1E       		.uleb128 0x1e
 5916 1363 7D070000 		.4byte	.LASF161
 5917 1367 01       		.byte	0x1
 5918 1368 8E08     		.2byte	0x88e
 5919 136a A2000000 		.4byte	0xa2
 5920 136e D4120000 		.4byte	.LLST104
 5921 1372 2B       		.uleb128 0x2b
 5922 1373 746D7000 		.ascii	"tmp\000"
 5923 1377 01       		.byte	0x1
 5924 1378 9008     		.2byte	0x890
 5925 137a B4000000 		.4byte	0xb4
 5926 137e 02       		.uleb128 0x2
 5927 137f 91       		.byte	0x91
 5928 1380 7C       		.sleb128 -4
 5929 1381 00       		.byte	0
 5930 1382 15       		.uleb128 0x15
 5931 1383 C9080000 		.4byte	.LASF164
 5932 1387 01       		.byte	0x1
 5933 1388 B608     		.2byte	0x8b6
 5934 138a 00000000 		.4byte	.LFB155
 5935 138e 18000000 		.4byte	.LFE155-.LFB155
 5936 1392 01       		.uleb128 0x1
 5937 1393 9C       		.byte	0x9c
 5938 1394 A9130000 		.4byte	0x13a9
 5939 1398 1E       		.uleb128 0x1e
 5940 1399 9A0A0000 		.4byte	.LASF165
 5941 139d 01       		.byte	0x1
 5942 139e B608     		.2byte	0x8b6
 5943 13a0 A2000000 		.4byte	0xa2
 5944 13a4 F5120000 		.4byte	.LLST105
 5945 13a8 00       		.byte	0
 5946 13a9 1D       		.uleb128 0x1d
 5947 13aa 6A020000 		.4byte	.LASF166
 5948 13ae 01       		.byte	0x1
 5949 13af DC08     		.2byte	0x8dc
 5950 13b1 24010000 		.4byte	0x124
 5951 13b5 00000000 		.4byte	.LFB156
 5952 13b9 68000000 		.4byte	.LFE156-.LFB156
 5953 13bd 01       		.uleb128 0x1
 5954 13be 9C       		.byte	0x9c
 5955 13bf 0D140000 		.4byte	0x140d
 5956 13c3 1E       		.uleb128 0x1e
 5957 13c4 28080000 		.4byte	.LASF167
 5958 13c8 01       		.byte	0x1
 5959 13c9 DC08     		.2byte	0x8dc
 5960 13cb A2000000 		.4byte	0xa2
 5961 13cf 16130000 		.4byte	.LLST106
ARM GAS  /tmp/ccadBNMM.s 			page 106


 5962 13d3 1E       		.uleb128 0x1e
 5963 13d4 A8030000 		.4byte	.LASF168
 5964 13d8 01       		.byte	0x1
 5965 13d9 DC08     		.2byte	0x8dc
 5966 13db A2000000 		.4byte	0xa2
 5967 13df 69130000 		.4byte	.LLST107
 5968 13e3 1F       		.uleb128 0x1f
 5969 13e4 310A0000 		.4byte	.LASF76
 5970 13e8 01       		.byte	0x1
 5971 13e9 DE08     		.2byte	0x8de
 5972 13eb 24010000 		.4byte	0x124
 5973 13ef BC130000 		.4byte	.LLST108
 5974 13f3 1F       		.uleb128 0x1f
 5975 13f4 0D0B0000 		.4byte	.LASF169
 5976 13f8 01       		.byte	0x1
 5977 13f9 DF08     		.2byte	0x8df
 5978 13fb A2000000 		.4byte	0xa2
 5979 13ff 09140000 		.4byte	.LLST109
 5980 1403 21       		.uleb128 0x21
 5981 1404 4A000000 		.4byte	.LVL297
 5982 1408 5A040000 		.4byte	0x45a
 5983 140c 00       		.byte	0
 5984 140d 15       		.uleb128 0x15
 5985 140e 2E030000 		.4byte	.LASF170
 5986 1412 01       		.byte	0x1
 5987 1413 5009     		.2byte	0x950
 5988 1415 00000000 		.4byte	.LFB157
 5989 1419 4C000000 		.4byte	.LFE157-.LFB157
 5990 141d 01       		.uleb128 0x1
 5991 141e 9C       		.byte	0x9c
 5992 141f 44140000 		.4byte	0x1444
 5993 1423 1E       		.uleb128 0x1e
 5994 1424 060B0000 		.4byte	.LASF171
 5995 1428 01       		.byte	0x1
 5996 1429 5009     		.2byte	0x950
 5997 142b A2000000 		.4byte	0xa2
 5998 142f 50140000 		.4byte	.LLST110
 5999 1433 1E       		.uleb128 0x1e
 6000 1434 00000000 		.4byte	.LASF89
 6001 1438 01       		.byte	0x1
 6002 1439 5009     		.2byte	0x950
 6003 143b 02010000 		.4byte	0x102
 6004 143f 8A140000 		.4byte	.LLST111
 6005 1443 00       		.byte	0
 6006 1444 1D       		.uleb128 0x1d
 6007 1445 49020000 		.4byte	.LASF172
 6008 1449 01       		.byte	0x1
 6009 144a 8209     		.2byte	0x982
 6010 144c D4000000 		.4byte	0xd4
 6011 1450 00000000 		.4byte	.LFB158
 6012 1454 1C000000 		.4byte	.LFE158-.LFB158
 6013 1458 01       		.uleb128 0x1
 6014 1459 9C       		.byte	0x9c
 6015 145a 8F140000 		.4byte	0x148f
 6016 145e 1E       		.uleb128 0x1e
 6017 145f D1010000 		.4byte	.LASF173
 6018 1463 01       		.byte	0x1
ARM GAS  /tmp/ccadBNMM.s 			page 107


 6019 1464 8209     		.2byte	0x982
 6020 1466 A2000000 		.4byte	0xa2
 6021 146a C4140000 		.4byte	.LLST112
 6022 146e 1F       		.uleb128 0x1f
 6023 146f C4020000 		.4byte	.LASF174
 6024 1473 01       		.byte	0x1
 6025 1474 8409     		.2byte	0x984
 6026 1476 D4000000 		.4byte	0xd4
 6027 147a E5140000 		.4byte	.LLST113
 6028 147e 1F       		.uleb128 0x1f
 6029 147f 91010000 		.4byte	.LASF99
 6030 1483 01       		.byte	0x1
 6031 1484 8509     		.2byte	0x985
 6032 1486 A2000000 		.4byte	0xa2
 6033 148a 2A150000 		.4byte	.LLST114
 6034 148e 00       		.byte	0
 6035 148f 15       		.uleb128 0x15
 6036 1490 09000000 		.4byte	.LASF175
 6037 1494 01       		.byte	0x1
 6038 1495 A809     		.2byte	0x9a8
 6039 1497 00000000 		.4byte	.LFB159
 6040 149b 20000000 		.4byte	.LFE159-.LFB159
 6041 149f 01       		.uleb128 0x1
 6042 14a0 9C       		.byte	0x9c
 6043 14a1 B4140000 		.4byte	0x14b4
 6044 14a5 16       		.uleb128 0x16
 6045 14a6 D1010000 		.4byte	.LASF173
 6046 14aa 01       		.byte	0x1
 6047 14ab A809     		.2byte	0x9a8
 6048 14ad A2000000 		.4byte	0xa2
 6049 14b1 01       		.uleb128 0x1
 6050 14b2 50       		.byte	0x50
 6051 14b3 00       		.byte	0
 6052 14b4 1D       		.uleb128 0x1d
 6053 14b5 9D020000 		.4byte	.LASF176
 6054 14b9 01       		.byte	0x1
 6055 14ba BE09     		.2byte	0x9be
 6056 14bc E0000000 		.4byte	0xe0
 6057 14c0 00000000 		.4byte	.LFB160
 6058 14c4 3C000000 		.4byte	.LFE160-.LFB160
 6059 14c8 01       		.uleb128 0x1
 6060 14c9 9C       		.byte	0x9c
 6061 14ca 0F150000 		.4byte	0x150f
 6062 14ce 1E       		.uleb128 0x1e
 6063 14cf 060B0000 		.4byte	.LASF171
 6064 14d3 01       		.byte	0x1
 6065 14d4 BE09     		.2byte	0x9be
 6066 14d6 A2000000 		.4byte	0xa2
 6067 14da 5C150000 		.4byte	.LLST115
 6068 14de 1F       		.uleb128 0x1f
 6069 14df C4020000 		.4byte	.LASF174
 6070 14e3 01       		.byte	0x1
 6071 14e4 C009     		.2byte	0x9c0
 6072 14e6 E0000000 		.4byte	0xe0
 6073 14ea 96150000 		.4byte	.LLST116
 6074 14ee 1F       		.uleb128 0x1f
 6075 14ef 91010000 		.4byte	.LASF99
ARM GAS  /tmp/ccadBNMM.s 			page 108


 6076 14f3 01       		.byte	0x1
 6077 14f4 C109     		.2byte	0x9c1
 6078 14f6 A2000000 		.4byte	0xa2
 6079 14fa CC150000 		.4byte	.LLST117
 6080 14fe 1F       		.uleb128 0x1f
 6081 14ff 2B0B0000 		.4byte	.LASF177
 6082 1503 01       		.byte	0x1
 6083 1504 C109     		.2byte	0x9c1
 6084 1506 A2000000 		.4byte	0xa2
 6085 150a 26160000 		.4byte	.LLST118
 6086 150e 00       		.byte	0
 6087 150f 15       		.uleb128 0x15
 6088 1510 AD070000 		.4byte	.LASF178
 6089 1514 01       		.byte	0x1
 6090 1515 E809     		.2byte	0x9e8
 6091 1517 00000000 		.4byte	.LFB161
 6092 151b 1C000000 		.4byte	.LFE161-.LFB161
 6093 151f 01       		.uleb128 0x1
 6094 1520 9C       		.byte	0x9c
 6095 1521 46150000 		.4byte	0x1546
 6096 1525 1E       		.uleb128 0x1e
 6097 1526 060B0000 		.4byte	.LASF171
 6098 152a 01       		.byte	0x1
 6099 152b E809     		.2byte	0x9e8
 6100 152d A2000000 		.4byte	0xa2
 6101 1531 F5160000 		.4byte	.LLST119
 6102 1535 1F       		.uleb128 0x1f
 6103 1536 91010000 		.4byte	.LASF99
 6104 153a 01       		.byte	0x1
 6105 153b EA09     		.2byte	0x9ea
 6106 153d A2000000 		.4byte	0xa2
 6107 1541 16170000 		.4byte	.LLST120
 6108 1545 00       		.byte	0
 6109 1546 2C       		.uleb128 0x2c
 6110 1547 0D010000 		.4byte	.LASF183
 6111 154b 06       		.byte	0x6
 6112 154c 9806     		.2byte	0x698
 6113 154e B9000000 		.4byte	0xb9
 6114 1552 00       		.byte	0
 6115              		.section	.debug_abbrev,"",%progbits
 6116              	.Ldebug_abbrev0:
 6117 0000 01       		.uleb128 0x1
 6118 0001 11       		.uleb128 0x11
 6119 0002 01       		.byte	0x1
 6120 0003 25       		.uleb128 0x25
 6121 0004 0E       		.uleb128 0xe
 6122 0005 13       		.uleb128 0x13
 6123 0006 0B       		.uleb128 0xb
 6124 0007 03       		.uleb128 0x3
 6125 0008 0E       		.uleb128 0xe
 6126 0009 1B       		.uleb128 0x1b
 6127 000a 0E       		.uleb128 0xe
 6128 000b 55       		.uleb128 0x55
 6129 000c 17       		.uleb128 0x17
 6130 000d 11       		.uleb128 0x11
 6131 000e 01       		.uleb128 0x1
 6132 000f 10       		.uleb128 0x10
ARM GAS  /tmp/ccadBNMM.s 			page 109


 6133 0010 17       		.uleb128 0x17
 6134 0011 00       		.byte	0
 6135 0012 00       		.byte	0
 6136 0013 02       		.uleb128 0x2
 6137 0014 24       		.uleb128 0x24
 6138 0015 00       		.byte	0
 6139 0016 0B       		.uleb128 0xb
 6140 0017 0B       		.uleb128 0xb
 6141 0018 3E       		.uleb128 0x3e
 6142 0019 0B       		.uleb128 0xb
 6143 001a 03       		.uleb128 0x3
 6144 001b 0E       		.uleb128 0xe
 6145 001c 00       		.byte	0
 6146 001d 00       		.byte	0
 6147 001e 03       		.uleb128 0x3
 6148 001f 16       		.uleb128 0x16
 6149 0020 00       		.byte	0
 6150 0021 03       		.uleb128 0x3
 6151 0022 0E       		.uleb128 0xe
 6152 0023 3A       		.uleb128 0x3a
 6153 0024 0B       		.uleb128 0xb
 6154 0025 3B       		.uleb128 0x3b
 6155 0026 0B       		.uleb128 0xb
 6156 0027 49       		.uleb128 0x49
 6157 0028 13       		.uleb128 0x13
 6158 0029 00       		.byte	0
 6159 002a 00       		.byte	0
 6160 002b 04       		.uleb128 0x4
 6161 002c 24       		.uleb128 0x24
 6162 002d 00       		.byte	0
 6163 002e 0B       		.uleb128 0xb
 6164 002f 0B       		.uleb128 0xb
 6165 0030 3E       		.uleb128 0x3e
 6166 0031 0B       		.uleb128 0xb
 6167 0032 03       		.uleb128 0x3
 6168 0033 08       		.uleb128 0x8
 6169 0034 00       		.byte	0
 6170 0035 00       		.byte	0
 6171 0036 05       		.uleb128 0x5
 6172 0037 35       		.uleb128 0x35
 6173 0038 00       		.byte	0
 6174 0039 49       		.uleb128 0x49
 6175 003a 13       		.uleb128 0x13
 6176 003b 00       		.byte	0
 6177 003c 00       		.byte	0
 6178 003d 06       		.uleb128 0x6
 6179 003e 04       		.uleb128 0x4
 6180 003f 01       		.byte	0x1
 6181 0040 0B       		.uleb128 0xb
 6182 0041 0B       		.uleb128 0xb
 6183 0042 3A       		.uleb128 0x3a
 6184 0043 0B       		.uleb128 0xb
 6185 0044 3B       		.uleb128 0x3b
 6186 0045 05       		.uleb128 0x5
 6187 0046 01       		.uleb128 0x1
 6188 0047 13       		.uleb128 0x13
 6189 0048 00       		.byte	0
ARM GAS  /tmp/ccadBNMM.s 			page 110


 6190 0049 00       		.byte	0
 6191 004a 07       		.uleb128 0x7
 6192 004b 28       		.uleb128 0x28
 6193 004c 00       		.byte	0
 6194 004d 03       		.uleb128 0x3
 6195 004e 0E       		.uleb128 0xe
 6196 004f 1C       		.uleb128 0x1c
 6197 0050 0D       		.uleb128 0xd
 6198 0051 00       		.byte	0
 6199 0052 00       		.byte	0
 6200 0053 08       		.uleb128 0x8
 6201 0054 28       		.uleb128 0x28
 6202 0055 00       		.byte	0
 6203 0056 03       		.uleb128 0x3
 6204 0057 08       		.uleb128 0x8
 6205 0058 1C       		.uleb128 0x1c
 6206 0059 0D       		.uleb128 0xd
 6207 005a 00       		.byte	0
 6208 005b 00       		.byte	0
 6209 005c 09       		.uleb128 0x9
 6210 005d 16       		.uleb128 0x16
 6211 005e 00       		.byte	0
 6212 005f 03       		.uleb128 0x3
 6213 0060 0E       		.uleb128 0xe
 6214 0061 3A       		.uleb128 0x3a
 6215 0062 0B       		.uleb128 0xb
 6216 0063 3B       		.uleb128 0x3b
 6217 0064 05       		.uleb128 0x5
 6218 0065 49       		.uleb128 0x49
 6219 0066 13       		.uleb128 0x13
 6220 0067 00       		.byte	0
 6221 0068 00       		.byte	0
 6222 0069 0A       		.uleb128 0xa
 6223 006a 13       		.uleb128 0x13
 6224 006b 01       		.byte	0x1
 6225 006c 0B       		.uleb128 0xb
 6226 006d 0B       		.uleb128 0xb
 6227 006e 3A       		.uleb128 0x3a
 6228 006f 0B       		.uleb128 0xb
 6229 0070 3B       		.uleb128 0x3b
 6230 0071 05       		.uleb128 0x5
 6231 0072 01       		.uleb128 0x1
 6232 0073 13       		.uleb128 0x13
 6233 0074 00       		.byte	0
 6234 0075 00       		.byte	0
 6235 0076 0B       		.uleb128 0xb
 6236 0077 0D       		.uleb128 0xd
 6237 0078 00       		.byte	0
 6238 0079 03       		.uleb128 0x3
 6239 007a 08       		.uleb128 0x8
 6240 007b 3A       		.uleb128 0x3a
 6241 007c 0B       		.uleb128 0xb
 6242 007d 3B       		.uleb128 0x3b
 6243 007e 05       		.uleb128 0x5
 6244 007f 49       		.uleb128 0x49
 6245 0080 13       		.uleb128 0x13
 6246 0081 38       		.uleb128 0x38
ARM GAS  /tmp/ccadBNMM.s 			page 111


 6247 0082 0B       		.uleb128 0xb
 6248 0083 00       		.byte	0
 6249 0084 00       		.byte	0
 6250 0085 0C       		.uleb128 0xc
 6251 0086 0D       		.uleb128 0xd
 6252 0087 00       		.byte	0
 6253 0088 03       		.uleb128 0x3
 6254 0089 0E       		.uleb128 0xe
 6255 008a 3A       		.uleb128 0x3a
 6256 008b 0B       		.uleb128 0xb
 6257 008c 3B       		.uleb128 0x3b
 6258 008d 05       		.uleb128 0x5
 6259 008e 49       		.uleb128 0x49
 6260 008f 13       		.uleb128 0x13
 6261 0090 38       		.uleb128 0x38
 6262 0091 0B       		.uleb128 0xb
 6263 0092 00       		.byte	0
 6264 0093 00       		.byte	0
 6265 0094 0D       		.uleb128 0xd
 6266 0095 13       		.uleb128 0x13
 6267 0096 01       		.byte	0x1
 6268 0097 0B       		.uleb128 0xb
 6269 0098 0B       		.uleb128 0xb
 6270 0099 3A       		.uleb128 0x3a
 6271 009a 0B       		.uleb128 0xb
 6272 009b 3B       		.uleb128 0x3b
 6273 009c 0B       		.uleb128 0xb
 6274 009d 01       		.uleb128 0x1
 6275 009e 13       		.uleb128 0x13
 6276 009f 00       		.byte	0
 6277 00a0 00       		.byte	0
 6278 00a1 0E       		.uleb128 0xe
 6279 00a2 0D       		.uleb128 0xd
 6280 00a3 00       		.byte	0
 6281 00a4 03       		.uleb128 0x3
 6282 00a5 0E       		.uleb128 0xe
 6283 00a6 3A       		.uleb128 0x3a
 6284 00a7 0B       		.uleb128 0xb
 6285 00a8 3B       		.uleb128 0x3b
 6286 00a9 0B       		.uleb128 0xb
 6287 00aa 49       		.uleb128 0x49
 6288 00ab 13       		.uleb128 0x13
 6289 00ac 38       		.uleb128 0x38
 6290 00ad 0B       		.uleb128 0xb
 6291 00ae 00       		.byte	0
 6292 00af 00       		.byte	0
 6293 00b0 0F       		.uleb128 0xf
 6294 00b1 2E       		.uleb128 0x2e
 6295 00b2 01       		.byte	0x1
 6296 00b3 3F       		.uleb128 0x3f
 6297 00b4 19       		.uleb128 0x19
 6298 00b5 03       		.uleb128 0x3
 6299 00b6 0E       		.uleb128 0xe
 6300 00b7 3A       		.uleb128 0x3a
 6301 00b8 0B       		.uleb128 0xb
 6302 00b9 3B       		.uleb128 0x3b
 6303 00ba 05       		.uleb128 0x5
ARM GAS  /tmp/ccadBNMM.s 			page 112


 6304 00bb 27       		.uleb128 0x27
 6305 00bc 19       		.uleb128 0x19
 6306 00bd 49       		.uleb128 0x49
 6307 00be 13       		.uleb128 0x13
 6308 00bf 20       		.uleb128 0x20
 6309 00c0 0B       		.uleb128 0xb
 6310 00c1 01       		.uleb128 0x1
 6311 00c2 13       		.uleb128 0x13
 6312 00c3 00       		.byte	0
 6313 00c4 00       		.byte	0
 6314 00c5 10       		.uleb128 0x10
 6315 00c6 34       		.uleb128 0x34
 6316 00c7 00       		.byte	0
 6317 00c8 03       		.uleb128 0x3
 6318 00c9 0E       		.uleb128 0xe
 6319 00ca 3A       		.uleb128 0x3a
 6320 00cb 0B       		.uleb128 0xb
 6321 00cc 3B       		.uleb128 0x3b
 6322 00cd 05       		.uleb128 0x5
 6323 00ce 49       		.uleb128 0x49
 6324 00cf 13       		.uleb128 0x13
 6325 00d0 00       		.byte	0
 6326 00d1 00       		.byte	0
 6327 00d2 11       		.uleb128 0x11
 6328 00d3 2E       		.uleb128 0x2e
 6329 00d4 00       		.byte	0
 6330 00d5 3F       		.uleb128 0x3f
 6331 00d6 19       		.uleb128 0x19
 6332 00d7 03       		.uleb128 0x3
 6333 00d8 0E       		.uleb128 0xe
 6334 00d9 3A       		.uleb128 0x3a
 6335 00da 0B       		.uleb128 0xb
 6336 00db 3B       		.uleb128 0x3b
 6337 00dc 05       		.uleb128 0x5
 6338 00dd 27       		.uleb128 0x27
 6339 00de 19       		.uleb128 0x19
 6340 00df 20       		.uleb128 0x20
 6341 00e0 0B       		.uleb128 0xb
 6342 00e1 00       		.byte	0
 6343 00e2 00       		.byte	0
 6344 00e3 12       		.uleb128 0x12
 6345 00e4 2E       		.uleb128 0x2e
 6346 00e5 01       		.byte	0x1
 6347 00e6 03       		.uleb128 0x3
 6348 00e7 0E       		.uleb128 0xe
 6349 00e8 3A       		.uleb128 0x3a
 6350 00e9 0B       		.uleb128 0xb
 6351 00ea 3B       		.uleb128 0x3b
 6352 00eb 05       		.uleb128 0x5
 6353 00ec 27       		.uleb128 0x27
 6354 00ed 19       		.uleb128 0x19
 6355 00ee 49       		.uleb128 0x49
 6356 00ef 13       		.uleb128 0x13
 6357 00f0 20       		.uleb128 0x20
 6358 00f1 0B       		.uleb128 0xb
 6359 00f2 01       		.uleb128 0x1
 6360 00f3 13       		.uleb128 0x13
ARM GAS  /tmp/ccadBNMM.s 			page 113


 6361 00f4 00       		.byte	0
 6362 00f5 00       		.byte	0
 6363 00f6 13       		.uleb128 0x13
 6364 00f7 05       		.uleb128 0x5
 6365 00f8 00       		.byte	0
 6366 00f9 03       		.uleb128 0x3
 6367 00fa 0E       		.uleb128 0xe
 6368 00fb 3A       		.uleb128 0x3a
 6369 00fc 0B       		.uleb128 0xb
 6370 00fd 3B       		.uleb128 0x3b
 6371 00fe 05       		.uleb128 0x5
 6372 00ff 49       		.uleb128 0x49
 6373 0100 13       		.uleb128 0x13
 6374 0101 00       		.byte	0
 6375 0102 00       		.byte	0
 6376 0103 14       		.uleb128 0x14
 6377 0104 34       		.uleb128 0x34
 6378 0105 00       		.byte	0
 6379 0106 03       		.uleb128 0x3
 6380 0107 08       		.uleb128 0x8
 6381 0108 3A       		.uleb128 0x3a
 6382 0109 0B       		.uleb128 0xb
 6383 010a 3B       		.uleb128 0x3b
 6384 010b 05       		.uleb128 0x5
 6385 010c 49       		.uleb128 0x49
 6386 010d 13       		.uleb128 0x13
 6387 010e 00       		.byte	0
 6388 010f 00       		.byte	0
 6389 0110 15       		.uleb128 0x15
 6390 0111 2E       		.uleb128 0x2e
 6391 0112 01       		.byte	0x1
 6392 0113 3F       		.uleb128 0x3f
 6393 0114 19       		.uleb128 0x19
 6394 0115 03       		.uleb128 0x3
 6395 0116 0E       		.uleb128 0xe
 6396 0117 3A       		.uleb128 0x3a
 6397 0118 0B       		.uleb128 0xb
 6398 0119 3B       		.uleb128 0x3b
 6399 011a 05       		.uleb128 0x5
 6400 011b 27       		.uleb128 0x27
 6401 011c 19       		.uleb128 0x19
 6402 011d 11       		.uleb128 0x11
 6403 011e 01       		.uleb128 0x1
 6404 011f 12       		.uleb128 0x12
 6405 0120 06       		.uleb128 0x6
 6406 0121 40       		.uleb128 0x40
 6407 0122 18       		.uleb128 0x18
 6408 0123 9742     		.uleb128 0x2117
 6409 0125 19       		.uleb128 0x19
 6410 0126 01       		.uleb128 0x1
 6411 0127 13       		.uleb128 0x13
 6412 0128 00       		.byte	0
 6413 0129 00       		.byte	0
 6414 012a 16       		.uleb128 0x16
 6415 012b 05       		.uleb128 0x5
 6416 012c 00       		.byte	0
 6417 012d 03       		.uleb128 0x3
ARM GAS  /tmp/ccadBNMM.s 			page 114


 6418 012e 0E       		.uleb128 0xe
 6419 012f 3A       		.uleb128 0x3a
 6420 0130 0B       		.uleb128 0xb
 6421 0131 3B       		.uleb128 0x3b
 6422 0132 05       		.uleb128 0x5
 6423 0133 49       		.uleb128 0x49
 6424 0134 13       		.uleb128 0x13
 6425 0135 02       		.uleb128 0x2
 6426 0136 18       		.uleb128 0x18
 6427 0137 00       		.byte	0
 6428 0138 00       		.byte	0
 6429 0139 17       		.uleb128 0x17
 6430 013a 0F       		.uleb128 0xf
 6431 013b 00       		.byte	0
 6432 013c 0B       		.uleb128 0xb
 6433 013d 0B       		.uleb128 0xb
 6434 013e 49       		.uleb128 0x49
 6435 013f 13       		.uleb128 0x13
 6436 0140 00       		.byte	0
 6437 0141 00       		.byte	0
 6438 0142 18       		.uleb128 0x18
 6439 0143 2E       		.uleb128 0x2e
 6440 0144 01       		.byte	0x1
 6441 0145 31       		.uleb128 0x31
 6442 0146 13       		.uleb128 0x13
 6443 0147 11       		.uleb128 0x11
 6444 0148 01       		.uleb128 0x1
 6445 0149 12       		.uleb128 0x12
 6446 014a 06       		.uleb128 0x6
 6447 014b 40       		.uleb128 0x40
 6448 014c 18       		.uleb128 0x18
 6449 014d 9742     		.uleb128 0x2117
 6450 014f 19       		.uleb128 0x19
 6451 0150 01       		.uleb128 0x1
 6452 0151 13       		.uleb128 0x13
 6453 0152 00       		.byte	0
 6454 0153 00       		.byte	0
 6455 0154 19       		.uleb128 0x19
 6456 0155 34       		.uleb128 0x34
 6457 0156 00       		.byte	0
 6458 0157 31       		.uleb128 0x31
 6459 0158 13       		.uleb128 0x13
 6460 0159 02       		.uleb128 0x2
 6461 015a 18       		.uleb128 0x18
 6462 015b 00       		.byte	0
 6463 015c 00       		.byte	0
 6464 015d 1A       		.uleb128 0x1a
 6465 015e 34       		.uleb128 0x34
 6466 015f 00       		.byte	0
 6467 0160 31       		.uleb128 0x31
 6468 0161 13       		.uleb128 0x13
 6469 0162 02       		.uleb128 0x2
 6470 0163 17       		.uleb128 0x17
 6471 0164 00       		.byte	0
 6472 0165 00       		.byte	0
 6473 0166 1B       		.uleb128 0x1b
 6474 0167 0B       		.uleb128 0xb
ARM GAS  /tmp/ccadBNMM.s 			page 115


 6475 0168 01       		.byte	0x1
 6476 0169 11       		.uleb128 0x11
 6477 016a 01       		.uleb128 0x1
 6478 016b 12       		.uleb128 0x12
 6479 016c 06       		.uleb128 0x6
 6480 016d 00       		.byte	0
 6481 016e 00       		.byte	0
 6482 016f 1C       		.uleb128 0x1c
 6483 0170 34       		.uleb128 0x34
 6484 0171 00       		.byte	0
 6485 0172 31       		.uleb128 0x31
 6486 0173 13       		.uleb128 0x13
 6487 0174 00       		.byte	0
 6488 0175 00       		.byte	0
 6489 0176 1D       		.uleb128 0x1d
 6490 0177 2E       		.uleb128 0x2e
 6491 0178 01       		.byte	0x1
 6492 0179 3F       		.uleb128 0x3f
 6493 017a 19       		.uleb128 0x19
 6494 017b 03       		.uleb128 0x3
 6495 017c 0E       		.uleb128 0xe
 6496 017d 3A       		.uleb128 0x3a
 6497 017e 0B       		.uleb128 0xb
 6498 017f 3B       		.uleb128 0x3b
 6499 0180 05       		.uleb128 0x5
 6500 0181 27       		.uleb128 0x27
 6501 0182 19       		.uleb128 0x19
 6502 0183 49       		.uleb128 0x49
 6503 0184 13       		.uleb128 0x13
 6504 0185 11       		.uleb128 0x11
 6505 0186 01       		.uleb128 0x1
 6506 0187 12       		.uleb128 0x12
 6507 0188 06       		.uleb128 0x6
 6508 0189 40       		.uleb128 0x40
 6509 018a 18       		.uleb128 0x18
 6510 018b 9742     		.uleb128 0x2117
 6511 018d 19       		.uleb128 0x19
 6512 018e 01       		.uleb128 0x1
 6513 018f 13       		.uleb128 0x13
 6514 0190 00       		.byte	0
 6515 0191 00       		.byte	0
 6516 0192 1E       		.uleb128 0x1e
 6517 0193 05       		.uleb128 0x5
 6518 0194 00       		.byte	0
 6519 0195 03       		.uleb128 0x3
 6520 0196 0E       		.uleb128 0xe
 6521 0197 3A       		.uleb128 0x3a
 6522 0198 0B       		.uleb128 0xb
 6523 0199 3B       		.uleb128 0x3b
 6524 019a 05       		.uleb128 0x5
 6525 019b 49       		.uleb128 0x49
 6526 019c 13       		.uleb128 0x13
 6527 019d 02       		.uleb128 0x2
 6528 019e 17       		.uleb128 0x17
 6529 019f 00       		.byte	0
 6530 01a0 00       		.byte	0
 6531 01a1 1F       		.uleb128 0x1f
ARM GAS  /tmp/ccadBNMM.s 			page 116


 6532 01a2 34       		.uleb128 0x34
 6533 01a3 00       		.byte	0
 6534 01a4 03       		.uleb128 0x3
 6535 01a5 0E       		.uleb128 0xe
 6536 01a6 3A       		.uleb128 0x3a
 6537 01a7 0B       		.uleb128 0xb
 6538 01a8 3B       		.uleb128 0x3b
 6539 01a9 05       		.uleb128 0x5
 6540 01aa 49       		.uleb128 0x49
 6541 01ab 13       		.uleb128 0x13
 6542 01ac 02       		.uleb128 0x2
 6543 01ad 17       		.uleb128 0x17
 6544 01ae 00       		.byte	0
 6545 01af 00       		.byte	0
 6546 01b0 20       		.uleb128 0x20
 6547 01b1 1D       		.uleb128 0x1d
 6548 01b2 00       		.byte	0
 6549 01b3 31       		.uleb128 0x31
 6550 01b4 13       		.uleb128 0x13
 6551 01b5 11       		.uleb128 0x11
 6552 01b6 01       		.uleb128 0x1
 6553 01b7 12       		.uleb128 0x12
 6554 01b8 06       		.uleb128 0x6
 6555 01b9 58       		.uleb128 0x58
 6556 01ba 0B       		.uleb128 0xb
 6557 01bb 59       		.uleb128 0x59
 6558 01bc 05       		.uleb128 0x5
 6559 01bd 00       		.byte	0
 6560 01be 00       		.byte	0
 6561 01bf 21       		.uleb128 0x21
 6562 01c0 898201   		.uleb128 0x4109
 6563 01c3 00       		.byte	0
 6564 01c4 11       		.uleb128 0x11
 6565 01c5 01       		.uleb128 0x1
 6566 01c6 31       		.uleb128 0x31
 6567 01c7 13       		.uleb128 0x13
 6568 01c8 00       		.byte	0
 6569 01c9 00       		.byte	0
 6570 01ca 22       		.uleb128 0x22
 6571 01cb 2E       		.uleb128 0x2e
 6572 01cc 00       		.byte	0
 6573 01cd 31       		.uleb128 0x31
 6574 01ce 13       		.uleb128 0x13
 6575 01cf 11       		.uleb128 0x11
 6576 01d0 01       		.uleb128 0x1
 6577 01d1 12       		.uleb128 0x12
 6578 01d2 06       		.uleb128 0x6
 6579 01d3 40       		.uleb128 0x40
 6580 01d4 18       		.uleb128 0x18
 6581 01d5 9742     		.uleb128 0x2117
 6582 01d7 19       		.uleb128 0x19
 6583 01d8 00       		.byte	0
 6584 01d9 00       		.byte	0
 6585 01da 23       		.uleb128 0x23
 6586 01db 34       		.uleb128 0x34
 6587 01dc 00       		.byte	0
 6588 01dd 03       		.uleb128 0x3
ARM GAS  /tmp/ccadBNMM.s 			page 117


 6589 01de 0E       		.uleb128 0xe
 6590 01df 3A       		.uleb128 0x3a
 6591 01e0 0B       		.uleb128 0xb
 6592 01e1 3B       		.uleb128 0x3b
 6593 01e2 05       		.uleb128 0x5
 6594 01e3 49       		.uleb128 0x49
 6595 01e4 13       		.uleb128 0x13
 6596 01e5 02       		.uleb128 0x2
 6597 01e6 18       		.uleb128 0x18
 6598 01e7 00       		.byte	0
 6599 01e8 00       		.byte	0
 6600 01e9 24       		.uleb128 0x24
 6601 01ea 1D       		.uleb128 0x1d
 6602 01eb 01       		.byte	0x1
 6603 01ec 31       		.uleb128 0x31
 6604 01ed 13       		.uleb128 0x13
 6605 01ee 11       		.uleb128 0x11
 6606 01ef 01       		.uleb128 0x1
 6607 01f0 12       		.uleb128 0x12
 6608 01f1 06       		.uleb128 0x6
 6609 01f2 58       		.uleb128 0x58
 6610 01f3 0B       		.uleb128 0xb
 6611 01f4 59       		.uleb128 0x59
 6612 01f5 05       		.uleb128 0x5
 6613 01f6 01       		.uleb128 0x1
 6614 01f7 13       		.uleb128 0x13
 6615 01f8 00       		.byte	0
 6616 01f9 00       		.byte	0
 6617 01fa 25       		.uleb128 0x25
 6618 01fb 05       		.uleb128 0x5
 6619 01fc 00       		.byte	0
 6620 01fd 31       		.uleb128 0x31
 6621 01fe 13       		.uleb128 0x13
 6622 01ff 02       		.uleb128 0x2
 6623 0200 17       		.uleb128 0x17
 6624 0201 00       		.byte	0
 6625 0202 00       		.byte	0
 6626 0203 26       		.uleb128 0x26
 6627 0204 1D       		.uleb128 0x1d
 6628 0205 01       		.byte	0x1
 6629 0206 31       		.uleb128 0x31
 6630 0207 13       		.uleb128 0x13
 6631 0208 52       		.uleb128 0x52
 6632 0209 01       		.uleb128 0x1
 6633 020a 55       		.uleb128 0x55
 6634 020b 17       		.uleb128 0x17
 6635 020c 58       		.uleb128 0x58
 6636 020d 0B       		.uleb128 0xb
 6637 020e 59       		.uleb128 0x59
 6638 020f 05       		.uleb128 0x5
 6639 0210 01       		.uleb128 0x1
 6640 0211 13       		.uleb128 0x13
 6641 0212 00       		.byte	0
 6642 0213 00       		.byte	0
 6643 0214 27       		.uleb128 0x27
 6644 0215 0B       		.uleb128 0xb
 6645 0216 01       		.byte	0x1
ARM GAS  /tmp/ccadBNMM.s 			page 118


 6646 0217 55       		.uleb128 0x55
 6647 0218 17       		.uleb128 0x17
 6648 0219 00       		.byte	0
 6649 021a 00       		.byte	0
 6650 021b 28       		.uleb128 0x28
 6651 021c 05       		.uleb128 0x5
 6652 021d 00       		.byte	0
 6653 021e 31       		.uleb128 0x31
 6654 021f 13       		.uleb128 0x13
 6655 0220 00       		.byte	0
 6656 0221 00       		.byte	0
 6657 0222 29       		.uleb128 0x29
 6658 0223 1D       		.uleb128 0x1d
 6659 0224 01       		.byte	0x1
 6660 0225 31       		.uleb128 0x31
 6661 0226 13       		.uleb128 0x13
 6662 0227 52       		.uleb128 0x52
 6663 0228 01       		.uleb128 0x1
 6664 0229 55       		.uleb128 0x55
 6665 022a 17       		.uleb128 0x17
 6666 022b 58       		.uleb128 0x58
 6667 022c 0B       		.uleb128 0xb
 6668 022d 59       		.uleb128 0x59
 6669 022e 05       		.uleb128 0x5
 6670 022f 00       		.byte	0
 6671 0230 00       		.byte	0
 6672 0231 2A       		.uleb128 0x2a
 6673 0232 2E       		.uleb128 0x2e
 6674 0233 00       		.byte	0
 6675 0234 3F       		.uleb128 0x3f
 6676 0235 19       		.uleb128 0x19
 6677 0236 03       		.uleb128 0x3
 6678 0237 0E       		.uleb128 0xe
 6679 0238 3A       		.uleb128 0x3a
 6680 0239 0B       		.uleb128 0xb
 6681 023a 3B       		.uleb128 0x3b
 6682 023b 05       		.uleb128 0x5
 6683 023c 27       		.uleb128 0x27
 6684 023d 19       		.uleb128 0x19
 6685 023e 49       		.uleb128 0x49
 6686 023f 13       		.uleb128 0x13
 6687 0240 11       		.uleb128 0x11
 6688 0241 01       		.uleb128 0x1
 6689 0242 12       		.uleb128 0x12
 6690 0243 06       		.uleb128 0x6
 6691 0244 40       		.uleb128 0x40
 6692 0245 18       		.uleb128 0x18
 6693 0246 9742     		.uleb128 0x2117
 6694 0248 19       		.uleb128 0x19
 6695 0249 00       		.byte	0
 6696 024a 00       		.byte	0
 6697 024b 2B       		.uleb128 0x2b
 6698 024c 34       		.uleb128 0x34
 6699 024d 00       		.byte	0
 6700 024e 03       		.uleb128 0x3
 6701 024f 08       		.uleb128 0x8
 6702 0250 3A       		.uleb128 0x3a
ARM GAS  /tmp/ccadBNMM.s 			page 119


 6703 0251 0B       		.uleb128 0xb
 6704 0252 3B       		.uleb128 0x3b
 6705 0253 05       		.uleb128 0x5
 6706 0254 49       		.uleb128 0x49
 6707 0255 13       		.uleb128 0x13
 6708 0256 02       		.uleb128 0x2
 6709 0257 18       		.uleb128 0x18
 6710 0258 00       		.byte	0
 6711 0259 00       		.byte	0
 6712 025a 2C       		.uleb128 0x2c
 6713 025b 34       		.uleb128 0x34
 6714 025c 00       		.byte	0
 6715 025d 03       		.uleb128 0x3
 6716 025e 0E       		.uleb128 0xe
 6717 025f 3A       		.uleb128 0x3a
 6718 0260 0B       		.uleb128 0xb
 6719 0261 3B       		.uleb128 0x3b
 6720 0262 05       		.uleb128 0x5
 6721 0263 49       		.uleb128 0x49
 6722 0264 13       		.uleb128 0x13
 6723 0265 3F       		.uleb128 0x3f
 6724 0266 19       		.uleb128 0x19
 6725 0267 3C       		.uleb128 0x3c
 6726 0268 19       		.uleb128 0x19
 6727 0269 00       		.byte	0
 6728 026a 00       		.byte	0
 6729 026b 00       		.byte	0
 6730              		.section	.debug_loc,"",%progbits
 6731              	.Ldebug_loc0:
 6732              	.LLST0:
 6733 0000 08000000 		.4byte	.LVL2
 6734 0004 34000000 		.4byte	.LVL6
 6735 0008 0200     		.2byte	0x2
 6736 000a 30       		.byte	0x30
 6737 000b 9F       		.byte	0x9f
 6738 000c 34000000 		.4byte	.LVL6
 6739 0010 38000000 		.4byte	.LVL7
 6740 0014 0100     		.2byte	0x1
 6741 0016 50       		.byte	0x50
 6742 0017 38000000 		.4byte	.LVL7
 6743 001b 3A000000 		.4byte	.LVL8
 6744 001f 0200     		.2byte	0x2
 6745 0021 30       		.byte	0x30
 6746 0022 9F       		.byte	0x9f
 6747 0023 3A000000 		.4byte	.LVL8
 6748 0027 44000000 		.4byte	.LFE115
 6749 002b 0100     		.2byte	0x1
 6750 002d 50       		.byte	0x50
 6751 002e 00000000 		.4byte	0
 6752 0032 00000000 		.4byte	0
 6753              	.LLST1:
 6754 0036 08000000 		.4byte	.LVL2
 6755 003a 16000000 		.4byte	.LVL3
 6756 003e 0200     		.2byte	0x2
 6757 0040 30       		.byte	0x30
 6758 0041 9F       		.byte	0x9f
 6759 0042 16000000 		.4byte	.LVL3
ARM GAS  /tmp/ccadBNMM.s 			page 120


 6760 0046 18000000 		.4byte	.LVL4
 6761 004a 0100     		.2byte	0x1
 6762 004c 52       		.byte	0x52
 6763 004d 2A000000 		.4byte	.LVL5
 6764 0051 38000000 		.4byte	.LVL7
 6765 0055 0100     		.2byte	0x1
 6766 0057 52       		.byte	0x52
 6767 0058 38000000 		.4byte	.LVL7
 6768 005c 44000000 		.4byte	.LFE115
 6769 0060 0200     		.2byte	0x2
 6770 0062 30       		.byte	0x30
 6771 0063 9F       		.byte	0x9f
 6772 0064 00000000 		.4byte	0
 6773 0068 00000000 		.4byte	0
 6774              	.LLST2:
 6775 006c 34000000 		.4byte	.LVL6
 6776 0070 38000000 		.4byte	.LVL7
 6777 0074 0100     		.2byte	0x1
 6778 0076 50       		.byte	0x50
 6779 0077 00000000 		.4byte	0
 6780 007b 00000000 		.4byte	0
 6781              	.LLST3:
 6782 007f 00000000 		.4byte	.LVL9
 6783 0083 11000000 		.4byte	.LVL10-1
 6784 0087 0100     		.2byte	0x1
 6785 0089 50       		.byte	0x50
 6786 008a 11000000 		.4byte	.LVL10-1
 6787 008e 44000000 		.4byte	.LVL13
 6788 0092 0100     		.2byte	0x1
 6789 0094 55       		.byte	0x55
 6790 0095 44000000 		.4byte	.LVL13
 6791 0099 48000000 		.4byte	.LFE112
 6792 009d 0400     		.2byte	0x4
 6793 009f F3       		.byte	0xf3
 6794 00a0 01       		.uleb128 0x1
 6795 00a1 50       		.byte	0x50
 6796 00a2 9F       		.byte	0x9f
 6797 00a3 00000000 		.4byte	0
 6798 00a7 00000000 		.4byte	0
 6799              	.LLST4:
 6800 00ab 00000000 		.4byte	.LVL9
 6801 00af 3A000000 		.4byte	.LVL11
 6802 00b3 0200     		.2byte	0x2
 6803 00b5 30       		.byte	0x30
 6804 00b6 9F       		.byte	0x9f
 6805 00b7 3A000000 		.4byte	.LVL11
 6806 00bb 3C000000 		.4byte	.LVL12
 6807 00bf 0200     		.2byte	0x2
 6808 00c1 31       		.byte	0x31
 6809 00c2 9F       		.byte	0x9f
 6810 00c3 3C000000 		.4byte	.LVL12
 6811 00c7 48000000 		.4byte	.LFE112
 6812 00cb 0100     		.2byte	0x1
 6813 00cd 50       		.byte	0x50
 6814 00ce 00000000 		.4byte	0
 6815 00d2 00000000 		.4byte	0
 6816              	.LLST5:
ARM GAS  /tmp/ccadBNMM.s 			page 121


 6817 00d6 08000000 		.4byte	.LVL14
 6818 00da 42000000 		.4byte	.LVL20
 6819 00de 0200     		.2byte	0x2
 6820 00e0 30       		.byte	0x30
 6821 00e1 9F       		.byte	0x9f
 6822 00e2 42000000 		.4byte	.LVL20
 6823 00e6 46000000 		.4byte	.LVL21
 6824 00ea 0100     		.2byte	0x1
 6825 00ec 50       		.byte	0x50
 6826 00ed 46000000 		.4byte	.LVL21
 6827 00f1 48000000 		.4byte	.LVL22
 6828 00f5 0200     		.2byte	0x2
 6829 00f7 30       		.byte	0x30
 6830 00f8 9F       		.byte	0x9f
 6831 00f9 48000000 		.4byte	.LVL22
 6832 00fd 50000000 		.4byte	.LFE117
 6833 0101 0100     		.2byte	0x1
 6834 0103 50       		.byte	0x50
 6835 0104 00000000 		.4byte	0
 6836 0108 00000000 		.4byte	0
 6837              	.LLST6:
 6838 010c 08000000 		.4byte	.LVL14
 6839 0110 20000000 		.4byte	.LVL15
 6840 0114 0200     		.2byte	0x2
 6841 0116 30       		.byte	0x30
 6842 0117 9F       		.byte	0x9f
 6843 0118 20000000 		.4byte	.LVL15
 6844 011c 22000000 		.4byte	.LVL16
 6845 0120 0100     		.2byte	0x1
 6846 0122 52       		.byte	0x52
 6847 0123 34000000 		.4byte	.LVL17
 6848 0127 3C000000 		.4byte	.LVL18
 6849 012b 0100     		.2byte	0x1
 6850 012d 52       		.byte	0x52
 6851 012e 46000000 		.4byte	.LVL21
 6852 0132 50000000 		.4byte	.LFE117
 6853 0136 0200     		.2byte	0x2
 6854 0138 30       		.byte	0x30
 6855 0139 9F       		.byte	0x9f
 6856 013a 00000000 		.4byte	0
 6857 013e 00000000 		.4byte	0
 6858              	.LLST7:
 6859 0142 40000000 		.4byte	.LVL19
 6860 0146 46000000 		.4byte	.LVL21
 6861 014a 0100     		.2byte	0x1
 6862 014c 50       		.byte	0x50
 6863 014d 00000000 		.4byte	0
 6864 0151 00000000 		.4byte	0
 6865              	.LLST8:
 6866 0155 0E000000 		.4byte	.LVL23
 6867 0159 2C000000 		.4byte	.LVL25
 6868 015d 0200     		.2byte	0x2
 6869 015f 30       		.byte	0x30
 6870 0160 9F       		.byte	0x9f
 6871 0161 2C000000 		.4byte	.LVL25
 6872 0165 2E000000 		.4byte	.LVL26
 6873 0169 0100     		.2byte	0x1
ARM GAS  /tmp/ccadBNMM.s 			page 122


 6874 016b 52       		.byte	0x52
 6875 016c 40000000 		.4byte	.LVL27
 6876 0170 46000000 		.4byte	.LVL28
 6877 0174 0100     		.2byte	0x1
 6878 0176 52       		.byte	0x52
 6879 0177 00000000 		.4byte	0
 6880 017b 00000000 		.4byte	0
 6881              	.LLST9:
 6882 017f 0E000000 		.4byte	.LVL23
 6883 0183 4C000000 		.4byte	.LVL29
 6884 0187 0200     		.2byte	0x2
 6885 0189 30       		.byte	0x30
 6886 018a 9F       		.byte	0x9f
 6887 018b 4C000000 		.4byte	.LVL29
 6888 018f 56000000 		.4byte	.LVL30
 6889 0193 0100     		.2byte	0x1
 6890 0195 50       		.byte	0x50
 6891 0196 56000000 		.4byte	.LVL30
 6892 019a 8C000000 		.4byte	.LFE111
 6893 019e 0200     		.2byte	0x2
 6894 01a0 30       		.byte	0x30
 6895 01a1 9F       		.byte	0x9f
 6896 01a2 00000000 		.4byte	0
 6897 01a6 00000000 		.4byte	0
 6898              	.LLST10:
 6899 01aa 00000000 		.4byte	.LVL32
 6900 01ae 11000000 		.4byte	.LVL33-1
 6901 01b2 0100     		.2byte	0x1
 6902 01b4 50       		.byte	0x50
 6903 01b5 11000000 		.4byte	.LVL33-1
 6904 01b9 40000000 		.4byte	.LFE118
 6905 01bd 0400     		.2byte	0x4
 6906 01bf F3       		.byte	0xf3
 6907 01c0 01       		.uleb128 0x1
 6908 01c1 50       		.byte	0x50
 6909 01c2 9F       		.byte	0x9f
 6910 01c3 00000000 		.4byte	0
 6911 01c7 00000000 		.4byte	0
 6912              	.LLST11:
 6913 01cb 00000000 		.4byte	.LVL32
 6914 01cf 28000000 		.4byte	.LVL34
 6915 01d3 0200     		.2byte	0x2
 6916 01d5 30       		.byte	0x30
 6917 01d6 9F       		.byte	0x9f
 6918 01d7 28000000 		.4byte	.LVL34
 6919 01db 2A000000 		.4byte	.LVL35
 6920 01df 0200     		.2byte	0x2
 6921 01e1 31       		.byte	0x31
 6922 01e2 9F       		.byte	0x9f
 6923 01e3 2A000000 		.4byte	.LVL35
 6924 01e7 32000000 		.4byte	.LVL36
 6925 01eb 0100     		.2byte	0x1
 6926 01ed 50       		.byte	0x50
 6927 01ee 32000000 		.4byte	.LVL36
 6928 01f2 40000000 		.4byte	.LFE118
 6929 01f6 0200     		.2byte	0x2
 6930 01f8 30       		.byte	0x30
ARM GAS  /tmp/ccadBNMM.s 			page 123


 6931 01f9 9F       		.byte	0x9f
 6932 01fa 00000000 		.4byte	0
 6933 01fe 00000000 		.4byte	0
 6934              	.LLST12:
 6935 0202 00000000 		.4byte	.LVL38
 6936 0206 2E000000 		.4byte	.LVL47
 6937 020a 0100     		.2byte	0x1
 6938 020c 50       		.byte	0x50
 6939 020d 2E000000 		.4byte	.LVL47
 6940 0211 76000000 		.4byte	.LVL65
 6941 0215 0400     		.2byte	0x4
 6942 0217 F3       		.byte	0xf3
 6943 0218 01       		.uleb128 0x1
 6944 0219 50       		.byte	0x50
 6945 021a 9F       		.byte	0x9f
 6946 021b 76000000 		.4byte	.LVL65
 6947 021f 84000000 		.4byte	.LVL66
 6948 0223 0100     		.2byte	0x1
 6949 0225 50       		.byte	0x50
 6950 0226 84000000 		.4byte	.LVL66
 6951 022a C2000000 		.4byte	.LVL70
 6952 022e 0400     		.2byte	0x4
 6953 0230 F3       		.byte	0xf3
 6954 0231 01       		.uleb128 0x1
 6955 0232 50       		.byte	0x50
 6956 0233 9F       		.byte	0x9f
 6957 0234 C2000000 		.4byte	.LVL70
 6958 0238 CE000000 		.4byte	.LVL71
 6959 023c 0100     		.2byte	0x1
 6960 023e 50       		.byte	0x50
 6961 023f CE000000 		.4byte	.LVL71
 6962 0243 EC000000 		.4byte	.LFE120
 6963 0247 0400     		.2byte	0x4
 6964 0249 F3       		.byte	0xf3
 6965 024a 01       		.uleb128 0x1
 6966 024b 50       		.byte	0x50
 6967 024c 9F       		.byte	0x9f
 6968 024d 00000000 		.4byte	0
 6969 0251 00000000 		.4byte	0
 6970              	.LLST13:
 6971 0255 00000000 		.4byte	.LVL38
 6972 0259 58000000 		.4byte	.LVL56
 6973 025d 0100     		.2byte	0x1
 6974 025f 51       		.byte	0x51
 6975 0260 58000000 		.4byte	.LVL56
 6976 0264 76000000 		.4byte	.LVL65
 6977 0268 0400     		.2byte	0x4
 6978 026a F3       		.byte	0xf3
 6979 026b 01       		.uleb128 0x1
 6980 026c 51       		.byte	0x51
 6981 026d 9F       		.byte	0x9f
 6982 026e 76000000 		.4byte	.LVL65
 6983 0272 90000000 		.4byte	.LVL67
 6984 0276 0100     		.2byte	0x1
 6985 0278 51       		.byte	0x51
 6986 0279 90000000 		.4byte	.LVL67
 6987 027d C2000000 		.4byte	.LVL70
ARM GAS  /tmp/ccadBNMM.s 			page 124


 6988 0281 0400     		.2byte	0x4
 6989 0283 F3       		.byte	0xf3
 6990 0284 01       		.uleb128 0x1
 6991 0285 51       		.byte	0x51
 6992 0286 9F       		.byte	0x9f
 6993 0287 C2000000 		.4byte	.LVL70
 6994 028b CE000000 		.4byte	.LVL71
 6995 028f 0100     		.2byte	0x1
 6996 0291 51       		.byte	0x51
 6997 0292 CE000000 		.4byte	.LVL71
 6998 0296 E2000000 		.4byte	.LVL74
 6999 029a 0400     		.2byte	0x4
 7000 029c F3       		.byte	0xf3
 7001 029d 01       		.uleb128 0x1
 7002 029e 51       		.byte	0x51
 7003 029f 9F       		.byte	0x9f
 7004 02a0 E2000000 		.4byte	.LVL74
 7005 02a4 EC000000 		.4byte	.LFE120
 7006 02a8 0100     		.2byte	0x1
 7007 02aa 51       		.byte	0x51
 7008 02ab 00000000 		.4byte	0
 7009 02af 00000000 		.4byte	0
 7010              	.LLST14:
 7011 02b3 00000000 		.4byte	.LVL38
 7012 02b7 74000000 		.4byte	.LVL64
 7013 02bb 0200     		.2byte	0x2
 7014 02bd 30       		.byte	0x30
 7015 02be 9F       		.byte	0x9f
 7016 02bf 74000000 		.4byte	.LVL64
 7017 02c3 76000000 		.4byte	.LVL65
 7018 02c7 0100     		.2byte	0x1
 7019 02c9 55       		.byte	0x55
 7020 02ca 76000000 		.4byte	.LVL65
 7021 02ce 90000000 		.4byte	.LVL67
 7022 02d2 0200     		.2byte	0x2
 7023 02d4 30       		.byte	0x30
 7024 02d5 9F       		.byte	0x9f
 7025 02d6 90000000 		.4byte	.LVL67
 7026 02da C2000000 		.4byte	.LVL70
 7027 02de 0100     		.2byte	0x1
 7028 02e0 55       		.byte	0x55
 7029 02e1 C2000000 		.4byte	.LVL70
 7030 02e5 CE000000 		.4byte	.LVL71
 7031 02e9 0200     		.2byte	0x2
 7032 02eb 30       		.byte	0x30
 7033 02ec 9F       		.byte	0x9f
 7034 02ed CE000000 		.4byte	.LVL71
 7035 02f1 E2000000 		.4byte	.LVL74
 7036 02f5 0100     		.2byte	0x1
 7037 02f7 55       		.byte	0x55
 7038 02f8 E2000000 		.4byte	.LVL74
 7039 02fc EC000000 		.4byte	.LFE120
 7040 0300 0200     		.2byte	0x2
 7041 0302 30       		.byte	0x30
 7042 0303 9F       		.byte	0x9f
 7043 0304 00000000 		.4byte	0
 7044 0308 00000000 		.4byte	0
ARM GAS  /tmp/ccadBNMM.s 			page 125


 7045              	.LLST15:
 7046 030c 00000000 		.4byte	.LVL38
 7047 0310 BA000000 		.4byte	.LVL69
 7048 0314 0200     		.2byte	0x2
 7049 0316 30       		.byte	0x30
 7050 0317 9F       		.byte	0x9f
 7051 0318 BA000000 		.4byte	.LVL69
 7052 031c C2000000 		.4byte	.LVL70
 7053 0320 0100     		.2byte	0x1
 7054 0322 50       		.byte	0x50
 7055 0323 C2000000 		.4byte	.LVL70
 7056 0327 DE000000 		.4byte	.LVL73
 7057 032b 0200     		.2byte	0x2
 7058 032d 30       		.byte	0x30
 7059 032e 9F       		.byte	0x9f
 7060 032f DE000000 		.4byte	.LVL73
 7061 0333 E2000000 		.4byte	.LVL74
 7062 0337 0100     		.2byte	0x1
 7063 0339 50       		.byte	0x50
 7064 033a E2000000 		.4byte	.LVL74
 7065 033e EC000000 		.4byte	.LFE120
 7066 0342 0200     		.2byte	0x2
 7067 0344 30       		.byte	0x30
 7068 0345 9F       		.byte	0x9f
 7069 0346 00000000 		.4byte	0
 7070 034a 00000000 		.4byte	0
 7071              	.LLST16:
 7072 034e 14000000 		.4byte	.LVL39
 7073 0352 1C000000 		.4byte	.LVL40
 7074 0356 0200     		.2byte	0x2
 7075 0358 71       		.byte	0x71
 7076 0359 00       		.sleb128 0
 7077 035a 1C000000 		.4byte	.LVL40
 7078 035e 1E000000 		.4byte	.LVL41
 7079 0362 0100     		.2byte	0x1
 7080 0364 53       		.byte	0x53
 7081 0365 1E000000 		.4byte	.LVL41
 7082 0369 20000000 		.4byte	.LVL42
 7083 036d 0300     		.2byte	0x3
 7084 036f 73       		.byte	0x73
 7085 0370 0A       		.sleb128 10
 7086 0371 9F       		.byte	0x9f
 7087 0372 26000000 		.4byte	.LVL44
 7088 0376 2C000000 		.4byte	.LVL46
 7089 037a 0100     		.2byte	0x1
 7090 037c 53       		.byte	0x53
 7091 037d 00000000 		.4byte	0
 7092 0381 00000000 		.4byte	0
 7093              	.LLST17:
 7094 0385 14000000 		.4byte	.LVL39
 7095 0389 1C000000 		.4byte	.LVL40
 7096 038d 0200     		.2byte	0x2
 7097 038f 30       		.byte	0x30
 7098 0390 9F       		.byte	0x9f
 7099 0391 1C000000 		.4byte	.LVL40
 7100 0395 22000000 		.4byte	.LVL43
 7101 0399 0100     		.2byte	0x1
ARM GAS  /tmp/ccadBNMM.s 			page 126


 7102 039b 52       		.byte	0x52
 7103 039c 22000000 		.4byte	.LVL43
 7104 03a0 26000000 		.4byte	.LVL44
 7105 03a4 0300     		.2byte	0x3
 7106 03a6 72       		.byte	0x72
 7107 03a7 7F       		.sleb128 -1
 7108 03a8 9F       		.byte	0x9f
 7109 03a9 26000000 		.4byte	.LVL44
 7110 03ad 2A000000 		.4byte	.LVL45
 7111 03b1 0100     		.2byte	0x1
 7112 03b3 52       		.byte	0x52
 7113 03b4 00000000 		.4byte	0
 7114 03b8 00000000 		.4byte	0
 7115              	.LLST18:
 7116 03bc 2E000000 		.4byte	.LVL47
 7117 03c0 3A000000 		.4byte	.LVL48
 7118 03c4 0200     		.2byte	0x2
 7119 03c6 71       		.byte	0x71
 7120 03c7 01       		.sleb128 1
 7121 03c8 3A000000 		.4byte	.LVL48
 7122 03cc 3C000000 		.4byte	.LVL49
 7123 03d0 0100     		.2byte	0x1
 7124 03d2 50       		.byte	0x50
 7125 03d3 3C000000 		.4byte	.LVL49
 7126 03d7 3E000000 		.4byte	.LVL50
 7127 03db 0300     		.2byte	0x3
 7128 03dd 70       		.byte	0x70
 7129 03de 0A       		.sleb128 10
 7130 03df 9F       		.byte	0x9f
 7131 03e0 44000000 		.4byte	.LVL52
 7132 03e4 4A000000 		.4byte	.LVL54
 7133 03e8 0100     		.2byte	0x1
 7134 03ea 50       		.byte	0x50
 7135 03eb E2000000 		.4byte	.LVL74
 7136 03ef EC000000 		.4byte	.LFE120
 7137 03f3 0200     		.2byte	0x2
 7138 03f5 71       		.byte	0x71
 7139 03f6 01       		.sleb128 1
 7140 03f7 00000000 		.4byte	0
 7141 03fb 00000000 		.4byte	0
 7142              	.LLST19:
 7143 03ff 2E000000 		.4byte	.LVL47
 7144 0403 3A000000 		.4byte	.LVL48
 7145 0407 0200     		.2byte	0x2
 7146 0409 30       		.byte	0x30
 7147 040a 9F       		.byte	0x9f
 7148 040b 3A000000 		.4byte	.LVL48
 7149 040f 40000000 		.4byte	.LVL51
 7150 0413 0100     		.2byte	0x1
 7151 0415 52       		.byte	0x52
 7152 0416 40000000 		.4byte	.LVL51
 7153 041a 44000000 		.4byte	.LVL52
 7154 041e 0300     		.2byte	0x3
 7155 0420 72       		.byte	0x72
 7156 0421 7F       		.sleb128 -1
 7157 0422 9F       		.byte	0x9f
 7158 0423 44000000 		.4byte	.LVL52
ARM GAS  /tmp/ccadBNMM.s 			page 127


 7159 0427 48000000 		.4byte	.LVL53
 7160 042b 0100     		.2byte	0x1
 7161 042d 52       		.byte	0x52
 7162 042e E2000000 		.4byte	.LVL74
 7163 0432 EC000000 		.4byte	.LFE120
 7164 0436 0200     		.2byte	0x2
 7165 0438 30       		.byte	0x30
 7166 0439 9F       		.byte	0x9f
 7167 043a 00000000 		.4byte	0
 7168 043e 00000000 		.4byte	0
 7169              	.LLST20:
 7170 0442 4C000000 		.4byte	.LVL55
 7171 0446 58000000 		.4byte	.LVL56
 7172 044a 0200     		.2byte	0x2
 7173 044c 71       		.byte	0x71
 7174 044d 02       		.sleb128 2
 7175 044e 58000000 		.4byte	.LVL56
 7176 0452 5C000000 		.4byte	.LVL58
 7177 0456 0100     		.2byte	0x1
 7178 0458 52       		.byte	0x52
 7179 0459 5C000000 		.4byte	.LVL58
 7180 045d 5E000000 		.4byte	.LVL59
 7181 0461 0300     		.2byte	0x3
 7182 0463 72       		.byte	0x72
 7183 0464 0A       		.sleb128 10
 7184 0465 9F       		.byte	0x9f
 7185 0466 64000000 		.4byte	.LVL61
 7186 046a 6A000000 		.4byte	.LVL63
 7187 046e 0100     		.2byte	0x1
 7188 0470 52       		.byte	0x52
 7189 0471 00000000 		.4byte	0
 7190 0475 00000000 		.4byte	0
 7191              	.LLST21:
 7192 0479 4C000000 		.4byte	.LVL55
 7193 047d 5A000000 		.4byte	.LVL57
 7194 0481 0200     		.2byte	0x2
 7195 0483 30       		.byte	0x30
 7196 0484 9F       		.byte	0x9f
 7197 0485 5A000000 		.4byte	.LVL57
 7198 0489 60000000 		.4byte	.LVL60
 7199 048d 0100     		.2byte	0x1
 7200 048f 51       		.byte	0x51
 7201 0490 60000000 		.4byte	.LVL60
 7202 0494 64000000 		.4byte	.LVL61
 7203 0498 0300     		.2byte	0x3
 7204 049a 71       		.byte	0x71
 7205 049b 7F       		.sleb128 -1
 7206 049c 9F       		.byte	0x9f
 7207 049d 64000000 		.4byte	.LVL61
 7208 04a1 68000000 		.4byte	.LVL62
 7209 04a5 0100     		.2byte	0x1
 7210 04a7 51       		.byte	0x51
 7211 04a8 00000000 		.4byte	0
 7212 04ac 00000000 		.4byte	0
 7213              	.LLST22:
 7214 04b0 00000000 		.4byte	.LVL76
 7215 04b4 28000000 		.4byte	.LVL80
ARM GAS  /tmp/ccadBNMM.s 			page 128


 7216 04b8 0100     		.2byte	0x1
 7217 04ba 50       		.byte	0x50
 7218 04bb 28000000 		.4byte	.LVL80
 7219 04bf 5C000000 		.4byte	.LFE122
 7220 04c3 0400     		.2byte	0x4
 7221 04c5 F3       		.byte	0xf3
 7222 04c6 01       		.uleb128 0x1
 7223 04c7 50       		.byte	0x50
 7224 04c8 9F       		.byte	0x9f
 7225 04c9 00000000 		.4byte	0
 7226 04cd 00000000 		.4byte	0
 7227              	.LLST23:
 7228 04d1 00000000 		.4byte	.LVL76
 7229 04d5 04000000 		.4byte	.LVL77
 7230 04d9 0200     		.2byte	0x2
 7231 04db 30       		.byte	0x30
 7232 04dc 9F       		.byte	0x9f
 7233 04dd 04000000 		.4byte	.LVL77
 7234 04e1 18000000 		.4byte	.LVL78
 7235 04e5 0900     		.2byte	0x9
 7236 04e7 73       		.byte	0x73
 7237 04e8 00       		.sleb128 0
 7238 04e9 0C       		.byte	0xc
 7239 04ea 7F7F7F00 		.4byte	0x7f7f7f
 7240 04ee 1A       		.byte	0x1a
 7241 04ef 9F       		.byte	0x9f
 7242 04f0 00000000 		.4byte	0
 7243 04f4 00000000 		.4byte	0
 7244              	.LLST24:
 7245 04f8 22000000 		.4byte	.LVL79
 7246 04fc 38000000 		.4byte	.LVL81
 7247 0500 0100     		.2byte	0x1
 7248 0502 52       		.byte	0x52
 7249 0503 00000000 		.4byte	0
 7250 0507 00000000 		.4byte	0
 7251              	.LLST25:
 7252 050b 22000000 		.4byte	.LVL79
 7253 050f 38000000 		.4byte	.LVL81
 7254 0513 0700     		.2byte	0x7
 7255 0515 72       		.byte	0x72
 7256 0516 00       		.sleb128 0
 7257 0517 34       		.byte	0x34
 7258 0518 25       		.byte	0x25
 7259 0519 3A       		.byte	0x3a
 7260 051a 1E       		.byte	0x1e
 7261 051b 9F       		.byte	0x9f
 7262 051c 00000000 		.4byte	0
 7263 0520 00000000 		.4byte	0
 7264              	.LLST26:
 7265 0524 00000000 		.4byte	.LVL84
 7266 0528 04000000 		.4byte	.LVL85
 7267 052c 0200     		.2byte	0x2
 7268 052e 30       		.byte	0x30
 7269 052f 9F       		.byte	0x9f
 7270 0530 04000000 		.4byte	.LVL85
 7271 0534 0C000000 		.4byte	.LFE123
 7272 0538 0100     		.2byte	0x1
ARM GAS  /tmp/ccadBNMM.s 			page 129


 7273 053a 50       		.byte	0x50
 7274 053b 00000000 		.4byte	0
 7275 053f 00000000 		.4byte	0
 7276              	.LLST27:
 7277 0543 00000000 		.4byte	.LVL86
 7278 0547 0A000000 		.4byte	.LVL87
 7279 054b 0100     		.2byte	0x1
 7280 054d 50       		.byte	0x50
 7281 054e 0A000000 		.4byte	.LVL87
 7282 0552 7A000000 		.4byte	.LVL113
 7283 0556 0400     		.2byte	0x4
 7284 0558 F3       		.byte	0xf3
 7285 0559 01       		.uleb128 0x1
 7286 055a 50       		.byte	0x50
 7287 055b 9F       		.byte	0x9f
 7288 055c 7A000000 		.4byte	.LVL113
 7289 0560 82000000 		.4byte	.LVL114
 7290 0564 0100     		.2byte	0x1
 7291 0566 50       		.byte	0x50
 7292 0567 82000000 		.4byte	.LVL114
 7293 056b DC000000 		.4byte	.LFE124
 7294 056f 0400     		.2byte	0x4
 7295 0571 F3       		.byte	0xf3
 7296 0572 01       		.uleb128 0x1
 7297 0573 50       		.byte	0x50
 7298 0574 9F       		.byte	0x9f
 7299 0575 00000000 		.4byte	0
 7300 0579 00000000 		.4byte	0
 7301              	.LLST28:
 7302 057d 00000000 		.4byte	.LVL86
 7303 0581 9B000000 		.4byte	.LVL116-1
 7304 0585 0100     		.2byte	0x1
 7305 0587 51       		.byte	0x51
 7306 0588 9B000000 		.4byte	.LVL116-1
 7307 058c D4000000 		.4byte	.LVL121
 7308 0590 0400     		.2byte	0x4
 7309 0592 F3       		.byte	0xf3
 7310 0593 01       		.uleb128 0x1
 7311 0594 51       		.byte	0x51
 7312 0595 9F       		.byte	0x9f
 7313 0596 D4000000 		.4byte	.LVL121
 7314 059a DC000000 		.4byte	.LFE124
 7315 059e 0100     		.2byte	0x1
 7316 05a0 51       		.byte	0x51
 7317 05a1 00000000 		.4byte	0
 7318 05a5 00000000 		.4byte	0
 7319              	.LLST29:
 7320 05a9 00000000 		.4byte	.LVL86
 7321 05ad 78000000 		.4byte	.LVL112
 7322 05b1 0200     		.2byte	0x2
 7323 05b3 30       		.byte	0x30
 7324 05b4 9F       		.byte	0x9f
 7325 05b5 78000000 		.4byte	.LVL112
 7326 05b9 7A000000 		.4byte	.LVL113
 7327 05bd 0100     		.2byte	0x1
 7328 05bf 55       		.byte	0x55
 7329 05c0 7A000000 		.4byte	.LVL113
ARM GAS  /tmp/ccadBNMM.s 			page 130


 7330 05c4 8E000000 		.4byte	.LVL115
 7331 05c8 0200     		.2byte	0x2
 7332 05ca 30       		.byte	0x30
 7333 05cb 9F       		.byte	0x9f
 7334 05cc 8E000000 		.4byte	.LVL115
 7335 05d0 D4000000 		.4byte	.LVL121
 7336 05d4 0100     		.2byte	0x1
 7337 05d6 55       		.byte	0x55
 7338 05d7 D4000000 		.4byte	.LVL121
 7339 05db DC000000 		.4byte	.LFE124
 7340 05df 0200     		.2byte	0x2
 7341 05e1 30       		.byte	0x30
 7342 05e2 9F       		.byte	0x9f
 7343 05e3 00000000 		.4byte	0
 7344 05e7 00000000 		.4byte	0
 7345              	.LLST30:
 7346 05eb 00000000 		.4byte	.LVL86
 7347 05ef B8000000 		.4byte	.LVL117
 7348 05f3 0200     		.2byte	0x2
 7349 05f5 30       		.byte	0x30
 7350 05f6 9F       		.byte	0x9f
 7351 05f7 B8000000 		.4byte	.LVL117
 7352 05fb C0000000 		.4byte	.LVL118
 7353 05ff 0100     		.2byte	0x1
 7354 0601 50       		.byte	0x50
 7355 0602 C0000000 		.4byte	.LVL118
 7356 0606 D0000000 		.4byte	.LVL120
 7357 060a 0200     		.2byte	0x2
 7358 060c 30       		.byte	0x30
 7359 060d 9F       		.byte	0x9f
 7360 060e D0000000 		.4byte	.LVL120
 7361 0612 D4000000 		.4byte	.LVL121
 7362 0616 0100     		.2byte	0x1
 7363 0618 50       		.byte	0x50
 7364 0619 D4000000 		.4byte	.LVL121
 7365 061d DC000000 		.4byte	.LFE124
 7366 0621 0200     		.2byte	0x2
 7367 0623 30       		.byte	0x30
 7368 0624 9F       		.byte	0x9f
 7369 0625 00000000 		.4byte	0
 7370 0629 00000000 		.4byte	0
 7371              	.LLST31:
 7372 062d 18000000 		.4byte	.LVL88
 7373 0631 20000000 		.4byte	.LVL89
 7374 0635 0200     		.2byte	0x2
 7375 0637 71       		.byte	0x71
 7376 0638 03       		.sleb128 3
 7377 0639 20000000 		.4byte	.LVL89
 7378 063d 22000000 		.4byte	.LVL90
 7379 0641 0100     		.2byte	0x1
 7380 0643 53       		.byte	0x53
 7381 0644 22000000 		.4byte	.LVL90
 7382 0648 24000000 		.4byte	.LVL91
 7383 064c 0300     		.2byte	0x3
 7384 064e 73       		.byte	0x73
 7385 064f 0A       		.sleb128 10
 7386 0650 9F       		.byte	0x9f
ARM GAS  /tmp/ccadBNMM.s 			page 131


 7387 0651 2A000000 		.4byte	.LVL93
 7388 0655 30000000 		.4byte	.LVL95
 7389 0659 0100     		.2byte	0x1
 7390 065b 53       		.byte	0x53
 7391 065c 00000000 		.4byte	0
 7392 0660 00000000 		.4byte	0
 7393              	.LLST32:
 7394 0664 18000000 		.4byte	.LVL88
 7395 0668 20000000 		.4byte	.LVL89
 7396 066c 0200     		.2byte	0x2
 7397 066e 30       		.byte	0x30
 7398 066f 9F       		.byte	0x9f
 7399 0670 20000000 		.4byte	.LVL89
 7400 0674 26000000 		.4byte	.LVL92
 7401 0678 0100     		.2byte	0x1
 7402 067a 50       		.byte	0x50
 7403 067b 26000000 		.4byte	.LVL92
 7404 067f 2A000000 		.4byte	.LVL93
 7405 0683 0300     		.2byte	0x3
 7406 0685 70       		.byte	0x70
 7407 0686 7F       		.sleb128 -1
 7408 0687 9F       		.byte	0x9f
 7409 0688 2A000000 		.4byte	.LVL93
 7410 068c 2E000000 		.4byte	.LVL94
 7411 0690 0100     		.2byte	0x1
 7412 0692 50       		.byte	0x50
 7413 0693 00000000 		.4byte	0
 7414 0697 00000000 		.4byte	0
 7415              	.LLST33:
 7416 069b 38000000 		.4byte	.LVL96
 7417 069f 3E000000 		.4byte	.LVL98
 7418 06a3 0100     		.2byte	0x1
 7419 06a5 52       		.byte	0x52
 7420 06a6 3E000000 		.4byte	.LVL98
 7421 06aa 40000000 		.4byte	.LVL99
 7422 06ae 0300     		.2byte	0x3
 7423 06b0 72       		.byte	0x72
 7424 06b1 0A       		.sleb128 10
 7425 06b2 9F       		.byte	0x9f
 7426 06b3 46000000 		.4byte	.LVL101
 7427 06b7 4C000000 		.4byte	.LVL103
 7428 06bb 0100     		.2byte	0x1
 7429 06bd 52       		.byte	0x52
 7430 06be D4000000 		.4byte	.LVL121
 7431 06c2 DC000000 		.4byte	.LFE124
 7432 06c6 0100     		.2byte	0x1
 7433 06c8 52       		.byte	0x52
 7434 06c9 00000000 		.4byte	0
 7435 06cd 00000000 		.4byte	0
 7436              	.LLST34:
 7437 06d1 38000000 		.4byte	.LVL96
 7438 06d5 3C000000 		.4byte	.LVL97
 7439 06d9 0200     		.2byte	0x2
 7440 06db 30       		.byte	0x30
 7441 06dc 9F       		.byte	0x9f
 7442 06dd 3C000000 		.4byte	.LVL97
 7443 06e1 42000000 		.4byte	.LVL100
ARM GAS  /tmp/ccadBNMM.s 			page 132


 7444 06e5 0100     		.2byte	0x1
 7445 06e7 50       		.byte	0x50
 7446 06e8 42000000 		.4byte	.LVL100
 7447 06ec 46000000 		.4byte	.LVL101
 7448 06f0 0300     		.2byte	0x3
 7449 06f2 70       		.byte	0x70
 7450 06f3 7F       		.sleb128 -1
 7451 06f4 9F       		.byte	0x9f
 7452 06f5 46000000 		.4byte	.LVL101
 7453 06f9 4A000000 		.4byte	.LVL102
 7454 06fd 0100     		.2byte	0x1
 7455 06ff 50       		.byte	0x50
 7456 0700 D4000000 		.4byte	.LVL121
 7457 0704 DC000000 		.4byte	.LFE124
 7458 0708 0200     		.2byte	0x2
 7459 070a 30       		.byte	0x30
 7460 070b 9F       		.byte	0x9f
 7461 070c 00000000 		.4byte	0
 7462 0710 00000000 		.4byte	0
 7463              	.LLST35:
 7464 0714 4E000000 		.4byte	.LVL104
 7465 0718 5C000000 		.4byte	.LVL105
 7466 071c 0200     		.2byte	0x2
 7467 071e 71       		.byte	0x71
 7468 071f 02       		.sleb128 2
 7469 0720 5C000000 		.4byte	.LVL105
 7470 0724 5E000000 		.4byte	.LVL106
 7471 0728 0100     		.2byte	0x1
 7472 072a 50       		.byte	0x50
 7473 072b 5E000000 		.4byte	.LVL106
 7474 072f 60000000 		.4byte	.LVL107
 7475 0733 0300     		.2byte	0x3
 7476 0735 70       		.byte	0x70
 7477 0736 0A       		.sleb128 10
 7478 0737 9F       		.byte	0x9f
 7479 0738 66000000 		.4byte	.LVL109
 7480 073c 6C000000 		.4byte	.LVL111
 7481 0740 0100     		.2byte	0x1
 7482 0742 50       		.byte	0x50
 7483 0743 00000000 		.4byte	0
 7484 0747 00000000 		.4byte	0
 7485              	.LLST36:
 7486 074b 4E000000 		.4byte	.LVL104
 7487 074f 5C000000 		.4byte	.LVL105
 7488 0753 0200     		.2byte	0x2
 7489 0755 30       		.byte	0x30
 7490 0756 9F       		.byte	0x9f
 7491 0757 5C000000 		.4byte	.LVL105
 7492 075b 62000000 		.4byte	.LVL108
 7493 075f 0100     		.2byte	0x1
 7494 0761 54       		.byte	0x54
 7495 0762 62000000 		.4byte	.LVL108
 7496 0766 66000000 		.4byte	.LVL109
 7497 076a 0300     		.2byte	0x3
 7498 076c 74       		.byte	0x74
 7499 076d 7F       		.sleb128 -1
 7500 076e 9F       		.byte	0x9f
ARM GAS  /tmp/ccadBNMM.s 			page 133


 7501 076f 66000000 		.4byte	.LVL109
 7502 0773 6A000000 		.4byte	.LVL110
 7503 0777 0100     		.2byte	0x1
 7504 0779 54       		.byte	0x54
 7505 077a 00000000 		.4byte	0
 7506 077e 00000000 		.4byte	0
 7507              	.LLST37:
 7508 0782 00000000 		.4byte	.LVL123
 7509 0786 26000000 		.4byte	.LVL127
 7510 078a 0100     		.2byte	0x1
 7511 078c 50       		.byte	0x50
 7512 078d 26000000 		.4byte	.LVL127
 7513 0791 58000000 		.4byte	.LFE126
 7514 0795 0400     		.2byte	0x4
 7515 0797 F3       		.byte	0xf3
 7516 0798 01       		.uleb128 0x1
 7517 0799 50       		.byte	0x50
 7518 079a 9F       		.byte	0x9f
 7519 079b 00000000 		.4byte	0
 7520 079f 00000000 		.4byte	0
 7521              	.LLST38:
 7522 07a3 00000000 		.4byte	.LVL123
 7523 07a7 04000000 		.4byte	.LVL124
 7524 07ab 0200     		.2byte	0x2
 7525 07ad 30       		.byte	0x30
 7526 07ae 9F       		.byte	0x9f
 7527 07af 04000000 		.4byte	.LVL124
 7528 07b3 16000000 		.4byte	.LVL125
 7529 07b7 0900     		.2byte	0x9
 7530 07b9 73       		.byte	0x73
 7531 07ba 00       		.sleb128 0
 7532 07bb 0C       		.byte	0xc
 7533 07bc 3FFFFF00 		.4byte	0xffff3f
 7534 07c0 1A       		.byte	0x1a
 7535 07c1 9F       		.byte	0x9f
 7536 07c2 00000000 		.4byte	0
 7537 07c6 00000000 		.4byte	0
 7538              	.LLST39:
 7539 07ca 20000000 		.4byte	.LVL126
 7540 07ce 3E000000 		.4byte	.LVL128
 7541 07d2 0100     		.2byte	0x1
 7542 07d4 52       		.byte	0x52
 7543 07d5 00000000 		.4byte	0
 7544 07d9 00000000 		.4byte	0
 7545              	.LLST40:
 7546 07dd 20000000 		.4byte	.LVL126
 7547 07e1 3E000000 		.4byte	.LVL128
 7548 07e5 0700     		.2byte	0x7
 7549 07e7 72       		.byte	0x72
 7550 07e8 00       		.sleb128 0
 7551 07e9 34       		.byte	0x34
 7552 07ea 25       		.byte	0x25
 7553 07eb 3A       		.byte	0x3a
 7554 07ec 1E       		.byte	0x1e
 7555 07ed 9F       		.byte	0x9f
 7556 07ee 00000000 		.4byte	0
 7557 07f2 00000000 		.4byte	0
ARM GAS  /tmp/ccadBNMM.s 			page 134


 7558              	.LLST41:
 7559 07f6 00000000 		.4byte	.LVL130
 7560 07fa 1A000000 		.4byte	.LVL132
 7561 07fe 0100     		.2byte	0x1
 7562 0800 50       		.byte	0x50
 7563 0801 1A000000 		.4byte	.LVL132
 7564 0805 A0000000 		.4byte	.LVL165
 7565 0809 0400     		.2byte	0x4
 7566 080b F3       		.byte	0xf3
 7567 080c 01       		.uleb128 0x1
 7568 080d 50       		.byte	0x50
 7569 080e 9F       		.byte	0x9f
 7570 080f A0000000 		.4byte	.LVL165
 7571 0813 AE000000 		.4byte	.LVL166
 7572 0817 0100     		.2byte	0x1
 7573 0819 50       		.byte	0x50
 7574 081a AE000000 		.4byte	.LVL166
 7575 081e E6000000 		.4byte	.LVL169
 7576 0822 0400     		.2byte	0x4
 7577 0824 F3       		.byte	0xf3
 7578 0825 01       		.uleb128 0x1
 7579 0826 50       		.byte	0x50
 7580 0827 9F       		.byte	0x9f
 7581 0828 E6000000 		.4byte	.LVL169
 7582 082c F6000000 		.4byte	.LVL171
 7583 0830 0100     		.2byte	0x1
 7584 0832 50       		.byte	0x50
 7585 0833 F6000000 		.4byte	.LVL171
 7586 0837 00010000 		.4byte	.LFE127
 7587 083b 0400     		.2byte	0x4
 7588 083d F3       		.byte	0xf3
 7589 083e 01       		.uleb128 0x1
 7590 083f 50       		.byte	0x50
 7591 0840 9F       		.byte	0x9f
 7592 0841 00000000 		.4byte	0
 7593 0845 00000000 		.4byte	0
 7594              	.LLST42:
 7595 0849 00000000 		.4byte	.LVL130
 7596 084d 8C000000 		.4byte	.LVL163
 7597 0851 0100     		.2byte	0x1
 7598 0853 52       		.byte	0x52
 7599 0854 8C000000 		.4byte	.LVL163
 7600 0858 A0000000 		.4byte	.LVL165
 7601 085c 0400     		.2byte	0x4
 7602 085e F3       		.byte	0xf3
 7603 085f 01       		.uleb128 0x1
 7604 0860 52       		.byte	0x52
 7605 0861 9F       		.byte	0x9f
 7606 0862 A0000000 		.4byte	.LVL165
 7607 0866 B6000000 		.4byte	.LVL167
 7608 086a 0100     		.2byte	0x1
 7609 086c 52       		.byte	0x52
 7610 086d B6000000 		.4byte	.LVL167
 7611 0871 E6000000 		.4byte	.LVL169
 7612 0875 0400     		.2byte	0x4
 7613 0877 F3       		.byte	0xf3
 7614 0878 01       		.uleb128 0x1
ARM GAS  /tmp/ccadBNMM.s 			page 135


 7615 0879 52       		.byte	0x52
 7616 087a 9F       		.byte	0x9f
 7617 087b E6000000 		.4byte	.LVL169
 7618 087f 00010000 		.4byte	.LFE127
 7619 0883 0100     		.2byte	0x1
 7620 0885 52       		.byte	0x52
 7621 0886 00000000 		.4byte	0
 7622 088a 00000000 		.4byte	0
 7623              	.LLST43:
 7624 088e 00000000 		.4byte	.LVL130
 7625 0892 9E000000 		.4byte	.LVL164
 7626 0896 0200     		.2byte	0x2
 7627 0898 30       		.byte	0x30
 7628 0899 9F       		.byte	0x9f
 7629 089a 9E000000 		.4byte	.LVL164
 7630 089e A0000000 		.4byte	.LVL165
 7631 08a2 0100     		.2byte	0x1
 7632 08a4 50       		.byte	0x50
 7633 08a5 A0000000 		.4byte	.LVL165
 7634 08a9 C8000000 		.4byte	.LVL168
 7635 08ad 0200     		.2byte	0x2
 7636 08af 30       		.byte	0x30
 7637 08b0 9F       		.byte	0x9f
 7638 08b1 C8000000 		.4byte	.LVL168
 7639 08b5 E6000000 		.4byte	.LVL169
 7640 08b9 0100     		.2byte	0x1
 7641 08bb 50       		.byte	0x50
 7642 08bc E6000000 		.4byte	.LVL169
 7643 08c0 00010000 		.4byte	.LFE127
 7644 08c4 0200     		.2byte	0x2
 7645 08c6 30       		.byte	0x30
 7646 08c7 9F       		.byte	0x9f
 7647 08c8 00000000 		.4byte	0
 7648 08cc 00000000 		.4byte	0
 7649              	.LLST44:
 7650 08d0 14000000 		.4byte	.LVL131
 7651 08d4 1A000000 		.4byte	.LVL132
 7652 08d8 0200     		.2byte	0x2
 7653 08da 72       		.byte	0x72
 7654 08db 00       		.sleb128 0
 7655 08dc 1A000000 		.4byte	.LVL132
 7656 08e0 1C000000 		.4byte	.LVL133
 7657 08e4 0100     		.2byte	0x1
 7658 08e6 53       		.byte	0x53
 7659 08e7 1C000000 		.4byte	.LVL133
 7660 08eb 1E000000 		.4byte	.LVL134
 7661 08ef 0300     		.2byte	0x3
 7662 08f1 73       		.byte	0x73
 7663 08f2 0A       		.sleb128 10
 7664 08f3 9F       		.byte	0x9f
 7665 08f4 24000000 		.4byte	.LVL136
 7666 08f8 2A000000 		.4byte	.LVL138
 7667 08fc 0100     		.2byte	0x1
 7668 08fe 53       		.byte	0x53
 7669 08ff F2000000 		.4byte	.LVL170
 7670 0903 F6000000 		.4byte	.LVL171
 7671 0907 0200     		.2byte	0x2
ARM GAS  /tmp/ccadBNMM.s 			page 136


 7672 0909 72       		.byte	0x72
 7673 090a 00       		.sleb128 0
 7674 090b 00000000 		.4byte	0
 7675 090f 00000000 		.4byte	0
 7676              	.LLST45:
 7677 0913 14000000 		.4byte	.LVL131
 7678 0917 1A000000 		.4byte	.LVL132
 7679 091b 0200     		.2byte	0x2
 7680 091d 30       		.byte	0x30
 7681 091e 9F       		.byte	0x9f
 7682 091f 1A000000 		.4byte	.LVL132
 7683 0923 20000000 		.4byte	.LVL135
 7684 0927 0100     		.2byte	0x1
 7685 0929 50       		.byte	0x50
 7686 092a 20000000 		.4byte	.LVL135
 7687 092e 24000000 		.4byte	.LVL136
 7688 0932 0300     		.2byte	0x3
 7689 0934 70       		.byte	0x70
 7690 0935 7F       		.sleb128 -1
 7691 0936 9F       		.byte	0x9f
 7692 0937 24000000 		.4byte	.LVL136
 7693 093b 28000000 		.4byte	.LVL137
 7694 093f 0100     		.2byte	0x1
 7695 0941 50       		.byte	0x50
 7696 0942 F2000000 		.4byte	.LVL170
 7697 0946 F6000000 		.4byte	.LVL171
 7698 094a 0200     		.2byte	0x2
 7699 094c 30       		.byte	0x30
 7700 094d 9F       		.byte	0x9f
 7701 094e 00000000 		.4byte	0
 7702 0952 00000000 		.4byte	0
 7703              	.LLST46:
 7704 0956 2C000000 		.4byte	.LVL139
 7705 095a 38000000 		.4byte	.LVL140
 7706 095e 0200     		.2byte	0x2
 7707 0960 72       		.byte	0x72
 7708 0961 01       		.sleb128 1
 7709 0962 38000000 		.4byte	.LVL140
 7710 0966 3A000000 		.4byte	.LVL141
 7711 096a 0100     		.2byte	0x1
 7712 096c 50       		.byte	0x50
 7713 096d 3A000000 		.4byte	.LVL141
 7714 0971 3C000000 		.4byte	.LVL142
 7715 0975 0300     		.2byte	0x3
 7716 0977 70       		.byte	0x70
 7717 0978 0A       		.sleb128 10
 7718 0979 9F       		.byte	0x9f
 7719 097a 42000000 		.4byte	.LVL144
 7720 097e 48000000 		.4byte	.LVL146
 7721 0982 0100     		.2byte	0x1
 7722 0984 50       		.byte	0x50
 7723 0985 F6000000 		.4byte	.LVL171
 7724 0989 00010000 		.4byte	.LFE127
 7725 098d 0200     		.2byte	0x2
 7726 098f 72       		.byte	0x72
 7727 0990 01       		.sleb128 1
 7728 0991 00000000 		.4byte	0
ARM GAS  /tmp/ccadBNMM.s 			page 137


 7729 0995 00000000 		.4byte	0
 7730              	.LLST47:
 7731 0999 2C000000 		.4byte	.LVL139
 7732 099d 38000000 		.4byte	.LVL140
 7733 09a1 0200     		.2byte	0x2
 7734 09a3 30       		.byte	0x30
 7735 09a4 9F       		.byte	0x9f
 7736 09a5 38000000 		.4byte	.LVL140
 7737 09a9 3E000000 		.4byte	.LVL143
 7738 09ad 0100     		.2byte	0x1
 7739 09af 54       		.byte	0x54
 7740 09b0 3E000000 		.4byte	.LVL143
 7741 09b4 42000000 		.4byte	.LVL144
 7742 09b8 0300     		.2byte	0x3
 7743 09ba 74       		.byte	0x74
 7744 09bb 7F       		.sleb128 -1
 7745 09bc 9F       		.byte	0x9f
 7746 09bd 42000000 		.4byte	.LVL144
 7747 09c1 46000000 		.4byte	.LVL145
 7748 09c5 0100     		.2byte	0x1
 7749 09c7 54       		.byte	0x54
 7750 09c8 F6000000 		.4byte	.LVL171
 7751 09cc 00010000 		.4byte	.LFE127
 7752 09d0 0200     		.2byte	0x2
 7753 09d2 30       		.byte	0x30
 7754 09d3 9F       		.byte	0x9f
 7755 09d4 00000000 		.4byte	0
 7756 09d8 00000000 		.4byte	0
 7757              	.LLST48:
 7758 09dc 4A000000 		.4byte	.LVL147
 7759 09e0 58000000 		.4byte	.LVL148
 7760 09e4 0200     		.2byte	0x2
 7761 09e6 72       		.byte	0x72
 7762 09e7 02       		.sleb128 2
 7763 09e8 58000000 		.4byte	.LVL148
 7764 09ec 5A000000 		.4byte	.LVL149
 7765 09f0 0100     		.2byte	0x1
 7766 09f2 54       		.byte	0x54
 7767 09f3 5A000000 		.4byte	.LVL149
 7768 09f7 5C000000 		.4byte	.LVL150
 7769 09fb 0300     		.2byte	0x3
 7770 09fd 74       		.byte	0x74
 7771 09fe 0A       		.sleb128 10
 7772 09ff 9F       		.byte	0x9f
 7773 0a00 62000000 		.4byte	.LVL152
 7774 0a04 68000000 		.4byte	.LVL154
 7775 0a08 0100     		.2byte	0x1
 7776 0a0a 54       		.byte	0x54
 7777 0a0b 00000000 		.4byte	0
 7778 0a0f 00000000 		.4byte	0
 7779              	.LLST49:
 7780 0a13 4A000000 		.4byte	.LVL147
 7781 0a17 58000000 		.4byte	.LVL148
 7782 0a1b 0200     		.2byte	0x2
 7783 0a1d 30       		.byte	0x30
 7784 0a1e 9F       		.byte	0x9f
 7785 0a1f 58000000 		.4byte	.LVL148
ARM GAS  /tmp/ccadBNMM.s 			page 138


 7786 0a23 5E000000 		.4byte	.LVL151
 7787 0a27 0100     		.2byte	0x1
 7788 0a29 55       		.byte	0x55
 7789 0a2a 5E000000 		.4byte	.LVL151
 7790 0a2e 62000000 		.4byte	.LVL152
 7791 0a32 0300     		.2byte	0x3
 7792 0a34 75       		.byte	0x75
 7793 0a35 7F       		.sleb128 -1
 7794 0a36 9F       		.byte	0x9f
 7795 0a37 62000000 		.4byte	.LVL152
 7796 0a3b 66000000 		.4byte	.LVL153
 7797 0a3f 0100     		.2byte	0x1
 7798 0a41 55       		.byte	0x55
 7799 0a42 00000000 		.4byte	0
 7800 0a46 00000000 		.4byte	0
 7801              	.LLST50:
 7802 0a4a 6A000000 		.4byte	.LVL155
 7803 0a4e 76000000 		.4byte	.LVL156
 7804 0a52 0200     		.2byte	0x2
 7805 0a54 72       		.byte	0x72
 7806 0a55 0C       		.sleb128 12
 7807 0a56 76000000 		.4byte	.LVL156
 7808 0a5a 78000000 		.4byte	.LVL157
 7809 0a5e 0100     		.2byte	0x1
 7810 0a60 50       		.byte	0x50
 7811 0a61 78000000 		.4byte	.LVL157
 7812 0a65 7A000000 		.4byte	.LVL158
 7813 0a69 0300     		.2byte	0x3
 7814 0a6b 70       		.byte	0x70
 7815 0a6c 0A       		.sleb128 10
 7816 0a6d 9F       		.byte	0x9f
 7817 0a6e 80000000 		.4byte	.LVL160
 7818 0a72 86000000 		.4byte	.LVL162
 7819 0a76 0100     		.2byte	0x1
 7820 0a78 50       		.byte	0x50
 7821 0a79 00000000 		.4byte	0
 7822 0a7d 00000000 		.4byte	0
 7823              	.LLST51:
 7824 0a81 6A000000 		.4byte	.LVL155
 7825 0a85 76000000 		.4byte	.LVL156
 7826 0a89 0200     		.2byte	0x2
 7827 0a8b 30       		.byte	0x30
 7828 0a8c 9F       		.byte	0x9f
 7829 0a8d 76000000 		.4byte	.LVL156
 7830 0a91 7C000000 		.4byte	.LVL159
 7831 0a95 0100     		.2byte	0x1
 7832 0a97 55       		.byte	0x55
 7833 0a98 7C000000 		.4byte	.LVL159
 7834 0a9c 80000000 		.4byte	.LVL160
 7835 0aa0 0300     		.2byte	0x3
 7836 0aa2 75       		.byte	0x75
 7837 0aa3 7F       		.sleb128 -1
 7838 0aa4 9F       		.byte	0x9f
 7839 0aa5 80000000 		.4byte	.LVL160
 7840 0aa9 84000000 		.4byte	.LVL161
 7841 0aad 0100     		.2byte	0x1
 7842 0aaf 55       		.byte	0x55
ARM GAS  /tmp/ccadBNMM.s 			page 139


 7843 0ab0 00000000 		.4byte	0
 7844 0ab4 00000000 		.4byte	0
 7845              	.LLST52:
 7846 0ab8 00000000 		.4byte	.LVL173
 7847 0abc 4C000000 		.4byte	.LVL179
 7848 0ac0 0100     		.2byte	0x1
 7849 0ac2 50       		.byte	0x50
 7850 0ac3 4C000000 		.4byte	.LVL179
 7851 0ac7 94000000 		.4byte	.LFE129
 7852 0acb 0400     		.2byte	0x4
 7853 0acd F3       		.byte	0xf3
 7854 0ace 01       		.uleb128 0x1
 7855 0acf 50       		.byte	0x50
 7856 0ad0 9F       		.byte	0x9f
 7857 0ad1 00000000 		.4byte	0
 7858 0ad5 00000000 		.4byte	0
 7859              	.LLST53:
 7860 0ad9 00000000 		.4byte	.LVL173
 7861 0add 22000000 		.4byte	.LVL176
 7862 0ae1 0100     		.2byte	0x1
 7863 0ae3 51       		.byte	0x51
 7864 0ae4 22000000 		.4byte	.LVL176
 7865 0ae8 94000000 		.4byte	.LFE129
 7866 0aec 0400     		.2byte	0x4
 7867 0aee F3       		.byte	0xf3
 7868 0aef 01       		.uleb128 0x1
 7869 0af0 51       		.byte	0x51
 7870 0af1 9F       		.byte	0x9f
 7871 0af2 00000000 		.4byte	0
 7872 0af6 00000000 		.4byte	0
 7873              	.LLST54:
 7874 0afa 00000000 		.4byte	.LVL173
 7875 0afe 0A000000 		.4byte	.LVL174
 7876 0b02 0200     		.2byte	0x2
 7877 0b04 30       		.byte	0x30
 7878 0b05 9F       		.byte	0x9f
 7879 0b06 0A000000 		.4byte	.LVL174
 7880 0b0a 32000000 		.4byte	.LVL177
 7881 0b0e 0100     		.2byte	0x1
 7882 0b10 53       		.byte	0x53
 7883 0b11 00000000 		.4byte	0
 7884 0b15 00000000 		.4byte	0
 7885              	.LLST55:
 7886 0b19 46000000 		.4byte	.LVL178
 7887 0b1d 60000000 		.4byte	.LVL180
 7888 0b21 0100     		.2byte	0x1
 7889 0b23 55       		.byte	0x55
 7890 0b24 00000000 		.4byte	0
 7891 0b28 00000000 		.4byte	0
 7892              	.LLST56:
 7893 0b2c 46000000 		.4byte	.LVL178
 7894 0b30 60000000 		.4byte	.LVL180
 7895 0b34 0700     		.2byte	0x7
 7896 0b36 75       		.byte	0x75
 7897 0b37 00       		.sleb128 0
 7898 0b38 34       		.byte	0x34
 7899 0b39 25       		.byte	0x25
ARM GAS  /tmp/ccadBNMM.s 			page 140


 7900 0b3a 3A       		.byte	0x3a
 7901 0b3b 1E       		.byte	0x1e
 7902 0b3c 9F       		.byte	0x9f
 7903 0b3d 00000000 		.4byte	0
 7904 0b41 00000000 		.4byte	0
 7905              	.LLST57:
 7906 0b45 00000000 		.4byte	.LVL183
 7907 0b49 1E000000 		.4byte	.LVL185
 7908 0b4d 0100     		.2byte	0x1
 7909 0b4f 50       		.byte	0x50
 7910 0b50 1E000000 		.4byte	.LVL185
 7911 0b54 50000000 		.4byte	.LVL191
 7912 0b58 0400     		.2byte	0x4
 7913 0b5a F3       		.byte	0xf3
 7914 0b5b 01       		.uleb128 0x1
 7915 0b5c 50       		.byte	0x50
 7916 0b5d 9F       		.byte	0x9f
 7917 0b5e 50000000 		.4byte	.LVL191
 7918 0b62 52000000 		.4byte	.LVL192
 7919 0b66 0100     		.2byte	0x1
 7920 0b68 50       		.byte	0x50
 7921 0b69 52000000 		.4byte	.LVL192
 7922 0b6d 5C000000 		.4byte	.LFE130
 7923 0b71 0400     		.2byte	0x4
 7924 0b73 F3       		.byte	0xf3
 7925 0b74 01       		.uleb128 0x1
 7926 0b75 50       		.byte	0x50
 7927 0b76 9F       		.byte	0x9f
 7928 0b77 00000000 		.4byte	0
 7929 0b7b 00000000 		.4byte	0
 7930              	.LLST58:
 7931 0b7f 00000000 		.4byte	.LVL183
 7932 0b83 20000000 		.4byte	.LVL186
 7933 0b87 0100     		.2byte	0x1
 7934 0b89 51       		.byte	0x51
 7935 0b8a 20000000 		.4byte	.LVL186
 7936 0b8e 50000000 		.4byte	.LVL191
 7937 0b92 0400     		.2byte	0x4
 7938 0b94 F3       		.byte	0xf3
 7939 0b95 01       		.uleb128 0x1
 7940 0b96 51       		.byte	0x51
 7941 0b97 9F       		.byte	0x9f
 7942 0b98 50000000 		.4byte	.LVL191
 7943 0b9c 5C000000 		.4byte	.LFE130
 7944 0ba0 0100     		.2byte	0x1
 7945 0ba2 51       		.byte	0x51
 7946 0ba3 00000000 		.4byte	0
 7947 0ba7 00000000 		.4byte	0
 7948              	.LLST59:
 7949 0bab 0E000000 		.4byte	.LVL184
 7950 0baf 22000000 		.4byte	.LVL187
 7951 0bb3 0200     		.2byte	0x2
 7952 0bb5 30       		.byte	0x30
 7953 0bb6 9F       		.byte	0x9f
 7954 0bb7 22000000 		.4byte	.LVL187
 7955 0bbb 24000000 		.4byte	.LVL188
 7956 0bbf 0100     		.2byte	0x1
ARM GAS  /tmp/ccadBNMM.s 			page 141


 7957 0bc1 52       		.byte	0x52
 7958 0bc2 36000000 		.4byte	.LVL189
 7959 0bc6 44000000 		.4byte	.LVL190
 7960 0bca 0100     		.2byte	0x1
 7961 0bcc 52       		.byte	0x52
 7962 0bcd 50000000 		.4byte	.LVL191
 7963 0bd1 5C000000 		.4byte	.LFE130
 7964 0bd5 0200     		.2byte	0x2
 7965 0bd7 30       		.byte	0x30
 7966 0bd8 9F       		.byte	0x9f
 7967 0bd9 00000000 		.4byte	0
 7968 0bdd 00000000 		.4byte	0
 7969              	.LLST60:
 7970 0be1 0E000000 		.4byte	.LVL184
 7971 0be5 44000000 		.4byte	.LVL190
 7972 0be9 0200     		.2byte	0x2
 7973 0beb 30       		.byte	0x30
 7974 0bec 9F       		.byte	0x9f
 7975 0bed 44000000 		.4byte	.LVL190
 7976 0bf1 50000000 		.4byte	.LVL191
 7977 0bf5 0100     		.2byte	0x1
 7978 0bf7 50       		.byte	0x50
 7979 0bf8 50000000 		.4byte	.LVL191
 7980 0bfc 54000000 		.4byte	.LVL193
 7981 0c00 0200     		.2byte	0x2
 7982 0c02 30       		.byte	0x30
 7983 0c03 9F       		.byte	0x9f
 7984 0c04 54000000 		.4byte	.LVL193
 7985 0c08 5C000000 		.4byte	.LFE130
 7986 0c0c 0200     		.2byte	0x2
 7987 0c0e 31       		.byte	0x31
 7988 0c0f 9F       		.byte	0x9f
 7989 0c10 00000000 		.4byte	0
 7990 0c14 00000000 		.4byte	0
 7991              	.LLST61:
 7992 0c18 00000000 		.4byte	.LVL194
 7993 0c1c 06000000 		.4byte	.LVL195
 7994 0c20 0100     		.2byte	0x1
 7995 0c22 52       		.byte	0x52
 7996 0c23 06000000 		.4byte	.LVL195
 7997 0c27 28000000 		.4byte	.LFE131
 7998 0c2b 0400     		.2byte	0x4
 7999 0c2d F3       		.byte	0xf3
 8000 0c2e 01       		.uleb128 0x1
 8001 0c2f 52       		.byte	0x52
 8002 0c30 9F       		.byte	0x9f
 8003 0c31 00000000 		.4byte	0
 8004 0c35 00000000 		.4byte	0
 8005              	.LLST62:
 8006 0c39 00000000 		.4byte	.LVL194
 8007 0c3d 06000000 		.4byte	.LVL195
 8008 0c41 0200     		.2byte	0x2
 8009 0c43 30       		.byte	0x30
 8010 0c44 9F       		.byte	0x9f
 8011 0c45 06000000 		.4byte	.LVL195
 8012 0c49 1C000000 		.4byte	.LVL196
 8013 0c4d 0100     		.2byte	0x1
ARM GAS  /tmp/ccadBNMM.s 			page 142


 8014 0c4f 52       		.byte	0x52
 8015 0c50 1C000000 		.4byte	.LVL196
 8016 0c54 28000000 		.4byte	.LFE131
 8017 0c58 0700     		.2byte	0x7
 8018 0c5a 71       		.byte	0x71
 8019 0c5b 00       		.sleb128 0
 8020 0c5c F3       		.byte	0xf3
 8021 0c5d 01       		.uleb128 0x1
 8022 0c5e 52       		.byte	0x52
 8023 0c5f 21       		.byte	0x21
 8024 0c60 9F       		.byte	0x9f
 8025 0c61 00000000 		.4byte	0
 8026 0c65 00000000 		.4byte	0
 8027              	.LLST63:
 8028 0c69 00000000 		.4byte	.LVL197
 8029 0c6d 0A000000 		.4byte	.LVL198
 8030 0c71 0100     		.2byte	0x1
 8031 0c73 50       		.byte	0x50
 8032 0c74 0A000000 		.4byte	.LVL198
 8033 0c78 18000000 		.4byte	.LFE132
 8034 0c7c 0400     		.2byte	0x4
 8035 0c7e F3       		.byte	0xf3
 8036 0c7f 01       		.uleb128 0x1
 8037 0c80 50       		.byte	0x50
 8038 0c81 9F       		.byte	0x9f
 8039 0c82 00000000 		.4byte	0
 8040 0c86 00000000 		.4byte	0
 8041              	.LLST64:
 8042 0c8a 00000000 		.4byte	.LVL197
 8043 0c8e 10000000 		.4byte	.LVL199
 8044 0c92 0200     		.2byte	0x2
 8045 0c94 30       		.byte	0x30
 8046 0c95 9F       		.byte	0x9f
 8047 0c96 10000000 		.4byte	.LVL199
 8048 0c9a 18000000 		.4byte	.LFE132
 8049 0c9e 0100     		.2byte	0x1
 8050 0ca0 50       		.byte	0x50
 8051 0ca1 00000000 		.4byte	0
 8052 0ca5 00000000 		.4byte	0
 8053              	.LLST65:
 8054 0ca9 00000000 		.4byte	.LVL200
 8055 0cad 18000000 		.4byte	.LVL201
 8056 0cb1 0100     		.2byte	0x1
 8057 0cb3 50       		.byte	0x50
 8058 0cb4 18000000 		.4byte	.LVL201
 8059 0cb8 24000000 		.4byte	.LFE133
 8060 0cbc 0400     		.2byte	0x4
 8061 0cbe F3       		.byte	0xf3
 8062 0cbf 01       		.uleb128 0x1
 8063 0cc0 50       		.byte	0x50
 8064 0cc1 9F       		.byte	0x9f
 8065 0cc2 00000000 		.4byte	0
 8066 0cc6 00000000 		.4byte	0
 8067              	.LLST66:
 8068 0cca 00000000 		.4byte	.LVL203
 8069 0cce 38000000 		.4byte	.LVL208
 8070 0cd2 0100     		.2byte	0x1
ARM GAS  /tmp/ccadBNMM.s 			page 143


 8071 0cd4 50       		.byte	0x50
 8072 0cd5 38000000 		.4byte	.LVL208
 8073 0cd9 4A000000 		.4byte	.LVL210
 8074 0cdd 0400     		.2byte	0x4
 8075 0cdf F3       		.byte	0xf3
 8076 0ce0 01       		.uleb128 0x1
 8077 0ce1 50       		.byte	0x50
 8078 0ce2 9F       		.byte	0x9f
 8079 0ce3 4A000000 		.4byte	.LVL210
 8080 0ce7 52000000 		.4byte	.LVL212
 8081 0ceb 0100     		.2byte	0x1
 8082 0ced 50       		.byte	0x50
 8083 0cee 52000000 		.4byte	.LVL212
 8084 0cf2 58000000 		.4byte	.LFE136
 8085 0cf6 0400     		.2byte	0x4
 8086 0cf8 F3       		.byte	0xf3
 8087 0cf9 01       		.uleb128 0x1
 8088 0cfa 50       		.byte	0x50
 8089 0cfb 9F       		.byte	0x9f
 8090 0cfc 00000000 		.4byte	0
 8091 0d00 00000000 		.4byte	0
 8092              	.LLST67:
 8093 0d04 0E000000 		.4byte	.LVL204
 8094 0d08 1E000000 		.4byte	.LVL205
 8095 0d0c 0200     		.2byte	0x2
 8096 0d0e 30       		.byte	0x30
 8097 0d0f 9F       		.byte	0x9f
 8098 0d10 1E000000 		.4byte	.LVL205
 8099 0d14 20000000 		.4byte	.LVL206
 8100 0d18 0100     		.2byte	0x1
 8101 0d1a 52       		.byte	0x52
 8102 0d1b 32000000 		.4byte	.LVL207
 8103 0d1f 3C000000 		.4byte	.LVL209
 8104 0d23 0100     		.2byte	0x1
 8105 0d25 52       		.byte	0x52
 8106 0d26 4A000000 		.4byte	.LVL210
 8107 0d2a 58000000 		.4byte	.LFE136
 8108 0d2e 0200     		.2byte	0x2
 8109 0d30 30       		.byte	0x30
 8110 0d31 9F       		.byte	0x9f
 8111 0d32 00000000 		.4byte	0
 8112 0d36 00000000 		.4byte	0
 8113              	.LLST68:
 8114 0d3a 0E000000 		.4byte	.LVL204
 8115 0d3e 3C000000 		.4byte	.LVL209
 8116 0d42 0200     		.2byte	0x2
 8117 0d44 30       		.byte	0x30
 8118 0d45 9F       		.byte	0x9f
 8119 0d46 3C000000 		.4byte	.LVL209
 8120 0d4a 4A000000 		.4byte	.LVL210
 8121 0d4e 0100     		.2byte	0x1
 8122 0d50 50       		.byte	0x50
 8123 0d51 4A000000 		.4byte	.LVL210
 8124 0d55 50000000 		.4byte	.LVL211
 8125 0d59 0200     		.2byte	0x2
 8126 0d5b 30       		.byte	0x30
 8127 0d5c 9F       		.byte	0x9f
ARM GAS  /tmp/ccadBNMM.s 			page 144


 8128 0d5d 50000000 		.4byte	.LVL211
 8129 0d61 58000000 		.4byte	.LFE136
 8130 0d65 0200     		.2byte	0x2
 8131 0d67 31       		.byte	0x31
 8132 0d68 9F       		.byte	0x9f
 8133 0d69 00000000 		.4byte	0
 8134 0d6d 00000000 		.4byte	0
 8135              	.LLST69:
 8136 0d71 00000000 		.4byte	.LVL213
 8137 0d75 1E000000 		.4byte	.LVL215
 8138 0d79 0100     		.2byte	0x1
 8139 0d7b 50       		.byte	0x50
 8140 0d7c 1E000000 		.4byte	.LVL215
 8141 0d80 2C000000 		.4byte	.LFE137
 8142 0d84 0400     		.2byte	0x4
 8143 0d86 F3       		.byte	0xf3
 8144 0d87 01       		.uleb128 0x1
 8145 0d88 50       		.byte	0x50
 8146 0d89 9F       		.byte	0x9f
 8147 0d8a 00000000 		.4byte	0
 8148 0d8e 00000000 		.4byte	0
 8149              	.LLST70:
 8150 0d92 00000000 		.4byte	.LVL213
 8151 0d96 1C000000 		.4byte	.LVL214
 8152 0d9a 0100     		.2byte	0x1
 8153 0d9c 51       		.byte	0x51
 8154 0d9d 1C000000 		.4byte	.LVL214
 8155 0da1 2C000000 		.4byte	.LFE137
 8156 0da5 0400     		.2byte	0x4
 8157 0da7 F3       		.byte	0xf3
 8158 0da8 01       		.uleb128 0x1
 8159 0da9 51       		.byte	0x51
 8160 0daa 9F       		.byte	0x9f
 8161 0dab 00000000 		.4byte	0
 8162 0daf 00000000 		.4byte	0
 8163              	.LLST71:
 8164 0db3 00000000 		.4byte	.LVL216
 8165 0db7 1E000000 		.4byte	.LVL218
 8166 0dbb 0100     		.2byte	0x1
 8167 0dbd 50       		.byte	0x50
 8168 0dbe 1E000000 		.4byte	.LVL218
 8169 0dc2 2C000000 		.4byte	.LFE139
 8170 0dc6 0400     		.2byte	0x4
 8171 0dc8 F3       		.byte	0xf3
 8172 0dc9 01       		.uleb128 0x1
 8173 0dca 50       		.byte	0x50
 8174 0dcb 9F       		.byte	0x9f
 8175 0dcc 00000000 		.4byte	0
 8176 0dd0 00000000 		.4byte	0
 8177              	.LLST72:
 8178 0dd4 00000000 		.4byte	.LVL216
 8179 0dd8 1C000000 		.4byte	.LVL217
 8180 0ddc 0100     		.2byte	0x1
 8181 0dde 51       		.byte	0x51
 8182 0ddf 1C000000 		.4byte	.LVL217
 8183 0de3 2C000000 		.4byte	.LFE139
 8184 0de7 0400     		.2byte	0x4
ARM GAS  /tmp/ccadBNMM.s 			page 145


 8185 0de9 F3       		.byte	0xf3
 8186 0dea 01       		.uleb128 0x1
 8187 0deb 51       		.byte	0x51
 8188 0dec 9F       		.byte	0x9f
 8189 0ded 00000000 		.4byte	0
 8190 0df1 00000000 		.4byte	0
 8191              	.LLST73:
 8192 0df5 00000000 		.4byte	.LVL220
 8193 0df9 18000000 		.4byte	.LVL221
 8194 0dfd 0100     		.2byte	0x1
 8195 0dff 50       		.byte	0x50
 8196 0e00 18000000 		.4byte	.LVL221
 8197 0e04 24000000 		.4byte	.LFE141
 8198 0e08 0400     		.2byte	0x4
 8199 0e0a F3       		.byte	0xf3
 8200 0e0b 01       		.uleb128 0x1
 8201 0e0c 50       		.byte	0x50
 8202 0e0d 9F       		.byte	0x9f
 8203 0e0e 00000000 		.4byte	0
 8204 0e12 00000000 		.4byte	0
 8205              	.LLST74:
 8206 0e16 00000000 		.4byte	.LVL222
 8207 0e1a 34000000 		.4byte	.LVL228
 8208 0e1e 0100     		.2byte	0x1
 8209 0e20 50       		.byte	0x50
 8210 0e21 34000000 		.4byte	.LVL228
 8211 0e25 42000000 		.4byte	.LVL232
 8212 0e29 0400     		.2byte	0x4
 8213 0e2b F3       		.byte	0xf3
 8214 0e2c 01       		.uleb128 0x1
 8215 0e2d 50       		.byte	0x50
 8216 0e2e 9F       		.byte	0x9f
 8217 0e2f 42000000 		.4byte	.LVL232
 8218 0e33 44000000 		.4byte	.LVL233
 8219 0e37 0100     		.2byte	0x1
 8220 0e39 50       		.byte	0x50
 8221 0e3a 44000000 		.4byte	.LVL233
 8222 0e3e 4C000000 		.4byte	.LFE142
 8223 0e42 0400     		.2byte	0x4
 8224 0e44 F3       		.byte	0xf3
 8225 0e45 01       		.uleb128 0x1
 8226 0e46 50       		.byte	0x50
 8227 0e47 9F       		.byte	0x9f
 8228 0e48 00000000 		.4byte	0
 8229 0e4c 00000000 		.4byte	0
 8230              	.LLST75:
 8231 0e50 00000000 		.4byte	.LVL222
 8232 0e54 32000000 		.4byte	.LVL227
 8233 0e58 0100     		.2byte	0x1
 8234 0e5a 51       		.byte	0x51
 8235 0e5b 32000000 		.4byte	.LVL227
 8236 0e5f 42000000 		.4byte	.LVL232
 8237 0e63 0400     		.2byte	0x4
 8238 0e65 F3       		.byte	0xf3
 8239 0e66 01       		.uleb128 0x1
 8240 0e67 51       		.byte	0x51
 8241 0e68 9F       		.byte	0x9f
ARM GAS  /tmp/ccadBNMM.s 			page 146


 8242 0e69 42000000 		.4byte	.LVL232
 8243 0e6d 4C000000 		.4byte	.LFE142
 8244 0e71 0100     		.2byte	0x1
 8245 0e73 51       		.byte	0x51
 8246 0e74 00000000 		.4byte	0
 8247 0e78 00000000 		.4byte	0
 8248              	.LLST76:
 8249 0e7c 00000000 		.4byte	.LVL222
 8250 0e80 3C000000 		.4byte	.LVL231
 8251 0e84 0100     		.2byte	0x1
 8252 0e86 52       		.byte	0x52
 8253 0e87 3C000000 		.4byte	.LVL231
 8254 0e8b 42000000 		.4byte	.LVL232
 8255 0e8f 0400     		.2byte	0x4
 8256 0e91 F3       		.byte	0xf3
 8257 0e92 01       		.uleb128 0x1
 8258 0e93 52       		.byte	0x52
 8259 0e94 9F       		.byte	0x9f
 8260 0e95 42000000 		.4byte	.LVL232
 8261 0e99 4C000000 		.4byte	.LFE142
 8262 0e9d 0100     		.2byte	0x1
 8263 0e9f 52       		.byte	0x52
 8264 0ea0 00000000 		.4byte	0
 8265 0ea4 00000000 		.4byte	0
 8266              	.LLST77:
 8267 0ea8 00000000 		.4byte	.LVL222
 8268 0eac 36000000 		.4byte	.LVL229
 8269 0eb0 0200     		.2byte	0x2
 8270 0eb2 30       		.byte	0x30
 8271 0eb3 9F       		.byte	0x9f
 8272 0eb4 36000000 		.4byte	.LVL229
 8273 0eb8 38000000 		.4byte	.LVL230
 8274 0ebc 0200     		.2byte	0x2
 8275 0ebe 31       		.byte	0x31
 8276 0ebf 9F       		.byte	0x9f
 8277 0ec0 38000000 		.4byte	.LVL230
 8278 0ec4 42000000 		.4byte	.LVL232
 8279 0ec8 0100     		.2byte	0x1
 8280 0eca 50       		.byte	0x50
 8281 0ecb 42000000 		.4byte	.LVL232
 8282 0ecf 4C000000 		.4byte	.LFE142
 8283 0ed3 0200     		.2byte	0x2
 8284 0ed5 30       		.byte	0x30
 8285 0ed6 9F       		.byte	0x9f
 8286 0ed7 00000000 		.4byte	0
 8287 0edb 00000000 		.4byte	0
 8288              	.LLST78:
 8289 0edf 00000000 		.4byte	.LVL222
 8290 0ee3 1E000000 		.4byte	.LVL223
 8291 0ee7 0200     		.2byte	0x2
 8292 0ee9 30       		.byte	0x30
 8293 0eea 9F       		.byte	0x9f
 8294 0eeb 1E000000 		.4byte	.LVL223
 8295 0eef 20000000 		.4byte	.LVL224
 8296 0ef3 0700     		.2byte	0x7
 8297 0ef5 0A       		.byte	0xa
 8298 0ef6 0110     		.2byte	0x1001
ARM GAS  /tmp/ccadBNMM.s 			page 147


 8299 0ef8 73       		.byte	0x73
 8300 0ef9 00       		.sleb128 0
 8301 0efa 1C       		.byte	0x1c
 8302 0efb 9F       		.byte	0x9f
 8303 0efc 20000000 		.4byte	.LVL224
 8304 0f00 22000000 		.4byte	.LVL225
 8305 0f04 0700     		.2byte	0x7
 8306 0f06 0A       		.byte	0xa
 8307 0f07 0010     		.2byte	0x1000
 8308 0f09 73       		.byte	0x73
 8309 0f0a 00       		.sleb128 0
 8310 0f0b 1C       		.byte	0x1c
 8311 0f0c 9F       		.byte	0x9f
 8312 0f0d 22000000 		.4byte	.LVL225
 8313 0f11 28000000 		.4byte	.LVL226
 8314 0f15 0700     		.2byte	0x7
 8315 0f17 0A       		.byte	0xa
 8316 0f18 0110     		.2byte	0x1001
 8317 0f1a 73       		.byte	0x73
 8318 0f1b 00       		.sleb128 0
 8319 0f1c 1C       		.byte	0x1c
 8320 0f1d 9F       		.byte	0x9f
 8321 0f1e 00000000 		.4byte	0
 8322 0f22 00000000 		.4byte	0
 8323              	.LLST79:
 8324 0f26 00000000 		.4byte	.LVL234
 8325 0f2a 12000000 		.4byte	.LVL236
 8326 0f2e 0100     		.2byte	0x1
 8327 0f30 50       		.byte	0x50
 8328 0f31 12000000 		.4byte	.LVL236
 8329 0f35 28000000 		.4byte	.LVL238
 8330 0f39 0400     		.2byte	0x4
 8331 0f3b F3       		.byte	0xf3
 8332 0f3c 01       		.uleb128 0x1
 8333 0f3d 50       		.byte	0x50
 8334 0f3e 9F       		.byte	0x9f
 8335 0f3f 28000000 		.4byte	.LVL238
 8336 0f43 2E000000 		.4byte	.LVL240
 8337 0f47 0100     		.2byte	0x1
 8338 0f49 50       		.byte	0x50
 8339 0f4a 2E000000 		.4byte	.LVL240
 8340 0f4e 34000000 		.4byte	.LFE143
 8341 0f52 0400     		.2byte	0x4
 8342 0f54 F3       		.byte	0xf3
 8343 0f55 01       		.uleb128 0x1
 8344 0f56 50       		.byte	0x50
 8345 0f57 9F       		.byte	0x9f
 8346 0f58 00000000 		.4byte	0
 8347 0f5c 00000000 		.4byte	0
 8348              	.LLST80:
 8349 0f60 00000000 		.4byte	.LVL234
 8350 0f64 18000000 		.4byte	.LVL237
 8351 0f68 0100     		.2byte	0x1
 8352 0f6a 51       		.byte	0x51
 8353 0f6b 18000000 		.4byte	.LVL237
 8354 0f6f 28000000 		.4byte	.LVL238
 8355 0f73 0400     		.2byte	0x4
ARM GAS  /tmp/ccadBNMM.s 			page 148


 8356 0f75 F3       		.byte	0xf3
 8357 0f76 01       		.uleb128 0x1
 8358 0f77 51       		.byte	0x51
 8359 0f78 9F       		.byte	0x9f
 8360 0f79 28000000 		.4byte	.LVL238
 8361 0f7d 34000000 		.4byte	.LFE143
 8362 0f81 0100     		.2byte	0x1
 8363 0f83 51       		.byte	0x51
 8364 0f84 00000000 		.4byte	0
 8365 0f88 00000000 		.4byte	0
 8366              	.LLST81:
 8367 0f8c 00000000 		.4byte	.LVL234
 8368 0f90 0E000000 		.4byte	.LVL235
 8369 0f94 0200     		.2byte	0x2
 8370 0f96 30       		.byte	0x30
 8371 0f97 9F       		.byte	0x9f
 8372 0f98 0E000000 		.4byte	.LVL235
 8373 0f9c 12000000 		.4byte	.LVL236
 8374 0fa0 0100     		.2byte	0x1
 8375 0fa2 53       		.byte	0x53
 8376 0fa3 12000000 		.4byte	.LVL236
 8377 0fa7 28000000 		.4byte	.LVL238
 8378 0fab 0100     		.2byte	0x1
 8379 0fad 50       		.byte	0x50
 8380 0fae 28000000 		.4byte	.LVL238
 8381 0fb2 2C000000 		.4byte	.LVL239
 8382 0fb6 0100     		.2byte	0x1
 8383 0fb8 53       		.byte	0x53
 8384 0fb9 2E000000 		.4byte	.LVL240
 8385 0fbd 34000000 		.4byte	.LFE143
 8386 0fc1 0100     		.2byte	0x1
 8387 0fc3 50       		.byte	0x50
 8388 0fc4 00000000 		.4byte	0
 8389 0fc8 00000000 		.4byte	0
 8390              	.LLST82:
 8391 0fcc 00000000 		.4byte	.LVL241
 8392 0fd0 50000000 		.4byte	.LVL249
 8393 0fd4 0100     		.2byte	0x1
 8394 0fd6 50       		.byte	0x50
 8395 0fd7 50000000 		.4byte	.LVL249
 8396 0fdb BC000000 		.4byte	.LFE144
 8397 0fdf 0400     		.2byte	0x4
 8398 0fe1 F3       		.byte	0xf3
 8399 0fe2 01       		.uleb128 0x1
 8400 0fe3 50       		.byte	0x50
 8401 0fe4 9F       		.byte	0x9f
 8402 0fe5 00000000 		.4byte	0
 8403 0fe9 00000000 		.4byte	0
 8404              	.LLST83:
 8405 0fed 00000000 		.4byte	.LVL241
 8406 0ff1 86000000 		.4byte	.LVL259
 8407 0ff5 0100     		.2byte	0x1
 8408 0ff7 51       		.byte	0x51
 8409 0ff8 86000000 		.4byte	.LVL259
 8410 0ffc BC000000 		.4byte	.LFE144
 8411 1000 0400     		.2byte	0x4
 8412 1002 F3       		.byte	0xf3
ARM GAS  /tmp/ccadBNMM.s 			page 149


 8413 1003 01       		.uleb128 0x1
 8414 1004 51       		.byte	0x51
 8415 1005 9F       		.byte	0x9f
 8416 1006 00000000 		.4byte	0
 8417 100a 00000000 		.4byte	0
 8418              	.LLST84:
 8419 100e 00000000 		.4byte	.LVL241
 8420 1012 08000000 		.4byte	.LVL242
 8421 1016 0200     		.2byte	0x2
 8422 1018 30       		.byte	0x30
 8423 1019 9F       		.byte	0x9f
 8424 101a 08000000 		.4byte	.LVL242
 8425 101e 22000000 		.4byte	.LVL244
 8426 1022 0900     		.2byte	0x9
 8427 1024 73       		.byte	0x73
 8428 1025 00       		.sleb128 0
 8429 1026 0C       		.byte	0xc
 8430 1027 7F7F7F00 		.4byte	0x7f7f7f
 8431 102b 1A       		.byte	0x1a
 8432 102c 9F       		.byte	0x9f
 8433 102d 00000000 		.4byte	0
 8434 1031 00000000 		.4byte	0
 8435              	.LLST85:
 8436 1035 00000000 		.4byte	.LVL241
 8437 1039 0A000000 		.4byte	.LVL243
 8438 103d 0200     		.2byte	0x2
 8439 103f 30       		.byte	0x30
 8440 1040 9F       		.byte	0x9f
 8441 1041 0A000000 		.4byte	.LVL243
 8442 1045 2C000000 		.4byte	.LVL245
 8443 1049 0900     		.2byte	0x9
 8444 104b 74       		.byte	0x74
 8445 104c 00       		.sleb128 0
 8446 104d 0C       		.byte	0xc
 8447 104e 3FFFFF00 		.4byte	0xffff3f
 8448 1052 1A       		.byte	0x1a
 8449 1053 9F       		.byte	0x9f
 8450 1054 00000000 		.4byte	0
 8451 1058 00000000 		.4byte	0
 8452              	.LLST86:
 8453 105c 46000000 		.4byte	.LVL246
 8454 1060 76000000 		.4byte	.LVL253
 8455 1064 0200     		.2byte	0x2
 8456 1066 71       		.byte	0x71
 8457 1067 00       		.sleb128 0
 8458 1068 00000000 		.4byte	0
 8459 106c 00000000 		.4byte	0
 8460              	.LLST87:
 8461 1070 46000000 		.4byte	.LVL246
 8462 1074 54000000 		.4byte	.LVL250
 8463 1078 0700     		.2byte	0x7
 8464 107a 76       		.byte	0x76
 8465 107b 00       		.sleb128 0
 8466 107c 34       		.byte	0x34
 8467 107d 25       		.byte	0x25
 8468 107e 3A       		.byte	0x3a
 8469 107f 1E       		.byte	0x1e
ARM GAS  /tmp/ccadBNMM.s 			page 150


 8470 1080 9F       		.byte	0x9f
 8471 1081 54000000 		.4byte	.LVL250
 8472 1085 76000000 		.4byte	.LVL253
 8473 1089 0900     		.2byte	0x9
 8474 108b 71       		.byte	0x71
 8475 108c 00       		.sleb128 0
 8476 108d 94       		.byte	0x94
 8477 108e 01       		.byte	0x1
 8478 108f 34       		.byte	0x34
 8479 1090 25       		.byte	0x25
 8480 1091 3A       		.byte	0x3a
 8481 1092 1E       		.byte	0x1e
 8482 1093 9F       		.byte	0x9f
 8483 1094 00000000 		.4byte	0
 8484 1098 00000000 		.4byte	0
 8485              	.LLST88:
 8486 109c 48000000 		.4byte	.LVL247
 8487 10a0 78000000 		.4byte	.LVL254
 8488 10a4 0200     		.2byte	0x2
 8489 10a6 71       		.byte	0x71
 8490 10a7 01       		.sleb128 1
 8491 10a8 00000000 		.4byte	0
 8492 10ac 00000000 		.4byte	0
 8493              	.LLST89:
 8494 10b0 48000000 		.4byte	.LVL247
 8495 10b4 58000000 		.4byte	.LVL251
 8496 10b8 0700     		.2byte	0x7
 8497 10ba 74       		.byte	0x74
 8498 10bb 00       		.sleb128 0
 8499 10bc 34       		.byte	0x34
 8500 10bd 25       		.byte	0x25
 8501 10be 3A       		.byte	0x3a
 8502 10bf 1E       		.byte	0x1e
 8503 10c0 9F       		.byte	0x9f
 8504 10c1 58000000 		.4byte	.LVL251
 8505 10c5 78000000 		.4byte	.LVL254
 8506 10c9 0900     		.2byte	0x9
 8507 10cb 71       		.byte	0x71
 8508 10cc 01       		.sleb128 1
 8509 10cd 94       		.byte	0x94
 8510 10ce 01       		.byte	0x1
 8511 10cf 34       		.byte	0x34
 8512 10d0 25       		.byte	0x25
 8513 10d1 3A       		.byte	0x3a
 8514 10d2 1E       		.byte	0x1e
 8515 10d3 9F       		.byte	0x9f
 8516 10d4 00000000 		.4byte	0
 8517 10d8 00000000 		.4byte	0
 8518              	.LLST90:
 8519 10dc 4A000000 		.4byte	.LVL248
 8520 10e0 7A000000 		.4byte	.LVL255
 8521 10e4 0200     		.2byte	0x2
 8522 10e6 71       		.byte	0x71
 8523 10e7 02       		.sleb128 2
 8524 10e8 00000000 		.4byte	0
 8525 10ec 00000000 		.4byte	0
 8526              	.LLST91:
ARM GAS  /tmp/ccadBNMM.s 			page 151


 8527 10f0 4A000000 		.4byte	.LVL248
 8528 10f4 5C000000 		.4byte	.LVL252
 8529 10f8 0700     		.2byte	0x7
 8530 10fa 73       		.byte	0x73
 8531 10fb 00       		.sleb128 0
 8532 10fc 34       		.byte	0x34
 8533 10fd 25       		.byte	0x25
 8534 10fe 3A       		.byte	0x3a
 8535 10ff 1E       		.byte	0x1e
 8536 1100 9F       		.byte	0x9f
 8537 1101 5C000000 		.4byte	.LVL252
 8538 1105 7A000000 		.4byte	.LVL255
 8539 1109 0900     		.2byte	0x9
 8540 110b 71       		.byte	0x71
 8541 110c 02       		.sleb128 2
 8542 110d 94       		.byte	0x94
 8543 110e 01       		.byte	0x1
 8544 110f 34       		.byte	0x34
 8545 1110 25       		.byte	0x25
 8546 1111 3A       		.byte	0x3a
 8547 1112 1E       		.byte	0x1e
 8548 1113 9F       		.byte	0x9f
 8549 1114 00000000 		.4byte	0
 8550 1118 00000000 		.4byte	0
 8551              	.LLST92:
 8552 111c 7C000000 		.4byte	.LVL256
 8553 1120 AC000000 		.4byte	.LVL263
 8554 1124 0200     		.2byte	0x2
 8555 1126 72       		.byte	0x72
 8556 1127 01       		.sleb128 1
 8557 1128 00000000 		.4byte	0
 8558 112c 00000000 		.4byte	0
 8559              	.LLST93:
 8560 1130 7C000000 		.4byte	.LVL256
 8561 1134 8E000000 		.4byte	.LVL260
 8562 1138 0700     		.2byte	0x7
 8563 113a 75       		.byte	0x75
 8564 113b 00       		.sleb128 0
 8565 113c 34       		.byte	0x34
 8566 113d 25       		.byte	0x25
 8567 113e 3A       		.byte	0x3a
 8568 113f 1E       		.byte	0x1e
 8569 1140 9F       		.byte	0x9f
 8570 1141 8E000000 		.4byte	.LVL260
 8571 1145 AC000000 		.4byte	.LVL263
 8572 1149 0900     		.2byte	0x9
 8573 114b 72       		.byte	0x72
 8574 114c 01       		.sleb128 1
 8575 114d 94       		.byte	0x94
 8576 114e 01       		.byte	0x1
 8577 114f 34       		.byte	0x34
 8578 1150 25       		.byte	0x25
 8579 1151 3A       		.byte	0x3a
 8580 1152 1E       		.byte	0x1e
 8581 1153 9F       		.byte	0x9f
 8582 1154 00000000 		.4byte	0
 8583 1158 00000000 		.4byte	0
ARM GAS  /tmp/ccadBNMM.s 			page 152


 8584              	.LLST94:
 8585 115c 7E000000 		.4byte	.LVL257
 8586 1160 AE000000 		.4byte	.LVL264
 8587 1164 0200     		.2byte	0x2
 8588 1166 72       		.byte	0x72
 8589 1167 02       		.sleb128 2
 8590 1168 00000000 		.4byte	0
 8591 116c 00000000 		.4byte	0
 8592              	.LLST95:
 8593 1170 7E000000 		.4byte	.LVL257
 8594 1174 96000000 		.4byte	.LVL261
 8595 1178 0700     		.2byte	0x7
 8596 117a 70       		.byte	0x70
 8597 117b 00       		.sleb128 0
 8598 117c 34       		.byte	0x34
 8599 117d 25       		.byte	0x25
 8600 117e 3A       		.byte	0x3a
 8601 117f 1E       		.byte	0x1e
 8602 1180 9F       		.byte	0x9f
 8603 1181 96000000 		.4byte	.LVL261
 8604 1185 AE000000 		.4byte	.LVL264
 8605 1189 0900     		.2byte	0x9
 8606 118b 72       		.byte	0x72
 8607 118c 02       		.sleb128 2
 8608 118d 94       		.byte	0x94
 8609 118e 01       		.byte	0x1
 8610 118f 34       		.byte	0x34
 8611 1190 25       		.byte	0x25
 8612 1191 3A       		.byte	0x3a
 8613 1192 1E       		.byte	0x1e
 8614 1193 9F       		.byte	0x9f
 8615 1194 00000000 		.4byte	0
 8616 1198 00000000 		.4byte	0
 8617              	.LLST96:
 8618 119c 80000000 		.4byte	.LVL258
 8619 11a0 B0000000 		.4byte	.LVL265
 8620 11a4 0200     		.2byte	0x2
 8621 11a6 72       		.byte	0x72
 8622 11a7 00       		.sleb128 0
 8623 11a8 00000000 		.4byte	0
 8624 11ac 00000000 		.4byte	0
 8625              	.LLST97:
 8626 11b0 80000000 		.4byte	.LVL258
 8627 11b4 9E000000 		.4byte	.LVL262
 8628 11b8 0700     		.2byte	0x7
 8629 11ba 73       		.byte	0x73
 8630 11bb 00       		.sleb128 0
 8631 11bc 34       		.byte	0x34
 8632 11bd 25       		.byte	0x25
 8633 11be 3A       		.byte	0x3a
 8634 11bf 1E       		.byte	0x1e
 8635 11c0 9F       		.byte	0x9f
 8636 11c1 9E000000 		.4byte	.LVL262
 8637 11c5 B0000000 		.4byte	.LVL265
 8638 11c9 0900     		.2byte	0x9
 8639 11cb 72       		.byte	0x72
 8640 11cc 00       		.sleb128 0
ARM GAS  /tmp/ccadBNMM.s 			page 153


 8641 11cd 94       		.byte	0x94
 8642 11ce 01       		.byte	0x1
 8643 11cf 34       		.byte	0x34
 8644 11d0 25       		.byte	0x25
 8645 11d1 3A       		.byte	0x3a
 8646 11d2 1E       		.byte	0x1e
 8647 11d3 9F       		.byte	0x9f
 8648 11d4 00000000 		.4byte	0
 8649 11d8 00000000 		.4byte	0
 8650              	.LLST98:
 8651 11dc 00000000 		.4byte	.LVL266
 8652 11e0 0A000000 		.4byte	.LVL267
 8653 11e4 0100     		.2byte	0x1
 8654 11e6 50       		.byte	0x50
 8655 11e7 0A000000 		.4byte	.LVL267
 8656 11eb 0E000000 		.4byte	.LVL268
 8657 11ef 0400     		.2byte	0x4
 8658 11f1 F3       		.byte	0xf3
 8659 11f2 01       		.uleb128 0x1
 8660 11f3 50       		.byte	0x50
 8661 11f4 9F       		.byte	0x9f
 8662 11f5 0E000000 		.4byte	.LVL268
 8663 11f9 12000000 		.4byte	.LVL269
 8664 11fd 0100     		.2byte	0x1
 8665 11ff 50       		.byte	0x50
 8666 1200 12000000 		.4byte	.LVL269
 8667 1204 1C000000 		.4byte	.LFE146
 8668 1208 0400     		.2byte	0x4
 8669 120a F3       		.byte	0xf3
 8670 120b 01       		.uleb128 0x1
 8671 120c 50       		.byte	0x50
 8672 120d 9F       		.byte	0x9f
 8673 120e 00000000 		.4byte	0
 8674 1212 00000000 		.4byte	0
 8675              	.LLST99:
 8676 1216 00000000 		.4byte	.LVL270
 8677 121a 0A000000 		.4byte	.LVL271
 8678 121e 0100     		.2byte	0x1
 8679 1220 50       		.byte	0x50
 8680 1221 0A000000 		.4byte	.LVL271
 8681 1225 0E000000 		.4byte	.LVL272
 8682 1229 0400     		.2byte	0x4
 8683 122b F3       		.byte	0xf3
 8684 122c 01       		.uleb128 0x1
 8685 122d 50       		.byte	0x50
 8686 122e 9F       		.byte	0x9f
 8687 122f 0E000000 		.4byte	.LVL272
 8688 1233 10000000 		.4byte	.LVL273
 8689 1237 0100     		.2byte	0x1
 8690 1239 50       		.byte	0x50
 8691 123a 10000000 		.4byte	.LVL273
 8692 123e 18000000 		.4byte	.LFE147
 8693 1242 0400     		.2byte	0x4
 8694 1244 F3       		.byte	0xf3
 8695 1245 01       		.uleb128 0x1
 8696 1246 50       		.byte	0x50
 8697 1247 9F       		.byte	0x9f
ARM GAS  /tmp/ccadBNMM.s 			page 154


 8698 1248 00000000 		.4byte	0
 8699 124c 00000000 		.4byte	0
 8700              	.LLST100:
 8701 1250 00000000 		.4byte	.LVL274
 8702 1254 0E000000 		.4byte	.LVL275
 8703 1258 0100     		.2byte	0x1
 8704 125a 50       		.byte	0x50
 8705 125b 0E000000 		.4byte	.LVL275
 8706 125f 18000000 		.4byte	.LFE148
 8707 1263 0400     		.2byte	0x4
 8708 1265 F3       		.byte	0xf3
 8709 1266 01       		.uleb128 0x1
 8710 1267 50       		.byte	0x50
 8711 1268 9F       		.byte	0x9f
 8712 1269 00000000 		.4byte	0
 8713 126d 00000000 		.4byte	0
 8714              	.LLST101:
 8715 1271 00000000 		.4byte	.LVL276
 8716 1275 0E000000 		.4byte	.LVL277
 8717 1279 0100     		.2byte	0x1
 8718 127b 50       		.byte	0x50
 8719 127c 0E000000 		.4byte	.LVL277
 8720 1280 18000000 		.4byte	.LFE149
 8721 1284 0400     		.2byte	0x4
 8722 1286 F3       		.byte	0xf3
 8723 1287 01       		.uleb128 0x1
 8724 1288 50       		.byte	0x50
 8725 1289 9F       		.byte	0x9f
 8726 128a 00000000 		.4byte	0
 8727 128e 00000000 		.4byte	0
 8728              	.LLST102:
 8729 1292 00000000 		.4byte	.LVL278
 8730 1296 0E000000 		.4byte	.LVL279
 8731 129a 0100     		.2byte	0x1
 8732 129c 50       		.byte	0x50
 8733 129d 0E000000 		.4byte	.LVL279
 8734 12a1 18000000 		.4byte	.LFE150
 8735 12a5 0400     		.2byte	0x4
 8736 12a7 F3       		.byte	0xf3
 8737 12a8 01       		.uleb128 0x1
 8738 12a9 50       		.byte	0x50
 8739 12aa 9F       		.byte	0x9f
 8740 12ab 00000000 		.4byte	0
 8741 12af 00000000 		.4byte	0
 8742              	.LLST103:
 8743 12b3 00000000 		.4byte	.LVL282
 8744 12b7 10000000 		.4byte	.LVL283
 8745 12bb 0100     		.2byte	0x1
 8746 12bd 50       		.byte	0x50
 8747 12be 10000000 		.4byte	.LVL283
 8748 12c2 20000000 		.4byte	.LFE153
 8749 12c6 0400     		.2byte	0x4
 8750 12c8 F3       		.byte	0xf3
 8751 12c9 01       		.uleb128 0x1
 8752 12ca 50       		.byte	0x50
 8753 12cb 9F       		.byte	0x9f
 8754 12cc 00000000 		.4byte	0
ARM GAS  /tmp/ccadBNMM.s 			page 155


 8755 12d0 00000000 		.4byte	0
 8756              	.LLST104:
 8757 12d4 00000000 		.4byte	.LVL284
 8758 12d8 10000000 		.4byte	.LVL285
 8759 12dc 0100     		.2byte	0x1
 8760 12de 50       		.byte	0x50
 8761 12df 10000000 		.4byte	.LVL285
 8762 12e3 20000000 		.4byte	.LFE154
 8763 12e7 0400     		.2byte	0x4
 8764 12e9 F3       		.byte	0xf3
 8765 12ea 01       		.uleb128 0x1
 8766 12eb 50       		.byte	0x50
 8767 12ec 9F       		.byte	0x9f
 8768 12ed 00000000 		.4byte	0
 8769 12f1 00000000 		.4byte	0
 8770              	.LLST105:
 8771 12f5 00000000 		.4byte	.LVL286
 8772 12f9 0E000000 		.4byte	.LVL287
 8773 12fd 0100     		.2byte	0x1
 8774 12ff 50       		.byte	0x50
 8775 1300 0E000000 		.4byte	.LVL287
 8776 1304 18000000 		.4byte	.LFE155
 8777 1308 0400     		.2byte	0x4
 8778 130a F3       		.byte	0xf3
 8779 130b 01       		.uleb128 0x1
 8780 130c 50       		.byte	0x50
 8781 130d 9F       		.byte	0x9f
 8782 130e 00000000 		.4byte	0
 8783 1312 00000000 		.4byte	0
 8784              	.LLST106:
 8785 1316 00000000 		.4byte	.LVL288
 8786 131a 3E000000 		.4byte	.LVL294
 8787 131e 0100     		.2byte	0x1
 8788 1320 50       		.byte	0x50
 8789 1321 3E000000 		.4byte	.LVL294
 8790 1325 42000000 		.4byte	.LVL295
 8791 1329 0400     		.2byte	0x4
 8792 132b F3       		.byte	0xf3
 8793 132c 01       		.uleb128 0x1
 8794 132d 50       		.byte	0x50
 8795 132e 9F       		.byte	0x9f
 8796 132f 42000000 		.4byte	.LVL295
 8797 1333 49000000 		.4byte	.LVL297-1
 8798 1337 0100     		.2byte	0x1
 8799 1339 50       		.byte	0x50
 8800 133a 49000000 		.4byte	.LVL297-1
 8801 133e 5A000000 		.4byte	.LVL299
 8802 1342 0400     		.2byte	0x4
 8803 1344 F3       		.byte	0xf3
 8804 1345 01       		.uleb128 0x1
 8805 1346 50       		.byte	0x50
 8806 1347 9F       		.byte	0x9f
 8807 1348 5A000000 		.4byte	.LVL299
 8808 134c 60000000 		.4byte	.LVL301
 8809 1350 0100     		.2byte	0x1
 8810 1352 50       		.byte	0x50
 8811 1353 60000000 		.4byte	.LVL301
ARM GAS  /tmp/ccadBNMM.s 			page 156


 8812 1357 68000000 		.4byte	.LFE156
 8813 135b 0400     		.2byte	0x4
 8814 135d F3       		.byte	0xf3
 8815 135e 01       		.uleb128 0x1
 8816 135f 50       		.byte	0x50
 8817 1360 9F       		.byte	0x9f
 8818 1361 00000000 		.4byte	0
 8819 1365 00000000 		.4byte	0
 8820              	.LLST107:
 8821 1369 00000000 		.4byte	.LVL288
 8822 136d 3C000000 		.4byte	.LVL293
 8823 1371 0100     		.2byte	0x1
 8824 1373 51       		.byte	0x51
 8825 1374 3C000000 		.4byte	.LVL293
 8826 1378 42000000 		.4byte	.LVL295
 8827 137c 0400     		.2byte	0x4
 8828 137e F3       		.byte	0xf3
 8829 137f 01       		.uleb128 0x1
 8830 1380 51       		.byte	0x51
 8831 1381 9F       		.byte	0x9f
 8832 1382 42000000 		.4byte	.LVL295
 8833 1386 44000000 		.4byte	.LVL296
 8834 138a 0100     		.2byte	0x1
 8835 138c 51       		.byte	0x51
 8836 138d 44000000 		.4byte	.LVL296
 8837 1391 5A000000 		.4byte	.LVL299
 8838 1395 0400     		.2byte	0x4
 8839 1397 F3       		.byte	0xf3
 8840 1398 01       		.uleb128 0x1
 8841 1399 51       		.byte	0x51
 8842 139a 9F       		.byte	0x9f
 8843 139b 5A000000 		.4byte	.LVL299
 8844 139f 5E000000 		.4byte	.LVL300
 8845 13a3 0100     		.2byte	0x1
 8846 13a5 51       		.byte	0x51
 8847 13a6 5E000000 		.4byte	.LVL300
 8848 13aa 68000000 		.4byte	.LFE156
 8849 13ae 0400     		.2byte	0x4
 8850 13b0 F3       		.byte	0xf3
 8851 13b1 01       		.uleb128 0x1
 8852 13b2 51       		.byte	0x51
 8853 13b3 9F       		.byte	0x9f
 8854 13b4 00000000 		.4byte	0
 8855 13b8 00000000 		.4byte	0
 8856              	.LLST108:
 8857 13bc 00000000 		.4byte	.LVL288
 8858 13c0 3E000000 		.4byte	.LVL294
 8859 13c4 0200     		.2byte	0x2
 8860 13c6 30       		.byte	0x30
 8861 13c7 9F       		.byte	0x9f
 8862 13c8 3E000000 		.4byte	.LVL294
 8863 13cc 42000000 		.4byte	.LVL295
 8864 13d0 0100     		.2byte	0x1
 8865 13d2 50       		.byte	0x50
 8866 13d3 42000000 		.4byte	.LVL295
 8867 13d7 56000000 		.4byte	.LVL298
 8868 13db 0200     		.2byte	0x2
ARM GAS  /tmp/ccadBNMM.s 			page 157


 8869 13dd 30       		.byte	0x30
 8870 13de 9F       		.byte	0x9f
 8871 13df 56000000 		.4byte	.LVL298
 8872 13e3 5A000000 		.4byte	.LVL299
 8873 13e7 0100     		.2byte	0x1
 8874 13e9 50       		.byte	0x50
 8875 13ea 5A000000 		.4byte	.LVL299
 8876 13ee 60000000 		.4byte	.LVL301
 8877 13f2 0200     		.2byte	0x2
 8878 13f4 30       		.byte	0x30
 8879 13f5 9F       		.byte	0x9f
 8880 13f6 60000000 		.4byte	.LVL301
 8881 13fa 68000000 		.4byte	.LFE156
 8882 13fe 0100     		.2byte	0x1
 8883 1400 50       		.byte	0x50
 8884 1401 00000000 		.4byte	0
 8885 1405 00000000 		.4byte	0
 8886              	.LLST109:
 8887 1409 00000000 		.4byte	.LVL288
 8888 140d 1E000000 		.4byte	.LVL289
 8889 1411 0200     		.2byte	0x2
 8890 1413 30       		.byte	0x30
 8891 1414 9F       		.byte	0x9f
 8892 1415 1E000000 		.4byte	.LVL289
 8893 1419 20000000 		.4byte	.LVL290
 8894 141d 0700     		.2byte	0x7
 8895 141f 0A       		.byte	0xa
 8896 1420 0120     		.2byte	0x2001
 8897 1422 73       		.byte	0x73
 8898 1423 00       		.sleb128 0
 8899 1424 1C       		.byte	0x1c
 8900 1425 9F       		.byte	0x9f
 8901 1426 20000000 		.4byte	.LVL290
 8902 142a 22000000 		.4byte	.LVL291
 8903 142e 0700     		.2byte	0x7
 8904 1430 0A       		.byte	0xa
 8905 1431 0020     		.2byte	0x2000
 8906 1433 73       		.byte	0x73
 8907 1434 00       		.sleb128 0
 8908 1435 1C       		.byte	0x1c
 8909 1436 9F       		.byte	0x9f
 8910 1437 22000000 		.4byte	.LVL291
 8911 143b 28000000 		.4byte	.LVL292
 8912 143f 0700     		.2byte	0x7
 8913 1441 0A       		.byte	0xa
 8914 1442 0120     		.2byte	0x2001
 8915 1444 73       		.byte	0x73
 8916 1445 00       		.sleb128 0
 8917 1446 1C       		.byte	0x1c
 8918 1447 9F       		.byte	0x9f
 8919 1448 00000000 		.4byte	0
 8920 144c 00000000 		.4byte	0
 8921              	.LLST110:
 8922 1450 00000000 		.4byte	.LVL302
 8923 1454 20000000 		.4byte	.LVL304
 8924 1458 0100     		.2byte	0x1
 8925 145a 50       		.byte	0x50
ARM GAS  /tmp/ccadBNMM.s 			page 158


 8926 145b 20000000 		.4byte	.LVL304
 8927 145f 32000000 		.4byte	.LVL305
 8928 1463 0400     		.2byte	0x4
 8929 1465 F3       		.byte	0xf3
 8930 1466 01       		.uleb128 0x1
 8931 1467 50       		.byte	0x50
 8932 1468 9F       		.byte	0x9f
 8933 1469 32000000 		.4byte	.LVL305
 8934 146d 40000000 		.4byte	.LVL307
 8935 1471 0100     		.2byte	0x1
 8936 1473 50       		.byte	0x50
 8937 1474 40000000 		.4byte	.LVL307
 8938 1478 4C000000 		.4byte	.LFE157
 8939 147c 0400     		.2byte	0x4
 8940 147e F3       		.byte	0xf3
 8941 147f 01       		.uleb128 0x1
 8942 1480 50       		.byte	0x50
 8943 1481 9F       		.byte	0x9f
 8944 1482 00000000 		.4byte	0
 8945 1486 00000000 		.4byte	0
 8946              	.LLST111:
 8947 148a 00000000 		.4byte	.LVL302
 8948 148e 14000000 		.4byte	.LVL303
 8949 1492 0100     		.2byte	0x1
 8950 1494 51       		.byte	0x51
 8951 1495 14000000 		.4byte	.LVL303
 8952 1499 32000000 		.4byte	.LVL305
 8953 149d 0400     		.2byte	0x4
 8954 149f F3       		.byte	0xf3
 8955 14a0 01       		.uleb128 0x1
 8956 14a1 51       		.byte	0x51
 8957 14a2 9F       		.byte	0x9f
 8958 14a3 32000000 		.4byte	.LVL305
 8959 14a7 36000000 		.4byte	.LVL306
 8960 14ab 0100     		.2byte	0x1
 8961 14ad 51       		.byte	0x51
 8962 14ae 36000000 		.4byte	.LVL306
 8963 14b2 4C000000 		.4byte	.LFE157
 8964 14b6 0400     		.2byte	0x4
 8965 14b8 F3       		.byte	0xf3
 8966 14b9 01       		.uleb128 0x1
 8967 14ba 51       		.byte	0x51
 8968 14bb 9F       		.byte	0x9f
 8969 14bc 00000000 		.4byte	0
 8970 14c0 00000000 		.4byte	0
 8971              	.LLST112:
 8972 14c4 00000000 		.4byte	.LVL308
 8973 14c8 10000000 		.4byte	.LVL311
 8974 14cc 0100     		.2byte	0x1
 8975 14ce 50       		.byte	0x50
 8976 14cf 10000000 		.4byte	.LVL311
 8977 14d3 1C000000 		.4byte	.LFE158
 8978 14d7 0400     		.2byte	0x4
 8979 14d9 F3       		.byte	0xf3
 8980 14da 01       		.uleb128 0x1
 8981 14db 50       		.byte	0x50
 8982 14dc 9F       		.byte	0x9f
ARM GAS  /tmp/ccadBNMM.s 			page 159


 8983 14dd 00000000 		.4byte	0
 8984 14e1 00000000 		.4byte	0
 8985              	.LLST113:
 8986 14e5 00000000 		.4byte	.LVL308
 8987 14e9 06000000 		.4byte	.LVL309
 8988 14ed 0200     		.2byte	0x2
 8989 14ef 30       		.byte	0x30
 8990 14f0 9F       		.byte	0x9f
 8991 14f1 06000000 		.4byte	.LVL309
 8992 14f5 10000000 		.4byte	.LVL311
 8993 14f9 0E00     		.2byte	0xe
 8994 14fb 72       		.byte	0x72
 8995 14fc 00       		.sleb128 0
 8996 14fd 70       		.byte	0x70
 8997 14fe 00       		.sleb128 0
 8998 14ff 1A       		.byte	0x1a
 8999 1500 0C       		.byte	0xc
 9000 1501 7FFF0100 		.4byte	0x1ff7f
 9001 1505 1A       		.byte	0x1a
 9002 1506 30       		.byte	0x30
 9003 1507 2E       		.byte	0x2e
 9004 1508 9F       		.byte	0x9f
 9005 1509 10000000 		.4byte	.LVL311
 9006 150d 1C000000 		.4byte	.LFE158
 9007 1511 0F00     		.2byte	0xf
 9008 1513 72       		.byte	0x72
 9009 1514 00       		.sleb128 0
 9010 1515 F3       		.byte	0xf3
 9011 1516 01       		.uleb128 0x1
 9012 1517 50       		.byte	0x50
 9013 1518 1A       		.byte	0x1a
 9014 1519 0C       		.byte	0xc
 9015 151a 7FFF0100 		.4byte	0x1ff7f
 9016 151e 1A       		.byte	0x1a
 9017 151f 30       		.byte	0x30
 9018 1520 2E       		.byte	0x2e
 9019 1521 9F       		.byte	0x9f
 9020 1522 00000000 		.4byte	0
 9021 1526 00000000 		.4byte	0
 9022              	.LLST114:
 9023 152a 00000000 		.4byte	.LVL308
 9024 152e 06000000 		.4byte	.LVL309
 9025 1532 0200     		.2byte	0x2
 9026 1534 30       		.byte	0x30
 9027 1535 9F       		.byte	0x9f
 9028 1536 06000000 		.4byte	.LVL309
 9029 153a 08000000 		.4byte	.LVL310
 9030 153e 0900     		.2byte	0x9
 9031 1540 72       		.byte	0x72
 9032 1541 00       		.sleb128 0
 9033 1542 0C       		.byte	0xc
 9034 1543 7FFF0100 		.4byte	0x1ff7f
 9035 1547 1A       		.byte	0x1a
 9036 1548 9F       		.byte	0x9f
 9037 1549 08000000 		.4byte	.LVL310
 9038 154d 1C000000 		.4byte	.LFE158
 9039 1551 0100     		.2byte	0x1
ARM GAS  /tmp/ccadBNMM.s 			page 160


 9040 1553 53       		.byte	0x53
 9041 1554 00000000 		.4byte	0
 9042 1558 00000000 		.4byte	0
 9043              	.LLST115:
 9044 155c 00000000 		.4byte	.LVL313
 9045 1560 2C000000 		.4byte	.LVL320
 9046 1564 0100     		.2byte	0x1
 9047 1566 50       		.byte	0x50
 9048 1567 2C000000 		.4byte	.LVL320
 9049 156b 30000000 		.4byte	.LVL322
 9050 156f 0400     		.2byte	0x4
 9051 1571 F3       		.byte	0xf3
 9052 1572 01       		.uleb128 0x1
 9053 1573 50       		.byte	0x50
 9054 1574 9F       		.byte	0x9f
 9055 1575 30000000 		.4byte	.LVL322
 9056 1579 32000000 		.4byte	.LVL323
 9057 157d 0100     		.2byte	0x1
 9058 157f 50       		.byte	0x50
 9059 1580 32000000 		.4byte	.LVL323
 9060 1584 3C000000 		.4byte	.LFE160
 9061 1588 0400     		.2byte	0x4
 9062 158a F3       		.byte	0xf3
 9063 158b 01       		.uleb128 0x1
 9064 158c 50       		.byte	0x50
 9065 158d 9F       		.byte	0x9f
 9066 158e 00000000 		.4byte	0
 9067 1592 00000000 		.4byte	0
 9068              	.LLST116:
 9069 1596 00000000 		.4byte	.LVL313
 9070 159a 2C000000 		.4byte	.LVL320
 9071 159e 0200     		.2byte	0x2
 9072 15a0 30       		.byte	0x30
 9073 15a1 9F       		.byte	0x9f
 9074 15a2 2C000000 		.4byte	.LVL320
 9075 15a6 30000000 		.4byte	.LVL322
 9076 15aa 0100     		.2byte	0x1
 9077 15ac 50       		.byte	0x50
 9078 15ad 30000000 		.4byte	.LVL322
 9079 15b1 32000000 		.4byte	.LVL323
 9080 15b5 0200     		.2byte	0x2
 9081 15b7 30       		.byte	0x30
 9082 15b8 9F       		.byte	0x9f
 9083 15b9 32000000 		.4byte	.LVL323
 9084 15bd 3C000000 		.4byte	.LFE160
 9085 15c1 0100     		.2byte	0x1
 9086 15c3 50       		.byte	0x50
 9087 15c4 00000000 		.4byte	0
 9088 15c8 00000000 		.4byte	0
 9089              	.LLST117:
 9090 15cc 00000000 		.4byte	.LVL313
 9091 15d0 06000000 		.4byte	.LVL314
 9092 15d4 0200     		.2byte	0x2
 9093 15d6 30       		.byte	0x30
 9094 15d7 9F       		.byte	0x9f
 9095 15d8 06000000 		.4byte	.LVL314
 9096 15dc 0A000000 		.4byte	.LVL316
ARM GAS  /tmp/ccadBNMM.s 			page 161


 9097 15e0 0500     		.2byte	0x5
 9098 15e2 74       		.byte	0x74
 9099 15e3 00       		.sleb128 0
 9100 15e4 34       		.byte	0x34
 9101 15e5 1A       		.byte	0x1a
 9102 15e6 9F       		.byte	0x9f
 9103 15e7 0A000000 		.4byte	.LVL316
 9104 15eb 22000000 		.4byte	.LVL319
 9105 15ef 0800     		.2byte	0x8
 9106 15f1 70       		.byte	0x70
 9107 15f2 00       		.sleb128 0
 9108 15f3 34       		.byte	0x34
 9109 15f4 25       		.byte	0x25
 9110 15f5 75       		.byte	0x75
 9111 15f6 00       		.sleb128 0
 9112 15f7 1A       		.byte	0x1a
 9113 15f8 9F       		.byte	0x9f
 9114 15f9 30000000 		.4byte	.LVL322
 9115 15fd 32000000 		.4byte	.LVL323
 9116 1601 0800     		.2byte	0x8
 9117 1603 70       		.byte	0x70
 9118 1604 00       		.sleb128 0
 9119 1605 34       		.byte	0x34
 9120 1606 25       		.byte	0x25
 9121 1607 75       		.byte	0x75
 9122 1608 00       		.sleb128 0
 9123 1609 1A       		.byte	0x1a
 9124 160a 9F       		.byte	0x9f
 9125 160b 32000000 		.4byte	.LVL323
 9126 160f 34000000 		.4byte	.LVL324
 9127 1613 0900     		.2byte	0x9
 9128 1615 F3       		.byte	0xf3
 9129 1616 01       		.uleb128 0x1
 9130 1617 50       		.byte	0x50
 9131 1618 34       		.byte	0x34
 9132 1619 25       		.byte	0x25
 9133 161a 75       		.byte	0x75
 9134 161b 00       		.sleb128 0
 9135 161c 1A       		.byte	0x1a
 9136 161d 9F       		.byte	0x9f
 9137 161e 00000000 		.4byte	0
 9138 1622 00000000 		.4byte	0
 9139              	.LLST118:
 9140 1626 00000000 		.4byte	.LVL313
 9141 162a 08000000 		.4byte	.LVL315
 9142 162e 0200     		.2byte	0x2
 9143 1630 30       		.byte	0x30
 9144 1631 9F       		.byte	0x9f
 9145 1632 08000000 		.4byte	.LVL315
 9146 1636 14000000 		.4byte	.LVL317
 9147 163a 1500     		.2byte	0x15
 9148 163c 70       		.byte	0x70
 9149 163d 00       		.sleb128 0
 9150 163e 70       		.byte	0x70
 9151 163f 00       		.sleb128 0
 9152 1640 42       		.byte	0x42
 9153 1641 25       		.byte	0x25
ARM GAS  /tmp/ccadBNMM.s 			page 162


 9154 1642 25       		.byte	0x25
 9155 1643 3F       		.byte	0x3f
 9156 1644 25       		.byte	0x25
 9157 1645 74       		.byte	0x74
 9158 1646 00       		.sleb128 0
 9159 1647 1A       		.byte	0x1a
 9160 1648 34       		.byte	0x34
 9161 1649 1A       		.byte	0x1a
 9162 164a 70       		.byte	0x70
 9163 164b 00       		.sleb128 0
 9164 164c 71       		.byte	0x71
 9165 164d 00       		.sleb128 0
 9166 164e 1A       		.byte	0x1a
 9167 164f 21       		.byte	0x21
 9168 1650 9F       		.byte	0x9f
 9169 1651 14000000 		.4byte	.LVL317
 9170 1655 18000000 		.4byte	.LVL318
 9171 1659 1000     		.2byte	0x10
 9172 165b 72       		.byte	0x72
 9173 165c 00       		.sleb128 0
 9174 165d 3F       		.byte	0x3f
 9175 165e 25       		.byte	0x25
 9176 165f 74       		.byte	0x74
 9177 1660 00       		.sleb128 0
 9178 1661 1A       		.byte	0x1a
 9179 1662 34       		.byte	0x34
 9180 1663 1A       		.byte	0x1a
 9181 1664 70       		.byte	0x70
 9182 1665 00       		.sleb128 0
 9183 1666 71       		.byte	0x71
 9184 1667 00       		.sleb128 0
 9185 1668 1A       		.byte	0x1a
 9186 1669 21       		.byte	0x21
 9187 166a 9F       		.byte	0x9f
 9188 166b 18000000 		.4byte	.LVL318
 9189 166f 2C000000 		.4byte	.LVL320
 9190 1673 1500     		.2byte	0x15
 9191 1675 70       		.byte	0x70
 9192 1676 00       		.sleb128 0
 9193 1677 70       		.byte	0x70
 9194 1678 00       		.sleb128 0
 9195 1679 42       		.byte	0x42
 9196 167a 25       		.byte	0x25
 9197 167b 25       		.byte	0x25
 9198 167c 3F       		.byte	0x3f
 9199 167d 25       		.byte	0x25
 9200 167e 74       		.byte	0x74
 9201 167f 00       		.sleb128 0
 9202 1680 1A       		.byte	0x1a
 9203 1681 34       		.byte	0x34
 9204 1682 1A       		.byte	0x1a
 9205 1683 70       		.byte	0x70
 9206 1684 00       		.sleb128 0
 9207 1685 71       		.byte	0x71
 9208 1686 00       		.sleb128 0
 9209 1687 1A       		.byte	0x1a
 9210 1688 21       		.byte	0x21
ARM GAS  /tmp/ccadBNMM.s 			page 163


 9211 1689 9F       		.byte	0x9f
 9212 168a 2C000000 		.4byte	.LVL320
 9213 168e 2E000000 		.4byte	.LVL321
 9214 1692 1800     		.2byte	0x18
 9215 1694 F3       		.byte	0xf3
 9216 1695 01       		.uleb128 0x1
 9217 1696 50       		.byte	0x50
 9218 1697 F3       		.byte	0xf3
 9219 1698 01       		.uleb128 0x1
 9220 1699 50       		.byte	0x50
 9221 169a 42       		.byte	0x42
 9222 169b 25       		.byte	0x25
 9223 169c 25       		.byte	0x25
 9224 169d 3F       		.byte	0x3f
 9225 169e 25       		.byte	0x25
 9226 169f 74       		.byte	0x74
 9227 16a0 00       		.sleb128 0
 9228 16a1 1A       		.byte	0x1a
 9229 16a2 34       		.byte	0x34
 9230 16a3 1A       		.byte	0x1a
 9231 16a4 F3       		.byte	0xf3
 9232 16a5 01       		.uleb128 0x1
 9233 16a6 50       		.byte	0x50
 9234 16a7 71       		.byte	0x71
 9235 16a8 00       		.sleb128 0
 9236 16a9 1A       		.byte	0x1a
 9237 16aa 21       		.byte	0x21
 9238 16ab 9F       		.byte	0x9f
 9239 16ac 30000000 		.4byte	.LVL322
 9240 16b0 32000000 		.4byte	.LVL323
 9241 16b4 1500     		.2byte	0x15
 9242 16b6 70       		.byte	0x70
 9243 16b7 00       		.sleb128 0
 9244 16b8 70       		.byte	0x70
 9245 16b9 00       		.sleb128 0
 9246 16ba 42       		.byte	0x42
 9247 16bb 25       		.byte	0x25
 9248 16bc 25       		.byte	0x25
 9249 16bd 3F       		.byte	0x3f
 9250 16be 25       		.byte	0x25
 9251 16bf 74       		.byte	0x74
 9252 16c0 00       		.sleb128 0
 9253 16c1 1A       		.byte	0x1a
 9254 16c2 34       		.byte	0x34
 9255 16c3 1A       		.byte	0x1a
 9256 16c4 70       		.byte	0x70
 9257 16c5 00       		.sleb128 0
 9258 16c6 71       		.byte	0x71
 9259 16c7 00       		.sleb128 0
 9260 16c8 1A       		.byte	0x1a
 9261 16c9 21       		.byte	0x21
 9262 16ca 9F       		.byte	0x9f
 9263 16cb 32000000 		.4byte	.LVL323
 9264 16cf 34000000 		.4byte	.LVL324
 9265 16d3 1800     		.2byte	0x18
 9266 16d5 F3       		.byte	0xf3
 9267 16d6 01       		.uleb128 0x1
ARM GAS  /tmp/ccadBNMM.s 			page 164


 9268 16d7 50       		.byte	0x50
 9269 16d8 F3       		.byte	0xf3
 9270 16d9 01       		.uleb128 0x1
 9271 16da 50       		.byte	0x50
 9272 16db 42       		.byte	0x42
 9273 16dc 25       		.byte	0x25
 9274 16dd 25       		.byte	0x25
 9275 16de 3F       		.byte	0x3f
 9276 16df 25       		.byte	0x25
 9277 16e0 74       		.byte	0x74
 9278 16e1 00       		.sleb128 0
 9279 16e2 1A       		.byte	0x1a
 9280 16e3 34       		.byte	0x34
 9281 16e4 1A       		.byte	0x1a
 9282 16e5 F3       		.byte	0xf3
 9283 16e6 01       		.uleb128 0x1
 9284 16e7 50       		.byte	0x50
 9285 16e8 71       		.byte	0x71
 9286 16e9 00       		.sleb128 0
 9287 16ea 1A       		.byte	0x1a
 9288 16eb 21       		.byte	0x21
 9289 16ec 9F       		.byte	0x9f
 9290 16ed 00000000 		.4byte	0
 9291 16f1 00000000 		.4byte	0
 9292              	.LLST119:
 9293 16f5 00000000 		.4byte	.LVL325
 9294 16f9 08000000 		.4byte	.LVL326
 9295 16fd 0100     		.2byte	0x1
 9296 16ff 50       		.byte	0x50
 9297 1700 08000000 		.4byte	.LVL326
 9298 1704 1C000000 		.4byte	.LFE161
 9299 1708 0400     		.2byte	0x4
 9300 170a F3       		.byte	0xf3
 9301 170b 01       		.uleb128 0x1
 9302 170c 50       		.byte	0x50
 9303 170d 9F       		.byte	0x9f
 9304 170e 00000000 		.4byte	0
 9305 1712 00000000 		.4byte	0
 9306              	.LLST120:
 9307 1716 00000000 		.4byte	.LVL325
 9308 171a 08000000 		.4byte	.LVL326
 9309 171e 0500     		.2byte	0x5
 9310 1720 70       		.byte	0x70
 9311 1721 00       		.sleb128 0
 9312 1722 34       		.byte	0x34
 9313 1723 25       		.byte	0x25
 9314 1724 9F       		.byte	0x9f
 9315 1725 08000000 		.4byte	.LVL326
 9316 1729 1C000000 		.4byte	.LFE161
 9317 172d 0600     		.2byte	0x6
 9318 172f F3       		.byte	0xf3
 9319 1730 01       		.uleb128 0x1
 9320 1731 50       		.byte	0x50
 9321 1732 34       		.byte	0x34
 9322 1733 25       		.byte	0x25
 9323 1734 9F       		.byte	0x9f
 9324 1735 00000000 		.4byte	0
ARM GAS  /tmp/ccadBNMM.s 			page 165


 9325 1739 00000000 		.4byte	0
 9326              		.section	.debug_aranges,"",%progbits
 9327 0000 AC010000 		.4byte	0x1ac
 9328 0004 0200     		.2byte	0x2
 9329 0006 00000000 		.4byte	.Ldebug_info0
 9330 000a 04       		.byte	0x4
 9331 000b 00       		.byte	0
 9332 000c 0000     		.2byte	0
 9333 000e 0000     		.2byte	0
 9334 0010 00000000 		.4byte	.LFB113
 9335 0014 0C000000 		.4byte	.LFE113-.LFB113
 9336 0018 00000000 		.4byte	.LFB114
 9337 001c 18000000 		.4byte	.LFE114-.LFB114
 9338 0020 00000000 		.4byte	.LFB115
 9339 0024 44000000 		.4byte	.LFE115-.LFB115
 9340 0028 00000000 		.4byte	.LFB112
 9341 002c 48000000 		.4byte	.LFE112-.LFB112
 9342 0030 00000000 		.4byte	.LFB116
 9343 0034 10000000 		.4byte	.LFE116-.LFB116
 9344 0038 00000000 		.4byte	.LFB117
 9345 003c 50000000 		.4byte	.LFE117-.LFB117
 9346 0040 00000000 		.4byte	.LFB111
 9347 0044 8C000000 		.4byte	.LFE111-.LFB111
 9348 0048 00000000 		.4byte	.LFB118
 9349 004c 40000000 		.4byte	.LFE118-.LFB118
 9350 0050 00000000 		.4byte	.LFB119
 9351 0054 30000000 		.4byte	.LFE119-.LFB119
 9352 0058 00000000 		.4byte	.LFB120
 9353 005c EC000000 		.4byte	.LFE120-.LFB120
 9354 0060 00000000 		.4byte	.LFB121
 9355 0064 0C000000 		.4byte	.LFE121-.LFB121
 9356 0068 00000000 		.4byte	.LFB122
 9357 006c 5C000000 		.4byte	.LFE122-.LFB122
 9358 0070 00000000 		.4byte	.LFB123
 9359 0074 0C000000 		.4byte	.LFE123-.LFB123
 9360 0078 00000000 		.4byte	.LFB124
 9361 007c DC000000 		.4byte	.LFE124-.LFB124
 9362 0080 00000000 		.4byte	.LFB125
 9363 0084 0E000000 		.4byte	.LFE125-.LFB125
 9364 0088 00000000 		.4byte	.LFB126
 9365 008c 58000000 		.4byte	.LFE126-.LFB126
 9366 0090 00000000 		.4byte	.LFB127
 9367 0094 00010000 		.4byte	.LFE127-.LFB127
 9368 0098 00000000 		.4byte	.LFB128
 9369 009c 14000000 		.4byte	.LFE128-.LFB128
 9370 00a0 00000000 		.4byte	.LFB129
 9371 00a4 94000000 		.4byte	.LFE129-.LFB129
 9372 00a8 00000000 		.4byte	.LFB130
 9373 00ac 5C000000 		.4byte	.LFE130-.LFB130
 9374 00b0 00000000 		.4byte	.LFB131
 9375 00b4 28000000 		.4byte	.LFE131-.LFB131
 9376 00b8 00000000 		.4byte	.LFB132
 9377 00bc 18000000 		.4byte	.LFE132-.LFB132
 9378 00c0 00000000 		.4byte	.LFB133
 9379 00c4 24000000 		.4byte	.LFE133-.LFB133
 9380 00c8 00000000 		.4byte	.LFB134
 9381 00cc 1C000000 		.4byte	.LFE134-.LFB134
ARM GAS  /tmp/ccadBNMM.s 			page 166


 9382 00d0 00000000 		.4byte	.LFB135
 9383 00d4 0C000000 		.4byte	.LFE135-.LFB135
 9384 00d8 00000000 		.4byte	.LFB136
 9385 00dc 58000000 		.4byte	.LFE136-.LFB136
 9386 00e0 00000000 		.4byte	.LFB137
 9387 00e4 2C000000 		.4byte	.LFE137-.LFB137
 9388 00e8 00000000 		.4byte	.LFB138
 9389 00ec 10000000 		.4byte	.LFE138-.LFB138
 9390 00f0 00000000 		.4byte	.LFB139
 9391 00f4 2C000000 		.4byte	.LFE139-.LFB139
 9392 00f8 00000000 		.4byte	.LFB140
 9393 00fc 30000000 		.4byte	.LFE140-.LFB140
 9394 0100 00000000 		.4byte	.LFB141
 9395 0104 24000000 		.4byte	.LFE141-.LFB141
 9396 0108 00000000 		.4byte	.LFB142
 9397 010c 4C000000 		.4byte	.LFE142-.LFB142
 9398 0110 00000000 		.4byte	.LFB143
 9399 0114 34000000 		.4byte	.LFE143-.LFB143
 9400 0118 00000000 		.4byte	.LFB144
 9401 011c BC000000 		.4byte	.LFE144-.LFB144
 9402 0120 00000000 		.4byte	.LFB145
 9403 0124 0C000000 		.4byte	.LFE145-.LFB145
 9404 0128 00000000 		.4byte	.LFB146
 9405 012c 1C000000 		.4byte	.LFE146-.LFB146
 9406 0130 00000000 		.4byte	.LFB147
 9407 0134 18000000 		.4byte	.LFE147-.LFB147
 9408 0138 00000000 		.4byte	.LFB148
 9409 013c 18000000 		.4byte	.LFE148-.LFB148
 9410 0140 00000000 		.4byte	.LFB149
 9411 0144 18000000 		.4byte	.LFE149-.LFB149
 9412 0148 00000000 		.4byte	.LFB150
 9413 014c 18000000 		.4byte	.LFE150-.LFB150
 9414 0150 00000000 		.4byte	.LFB151
 9415 0154 1C000000 		.4byte	.LFE151-.LFB151
 9416 0158 00000000 		.4byte	.LFB152
 9417 015c 1C000000 		.4byte	.LFE152-.LFB152
 9418 0160 00000000 		.4byte	.LFB153
 9419 0164 20000000 		.4byte	.LFE153-.LFB153
 9420 0168 00000000 		.4byte	.LFB154
 9421 016c 20000000 		.4byte	.LFE154-.LFB154
 9422 0170 00000000 		.4byte	.LFB155
 9423 0174 18000000 		.4byte	.LFE155-.LFB155
 9424 0178 00000000 		.4byte	.LFB156
 9425 017c 68000000 		.4byte	.LFE156-.LFB156
 9426 0180 00000000 		.4byte	.LFB157
 9427 0184 4C000000 		.4byte	.LFE157-.LFB157
 9428 0188 00000000 		.4byte	.LFB158
 9429 018c 1C000000 		.4byte	.LFE158-.LFB158
 9430 0190 00000000 		.4byte	.LFB159
 9431 0194 20000000 		.4byte	.LFE159-.LFB159
 9432 0198 00000000 		.4byte	.LFB160
 9433 019c 3C000000 		.4byte	.LFE160-.LFB160
 9434 01a0 00000000 		.4byte	.LFB161
 9435 01a4 1C000000 		.4byte	.LFE161-.LFB161
 9436 01a8 00000000 		.4byte	0
 9437 01ac 00000000 		.4byte	0
 9438              		.section	.debug_ranges,"",%progbits
ARM GAS  /tmp/ccadBNMM.s 			page 167


 9439              	.Ldebug_ranges0:
 9440 0000 30000000 		.4byte	.LBB88
 9441 0004 32000000 		.4byte	.LBE88
 9442 0008 36000000 		.4byte	.LBB92
 9443 000c 4A000000 		.4byte	.LBE92
 9444 0010 E2000000 		.4byte	.LBB99
 9445 0014 EC000000 		.4byte	.LBE99
 9446 0018 00000000 		.4byte	0
 9447 001c 00000000 		.4byte	0
 9448 0020 4E000000 		.4byte	.LBB93
 9449 0024 50000000 		.4byte	.LBE93
 9450 0028 54000000 		.4byte	.LBB96
 9451 002c 6A000000 		.4byte	.LBE96
 9452 0030 00000000 		.4byte	0
 9453 0034 00000000 		.4byte	0
 9454 0038 22000000 		.4byte	.LBB100
 9455 003c 24000000 		.4byte	.LBE100
 9456 0040 28000000 		.4byte	.LBB112
 9457 0044 30000000 		.4byte	.LBE112
 9458 0048 40000000 		.4byte	.LBB115
 9459 004c 44000000 		.4byte	.LBE115
 9460 0050 00000000 		.4byte	0
 9461 0054 00000000 		.4byte	0
 9462 0058 24000000 		.4byte	.LBB104
 9463 005c 26000000 		.4byte	.LBE104
 9464 0060 30000000 		.4byte	.LBB113
 9465 0064 38000000 		.4byte	.LBE113
 9466 0068 44000000 		.4byte	.LBB116
 9467 006c 48000000 		.4byte	.LBE116
 9468 0070 00000000 		.4byte	0
 9469 0074 00000000 		.4byte	0
 9470 0078 26000000 		.4byte	.LBB108
 9471 007c 28000000 		.4byte	.LBE108
 9472 0080 38000000 		.4byte	.LBB114
 9473 0084 40000000 		.4byte	.LBE114
 9474 0088 48000000 		.4byte	.LBB117
 9475 008c 4C000000 		.4byte	.LBE117
 9476 0090 00000000 		.4byte	0
 9477 0094 00000000 		.4byte	0
 9478 0098 32000000 		.4byte	.LBB120
 9479 009c 34000000 		.4byte	.LBE120
 9480 00a0 38000000 		.4byte	.LBB124
 9481 00a4 4C000000 		.4byte	.LBE124
 9482 00a8 D4000000 		.4byte	.LBB131
 9483 00ac DC000000 		.4byte	.LBE131
 9484 00b0 00000000 		.4byte	0
 9485 00b4 00000000 		.4byte	0
 9486 00b8 50000000 		.4byte	.LBB125
 9487 00bc 52000000 		.4byte	.LBE125
 9488 00c0 56000000 		.4byte	.LBB128
 9489 00c4 6C000000 		.4byte	.LBE128
 9490 00c8 00000000 		.4byte	0
 9491 00cc 00000000 		.4byte	0
 9492 00d0 20000000 		.4byte	.LBB132
 9493 00d4 22000000 		.4byte	.LBE132
 9494 00d8 26000000 		.4byte	.LBB145
 9495 00dc 28000000 		.4byte	.LBE145
ARM GAS  /tmp/ccadBNMM.s 			page 168


 9496 00e0 30000000 		.4byte	.LBB147
 9497 00e4 36000000 		.4byte	.LBE147
 9498 00e8 42000000 		.4byte	.LBB150
 9499 00ec 46000000 		.4byte	.LBE150
 9500 00f0 00000000 		.4byte	0
 9501 00f4 00000000 		.4byte	0
 9502 00f8 22000000 		.4byte	.LBB137
 9503 00fc 24000000 		.4byte	.LBE137
 9504 0100 28000000 		.4byte	.LBB146
 9505 0104 30000000 		.4byte	.LBE146
 9506 0108 3E000000 		.4byte	.LBB149
 9507 010c 42000000 		.4byte	.LBE149
 9508 0110 00000000 		.4byte	0
 9509 0114 00000000 		.4byte	0
 9510 0118 24000000 		.4byte	.LBB141
 9511 011c 26000000 		.4byte	.LBE141
 9512 0120 36000000 		.4byte	.LBB148
 9513 0124 3E000000 		.4byte	.LBE148
 9514 0128 46000000 		.4byte	.LBB151
 9515 012c 4A000000 		.4byte	.LBE151
 9516 0130 00000000 		.4byte	0
 9517 0134 00000000 		.4byte	0
 9518 0138 14000000 		.4byte	.LBB152
 9519 013c 2A000000 		.4byte	.LBE152
 9520 0140 F2000000 		.4byte	.LBB168
 9521 0144 F6000000 		.4byte	.LBE168
 9522 0148 00000000 		.4byte	0
 9523 014c 00000000 		.4byte	0
 9524 0150 2E000000 		.4byte	.LBB155
 9525 0154 30000000 		.4byte	.LBE155
 9526 0158 34000000 		.4byte	.LBB159
 9527 015c 48000000 		.4byte	.LBE159
 9528 0160 F6000000 		.4byte	.LBB169
 9529 0164 00010000 		.4byte	.LBE169
 9530 0168 00000000 		.4byte	0
 9531 016c 00000000 		.4byte	0
 9532 0170 4C000000 		.4byte	.LBB160
 9533 0174 4E000000 		.4byte	.LBE160
 9534 0178 52000000 		.4byte	.LBB163
 9535 017c 68000000 		.4byte	.LBE163
 9536 0180 00000000 		.4byte	0
 9537 0184 00000000 		.4byte	0
 9538 0188 6A000000 		.4byte	.LBB164
 9539 018c 6C000000 		.4byte	.LBE164
 9540 0190 70000000 		.4byte	.LBB167
 9541 0194 86000000 		.4byte	.LBE167
 9542 0198 00000000 		.4byte	0
 9543 019c 00000000 		.4byte	0
 9544 01a0 46000000 		.4byte	.LBB170
 9545 01a4 4A000000 		.4byte	.LBE170
 9546 01a8 58000000 		.4byte	.LBB185
 9547 01ac 60000000 		.4byte	.LBE185
 9548 01b0 74000000 		.4byte	.LBB189
 9549 01b4 78000000 		.4byte	.LBE189
 9550 01b8 00000000 		.4byte	0
 9551 01bc 00000000 		.4byte	0
 9552 01c0 4A000000 		.4byte	.LBB174
ARM GAS  /tmp/ccadBNMM.s 			page 169


 9553 01c4 4C000000 		.4byte	.LBE174
 9554 01c8 60000000 		.4byte	.LBB186
 9555 01cc 68000000 		.4byte	.LBE186
 9556 01d0 78000000 		.4byte	.LBB190
 9557 01d4 7C000000 		.4byte	.LBE190
 9558 01d8 00000000 		.4byte	0
 9559 01dc 00000000 		.4byte	0
 9560 01e0 4C000000 		.4byte	.LBB178
 9561 01e4 4E000000 		.4byte	.LBE178
 9562 01e8 68000000 		.4byte	.LBB187
 9563 01ec 70000000 		.4byte	.LBE187
 9564 01f0 7C000000 		.4byte	.LBB191
 9565 01f4 80000000 		.4byte	.LBE191
 9566 01f8 00000000 		.4byte	0
 9567 01fc 00000000 		.4byte	0
 9568 0200 4E000000 		.4byte	.LBB182
 9569 0204 58000000 		.4byte	.LBE182
 9570 0208 70000000 		.4byte	.LBB188
 9571 020c 74000000 		.4byte	.LBE188
 9572 0210 00000000 		.4byte	0
 9573 0214 00000000 		.4byte	0
 9574 0218 4A000000 		.4byte	.LBB192
 9575 021c 4C000000 		.4byte	.LBE192
 9576 0220 50000000 		.4byte	.LBB207
 9577 0224 54000000 		.4byte	.LBE207
 9578 0228 5C000000 		.4byte	.LBB210
 9579 022c 60000000 		.4byte	.LBE210
 9580 0230 70000000 		.4byte	.LBB215
 9581 0234 74000000 		.4byte	.LBE215
 9582 0238 00000000 		.4byte	0
 9583 023c 00000000 		.4byte	0
 9584 0240 4C000000 		.4byte	.LBB197
 9585 0244 4E000000 		.4byte	.LBE197
 9586 0248 54000000 		.4byte	.LBB208
 9587 024c 58000000 		.4byte	.LBE208
 9588 0250 60000000 		.4byte	.LBB211
 9589 0254 64000000 		.4byte	.LBE211
 9590 0258 68000000 		.4byte	.LBB213
 9591 025c 6C000000 		.4byte	.LBE213
 9592 0260 00000000 		.4byte	0
 9593 0264 00000000 		.4byte	0
 9594 0268 4E000000 		.4byte	.LBB202
 9595 026c 50000000 		.4byte	.LBE202
 9596 0270 58000000 		.4byte	.LBB209
 9597 0274 5C000000 		.4byte	.LBE209
 9598 0278 64000000 		.4byte	.LBB212
 9599 027c 68000000 		.4byte	.LBE212
 9600 0280 6C000000 		.4byte	.LBB214
 9601 0284 70000000 		.4byte	.LBE214
 9602 0288 00000000 		.4byte	0
 9603 028c 00000000 		.4byte	0
 9604 0290 80000000 		.4byte	.LBB216
 9605 0294 82000000 		.4byte	.LBE216
 9606 0298 86000000 		.4byte	.LBB228
 9607 029c 8E000000 		.4byte	.LBE228
 9608 02a0 9E000000 		.4byte	.LBB231
 9609 02a4 A2000000 		.4byte	.LBE231
ARM GAS  /tmp/ccadBNMM.s 			page 170


 9610 02a8 00000000 		.4byte	0
 9611 02ac 00000000 		.4byte	0
 9612 02b0 82000000 		.4byte	.LBB220
 9613 02b4 84000000 		.4byte	.LBE220
 9614 02b8 8E000000 		.4byte	.LBB229
 9615 02bc 96000000 		.4byte	.LBE229
 9616 02c0 A2000000 		.4byte	.LBB232
 9617 02c4 A6000000 		.4byte	.LBE232
 9618 02c8 00000000 		.4byte	0
 9619 02cc 00000000 		.4byte	0
 9620 02d0 84000000 		.4byte	.LBB224
 9621 02d4 86000000 		.4byte	.LBE224
 9622 02d8 96000000 		.4byte	.LBB230
 9623 02dc 9E000000 		.4byte	.LBE230
 9624 02e0 A6000000 		.4byte	.LBB233
 9625 02e4 AA000000 		.4byte	.LBE233
 9626 02e8 00000000 		.4byte	0
 9627 02ec 00000000 		.4byte	0
 9628 02f0 00000000 		.4byte	.LFB113
 9629 02f4 0C000000 		.4byte	.LFE113
 9630 02f8 00000000 		.4byte	.LFB114
 9631 02fc 18000000 		.4byte	.LFE114
 9632 0300 00000000 		.4byte	.LFB115
 9633 0304 44000000 		.4byte	.LFE115
 9634 0308 00000000 		.4byte	.LFB112
 9635 030c 48000000 		.4byte	.LFE112
 9636 0310 00000000 		.4byte	.LFB116
 9637 0314 10000000 		.4byte	.LFE116
 9638 0318 00000000 		.4byte	.LFB117
 9639 031c 50000000 		.4byte	.LFE117
 9640 0320 00000000 		.4byte	.LFB111
 9641 0324 8C000000 		.4byte	.LFE111
 9642 0328 00000000 		.4byte	.LFB118
 9643 032c 40000000 		.4byte	.LFE118
 9644 0330 00000000 		.4byte	.LFB119
 9645 0334 30000000 		.4byte	.LFE119
 9646 0338 00000000 		.4byte	.LFB120
 9647 033c EC000000 		.4byte	.LFE120
 9648 0340 00000000 		.4byte	.LFB121
 9649 0344 0C000000 		.4byte	.LFE121
 9650 0348 00000000 		.4byte	.LFB122
 9651 034c 5C000000 		.4byte	.LFE122
 9652 0350 00000000 		.4byte	.LFB123
 9653 0354 0C000000 		.4byte	.LFE123
 9654 0358 00000000 		.4byte	.LFB124
 9655 035c DC000000 		.4byte	.LFE124
 9656 0360 00000000 		.4byte	.LFB125
 9657 0364 0E000000 		.4byte	.LFE125
 9658 0368 00000000 		.4byte	.LFB126
 9659 036c 58000000 		.4byte	.LFE126
 9660 0370 00000000 		.4byte	.LFB127
 9661 0374 00010000 		.4byte	.LFE127
 9662 0378 00000000 		.4byte	.LFB128
 9663 037c 14000000 		.4byte	.LFE128
 9664 0380 00000000 		.4byte	.LFB129
 9665 0384 94000000 		.4byte	.LFE129
 9666 0388 00000000 		.4byte	.LFB130
ARM GAS  /tmp/ccadBNMM.s 			page 171


 9667 038c 5C000000 		.4byte	.LFE130
 9668 0390 00000000 		.4byte	.LFB131
 9669 0394 28000000 		.4byte	.LFE131
 9670 0398 00000000 		.4byte	.LFB132
 9671 039c 18000000 		.4byte	.LFE132
 9672 03a0 00000000 		.4byte	.LFB133
 9673 03a4 24000000 		.4byte	.LFE133
 9674 03a8 00000000 		.4byte	.LFB134
 9675 03ac 1C000000 		.4byte	.LFE134
 9676 03b0 00000000 		.4byte	.LFB135
 9677 03b4 0C000000 		.4byte	.LFE135
 9678 03b8 00000000 		.4byte	.LFB136
 9679 03bc 58000000 		.4byte	.LFE136
 9680 03c0 00000000 		.4byte	.LFB137
 9681 03c4 2C000000 		.4byte	.LFE137
 9682 03c8 00000000 		.4byte	.LFB138
 9683 03cc 10000000 		.4byte	.LFE138
 9684 03d0 00000000 		.4byte	.LFB139
 9685 03d4 2C000000 		.4byte	.LFE139
 9686 03d8 00000000 		.4byte	.LFB140
 9687 03dc 30000000 		.4byte	.LFE140
 9688 03e0 00000000 		.4byte	.LFB141
 9689 03e4 24000000 		.4byte	.LFE141
 9690 03e8 00000000 		.4byte	.LFB142
 9691 03ec 4C000000 		.4byte	.LFE142
 9692 03f0 00000000 		.4byte	.LFB143
 9693 03f4 34000000 		.4byte	.LFE143
 9694 03f8 00000000 		.4byte	.LFB144
 9695 03fc BC000000 		.4byte	.LFE144
 9696 0400 00000000 		.4byte	.LFB145
 9697 0404 0C000000 		.4byte	.LFE145
 9698 0408 00000000 		.4byte	.LFB146
 9699 040c 1C000000 		.4byte	.LFE146
 9700 0410 00000000 		.4byte	.LFB147
 9701 0414 18000000 		.4byte	.LFE147
 9702 0418 00000000 		.4byte	.LFB148
 9703 041c 18000000 		.4byte	.LFE148
 9704 0420 00000000 		.4byte	.LFB149
 9705 0424 18000000 		.4byte	.LFE149
 9706 0428 00000000 		.4byte	.LFB150
 9707 042c 18000000 		.4byte	.LFE150
 9708 0430 00000000 		.4byte	.LFB151
 9709 0434 1C000000 		.4byte	.LFE151
 9710 0438 00000000 		.4byte	.LFB152
 9711 043c 1C000000 		.4byte	.LFE152
 9712 0440 00000000 		.4byte	.LFB153
 9713 0444 20000000 		.4byte	.LFE153
 9714 0448 00000000 		.4byte	.LFB154
 9715 044c 20000000 		.4byte	.LFE154
 9716 0450 00000000 		.4byte	.LFB155
 9717 0454 18000000 		.4byte	.LFE155
 9718 0458 00000000 		.4byte	.LFB156
 9719 045c 68000000 		.4byte	.LFE156
 9720 0460 00000000 		.4byte	.LFB157
 9721 0464 4C000000 		.4byte	.LFE157
 9722 0468 00000000 		.4byte	.LFB158
 9723 046c 1C000000 		.4byte	.LFE158
ARM GAS  /tmp/ccadBNMM.s 			page 172


 9724 0470 00000000 		.4byte	.LFB159
 9725 0474 20000000 		.4byte	.LFE159
 9726 0478 00000000 		.4byte	.LFB160
 9727 047c 3C000000 		.4byte	.LFE160
 9728 0480 00000000 		.4byte	.LFB161
 9729 0484 1C000000 		.4byte	.LFE161
 9730 0488 00000000 		.4byte	0
 9731 048c 00000000 		.4byte	0
 9732              		.section	.debug_line,"",%progbits
 9733              	.Ldebug_line0:
 9734 0000 69090000 		.section	.debug_str,"MS",%progbits,1
 9734      02003801 
 9734      00000201 
 9734      FB0E0D00 
 9734      01010101 
 9735              	.LASF89:
 9736 0000 4E657753 		.ascii	"NewState\000"
 9736      74617465 
 9736      00
 9737              	.LASF175:
 9738 0009 5254435F 		.ascii	"RTC_ClearFlag\000"
 9738      436C6561 
 9738      72466C61 
 9738      6700
 9739              	.LASF117:
 9740 0017 5254435F 		.ascii	"RTC_AlarmSubSecondMask\000"
 9740      416C6172 
 9740      6D537562 
 9740      5365636F 
 9740      6E644D61 
 9741              	.LASF17:
 9742 002e 466C6167 		.ascii	"FlagStatus\000"
 9742      53746174 
 9742      757300
 9743              	.LASF125:
 9744 0039 5254435F 		.ascii	"RTC_DayLightSaving\000"
 9744      4461794C 
 9744      69676874 
 9744      53617669 
 9744      6E6700
 9745              	.LASF109:
 9746 004c 5254435F 		.ascii	"RTC_AlarmStruct\000"
 9746      416C6172 
 9746      6D537472 
 9746      75637400 
 9747              	.LASF4:
 9748 005c 5F5F7569 		.ascii	"__uint8_t\000"
 9748      6E74385F 
 9748      7400
 9749              	.LASF115:
 9750 0066 5254435F 		.ascii	"RTC_AlarmSubSecondConfig\000"
 9750      416C6172 
 9750      6D537562 
 9750      5365636F 
 9750      6E64436F 
 9751              	.LASF42:
 9752 007f 424B5033 		.ascii	"BKP3R\000"
ARM GAS  /tmp/ccadBNMM.s 			page 173


 9752      5200
 9753              	.LASF90:
 9754 0085 5254435F 		.ascii	"RTC_Init\000"
 9754      496E6974 
 9754      00
 9755              	.LASF124:
 9756 008e 5254435F 		.ascii	"RTC_DayLightSavingConfig\000"
 9756      4461794C 
 9756      69676874 
 9756      53617669 
 9756      6E67436F 
 9757              	.LASF19:
 9758 00a7 44495341 		.ascii	"DISABLE\000"
 9758      424C4500 
 9759              	.LASF54:
 9760 00af 424B5031 		.ascii	"BKP15R\000"
 9760      355200
 9761              	.LASF10:
 9762 00b6 6C6F6E67 		.ascii	"long long unsigned int\000"
 9762      206C6F6E 
 9762      6720756E 
 9762      7369676E 
 9762      65642069 
 9763              	.LASF128:
 9764 00cd 5254435F 		.ascii	"RTC_GetStoreOperation\000"
 9764      47657453 
 9764      746F7265 
 9764      4F706572 
 9764      6174696F 
 9765              	.LASF96:
 9766 00e3 5254435F 		.ascii	"RTC_SetTime\000"
 9766      53657454 
 9766      696D6500 
 9767              	.LASF139:
 9768 00ef 72656361 		.ascii	"recalpfcount\000"
 9768      6C706663 
 9768      6F756E74 
 9768      00
 9769              	.LASF74:
 9770 00fc 5254435F 		.ascii	"RTC_AlarmTypeDef\000"
 9770      416C6172 
 9770      6D547970 
 9770      65446566 
 9770      00
 9771              	.LASF183:
 9772 010d 49544D5F 		.ascii	"ITM_RxBuffer\000"
 9772      52784275 
 9772      66666572 
 9772      00
 9773              	.LASF55:
 9774 011a 5254435F 		.ascii	"RTC_TypeDef\000"
 9774      54797065 
 9774      44656600 
 9775              	.LASF140:
 9776 0126 5254435F 		.ascii	"RTC_TimeStampCmd\000"
 9776      54696D65 
 9776      5374616D 
ARM GAS  /tmp/ccadBNMM.s 			page 174


 9776      70436D64 
 9776      00
 9777              	.LASF151:
 9778 0137 5254435F 		.ascii	"RTC_TamperCmd\000"
 9778      54616D70 
 9778      6572436D 
 9778      6400
 9779              	.LASF9:
 9780 0145 6C6F6E67 		.ascii	"long long int\000"
 9780      206C6F6E 
 9780      6720696E 
 9780      7400
 9781              	.LASF0:
 9782 0153 7369676E 		.ascii	"signed char\000"
 9782      65642063 
 9782      68617200 
 9783              	.LASF78:
 9784 015f 5254435F 		.ascii	"RTC_EnterInitMode\000"
 9784      456E7465 
 9784      72496E69 
 9784      744D6F64 
 9784      6500
 9785              	.LASF93:
 9786 0171 77757477 		.ascii	"wutwfstatus\000"
 9786      66737461 
 9786      74757300 
 9787              	.LASF123:
 9788 017d 5254435F 		.ascii	"RTC_WakeUpCmd\000"
 9788      57616B65 
 9788      5570436D 
 9788      6400
 9789              	.LASF33:
 9790 018b 54535353 		.ascii	"TSSSR\000"
 9790      5200
 9791              	.LASF99:
 9792 0191 746D7072 		.ascii	"tmpreg\000"
 9792      656700
 9793              	.LASF133:
 9794 0198 5254435F 		.ascii	"RTC_CalibOutputConfig\000"
 9794      43616C69 
 9794      624F7574 
 9794      70757443 
 9794      6F6E6669 
 9795              	.LASF137:
 9796 01ae 5254435F 		.ascii	"RTC_SmoothCalibPlusPulses\000"
 9796      536D6F6F 
 9796      74684361 
 9796      6C696250 
 9796      6C757350 
 9797              	.LASF6:
 9798 01c8 6C6F6E67 		.ascii	"long int\000"
 9798      20696E74 
 9798      00
 9799              	.LASF173:
 9800 01d1 5254435F 		.ascii	"RTC_FLAG\000"
 9800      464C4147 
 9800      00
ARM GAS  /tmp/ccadBNMM.s 			page 175


 9801              	.LASF60:
 9802 01da 5254435F 		.ascii	"RTC_Hours\000"
 9802      486F7572 
 9802      7300
 9803              	.LASF88:
 9804 01e4 5254435F 		.ascii	"RTC_InitStruct\000"
 9804      496E6974 
 9804      53747275 
 9804      637400
 9805              	.LASF43:
 9806 01f3 424B5034 		.ascii	"BKP4R\000"
 9806      5200
 9807              	.LASF37:
 9808 01f9 414C524D 		.ascii	"ALRMBSSR\000"
 9808      42535352 
 9808      00
 9809              	.LASF105:
 9810 0202 5254435F 		.ascii	"RTC_DateStructInit\000"
 9810      44617465 
 9810      53747275 
 9810      6374496E 
 9810      697400
 9811              	.LASF145:
 9812 0215 746D7074 		.ascii	"tmptime\000"
 9812      696D6500 
 9813              	.LASF20:
 9814 021d 454E4142 		.ascii	"ENABLE\000"
 9814      4C4500
 9815              	.LASF103:
 9816 0224 5254435F 		.ascii	"RTC_SetDate\000"
 9816      53657444 
 9816      61746500 
 9817              	.LASF108:
 9818 0230 5254435F 		.ascii	"RTC_Alarm\000"
 9818      416C6172 
 9818      6D00
 9819              	.LASF86:
 9820 023a 5254435F 		.ascii	"RTC_StructInit\000"
 9820      53747275 
 9820      6374496E 
 9820      697400
 9821              	.LASF172:
 9822 0249 5254435F 		.ascii	"RTC_GetFlagStatus\000"
 9822      47657446 
 9822      6C616753 
 9822      74617475 
 9822      7300
 9823              	.LASF98:
 9824 025b 5254435F 		.ascii	"RTC_TimeStruct\000"
 9824      54696D65 
 9824      53747275 
 9824      637400
 9825              	.LASF166:
 9826 026a 5254435F 		.ascii	"RTC_SynchroShiftConfig\000"
 9826      53796E63 
 9826      68726F53 
 9826      68696674 
ARM GAS  /tmp/ccadBNMM.s 			page 176


 9826      436F6E66 
 9827              	.LASF7:
 9828 0281 5F5F7569 		.ascii	"__uint32_t\000"
 9828      6E743332 
 9828      5F7400
 9829              	.LASF24:
 9830 028c 4572726F 		.ascii	"ErrorStatus\000"
 9830      72537461 
 9830      74757300 
 9831              	.LASF34:
 9832 0298 43414C52 		.ascii	"CALR\000"
 9832      00
 9833              	.LASF176:
 9834 029d 5254435F 		.ascii	"RTC_GetITStatus\000"
 9834      47657449 
 9834      54537461 
 9834      74757300 
 9835              	.LASF152:
 9836 02ad 5254435F 		.ascii	"RTC_TamperFilterConfig\000"
 9836      54616D70 
 9836      65724669 
 9836      6C746572 
 9836      436F6E66 
 9837              	.LASF174:
 9838 02c4 62697473 		.ascii	"bitstatus\000"
 9838      74617475 
 9838      7300
 9839              	.LASF136:
 9840 02ce 5254435F 		.ascii	"RTC_SmoothCalibPeriod\000"
 9840      536D6F6F 
 9840      74684361 
 9840      6C696250 
 9840      6572696F 
 9841              	.LASF138:
 9842 02e4 5254435F 		.ascii	"RTC_SmouthCalibMinusPulsesValue\000"
 9842      536D6F75 
 9842      74684361 
 9842      6C69624D 
 9842      696E7573 
 9843              	.LASF18:
 9844 0304 49545374 		.ascii	"ITStatus\000"
 9844      61747573 
 9844      00
 9845              	.LASF36:
 9846 030d 414C524D 		.ascii	"ALRMASSR\000"
 9846      41535352 
 9846      00
 9847              	.LASF116:
 9848 0316 5254435F 		.ascii	"RTC_AlarmSubSecondValue\000"
 9848      416C6172 
 9848      6D537562 
 9848      5365636F 
 9848      6E645661 
 9849              	.LASF170:
 9850 032e 5254435F 		.ascii	"RTC_ITConfig\000"
 9850      4954436F 
 9850      6E666967 
ARM GAS  /tmp/ccadBNMM.s 			page 177


 9850      00
 9851              	.LASF16:
 9852 033b 52455345 		.ascii	"RESET\000"
 9852      5400
 9853              	.LASF32:
 9854 0341 54534452 		.ascii	"TSDR\000"
 9854      00
 9855              	.LASF25:
 9856 0346 50524552 		.ascii	"PRER\000"
 9856      00
 9857              	.LASF142:
 9858 034b 5254435F 		.ascii	"RTC_GetTimeStamp\000"
 9858      47657454 
 9858      696D6553 
 9858      74616D70 
 9858      00
 9859              	.LASF44:
 9860 035c 424B5035 		.ascii	"BKP5R\000"
 9860      5200
 9861              	.LASF163:
 9862 0362 5254435F 		.ascii	"RTC_ReadBackupRegister\000"
 9862      52656164 
 9862      4261636B 
 9862      75705265 
 9862      67697374 
 9863              	.LASF182:
 9864 0379 5254435F 		.ascii	"RTC_ExitInitMode\000"
 9864      45786974 
 9864      496E6974 
 9864      4D6F6465 
 9864      00
 9865              	.LASF8:
 9866 038a 6C6F6E67 		.ascii	"long unsigned int\000"
 9866      20756E73 
 9866      69676E65 
 9866      6420696E 
 9866      7400
 9867              	.LASF65:
 9868 039c 5254435F 		.ascii	"RTC_WeekDay\000"
 9868      5765656B 
 9868      44617900 
 9869              	.LASF168:
 9870 03a8 5254435F 		.ascii	"RTC_ShiftSubFS\000"
 9870      53686966 
 9870      74537562 
 9870      465300
 9871              	.LASF77:
 9872 03b7 696E6974 		.ascii	"initstatus\000"
 9872      73746174 
 9872      757300
 9873              	.LASF75:
 9874 03c2 696E6974 		.ascii	"initcounter\000"
 9874      636F756E 
 9874      74657200 
 9875              	.LASF181:
 9876 03ce 2F686F6D 		.ascii	"/home/jordyaw/Documents/referensi/coba/ChibiOS_2.5."
 9876      652F6A6F 
ARM GAS  /tmp/ccadBNMM.s 			page 178


 9876      72647961 
 9876      772F446F 
 9876      63756D65 
 9877 0401 32782F74 		.ascii	"2x/testhal/STM32F30x/WSC Juara Bismillah/program sc"
 9877      65737468 
 9877      616C2F53 
 9877      544D3332 
 9877      46333078 
 9878 0434 616E6E69 		.ascii	"anning data controller\000"
 9878      6E672064 
 9878      61746120 
 9878      636F6E74 
 9878      726F6C6C 
 9879              	.LASF92:
 9880 044b 77757463 		.ascii	"wutcounter\000"
 9880      6F756E74 
 9880      657200
 9881              	.LASF126:
 9882 0456 5254435F 		.ascii	"RTC_StoreOperation\000"
 9882      53746F72 
 9882      654F7065 
 9882      72617469 
 9882      6F6E00
 9883              	.LASF62:
 9884 0469 5254435F 		.ascii	"RTC_Seconds\000"
 9884      5365636F 
 9884      6E647300 
 9885              	.LASF80:
 9886 0475 73796E63 		.ascii	"synchrocounter\000"
 9886      68726F63 
 9886      6F756E74 
 9886      657200
 9887              	.LASF35:
 9888 0484 54414643 		.ascii	"TAFCR\000"
 9888      5200
 9889              	.LASF149:
 9890 048a 5254435F 		.ascii	"RTC_Tamper\000"
 9890      54616D70 
 9890      657200
 9891              	.LASF130:
 9892 0495 5254435F 		.ascii	"RTC_Output\000"
 9892      4F757470 
 9892      757400
 9893              	.LASF143:
 9894 04a0 5254435F 		.ascii	"RTC_StampTimeStruct\000"
 9894      5374616D 
 9894      7054696D 
 9894      65537472 
 9894      75637400 
 9895              	.LASF49:
 9896 04b4 424B5031 		.ascii	"BKP10R\000"
 9896      305200
 9897              	.LASF31:
 9898 04bb 54535452 		.ascii	"TSTR\000"
 9898      00
 9899              	.LASF129:
 9900 04c0 5254435F 		.ascii	"RTC_OutputConfig\000"
ARM GAS  /tmp/ccadBNMM.s 			page 179


 9900      4F757470 
 9900      7574436F 
 9900      6E666967 
 9900      00
 9901              	.LASF127:
 9902 04d1 5254435F 		.ascii	"RTC_GetWakeUpCounter\000"
 9902      47657457 
 9902      616B6555 
 9902      70436F75 
 9902      6E746572 
 9903              	.LASF67:
 9904 04e6 5254435F 		.ascii	"RTC_Date\000"
 9904      44617465 
 9904      00
 9905              	.LASF45:
 9906 04ef 424B5036 		.ascii	"BKP6R\000"
 9906      5200
 9907              	.LASF57:
 9908 04f5 5254435F 		.ascii	"RTC_AsynchPrediv\000"
 9908      4173796E 
 9908      63685072 
 9908      65646976 
 9908      00
 9909              	.LASF95:
 9910 0506 5254435F 		.ascii	"RTC_BypassShadowCmd\000"
 9910      42797061 
 9910      73735368 
 9910      61646F77 
 9910      436D6400 
 9911              	.LASF100:
 9912 051a 5254435F 		.ascii	"RTC_TimeStructInit\000"
 9912      54696D65 
 9912      53747275 
 9912      6374496E 
 9912      697400
 9913              	.LASF104:
 9914 052d 5254435F 		.ascii	"RTC_DateStruct\000"
 9914      44617465 
 9914      53747275 
 9914      637400
 9915              	.LASF134:
 9916 053c 5254435F 		.ascii	"RTC_CalibOutput\000"
 9916      43616C69 
 9916      624F7574 
 9916      70757400 
 9917              	.LASF119:
 9918 054c 5254435F 		.ascii	"RTC_WakeUpClockConfig\000"
 9918      57616B65 
 9918      5570436C 
 9918      6F636B43 
 9918      6F6E6669 
 9919              	.LASF15:
 9920 0562 73697A65 		.ascii	"sizetype\000"
 9920      74797065 
 9920      00
 9921              	.LASF22:
 9922 056b 4552524F 		.ascii	"ERROR\000"
ARM GAS  /tmp/ccadBNMM.s 			page 180


 9922      5200
 9923              	.LASF146:
 9924 0571 746D7064 		.ascii	"tmpdate\000"
 9924      61746500 
 9925              	.LASF147:
 9926 0579 5254435F 		.ascii	"RTC_GetTimeStampSubSecond\000"
 9926      47657454 
 9926      696D6553 
 9926      74616D70 
 9926      53756253 
 9927              	.LASF56:
 9928 0593 5254435F 		.ascii	"RTC_HourFormat\000"
 9928      486F7572 
 9928      466F726D 
 9928      617400
 9929              	.LASF150:
 9930 05a2 5254435F 		.ascii	"RTC_TamperTrigger\000"
 9930      54616D70 
 9930      65725472 
 9930      69676765 
 9930      7200
 9931              	.LASF21:
 9932 05b4 46756E63 		.ascii	"FunctionalState\000"
 9932      74696F6E 
 9932      616C5374 
 9932      61746500 
 9933              	.LASF158:
 9934 05c4 5254435F 		.ascii	"RTC_TimeStampOnTamperDetectionCmd\000"
 9934      54696D65 
 9934      5374616D 
 9934      704F6E54 
 9934      616D7065 
 9935              	.LASF50:
 9936 05e6 424B5031 		.ascii	"BKP11R\000"
 9936      315200
 9937              	.LASF122:
 9938 05ed 5254435F 		.ascii	"RTC_WakeUpCounter\000"
 9938      57616B65 
 9938      5570436F 
 9938      756E7465 
 9938      7200
 9939              	.LASF64:
 9940 05ff 5254435F 		.ascii	"RTC_TimeTypeDef\000"
 9940      54696D65 
 9940      54797065 
 9940      44656600 
 9941              	.LASF118:
 9942 060f 5254435F 		.ascii	"RTC_GetAlarmSubSecond\000"
 9942      47657441 
 9942      6C61726D 
 9942      53756253 
 9942      65636F6E 
 9943              	.LASF28:
 9944 0625 414C524D 		.ascii	"ALRMAR\000"
 9944      415200
 9945              	.LASF69:
 9946 062c 5254435F 		.ascii	"RTC_DateTypeDef\000"
ARM GAS  /tmp/ccadBNMM.s 			page 181


 9946      44617465 
 9946      54797065 
 9946      44656600 
 9947              	.LASF46:
 9948 063c 424B5037 		.ascii	"BKP7R\000"
 9948      5200
 9949              	.LASF107:
 9950 0642 5254435F 		.ascii	"RTC_SetAlarm\000"
 9950      53657441 
 9950      6C61726D 
 9950      00
 9951              	.LASF71:
 9952 064f 5254435F 		.ascii	"RTC_AlarmMask\000"
 9952      416C6172 
 9952      6D4D6173 
 9952      6B00
 9953              	.LASF27:
 9954 065d 52455345 		.ascii	"RESERVED0\000"
 9954      52564544 
 9954      3000
 9955              	.LASF148:
 9956 0667 5254435F 		.ascii	"RTC_TamperTriggerConfig\000"
 9956      54616D70 
 9956      65725472 
 9956      69676765 
 9956      72436F6E 
 9957              	.LASF112:
 9958 067f 5254435F 		.ascii	"RTC_AlarmCmd\000"
 9958      416C6172 
 9958      6D436D64 
 9958      00
 9959              	.LASF120:
 9960 068c 5254435F 		.ascii	"RTC_WakeUpClock\000"
 9960      57616B65 
 9960      5570436C 
 9960      6F636B00 
 9961              	.LASF94:
 9962 069c 5254435F 		.ascii	"RTC_RefClockCmd\000"
 9962      52656643 
 9962      6C6F636B 
 9962      436D6400 
 9963              	.LASF101:
 9964 06ac 5254435F 		.ascii	"RTC_GetTime\000"
 9964      47657454 
 9964      696D6500 
 9965              	.LASF13:
 9966 06b8 696E7433 		.ascii	"int32_t\000"
 9966      325F7400 
 9967              	.LASF1:
 9968 06c0 756E7369 		.ascii	"unsigned char\000"
 9968      676E6564 
 9968      20636861 
 9968      7200
 9969              	.LASF131:
 9970 06ce 5254435F 		.ascii	"RTC_OutputPolarity\000"
 9970      4F757470 
 9970      7574506F 
ARM GAS  /tmp/ccadBNMM.s 			page 182


 9970      6C617269 
 9970      747900
 9971              	.LASF155:
 9972 06e1 5254435F 		.ascii	"RTC_TamperSamplingFreq\000"
 9972      54616D70 
 9972      65725361 
 9972      6D706C69 
 9972      6E674672 
 9973              	.LASF144:
 9974 06f8 5254435F 		.ascii	"RTC_StampDateStruct\000"
 9974      5374616D 
 9974      70446174 
 9974      65537472 
 9974      75637400 
 9975              	.LASF160:
 9976 070c 5254435F 		.ascii	"RTC_WriteBackupRegister\000"
 9976      57726974 
 9976      65426163 
 9976      6B757052 
 9976      65676973 
 9977              	.LASF91:
 9978 0724 5254435F 		.ascii	"RTC_DeInit\000"
 9978      4465496E 
 9978      697400
 9979              	.LASF2:
 9980 072f 73686F72 		.ascii	"short int\000"
 9980      7420696E 
 9980      7400
 9981              	.LASF39:
 9982 0739 424B5030 		.ascii	"BKP0R\000"
 9982      5200
 9983              	.LASF85:
 9984 073f 62636468 		.ascii	"bcdhigh\000"
 9984      69676800 
 9985              	.LASF51:
 9986 0747 424B5031 		.ascii	"BKP12R\000"
 9986      325200
 9987              	.LASF61:
 9988 074e 5254435F 		.ascii	"RTC_Minutes\000"
 9988      4D696E75 
 9988      74657300 
 9989              	.LASF29:
 9990 075a 414C524D 		.ascii	"ALRMBR\000"
 9990      425200
 9991              	.LASF79:
 9992 0761 5254435F 		.ascii	"RTC_WaitForSynchro\000"
 9992      57616974 
 9992      466F7253 
 9992      796E6368 
 9992      726F00
 9993              	.LASF14:
 9994 0774 75696E74 		.ascii	"uint32_t\000"
 9994      33325F74 
 9994      00
 9995              	.LASF161:
 9996 077d 5254435F 		.ascii	"RTC_BKP_DR\000"
 9996      424B505F 
ARM GAS  /tmp/ccadBNMM.s 			page 183


 9996      445200
 9997              	.LASF156:
 9998 0788 5254435F 		.ascii	"RTC_TamperPinsPrechargeDuration\000"
 9998      54616D70 
 9998      65725069 
 9998      6E735072 
 9998      65636861 
 9999              	.LASF26:
 10000 07a8 57555452 		.ascii	"WUTR\000"
 10000      00
 10001              	.LASF178:
 10002 07ad 5254435F 		.ascii	"RTC_ClearITPendingBit\000"
 10002      436C6561 
 10002      72495450 
 10002      656E6469 
 10002      6E674269 
 10003              	.LASF153:
 10004 07c3 5254435F 		.ascii	"RTC_TamperFilter\000"
 10004      54616D70 
 10004      65724669 
 10004      6C746572 
 10004      00
 10005              	.LASF106:
 10006 07d4 5254435F 		.ascii	"RTC_GetDate\000"
 10006      47657444 
 10006      61746500 
 10007              	.LASF110:
 10008 07e0 5254435F 		.ascii	"RTC_AlarmStructInit\000"
 10008      416C6172 
 10008      6D537472 
 10008      75637449 
 10008      6E697400 
 10009              	.LASF11:
 10010 07f4 756E7369 		.ascii	"unsigned int\000"
 10010      676E6564 
 10010      20696E74 
 10010      00
 10011              	.LASF97:
 10012 0801 5254435F 		.ascii	"RTC_Format\000"
 10012      466F726D 
 10012      617400
 10013              	.LASF157:
 10014 080c 5254435F 		.ascii	"RTC_TamperPrechargeDuration\000"
 10014      54616D70 
 10014      65725072 
 10014      65636861 
 10014      72676544 
 10015              	.LASF167:
 10016 0828 5254435F 		.ascii	"RTC_ShiftAdd1S\000"
 10016      53686966 
 10016      74416464 
 10016      315300
 10017              	.LASF113:
 10018 0837 616C6172 		.ascii	"alarmcounter\000"
 10018      6D636F75 
 10018      6E746572 
 10018      00
ARM GAS  /tmp/ccadBNMM.s 			page 184


 10019              	.LASF5:
 10020 0844 5F5F696E 		.ascii	"__int32_t\000"
 10020      7433325F 
 10020      7400
 10021              	.LASF63:
 10022 084e 5254435F 		.ascii	"RTC_H12\000"
 10022      48313200 
 10023              	.LASF70:
 10024 0856 5254435F 		.ascii	"RTC_AlarmTime\000"
 10024      416C6172 
 10024      6D54696D 
 10024      6500
 10025              	.LASF40:
 10026 0864 424B5031 		.ascii	"BKP1R\000"
 10026      5200
 10027              	.LASF47:
 10028 086a 424B5038 		.ascii	"BKP8R\000"
 10028      5200
 10029              	.LASF52:
 10030 0870 424B5031 		.ascii	"BKP13R\000"
 10030      335200
 10031              	.LASF3:
 10032 0877 73686F72 		.ascii	"short unsigned int\000"
 10032      7420756E 
 10032      7369676E 
 10032      65642069 
 10032      6E7400
 10033              	.LASF180:
 10034 088a 2E2E2F2E 		.ascii	"../../../../ext/stm32lib/src/stm32f30x_rtc.c\000"
 10034      2E2F2E2E 
 10034      2F2E2E2F 
 10034      6578742F 
 10034      73746D33 
 10035              	.LASF141:
 10036 08b7 5254435F 		.ascii	"RTC_TimeStampEdge\000"
 10036      54696D65 
 10036      5374616D 
 10036      70456467 
 10036      6500
 10037              	.LASF164:
 10038 08c9 5254435F 		.ascii	"RTC_OutputTypeConfig\000"
 10038      4F757470 
 10038      75745479 
 10038      7065436F 
 10038      6E666967 
 10039              	.LASF58:
 10040 08de 5254435F 		.ascii	"RTC_SynchPrediv\000"
 10040      53796E63 
 10040      68507265 
 10040      64697600 
 10041              	.LASF72:
 10042 08ee 5254435F 		.ascii	"RTC_AlarmDateWeekDaySel\000"
 10042      416C6172 
 10042      6D446174 
 10042      65576565 
 10042      6B446179 
 10043              	.LASF179:
ARM GAS  /tmp/ccadBNMM.s 			page 185


 10044 0906 474E5520 		.ascii	"GNU C 4.8.3 -mcpu=cortex-m4 -mfloat-abi=softfp -mfp"
 10044      4320342E 
 10044      382E3320 
 10044      2D6D6370 
 10044      753D636F 
 10045 0939 753D6670 		.ascii	"u=fpv4-sp-d16 -mno-thumb-interwork -mthumb -ggdb -O"
 10045      76342D73 
 10045      702D6431 
 10045      36202D6D 
 10045      6E6F2D74 
 10046 096c 32202D66 		.ascii	"2 -fomit-frame-pointer -falign-functions=16 -fsingl"
 10046      6F6D6974 
 10046      2D667261 
 10046      6D652D70 
 10046      6F696E74 
 10047 099f 652D7072 		.ascii	"e-precision-constant -ffunction-sections -fdata-sec"
 10047      65636973 
 10047      696F6E2D 
 10047      636F6E73 
 10047      74616E74 
 10048 09d2 74696F6E 		.ascii	"tions -fno-common\000"
 10048      73202D66 
 10048      6E6F2D63 
 10048      6F6D6D6F 
 10048      6E00
 10049              	.LASF66:
 10050 09e4 5254435F 		.ascii	"RTC_Month\000"
 10050      4D6F6E74 
 10050      6800
 10051              	.LASF38:
 10052 09ee 52455345 		.ascii	"RESERVED7\000"
 10052      52564544 
 10052      3700
 10053              	.LASF73:
 10054 09f8 5254435F 		.ascii	"RTC_AlarmDateWeekDay\000"
 10054      416C6172 
 10054      6D446174 
 10054      65576565 
 10054      6B446179 
 10055              	.LASF48:
 10056 0a0d 424B5039 		.ascii	"BKP9R\000"
 10056      5200
 10057              	.LASF30:
 10058 0a13 53484946 		.ascii	"SHIFTR\000"
 10058      545200
 10059              	.LASF87:
 10060 0a1a 5254435F 		.ascii	"RTC_WriteProtectionCmd\000"
 10060      57726974 
 10060      6550726F 
 10060      74656374 
 10060      696F6E43 
 10061              	.LASF76:
 10062 0a31 73746174 		.ascii	"status\000"
 10062      757300
 10063              	.LASF68:
 10064 0a38 5254435F 		.ascii	"RTC_Year\000"
 10064      59656172 
ARM GAS  /tmp/ccadBNMM.s 			page 186


 10064      00
 10065              	.LASF83:
 10066 0a41 5254435F 		.ascii	"RTC_ByteToBcd2\000"
 10066      42797465 
 10066      546F4263 
 10066      643200
 10067              	.LASF111:
 10068 0a50 5254435F 		.ascii	"RTC_GetAlarm\000"
 10068      47657441 
 10068      6C61726D 
 10068      00
 10069              	.LASF84:
 10070 0a5d 56616C75 		.ascii	"Value\000"
 10070      6500
 10071              	.LASF12:
 10072 0a63 75696E74 		.ascii	"uint8_t\000"
 10072      385F7400 
 10073              	.LASF162:
 10074 0a6b 44617461 		.ascii	"Data\000"
 10074      00
 10075              	.LASF23:
 10076 0a70 53554343 		.ascii	"SUCCESS\000"
 10076      45535300 
 10077              	.LASF82:
 10078 0a78 5254435F 		.ascii	"RTC_Bcd2ToByte\000"
 10078      42636432 
 10078      546F4279 
 10078      746500
 10079              	.LASF132:
 10080 0a87 5254435F 		.ascii	"RTC_CalibOutputCmd\000"
 10080      43616C69 
 10080      624F7574 
 10080      70757443 
 10080      6D6400
 10081              	.LASF165:
 10082 0a9a 5254435F 		.ascii	"RTC_OutputType\000"
 10082      4F757470 
 10082      75745479 
 10082      706500
 10083              	.LASF81:
 10084 0aa9 73796E63 		.ascii	"synchrostatus\000"
 10084      68726F73 
 10084      74617475 
 10084      7300
 10085              	.LASF121:
 10086 0ab7 5254435F 		.ascii	"RTC_SetWakeUpCounter\000"
 10086      53657457 
 10086      616B6555 
 10086      70436F75 
 10086      6E746572 
 10087              	.LASF59:
 10088 0acc 5254435F 		.ascii	"RTC_InitTypeDef\000"
 10088      496E6974 
 10088      54797065 
 10088      44656600 
 10089              	.LASF114:
 10090 0adc 616C6172 		.ascii	"alarmstatus\000"
ARM GAS  /tmp/ccadBNMM.s 			page 187


 10090      6D737461 
 10090      74757300 
 10091              	.LASF41:
 10092 0ae8 424B5032 		.ascii	"BKP2R\000"
 10092      5200
 10093              	.LASF102:
 10094 0aee 5254435F 		.ascii	"RTC_GetSubSecond\000"
 10094      47657453 
 10094      75625365 
 10094      636F6E64 
 10094      00
 10095              	.LASF53:
 10096 0aff 424B5031 		.ascii	"BKP14R\000"
 10096      345200
 10097              	.LASF171:
 10098 0b06 5254435F 		.ascii	"RTC_IT\000"
 10098      495400
 10099              	.LASF169:
 10100 0b0d 73687066 		.ascii	"shpfcount\000"
 10100      636F756E 
 10100      7400
 10101              	.LASF159:
 10102 0b17 5254435F 		.ascii	"RTC_TamperPullUpCmd\000"
 10102      54616D70 
 10102      65725075 
 10102      6C6C5570 
 10102      436D6400 
 10103              	.LASF177:
 10104 0b2b 656E6162 		.ascii	"enablestatus\000"
 10104      6C657374 
 10104      61747573 
 10104      00
 10105              	.LASF154:
 10106 0b38 5254435F 		.ascii	"RTC_TamperSamplingFreqConfig\000"
 10106      54616D70 
 10106      65725361 
 10106      6D706C69 
 10106      6E674672 
 10107              	.LASF135:
 10108 0b55 5254435F 		.ascii	"RTC_SmoothCalibConfig\000"
 10108      536D6F6F 
 10108      74684361 
 10108      6C696243 
 10108      6F6E6669 
 10109              		.ident	"GCC: (4.8.3-18ubuntu2+12) 4.8.3"
ARM GAS  /tmp/ccadBNMM.s 			page 188


DEFINED SYMBOLS
                            *ABS*:0000000000000000 stm32f30x_rtc.c
     /tmp/ccadBNMM.s:20     .text.RTC_StructInit:0000000000000000 $t
     /tmp/ccadBNMM.s:26     .text.RTC_StructInit:0000000000000000 RTC_StructInit
     /tmp/ccadBNMM.s:45     .text.RTC_WriteProtectionCmd:0000000000000000 $t
     /tmp/ccadBNMM.s:51     .text.RTC_WriteProtectionCmd:0000000000000000 RTC_WriteProtectionCmd
     /tmp/ccadBNMM.s:80     .text.RTC_WriteProtectionCmd:0000000000000014 $d
     /tmp/ccadBNMM.s:85     .text.RTC_EnterInitMode:0000000000000000 $t
     /tmp/ccadBNMM.s:91     .text.RTC_EnterInitMode:0000000000000000 RTC_EnterInitMode
     /tmp/ccadBNMM.s:162    .text.RTC_EnterInitMode:0000000000000040 $d
     /tmp/ccadBNMM.s:167    .text.RTC_Init:0000000000000000 $t
     /tmp/ccadBNMM.s:173    .text.RTC_Init:0000000000000000 RTC_Init
     /tmp/ccadBNMM.s:241    .text.RTC_Init:0000000000000044 $d
     /tmp/ccadBNMM.s:246    .text.RTC_ExitInitMode:0000000000000000 $t
     /tmp/ccadBNMM.s:252    .text.RTC_ExitInitMode:0000000000000000 RTC_ExitInitMode
     /tmp/ccadBNMM.s:268    .text.RTC_ExitInitMode:000000000000000c $d
     /tmp/ccadBNMM.s:273    .text.RTC_WaitForSynchro:0000000000000000 $t
     /tmp/ccadBNMM.s:279    .text.RTC_WaitForSynchro:0000000000000000 RTC_WaitForSynchro
     /tmp/ccadBNMM.s:364    .text.RTC_WaitForSynchro:000000000000004c $d
     /tmp/ccadBNMM.s:369    .text.RTC_DeInit:0000000000000000 $t
     /tmp/ccadBNMM.s:375    .text.RTC_DeInit:0000000000000000 RTC_DeInit
     /tmp/ccadBNMM.s:503    .text.RTC_DeInit:0000000000000084 $d
     /tmp/ccadBNMM.s:509    .text.RTC_RefClockCmd:0000000000000000 $t
     /tmp/ccadBNMM.s:515    .text.RTC_RefClockCmd:0000000000000000 RTC_RefClockCmd
     /tmp/ccadBNMM.s:580    .text.RTC_RefClockCmd:000000000000003c $d
     /tmp/ccadBNMM.s:585    .text.RTC_BypassShadowCmd:0000000000000000 $t
     /tmp/ccadBNMM.s:591    .text.RTC_BypassShadowCmd:0000000000000000 RTC_BypassShadowCmd
     /tmp/ccadBNMM.s:632    .text.RTC_BypassShadowCmd:000000000000002c $d
     /tmp/ccadBNMM.s:637    .text.RTC_SetTime:0000000000000000 $t
     /tmp/ccadBNMM.s:643    .text.RTC_SetTime:0000000000000000 RTC_SetTime
     /tmp/ccadBNMM.s:901    .text.RTC_SetTime:00000000000000e8 $d
     /tmp/ccadBNMM.s:908    .text.RTC_TimeStructInit:0000000000000000 $t
     /tmp/ccadBNMM.s:914    .text.RTC_TimeStructInit:0000000000000000 RTC_TimeStructInit
     /tmp/ccadBNMM.s:936    .text.RTC_GetTime:0000000000000000 $t
     /tmp/ccadBNMM.s:942    .text.RTC_GetTime:0000000000000000 RTC_GetTime
     /tmp/ccadBNMM.s:1053   .text.RTC_GetTime:0000000000000058 $d
     /tmp/ccadBNMM.s:1058   .text.RTC_GetSubSecond:0000000000000000 $t
     /tmp/ccadBNMM.s:1064   .text.RTC_GetSubSecond:0000000000000000 RTC_GetSubSecond
     /tmp/ccadBNMM.s:1083   .text.RTC_GetSubSecond:0000000000000008 $d
     /tmp/ccadBNMM.s:1088   .text.RTC_SetDate:0000000000000000 $t
     /tmp/ccadBNMM.s:1094   .text.RTC_SetDate:0000000000000000 RTC_SetDate
     /tmp/ccadBNMM.s:1339   .text.RTC_SetDate:00000000000000d8 $d
     /tmp/ccadBNMM.s:1346   .text.RTC_DateStructInit:0000000000000000 $t
     /tmp/ccadBNMM.s:1352   .text.RTC_DateStructInit:0000000000000000 RTC_DateStructInit
     /tmp/ccadBNMM.s:1376   .text.RTC_GetDate:0000000000000000 $t
     /tmp/ccadBNMM.s:1382   .text.RTC_GetDate:0000000000000000 RTC_GetDate
     /tmp/ccadBNMM.s:1494   .text.RTC_GetDate:0000000000000054 $d
     /tmp/ccadBNMM.s:1499   .text.RTC_SetAlarm:0000000000000000 $t
     /tmp/ccadBNMM.s:1505   .text.RTC_SetAlarm:0000000000000000 RTC_SetAlarm
     /tmp/ccadBNMM.s:1796   .text.RTC_SetAlarm:00000000000000fc $d
     /tmp/ccadBNMM.s:1803   .text.RTC_AlarmStructInit:0000000000000000 $t
     /tmp/ccadBNMM.s:1809   .text.RTC_AlarmStructInit:0000000000000000 RTC_AlarmStructInit
     /tmp/ccadBNMM.s:1839   .text.RTC_GetAlarm:0000000000000000 $t
     /tmp/ccadBNMM.s:1845   .text.RTC_GetAlarm:0000000000000000 RTC_GetAlarm
     /tmp/ccadBNMM.s:1996   .text.RTC_GetAlarm:0000000000000090 $d
     /tmp/ccadBNMM.s:2001   .text.RTC_AlarmCmd:0000000000000000 $t
     /tmp/ccadBNMM.s:2007   .text.RTC_AlarmCmd:0000000000000000 RTC_AlarmCmd
ARM GAS  /tmp/ccadBNMM.s 			page 189


     /tmp/ccadBNMM.s:2103   .text.RTC_AlarmCmd:0000000000000058 $d
     /tmp/ccadBNMM.s:2108   .text.RTC_AlarmSubSecondConfig:0000000000000000 $t
     /tmp/ccadBNMM.s:2114   .text.RTC_AlarmSubSecondConfig:0000000000000000 RTC_AlarmSubSecondConfig
     /tmp/ccadBNMM.s:2157   .text.RTC_AlarmSubSecondConfig:0000000000000024 $d
     /tmp/ccadBNMM.s:2162   .text.RTC_GetAlarmSubSecond:0000000000000000 $t
     /tmp/ccadBNMM.s:2168   .text.RTC_GetAlarmSubSecond:0000000000000000 RTC_GetAlarmSubSecond
     /tmp/ccadBNMM.s:2193   .text.RTC_GetAlarmSubSecond:0000000000000014 $d
     /tmp/ccadBNMM.s:2198   .text.RTC_WakeUpClockConfig:0000000000000000 $t
     /tmp/ccadBNMM.s:2204   .text.RTC_WakeUpClockConfig:0000000000000000 RTC_WakeUpClockConfig
     /tmp/ccadBNMM.s:2239   .text.RTC_WakeUpClockConfig:0000000000000020 $d
     /tmp/ccadBNMM.s:2244   .text.RTC_SetWakeUpCounter:0000000000000000 $t
     /tmp/ccadBNMM.s:2250   .text.RTC_SetWakeUpCounter:0000000000000000 RTC_SetWakeUpCounter
     /tmp/ccadBNMM.s:2285   .text.RTC_SetWakeUpCounter:0000000000000018 $d
     /tmp/ccadBNMM.s:2290   .text.RTC_GetWakeUpCounter:0000000000000000 $t
     /tmp/ccadBNMM.s:2296   .text.RTC_GetWakeUpCounter:0000000000000000 RTC_GetWakeUpCounter
     /tmp/ccadBNMM.s:2312   .text.RTC_GetWakeUpCounter:0000000000000008 $d
     /tmp/ccadBNMM.s:2317   .text.RTC_WakeUpCmd:0000000000000000 $t
     /tmp/ccadBNMM.s:2323   .text.RTC_WakeUpCmd:0000000000000000 RTC_WakeUpCmd
     /tmp/ccadBNMM.s:2411   .text.RTC_WakeUpCmd:0000000000000054 $d
     /tmp/ccadBNMM.s:2416   .text.RTC_DayLightSavingConfig:0000000000000000 $t
     /tmp/ccadBNMM.s:2422   .text.RTC_DayLightSavingConfig:0000000000000000 RTC_DayLightSavingConfig
     /tmp/ccadBNMM.s:2467   .text.RTC_DayLightSavingConfig:0000000000000028 $d
     /tmp/ccadBNMM.s:2472   .text.RTC_GetStoreOperation:0000000000000000 $t
     /tmp/ccadBNMM.s:2478   .text.RTC_GetStoreOperation:0000000000000000 RTC_GetStoreOperation
     /tmp/ccadBNMM.s:2494   .text.RTC_GetStoreOperation:000000000000000c $d
     /tmp/ccadBNMM.s:2499   .text.RTC_OutputConfig:0000000000000000 $t
     /tmp/ccadBNMM.s:2505   .text.RTC_OutputConfig:0000000000000000 RTC_OutputConfig
     /tmp/ccadBNMM.s:2550   .text.RTC_OutputConfig:0000000000000028 $d
     /tmp/ccadBNMM.s:2555   .text.RTC_CalibOutputCmd:0000000000000000 $t
     /tmp/ccadBNMM.s:2561   .text.RTC_CalibOutputCmd:0000000000000000 RTC_CalibOutputCmd
     /tmp/ccadBNMM.s:2602   .text.RTC_CalibOutputCmd:000000000000002c $d
     /tmp/ccadBNMM.s:2607   .text.RTC_CalibOutputConfig:0000000000000000 $t
     /tmp/ccadBNMM.s:2613   .text.RTC_CalibOutputConfig:0000000000000000 RTC_CalibOutputConfig
     /tmp/ccadBNMM.s:2648   .text.RTC_CalibOutputConfig:0000000000000020 $d
     /tmp/ccadBNMM.s:2653   .text.RTC_SmoothCalibConfig:0000000000000000 $t
     /tmp/ccadBNMM.s:2659   .text.RTC_SmoothCalibConfig:0000000000000000 RTC_SmoothCalibConfig
     /tmp/ccadBNMM.s:2738   .text.RTC_SmoothCalibConfig:0000000000000048 $d
     /tmp/ccadBNMM.s:2743   .text.RTC_TimeStampCmd:0000000000000000 $t
     /tmp/ccadBNMM.s:2749   .text.RTC_TimeStampCmd:0000000000000000 RTC_TimeStampCmd
     /tmp/ccadBNMM.s:2805   .text.RTC_TimeStampCmd:0000000000000030 $d
     /tmp/ccadBNMM.s:2810   .text.RTC_GetTimeStamp:0000000000000000 $t
     /tmp/ccadBNMM.s:2816   .text.RTC_GetTimeStamp:0000000000000000 RTC_GetTimeStamp
     /tmp/ccadBNMM.s:3046   .text.RTC_GetTimeStamp:00000000000000b8 $d
     /tmp/ccadBNMM.s:3051   .text.RTC_GetTimeStampSubSecond:0000000000000000 $t
     /tmp/ccadBNMM.s:3057   .text.RTC_GetTimeStampSubSecond:0000000000000000 RTC_GetTimeStampSubSecond
     /tmp/ccadBNMM.s:3072   .text.RTC_GetTimeStampSubSecond:0000000000000008 $d
     /tmp/ccadBNMM.s:3077   .text.RTC_TamperTriggerConfig:0000000000000000 $t
     /tmp/ccadBNMM.s:3083   .text.RTC_TamperTriggerConfig:0000000000000000 RTC_TamperTriggerConfig
     /tmp/ccadBNMM.s:3111   .text.RTC_TamperTriggerConfig:0000000000000018 $d
     /tmp/ccadBNMM.s:3116   .text.RTC_TamperCmd:0000000000000000 $t
     /tmp/ccadBNMM.s:3122   .text.RTC_TamperCmd:0000000000000000 RTC_TamperCmd
     /tmp/ccadBNMM.s:3150   .text.RTC_TamperCmd:0000000000000014 $d
     /tmp/ccadBNMM.s:3155   .text.RTC_TamperFilterConfig:0000000000000000 $t
     /tmp/ccadBNMM.s:3161   .text.RTC_TamperFilterConfig:0000000000000000 RTC_TamperFilterConfig
     /tmp/ccadBNMM.s:3183   .text.RTC_TamperFilterConfig:0000000000000014 $d
     /tmp/ccadBNMM.s:3188   .text.RTC_TamperSamplingFreqConfig:0000000000000000 $t
     /tmp/ccadBNMM.s:3194   .text.RTC_TamperSamplingFreqConfig:0000000000000000 RTC_TamperSamplingFreqConfig
ARM GAS  /tmp/ccadBNMM.s 			page 190


     /tmp/ccadBNMM.s:3216   .text.RTC_TamperSamplingFreqConfig:0000000000000014 $d
     /tmp/ccadBNMM.s:3221   .text.RTC_TamperPinsPrechargeDuration:0000000000000000 $t
     /tmp/ccadBNMM.s:3227   .text.RTC_TamperPinsPrechargeDuration:0000000000000000 RTC_TamperPinsPrechargeDuration
     /tmp/ccadBNMM.s:3249   .text.RTC_TamperPinsPrechargeDuration:0000000000000014 $d
     /tmp/ccadBNMM.s:3254   .text.RTC_TimeStampOnTamperDetectionCmd:0000000000000000 $t
     /tmp/ccadBNMM.s:3260   .text.RTC_TimeStampOnTamperDetectionCmd:0000000000000000 RTC_TimeStampOnTamperDetectionCmd
     /tmp/ccadBNMM.s:3285   .text.RTC_TimeStampOnTamperDetectionCmd:0000000000000018 $d
     /tmp/ccadBNMM.s:3290   .text.RTC_TamperPullUpCmd:0000000000000000 $t
     /tmp/ccadBNMM.s:3296   .text.RTC_TamperPullUpCmd:0000000000000000 RTC_TamperPullUpCmd
     /tmp/ccadBNMM.s:3321   .text.RTC_TamperPullUpCmd:0000000000000018 $d
     /tmp/ccadBNMM.s:3326   .text.RTC_WriteBackupRegister:0000000000000000 $t
     /tmp/ccadBNMM.s:3332   .text.RTC_WriteBackupRegister:0000000000000000 RTC_WriteBackupRegister
     /tmp/ccadBNMM.s:3365   .text.RTC_WriteBackupRegister:000000000000001c $d
     /tmp/ccadBNMM.s:3370   .text.RTC_ReadBackupRegister:0000000000000000 $t
     /tmp/ccadBNMM.s:3376   .text.RTC_ReadBackupRegister:0000000000000000 RTC_ReadBackupRegister
     /tmp/ccadBNMM.s:3409   .text.RTC_ReadBackupRegister:000000000000001c $d
     /tmp/ccadBNMM.s:3414   .text.RTC_OutputTypeConfig:0000000000000000 $t
     /tmp/ccadBNMM.s:3420   .text.RTC_OutputTypeConfig:0000000000000000 RTC_OutputTypeConfig
     /tmp/ccadBNMM.s:3442   .text.RTC_OutputTypeConfig:0000000000000014 $d
     /tmp/ccadBNMM.s:3447   .text.RTC_SynchroShiftConfig:0000000000000000 $t
     /tmp/ccadBNMM.s:3453   .text.RTC_SynchroShiftConfig:0000000000000000 RTC_SynchroShiftConfig
     /tmp/ccadBNMM.s:3557   .text.RTC_SynchroShiftConfig:0000000000000064 $d
     /tmp/ccadBNMM.s:3562   .text.RTC_ITConfig:0000000000000000 $t
     /tmp/ccadBNMM.s:3568   .text.RTC_ITConfig:0000000000000000 RTC_ITConfig
     /tmp/ccadBNMM.s:3631   .text.RTC_ITConfig:0000000000000048 $d
     /tmp/ccadBNMM.s:3636   .text.RTC_GetFlagStatus:0000000000000000 $t
     /tmp/ccadBNMM.s:3642   .text.RTC_GetFlagStatus:0000000000000000 RTC_GetFlagStatus
     /tmp/ccadBNMM.s:3668   .text.RTC_GetFlagStatus:0000000000000014 $d
     /tmp/ccadBNMM.s:3674   .text.RTC_ClearFlag:0000000000000000 $t
     /tmp/ccadBNMM.s:3680   .text.RTC_ClearFlag:0000000000000000 RTC_ClearFlag
     /tmp/ccadBNMM.s:3701   .text.RTC_ClearFlag:0000000000000018 $d
     /tmp/ccadBNMM.s:3707   .text.RTC_GetITStatus:0000000000000000 $t
     /tmp/ccadBNMM.s:3713   .text.RTC_GetITStatus:0000000000000000 RTC_GetITStatus
     /tmp/ccadBNMM.s:3776   .text.RTC_GetITStatus:0000000000000038 $d
     /tmp/ccadBNMM.s:3781   .text.RTC_ClearITPendingBit:0000000000000000 $t
     /tmp/ccadBNMM.s:3787   .text.RTC_ClearITPendingBit:0000000000000000 RTC_ClearITPendingBit
     /tmp/ccadBNMM.s:3808   .text.RTC_ClearITPendingBit:0000000000000018 $d
                     .debug_frame:0000000000000010 $d
     /tmp/ccadBNMM.s:84     .text.RTC_WriteProtectionCmd:0000000000000018 $t
     /tmp/ccadBNMM.s:166    .text.RTC_EnterInitMode:0000000000000044 $t
     /tmp/ccadBNMM.s:245    .text.RTC_Init:0000000000000048 $t
     /tmp/ccadBNMM.s:508    .text.RTC_DeInit:000000000000008c $t
     /tmp/ccadBNMM.s:907    .text.RTC_SetTime:00000000000000ec $t
     /tmp/ccadBNMM.s:1057   .text.RTC_GetTime:000000000000005c $t
     /tmp/ccadBNMM.s:1087   .text.RTC_GetSubSecond:000000000000000c $t
     /tmp/ccadBNMM.s:1345   .text.RTC_SetDate:00000000000000dc $t
     /tmp/ccadBNMM.s:1498   .text.RTC_GetDate:0000000000000058 $t
     /tmp/ccadBNMM.s:2000   .text.RTC_GetAlarm:0000000000000094 $t
     /tmp/ccadBNMM.s:2107   .text.RTC_AlarmCmd:000000000000005c $t
     /tmp/ccadBNMM.s:2161   .text.RTC_AlarmSubSecondConfig:0000000000000028 $t
     /tmp/ccadBNMM.s:2197   .text.RTC_GetAlarmSubSecond:0000000000000018 $t
     /tmp/ccadBNMM.s:2243   .text.RTC_WakeUpClockConfig:0000000000000024 $t
     /tmp/ccadBNMM.s:2289   .text.RTC_SetWakeUpCounter:000000000000001c $t
     /tmp/ccadBNMM.s:2316   .text.RTC_GetWakeUpCounter:000000000000000c $t
     /tmp/ccadBNMM.s:2415   .text.RTC_WakeUpCmd:0000000000000058 $t
     /tmp/ccadBNMM.s:2471   .text.RTC_DayLightSavingConfig:000000000000002c $t
     /tmp/ccadBNMM.s:2554   .text.RTC_OutputConfig:000000000000002c $t
ARM GAS  /tmp/ccadBNMM.s 			page 191


     /tmp/ccadBNMM.s:2652   .text.RTC_CalibOutputConfig:0000000000000024 $t
     /tmp/ccadBNMM.s:2742   .text.RTC_SmoothCalibConfig:000000000000004c $t
     /tmp/ccadBNMM.s:2809   .text.RTC_TimeStampCmd:0000000000000034 $t
     /tmp/ccadBNMM.s:3050   .text.RTC_GetTimeStamp:00000000000000bc $t
     /tmp/ccadBNMM.s:3076   .text.RTC_GetTimeStampSubSecond:000000000000000c $t
     /tmp/ccadBNMM.s:3115   .text.RTC_TamperTriggerConfig:000000000000001c $t
     /tmp/ccadBNMM.s:3154   .text.RTC_TamperCmd:0000000000000018 $t
     /tmp/ccadBNMM.s:3187   .text.RTC_TamperFilterConfig:0000000000000018 $t
     /tmp/ccadBNMM.s:3220   .text.RTC_TamperSamplingFreqConfig:0000000000000018 $t
     /tmp/ccadBNMM.s:3253   .text.RTC_TamperPinsPrechargeDuration:0000000000000018 $t
     /tmp/ccadBNMM.s:3289   .text.RTC_TimeStampOnTamperDetectionCmd:000000000000001c $t
     /tmp/ccadBNMM.s:3325   .text.RTC_TamperPullUpCmd:000000000000001c $t
     /tmp/ccadBNMM.s:3446   .text.RTC_OutputTypeConfig:0000000000000018 $t
     /tmp/ccadBNMM.s:3561   .text.RTC_SynchroShiftConfig:0000000000000068 $t
     /tmp/ccadBNMM.s:3635   .text.RTC_ITConfig:000000000000004c $t
     /tmp/ccadBNMM.s:3673   .text.RTC_GetFlagStatus:000000000000001c $t
     /tmp/ccadBNMM.s:3780   .text.RTC_GetITStatus:000000000000003c $t
     /tmp/ccadBNMM.s:3812   .text.RTC_ClearITPendingBit:000000000000001c $t

NO UNDEFINED SYMBOLS
