ARM GAS  /tmp/cc6n0OG9.s 			page 1


   1              		.syntax unified
   2              		.cpu cortex-m4
   3              		.eabi_attribute 27, 3
   4              		.fpu fpv4-sp-d16
   5              		.eabi_attribute 20, 1
   6              		.eabi_attribute 21, 1
   7              		.eabi_attribute 23, 3
   8              		.eabi_attribute 24, 1
   9              		.eabi_attribute 25, 1
  10              		.eabi_attribute 26, 1
  11              		.eabi_attribute 30, 2
  12              		.eabi_attribute 34, 1
  13              		.eabi_attribute 18, 4
  14              		.thumb
  15              		.file	"stm32f30x_exti.c"
  16              		.text
  17              	.Ltext0:
  18              		.cfi_sections	.debug_frame
  19              		.section	.text.EXTI_DeInit,"ax",%progbits
  20              		.align	2
  21              		.p2align 4,,15
  22              		.global	EXTI_DeInit
  23              		.thumb
  24              		.thumb_func
  25              		.type	EXTI_DeInit, %function
  26              	EXTI_DeInit:
  27              	.LFB111:
  28              		.file 1 "../../../../ext/stm32lib/src/stm32f30x_exti.c"
  29              		.loc 1 125 0
  30              		.cfi_startproc
  31              		@ args = 0, pretend = 0, frame = 0
  32              		@ frame_needed = 0, uses_anonymous_args = 0
  33              		@ link register save eliminated.
  34 0000 30B4     		push	{r4, r5}
  35              		.cfi_def_cfa_offset 8
  36              		.cfi_offset 4, -8
  37              		.cfi_offset 5, -4
  38              		.loc 1 126 0
  39 0002 0B4B     		ldr	r3, .L2
  40              		.loc 1 127 0
  41 0004 0022     		movs	r2, #0
  42              		.loc 1 126 0
  43 0006 4FF0FC55 		mov	r5, #528482304
  44              		.loc 1 131 0
  45 000a 6FF0FC54 		mvn	r4, #528482304
  46              		.loc 1 132 0
  47 000e 0C20     		movs	r0, #12
  48              		.loc 1 137 0
  49 0010 0321     		movs	r1, #3
  50              		.loc 1 126 0
  51 0012 1D60     		str	r5, [r3]
  52              		.loc 1 127 0
  53 0014 5A60     		str	r2, [r3, #4]
  54              		.loc 1 128 0
  55 0016 9A60     		str	r2, [r3, #8]
  56              		.loc 1 129 0
  57 0018 DA60     		str	r2, [r3, #12]
ARM GAS  /tmp/cc6n0OG9.s 			page 2


  58              		.loc 1 130 0
  59 001a 1A61     		str	r2, [r3, #16]
  60              		.loc 1 131 0
  61 001c 5C61     		str	r4, [r3, #20]
  62              		.loc 1 132 0
  63 001e 1862     		str	r0, [r3, #32]
  64              		.loc 1 138 0
  65 0020 30BC     		pop	{r4, r5}
  66              		.loc 1 133 0
  67 0022 5A62     		str	r2, [r3, #36]
  68              		.loc 1 134 0
  69 0024 9A62     		str	r2, [r3, #40]
  70              		.loc 1 135 0
  71 0026 DA62     		str	r2, [r3, #44]
  72              		.loc 1 136 0
  73 0028 1A63     		str	r2, [r3, #48]
  74              		.loc 1 137 0
  75 002a 5963     		str	r1, [r3, #52]
  76              		.loc 1 138 0
  77 002c 7047     		bx	lr
  78              	.L3:
  79 002e 00BF     		.align	2
  80              	.L2:
  81 0030 00040140 		.word	1073808384
  82              		.cfi_endproc
  83              	.LFE111:
  84              		.size	EXTI_DeInit, .-EXTI_DeInit
  85 0034 AFF30080 		.section	.text.EXTI_Init,"ax",%progbits
  85      AFF30080 
  85      AFF30080 
  86              		.align	2
  87              		.p2align 4,,15
  88              		.global	EXTI_Init
  89              		.thumb
  90              		.thumb_func
  91              		.type	EXTI_Init, %function
  92              	EXTI_Init:
  93              	.LFB112:
  94              		.loc 1 155 0
  95              		.cfi_startproc
  96              		@ args = 0, pretend = 0, frame = 0
  97              		@ frame_needed = 0, uses_anonymous_args = 0
  98              		@ link register save eliminated.
  99              	.LVL0:
 100              		.loc 1 166 0
 101 0000 8379     		ldrb	r3, [r0, #6]	@ zero_extendqisi2
 102              		.loc 1 155 0
 103 0002 2DE9F001 		push	{r4, r5, r6, r7, r8}
 104              		.cfi_def_cfa_offset 20
 105              		.cfi_offset 4, -20
 106              		.cfi_offset 5, -16
 107              		.cfi_offset 6, -12
 108              		.cfi_offset 7, -8
 109              		.cfi_offset 8, -4
 110              		.loc 1 166 0
 111 0006 002B     		cmp	r3, #0
 112 0008 58D0     		beq	.L5
ARM GAS  /tmp/cc6n0OG9.s 			page 3


 113              		.loc 1 169 0
 114 000a 0368     		ldr	r3, [r0]
 115              		.loc 1 172 0
 116 000c 90F804C0 		ldrb	ip, [r0, #4]	@ zero_extendqisi2
 117              		.loc 1 183 0
 118 0010 4779     		ldrb	r7, [r0, #5]	@ zero_extendqisi2
 119              		.loc 1 170 0
 120 0012 3F4E     		ldr	r6, .L10
 121              		.loc 1 179 0
 122 0014 3F4D     		ldr	r5, .L10+4
 123              		.loc 1 180 0
 124 0016 404C     		ldr	r4, .L10+8
 125              		.loc 1 169 0
 126 0018 23F01F01 		bic	r1, r3, #31
 127 001c 01F18041 		add	r1, r1, #1073741824
 128 0020 01F58231 		add	r1, r1, #66560
 129 0024 03F01F08 		and	r8, r3, #31
 130 0028 0A68     		ldr	r2, [r1]
 131 002a 0123     		movs	r3, #1
 132 002c 03FA08F8 		lsl	r8, r3, r8
 133 0030 22EA0802 		bic	r2, r2, r8
 134 0034 0A60     		str	r2, [r1]
 135              		.loc 1 170 0
 136 0036 0268     		ldr	r2, [r0]
 137 0038 22F01F01 		bic	r1, r2, #31
 138 003c 02F01F08 		and	r8, r2, #31
 139 0040 8A59     		ldr	r2, [r1, r6]
 140 0042 03FA08F8 		lsl	r8, r3, r8
 141 0046 22EA0802 		bic	r2, r2, r8
 142 004a 8A51     		str	r2, [r1, r6]
 143              		.loc 1 172 0
 144 004c 0668     		ldr	r6, [r0]
 145              	.LVL1:
 146 004e 0CF18042 		add	r2, ip, #1073741824
 147 0052 26F01F01 		bic	r1, r6, #31
 148 0056 02F58232 		add	r2, r2, #66560
 149              		.loc 1 174 0
 150 005a 06F01F06 		and	r6, r6, #31
 151              	.LVL2:
 152 005e 52F801C0 		ldr	ip, [r2, r1]
 153 0062 03FA06F6 		lsl	r6, r3, r6
 154 0066 4CEA0606 		orr	r6, ip, r6
 155 006a 5650     		str	r6, [r2, r1]
 156              	.LVL3:
 157              		.loc 1 179 0
 158 006c 0668     		ldr	r6, [r0]
 159 006e 26F01F01 		bic	r1, r6, #31
 160 0072 06F01F06 		and	r6, r6, #31
 161 0076 4A59     		ldr	r2, [r1, r5]
 162 0078 03FA06F6 		lsl	r6, r3, r6
 163 007c 22EA0606 		bic	r6, r2, r6
 164 0080 4E51     		str	r6, [r1, r5]
 165              		.loc 1 180 0
 166 0082 0668     		ldr	r6, [r0]
 167 0084 26F01F01 		bic	r1, r6, #31
 168 0088 06F01F06 		and	r6, r6, #31
 169 008c 0A59     		ldr	r2, [r1, r4]
ARM GAS  /tmp/cc6n0OG9.s 			page 4


 170 008e 03FA06F6 		lsl	r6, r3, r6
 171 0092 22EA0606 		bic	r6, r2, r6
 172              		.loc 1 183 0
 173 0096 102F     		cmp	r7, #16
 174              		.loc 1 180 0
 175 0098 0E51     		str	r6, [r1, r4]
 176              		.loc 1 183 0
 177 009a 23D0     		beq	.L9
 178              		.loc 1 191 0
 179 009c 0068     		ldr	r0, [r0]
 180              	.LVL4:
 181 009e 07F18042 		add	r2, r7, #1073741824
 182 00a2 20F01F01 		bic	r1, r0, #31
 183 00a6 02F58232 		add	r2, r2, #66560
 184              		.loc 1 193 0
 185 00aa 00F01F00 		and	r0, r0, #31
 186              	.LVL5:
 187 00ae 5458     		ldr	r4, [r2, r1]
 188 00b0 8340     		lsls	r3, r3, r0
 189 00b2 2343     		orrs	r3, r3, r4
 190 00b4 5350     		str	r3, [r2, r1]
 191              	.LVL6:
 192              		.loc 1 205 0
 193 00b6 BDE8F001 		pop	{r4, r5, r6, r7, r8}
 194 00ba 7047     		bx	lr
 195              	.LVL7:
 196              	.L5:
 197              		.loc 1 199 0
 198 00bc 0379     		ldrb	r3, [r0, #4]	@ zero_extendqisi2
 199 00be 0168     		ldr	r1, [r0]
 200              	.LVL8:
 201 00c0 03F18043 		add	r3, r3, #1073741824
 202 00c4 21F01F02 		bic	r2, r1, #31
 203 00c8 03F58233 		add	r3, r3, #66560
 204              		.loc 1 202 0
 205 00cc 0124     		movs	r4, #1
 206 00ce 9858     		ldr	r0, [r3, r2]
 207              	.LVL9:
 208 00d0 01F01F01 		and	r1, r1, #31
 209              	.LVL10:
 210 00d4 04FA01F1 		lsl	r1, r4, r1
 211 00d8 20EA0101 		bic	r1, r0, r1
 212 00dc 9950     		str	r1, [r3, r2]
 213              	.LVL11:
 214              		.loc 1 205 0
 215 00de BDE8F001 		pop	{r4, r5, r6, r7, r8}
 216 00e2 7047     		bx	lr
 217              	.LVL12:
 218              	.L9:
 219              		.loc 1 186 0
 220 00e4 0168     		ldr	r1, [r0]
 221 00e6 21F01F02 		bic	r2, r1, #31
 222 00ea 01F01F01 		and	r1, r1, #31
 223 00ee 5659     		ldr	r6, [r2, r5]
 224 00f0 03FA01F1 		lsl	r1, r3, r1
 225 00f4 3143     		orrs	r1, r1, r6
 226 00f6 5151     		str	r1, [r2, r5]
ARM GAS  /tmp/cc6n0OG9.s 			page 5


 227              		.loc 1 187 0
 228 00f8 0168     		ldr	r1, [r0]
 229 00fa 21F01F02 		bic	r2, r1, #31
 230 00fe 01F01F01 		and	r1, r1, #31
 231 0102 1059     		ldr	r0, [r2, r4]
 232              	.LVL13:
 233 0104 8B40     		lsls	r3, r3, r1
 234 0106 0343     		orrs	r3, r3, r0
 235 0108 1351     		str	r3, [r2, r4]
 236              		.loc 1 205 0
 237 010a BDE8F001 		pop	{r4, r5, r6, r7, r8}
 238 010e 7047     		bx	lr
 239              	.L11:
 240              		.align	2
 241              	.L10:
 242 0110 04040140 		.word	1073808388
 243 0114 08040140 		.word	1073808392
 244 0118 0C040140 		.word	1073808396
 245              		.cfi_endproc
 246              	.LFE112:
 247              		.size	EXTI_Init, .-EXTI_Init
 248 011c AFF30080 		.section	.text.EXTI_StructInit,"ax",%progbits
 249              		.align	2
 250              		.p2align 4,,15
 251              		.global	EXTI_StructInit
 252              		.thumb
 253              		.thumb_func
 254              		.type	EXTI_StructInit, %function
 255              	EXTI_StructInit:
 256              	.LFB113:
 257              		.loc 1 214 0
 258              		.cfi_startproc
 259              		@ args = 0, pretend = 0, frame = 0
 260              		@ frame_needed = 0, uses_anonymous_args = 0
 261              		@ link register save eliminated.
 262              	.LVL14:
 263              		.loc 1 215 0
 264 0000 0023     		movs	r3, #0
 265              		.loc 1 217 0
 266 0002 1022     		movs	r2, #16
 267 0004 4271     		strb	r2, [r0, #5]
 268              		.loc 1 215 0
 269 0006 0360     		str	r3, [r0]
 270              		.loc 1 216 0
 271 0008 0371     		strb	r3, [r0, #4]
 272              		.loc 1 218 0
 273 000a 8371     		strb	r3, [r0, #6]
 274 000c 7047     		bx	lr
 275              		.cfi_endproc
 276              	.LFE113:
 277              		.size	EXTI_StructInit, .-EXTI_StructInit
 278 000e 00BF     		.section	.text.EXTI_GenerateSWInterrupt,"ax",%progbits
 279              		.align	2
 280              		.p2align 4,,15
 281              		.global	EXTI_GenerateSWInterrupt
 282              		.thumb
 283              		.thumb_func
ARM GAS  /tmp/cc6n0OG9.s 			page 6


 284              		.type	EXTI_GenerateSWInterrupt, %function
 285              	EXTI_GenerateSWInterrupt:
 286              	.LFB114:
 287              		.loc 1 229 0
 288              		.cfi_startproc
 289              		@ args = 0, pretend = 0, frame = 0
 290              		@ frame_needed = 0, uses_anonymous_args = 0
 291              		@ link register save eliminated.
 292              	.LVL15:
 293              		.loc 1 233 0
 294 0000 20F01F02 		bic	r2, r0, #31
 295 0004 064B     		ldr	r3, .L14
 296              		.loc 1 229 0
 297 0006 10B4     		push	{r4}
 298              		.cfi_def_cfa_offset 4
 299              		.cfi_offset 4, -4
 300              		.loc 1 233 0
 301 0008 D158     		ldr	r1, [r2, r3]
 302 000a 0124     		movs	r4, #1
 303 000c 00F01F00 		and	r0, r0, #31
 304              	.LVL16:
 305 0010 04FA00F0 		lsl	r0, r4, r0
 306 0014 0843     		orrs	r0, r0, r1
 307 0016 D050     		str	r0, [r2, r3]
 308              		.loc 1 235 0
 309 0018 5DF8044B 		ldr	r4, [sp], #4
 310 001c 7047     		bx	lr
 311              	.L15:
 312 001e 00BF     		.align	2
 313              	.L14:
 314 0020 10040140 		.word	1073808400
 315              		.cfi_endproc
 316              	.LFE114:
 317              		.size	EXTI_GenerateSWInterrupt, .-EXTI_GenerateSWInterrupt
 318 0024 AFF30080 		.section	.text.EXTI_GetFlagStatus,"ax",%progbits
 318      AFF30080 
 318      AFF30080 
 319              		.align	2
 320              		.p2align 4,,15
 321              		.global	EXTI_GetFlagStatus
 322              		.thumb
 323              		.thumb_func
 324              		.type	EXTI_GetFlagStatus, %function
 325              	EXTI_GetFlagStatus:
 326              	.LFB115:
 327              		.loc 1 263 0
 328              		.cfi_startproc
 329              		@ args = 0, pretend = 0, frame = 0
 330              		@ frame_needed = 0, uses_anonymous_args = 0
 331              		@ link register save eliminated.
 332              	.LVL17:
 333              		.loc 1 269 0
 334 0000 20F01F02 		bic	r2, r0, #31
 335 0004 054B     		ldr	r3, .L17
 336 0006 00F01F00 		and	r0, r0, #31
 337              	.LVL18:
 338 000a D358     		ldr	r3, [r2, r3]
ARM GAS  /tmp/cc6n0OG9.s 			page 7


 339              	.LVL19:
 340 000c 0122     		movs	r2, #1
 341 000e 02FA00F0 		lsl	r0, r2, r0
 342 0012 0342     		tst	r3, r0
 343              		.loc 1 278 0
 344 0014 0CBF     		ite	eq
 345 0016 0020     		moveq	r0, #0
 346 0018 0120     		movne	r0, #1
 347 001a 7047     		bx	lr
 348              	.L18:
 349              		.align	2
 350              	.L17:
 351 001c 14040140 		.word	1073808404
 352              		.cfi_endproc
 353              	.LFE115:
 354              		.size	EXTI_GetFlagStatus, .-EXTI_GetFlagStatus
 355              		.section	.text.EXTI_ClearFlag,"ax",%progbits
 356              		.align	2
 357              		.p2align 4,,15
 358              		.global	EXTI_ClearFlag
 359              		.thumb
 360              		.thumb_func
 361              		.type	EXTI_ClearFlag, %function
 362              	EXTI_ClearFlag:
 363              	.LFB116:
 364              		.loc 1 287 0
 365              		.cfi_startproc
 366              		@ args = 0, pretend = 0, frame = 0
 367              		@ frame_needed = 0, uses_anonymous_args = 0
 368              		@ link register save eliminated.
 369              	.LVL20:
 370              		.loc 1 291 0
 371 0000 00F01F02 		and	r2, r0, #31
 372 0004 0121     		movs	r1, #1
 373 0006 20F01F00 		bic	r0, r0, #31
 374              	.LVL21:
 375 000a 024B     		ldr	r3, .L20
 376 000c 01FA02F2 		lsl	r2, r1, r2
 377 0010 C250     		str	r2, [r0, r3]
 378 0012 7047     		bx	lr
 379              	.L21:
 380              		.align	2
 381              	.L20:
 382 0014 14040140 		.word	1073808404
 383              		.cfi_endproc
 384              	.LFE116:
 385              		.size	EXTI_ClearFlag, .-EXTI_ClearFlag
 386 0018 AFF30080 		.section	.text.EXTI_GetITStatus,"ax",%progbits
 386      AFF30080 
 387              		.align	2
 388              		.p2align 4,,15
 389              		.global	EXTI_GetITStatus
 390              		.thumb
 391              		.thumb_func
 392              		.type	EXTI_GetITStatus, %function
 393              	EXTI_GetITStatus:
 394              	.LFB117:
ARM GAS  /tmp/cc6n0OG9.s 			page 8


 395              		.loc 1 301 0
 396              		.cfi_startproc
 397              		@ args = 0, pretend = 0, frame = 0
 398              		@ frame_needed = 0, uses_anonymous_args = 0
 399              		@ link register save eliminated.
 400              	.LVL22:
 401              		.loc 1 308 0
 402 0000 20F01F03 		bic	r3, r0, #31
 403 0004 03F18043 		add	r3, r3, #1073741824
 404 0008 03F58233 		add	r3, r3, #66560
 405 000c 00F01F02 		and	r2, r0, #31
 406              		.loc 1 301 0
 407 0010 10B4     		push	{r4}
 408              		.cfi_def_cfa_offset 4
 409              		.cfi_offset 4, -4
 410              		.loc 1 308 0
 411 0012 0121     		movs	r1, #1
 412 0014 1C68     		ldr	r4, [r3]
 413              		.loc 1 310 0
 414 0016 5869     		ldr	r0, [r3, #20]
 415              	.LVL23:
 416              		.loc 1 308 0
 417 0018 01FA02F3 		lsl	r3, r1, r2
 418              	.LVL24:
 419              		.loc 1 310 0
 420 001c 1840     		ands	r0, r0, r3
 421 001e 03D0     		beq	.L23
 422              		.loc 1 310 0 is_stmt 0 discriminator 1
 423 0020 1C42     		tst	r4, r3
 424              		.loc 1 312 0 is_stmt 1 discriminator 1
 425 0022 0CBF     		ite	eq
 426 0024 0020     		moveq	r0, #0
 427 0026 0120     		movne	r0, #1
 428              	.L23:
 429              	.LVL25:
 430              		.loc 1 320 0
 431 0028 5DF8044B 		ldr	r4, [sp], #4
 432              	.LVL26:
 433 002c 7047     		bx	lr
 434              		.cfi_endproc
 435              	.LFE117:
 436              		.size	EXTI_GetITStatus, .-EXTI_GetITStatus
 437 002e 00BF     		.section	.text.EXTI_ClearITPendingBit,"ax",%progbits
 438              		.align	2
 439              		.p2align 4,,15
 440              		.global	EXTI_ClearITPendingBit
 441              		.thumb
 442              		.thumb_func
 443              		.type	EXTI_ClearITPendingBit, %function
 444              	EXTI_ClearITPendingBit:
 445              	.LFB118:
 446              		.loc 1 329 0
 447              		.cfi_startproc
 448              		@ args = 0, pretend = 0, frame = 0
 449              		@ frame_needed = 0, uses_anonymous_args = 0
 450              		@ link register save eliminated.
 451              	.LVL27:
ARM GAS  /tmp/cc6n0OG9.s 			page 9


 452              		.loc 1 333 0
 453 0000 00F01F02 		and	r2, r0, #31
 454 0004 0121     		movs	r1, #1
 455 0006 20F01F00 		bic	r0, r0, #31
 456              	.LVL28:
 457 000a 024B     		ldr	r3, .L26
 458 000c 01FA02F2 		lsl	r2, r1, r2
 459 0010 C250     		str	r2, [r0, r3]
 460 0012 7047     		bx	lr
 461              	.L27:
 462              		.align	2
 463              	.L26:
 464 0014 14040140 		.word	1073808404
 465              		.cfi_endproc
 466              	.LFE118:
 467              		.size	EXTI_ClearITPendingBit, .-EXTI_ClearITPendingBit
 468 0018 AFF30080 		.text
 468      AFF30080 
 469              	.Letext0:
 470              		.file 2 "/usr/include/newlib/machine/_default_types.h"
 471              		.file 3 "/usr/include/newlib/stdint.h"
 472              		.file 4 "../../../../os/hal/platforms/STM32F30x/stm32f30x.h"
 473              		.file 5 "../../../../ext/stm32lib/inc/stm32f30x_exti.h"
 474              		.file 6 "../../../../os/ports/common/ARMCMx/CMSIS/include/core_cm4.h"