ARM GAS  /tmp/ccDBHEZJ.s 			page 1


   1              		.syntax unified
   2              		.cpu cortex-m4
   3              		.eabi_attribute 27, 3
   4              		.fpu fpv4-sp-d16
   5              		.eabi_attribute 20, 1
   6              		.eabi_attribute 21, 1
   7              		.eabi_attribute 23, 3
   8              		.eabi_attribute 24, 1
   9              		.eabi_attribute 25, 1
  10              		.eabi_attribute 26, 1
  11              		.eabi_attribute 30, 2
  12              		.eabi_attribute 34, 1
  13              		.eabi_attribute 18, 4
  14              		.thumb
  15              		.file	"stm32f30x_crc.c"
  16              		.text
  17              	.Ltext0:
  18              		.cfi_sections	.debug_frame
  19              		.section	.text.CRC_DeInit,"ax",%progbits
  20              		.align	2
  21              		.p2align 4,,15
  22              		.global	CRC_DeInit
  23              		.thumb
  24              		.thumb_func
  25              		.type	CRC_DeInit, %function
  26              	CRC_DeInit:
  27              	.LFB111:
  28              		.file 1 "../../../../ext/stm32lib/src/stm32f30x_crc.c"
  29              		.loc 1 96 0
  30              		.cfi_startproc
  31              		@ args = 0, pretend = 0, frame = 0
  32              		@ frame_needed = 0, uses_anonymous_args = 0
  33              		@ link register save eliminated.
  34              		.loc 1 98 0
  35 0000 074B     		ldr	r3, .L2
  36              		.loc 1 96 0
  37 0002 10B4     		push	{r4}
  38              		.cfi_def_cfa_offset 4
  39              		.cfi_offset 4, -4
  40              		.loc 1 98 0
  41 0004 4FF0FF32 		mov	r2, #-1
  42              		.loc 1 100 0
  43 0008 064C     		ldr	r4, .L2+4
  44              		.loc 1 98 0
  45 000a 1A60     		str	r2, [r3]
  46              		.loc 1 102 0
  47 000c 0020     		movs	r0, #0
  48              		.loc 1 100 0
  49 000e 5C61     		str	r4, [r3, #20]
  50              		.loc 1 106 0
  51 0010 0121     		movs	r1, #1
  52              		.loc 1 102 0
  53 0012 1871     		strb	r0, [r3, #4]
  54              		.loc 1 107 0
  55 0014 5DF8044B 		ldr	r4, [sp], #4
  56              		.loc 1 104 0
  57 0018 1A61     		str	r2, [r3, #16]
ARM GAS  /tmp/ccDBHEZJ.s 			page 2


  58              		.loc 1 106 0
  59 001a 9960     		str	r1, [r3, #8]
  60              		.loc 1 107 0
  61 001c 7047     		bx	lr
  62              	.L3:
  63 001e 00BF     		.align	2
  64              	.L2:
  65 0020 00300240 		.word	1073885184
  66 0024 B71DC104 		.word	79764919
  67              		.cfi_endproc
  68              	.LFE111:
  69              		.size	CRC_DeInit, .-CRC_DeInit
  70 0028 AFF30080 		.section	.text.CRC_ResetDR,"ax",%progbits
  70      AFF30080 
  71              		.align	2
  72              		.p2align 4,,15
  73              		.global	CRC_ResetDR
  74              		.thumb
  75              		.thumb_func
  76              		.type	CRC_ResetDR, %function
  77              	CRC_ResetDR:
  78              	.LFB112:
  79              		.loc 1 115 0
  80              		.cfi_startproc
  81              		@ args = 0, pretend = 0, frame = 0
  82              		@ frame_needed = 0, uses_anonymous_args = 0
  83              		@ link register save eliminated.
  84              		.loc 1 117 0
  85 0000 024B     		ldr	r3, .L5
  86 0002 9A68     		ldr	r2, [r3, #8]
  87 0004 42F00102 		orr	r2, r2, #1
  88 0008 9A60     		str	r2, [r3, #8]
  89 000a 7047     		bx	lr
  90              	.L6:
  91              		.align	2
  92              	.L5:
  93 000c 00300240 		.word	1073885184
  94              		.cfi_endproc
  95              	.LFE112:
  96              		.size	CRC_ResetDR, .-CRC_ResetDR
  97              		.section	.text.CRC_PolynomialSizeSelect,"ax",%progbits
  98              		.align	2
  99              		.p2align 4,,15
 100              		.global	CRC_PolynomialSizeSelect
 101              		.thumb
 102              		.thumb_func
 103              		.type	CRC_PolynomialSizeSelect, %function
 104              	CRC_PolynomialSizeSelect:
 105              	.LFB113:
 106              		.loc 1 131 0
 107              		.cfi_startproc
 108              		@ args = 0, pretend = 0, frame = 0
 109              		@ frame_needed = 0, uses_anonymous_args = 0
 110              		@ link register save eliminated.
 111              	.LVL0:
 112              		.loc 1 138 0
 113 0000 034B     		ldr	r3, .L8
ARM GAS  /tmp/ccDBHEZJ.s 			page 3


 114 0002 9A68     		ldr	r2, [r3, #8]
 115              	.LVL1:
 116              		.loc 1 141 0
 117 0004 22F01802 		bic	r2, r2, #24
 118              	.LVL2:
 119              		.loc 1 143 0
 120 0008 1043     		orrs	r0, r0, r2
 121              	.LVL3:
 122              		.loc 1 146 0
 123 000a 9860     		str	r0, [r3, #8]
 124 000c 7047     		bx	lr
 125              	.L9:
 126 000e 00BF     		.align	2
 127              	.L8:
 128 0010 00300240 		.word	1073885184
 129              		.cfi_endproc
 130              	.LFE113:
 131              		.size	CRC_PolynomialSizeSelect, .-CRC_PolynomialSizeSelect
 132 0014 AFF30080 		.section	.text.CRC_ReverseInputDataSelect,"ax",%progbits
 132      AFF30080 
 132      AFF30080 
 133              		.align	2
 134              		.p2align 4,,15
 135              		.global	CRC_ReverseInputDataSelect
 136              		.thumb
 137              		.thumb_func
 138              		.type	CRC_ReverseInputDataSelect, %function
 139              	CRC_ReverseInputDataSelect:
 140              	.LFB114:
 141              		.loc 1 160 0
 142              		.cfi_startproc
 143              		@ args = 0, pretend = 0, frame = 0
 144              		@ frame_needed = 0, uses_anonymous_args = 0
 145              		@ link register save eliminated.
 146              	.LVL4:
 147              		.loc 1 167 0
 148 0000 034B     		ldr	r3, .L11
 149 0002 9A68     		ldr	r2, [r3, #8]
 150              	.LVL5:
 151              		.loc 1 170 0
 152 0004 22F06002 		bic	r2, r2, #96
 153              	.LVL6:
 154              		.loc 1 172 0
 155 0008 1043     		orrs	r0, r0, r2
 156              	.LVL7:
 157              		.loc 1 175 0
 158 000a 9860     		str	r0, [r3, #8]
 159 000c 7047     		bx	lr
 160              	.L12:
 161 000e 00BF     		.align	2
 162              	.L11:
 163 0010 00300240 		.word	1073885184
 164              		.cfi_endproc
 165              	.LFE114:
 166              		.size	CRC_ReverseInputDataSelect, .-CRC_ReverseInputDataSelect
 167 0014 AFF30080 		.section	.text.CRC_ReverseOutputDataCmd,"ax",%progbits
 167      AFF30080 
ARM GAS  /tmp/ccDBHEZJ.s 			page 4


 167      AFF30080 
 168              		.align	2
 169              		.p2align 4,,15
 170              		.global	CRC_ReverseOutputDataCmd
 171              		.thumb
 172              		.thumb_func
 173              		.type	CRC_ReverseOutputDataCmd, %function
 174              	CRC_ReverseOutputDataCmd:
 175              	.LFB115:
 176              		.loc 1 186 0
 177              		.cfi_startproc
 178              		@ args = 0, pretend = 0, frame = 0
 179              		@ frame_needed = 0, uses_anonymous_args = 0
 180              		@ link register save eliminated.
 181              	.LVL8:
 182              		.loc 1 193 0
 183 0000 054B     		ldr	r3, .L18
 184 0002 9A68     		ldr	r2, [r3, #8]
 185              		.loc 1 190 0
 186 0004 18B9     		cbnz	r0, .L17
 187              		.loc 1 198 0
 188 0006 22F08002 		bic	r2, r2, #128
 189 000a 9A60     		str	r2, [r3, #8]
 190 000c 7047     		bx	lr
 191              	.L17:
 192              		.loc 1 193 0
 193 000e 42F08002 		orr	r2, r2, #128
 194 0012 9A60     		str	r2, [r3, #8]
 195 0014 7047     		bx	lr
 196              	.L19:
 197 0016 00BF     		.align	2
 198              	.L18:
 199 0018 00300240 		.word	1073885184
 200              		.cfi_endproc
 201              	.LFE115:
 202              		.size	CRC_ReverseOutputDataCmd, .-CRC_ReverseOutputDataCmd
 203 001c AFF30080 		.section	.text.CRC_SetInitRegister,"ax",%progbits
 204              		.align	2
 205              		.p2align 4,,15
 206              		.global	CRC_SetInitRegister
 207              		.thumb
 208              		.thumb_func
 209              		.type	CRC_SetInitRegister, %function
 210              	CRC_SetInitRegister:
 211              	.LFB116:
 212              		.loc 1 209 0
 213              		.cfi_startproc
 214              		@ args = 0, pretend = 0, frame = 0
 215              		@ frame_needed = 0, uses_anonymous_args = 0
 216              		@ link register save eliminated.
 217              	.LVL9:
 218              		.loc 1 210 0
 219 0000 014B     		ldr	r3, .L21
 220 0002 1861     		str	r0, [r3, #16]
 221 0004 7047     		bx	lr
 222              	.L22:
 223 0006 00BF     		.align	2
ARM GAS  /tmp/ccDBHEZJ.s 			page 5


 224              	.L21:
 225 0008 00300240 		.word	1073885184
 226              		.cfi_endproc
 227              	.LFE116:
 228              		.size	CRC_SetInitRegister, .-CRC_SetInitRegister
 229 000c AFF30080 		.section	.text.CRC_SetPolynomial,"ax",%progbits
 230              		.align	2
 231              		.p2align 4,,15
 232              		.global	CRC_SetPolynomial
 233              		.thumb
 234              		.thumb_func
 235              		.type	CRC_SetPolynomial, %function
 236              	CRC_SetPolynomial:
 237              	.LFB117:
 238              		.loc 1 219 0
 239              		.cfi_startproc
 240              		@ args = 0, pretend = 0, frame = 0
 241              		@ frame_needed = 0, uses_anonymous_args = 0
 242              		@ link register save eliminated.
 243              	.LVL10:
 244              		.loc 1 220 0
 245 0000 014B     		ldr	r3, .L24
 246 0002 5861     		str	r0, [r3, #20]
 247 0004 7047     		bx	lr
 248              	.L25:
 249 0006 00BF     		.align	2
 250              	.L24:
 251 0008 00300240 		.word	1073885184
 252              		.cfi_endproc
 253              	.LFE117:
 254              		.size	CRC_SetPolynomial, .-CRC_SetPolynomial
 255 000c AFF30080 		.section	.text.CRC_CalcCRC,"ax",%progbits
 256              		.align	2
 257              		.p2align 4,,15
 258              		.global	CRC_CalcCRC
 259              		.thumb
 260              		.thumb_func
 261              		.type	CRC_CalcCRC, %function
 262              	CRC_CalcCRC:
 263              	.LFB118:
 264              		.loc 1 245 0
 265              		.cfi_startproc
 266              		@ args = 0, pretend = 0, frame = 0
 267              		@ frame_needed = 0, uses_anonymous_args = 0
 268              		@ link register save eliminated.
 269              	.LVL11:
 270              		.loc 1 246 0
 271 0000 014B     		ldr	r3, .L27
 272 0002 1860     		str	r0, [r3]
 273              		.loc 1 248 0
 274 0004 1868     		ldr	r0, [r3]
 275              	.LVL12:
 276              		.loc 1 249 0
 277 0006 7047     		bx	lr
 278              	.L28:
 279              		.align	2
 280              	.L27:
ARM GAS  /tmp/ccDBHEZJ.s 			page 6


 281 0008 00300240 		.word	1073885184
 282              		.cfi_endproc
 283              	.LFE118:
 284              		.size	CRC_CalcCRC, .-CRC_CalcCRC
 285 000c AFF30080 		.section	.text.CRC_CalcCRC16bits,"ax",%progbits
 286              		.align	2
 287              		.p2align 4,,15
 288              		.global	CRC_CalcCRC16bits
 289              		.thumb
 290              		.thumb_func
 291              		.type	CRC_CalcCRC16bits, %function
 292              	CRC_CalcCRC16bits:
 293              	.LFB119:
 294              		.loc 1 257 0
 295              		.cfi_startproc
 296              		@ args = 0, pretend = 0, frame = 0
 297              		@ frame_needed = 0, uses_anonymous_args = 0
 298              		@ link register save eliminated.
 299              	.LVL13:
 300              		.loc 1 258 0
 301 0000 014B     		ldr	r3, .L30
 302 0002 1880     		strh	r0, [r3]	@ movhi
 303              		.loc 1 260 0
 304 0004 1868     		ldr	r0, [r3]
 305              	.LVL14:
 306              		.loc 1 261 0
 307 0006 7047     		bx	lr
 308              	.L31:
 309              		.align	2
 310              	.L30:
 311 0008 00300240 		.word	1073885184
 312              		.cfi_endproc
 313              	.LFE119:
 314              		.size	CRC_CalcCRC16bits, .-CRC_CalcCRC16bits
 315 000c AFF30080 		.section	.text.CRC_CalcCRC8bits,"ax",%progbits
 316              		.align	2
 317              		.p2align 4,,15
 318              		.global	CRC_CalcCRC8bits
 319              		.thumb
 320              		.thumb_func
 321              		.type	CRC_CalcCRC8bits, %function
 322              	CRC_CalcCRC8bits:
 323              	.LFB120:
 324              		.loc 1 269 0
 325              		.cfi_startproc
 326              		@ args = 0, pretend = 0, frame = 0
 327              		@ frame_needed = 0, uses_anonymous_args = 0
 328              		@ link register save eliminated.
 329              	.LVL15:
 330              		.loc 1 270 0
 331 0000 014B     		ldr	r3, .L33
 332 0002 1870     		strb	r0, [r3]
 333              		.loc 1 272 0
 334 0004 1868     		ldr	r0, [r3]
 335              	.LVL16:
 336              		.loc 1 273 0
 337 0006 7047     		bx	lr
ARM GAS  /tmp/ccDBHEZJ.s 			page 7


 338              	.L34:
 339              		.align	2
 340              	.L33:
 341 0008 00300240 		.word	1073885184
 342              		.cfi_endproc
 343              	.LFE120:
 344              		.size	CRC_CalcCRC8bits, .-CRC_CalcCRC8bits
 345 000c AFF30080 		.section	.text.CRC_CalcBlockCRC,"ax",%progbits
 346              		.align	2
 347              		.p2align 4,,15
 348              		.global	CRC_CalcBlockCRC
 349              		.thumb
 350              		.thumb_func
 351              		.type	CRC_CalcBlockCRC, %function
 352              	CRC_CalcBlockCRC:
 353              	.LFB121:
 354              		.loc 1 282 0
 355              		.cfi_startproc
 356              		@ args = 0, pretend = 0, frame = 0
 357              		@ frame_needed = 0, uses_anonymous_args = 0
 358              		@ link register save eliminated.
 359              	.LVL17:
 360              		.loc 1 285 0
 361 0000 39B1     		cbz	r1, .L37
 362              		.loc 1 287 0
 363 0002 054A     		ldr	r2, .L41
 364 0004 00EB8101 		add	r1, r0, r1, lsl #2
 365              	.LVL18:
 366              	.L38:
 367              		.loc 1 287 0 is_stmt 0 discriminator 2
 368 0008 50F8043B 		ldr	r3, [r0], #4
 369 000c 1360     		str	r3, [r2]
 370              		.loc 1 285 0 is_stmt 1 discriminator 2
 371 000e 8842     		cmp	r0, r1
 372 0010 FAD1     		bne	.L38
 373              	.L37:
 374              		.loc 1 289 0
 375 0012 014B     		ldr	r3, .L41
 376 0014 1868     		ldr	r0, [r3]
 377 0016 7047     		bx	lr
 378              	.L42:
 379              		.align	2
 380              	.L41:
 381 0018 00300240 		.word	1073885184
 382              		.cfi_endproc
 383              	.LFE121:
 384              		.size	CRC_CalcBlockCRC, .-CRC_CalcBlockCRC
 385 001c AFF30080 		.section	.text.CRC_GetCRC,"ax",%progbits
 386              		.align	2
 387              		.p2align 4,,15
 388              		.global	CRC_GetCRC
 389              		.thumb
 390              		.thumb_func
 391              		.type	CRC_GetCRC, %function
 392              	CRC_GetCRC:
 393              	.LFB122:
 394              		.loc 1 298 0
ARM GAS  /tmp/ccDBHEZJ.s 			page 8


 395              		.cfi_startproc
 396              		@ args = 0, pretend = 0, frame = 0
 397              		@ frame_needed = 0, uses_anonymous_args = 0
 398              		@ link register save eliminated.
 399              		.loc 1 299 0
 400 0000 014B     		ldr	r3, .L44
 401 0002 1868     		ldr	r0, [r3]
 402              		.loc 1 300 0
 403 0004 7047     		bx	lr
 404              	.L45:
 405 0006 00BF     		.align	2
 406              	.L44:
 407 0008 00300240 		.word	1073885184
 408              		.cfi_endproc
 409              	.LFE122:
 410              		.size	CRC_GetCRC, .-CRC_GetCRC
 411 000c AFF30080 		.section	.text.CRC_SetIDRegister,"ax",%progbits
 412              		.align	2
 413              		.p2align 4,,15
 414              		.global	CRC_SetIDRegister
 415              		.thumb
 416              		.thumb_func
 417              		.type	CRC_SetIDRegister, %function
 418              	CRC_SetIDRegister:
 419              	.LFB123:
 420              		.loc 1 324 0
 421              		.cfi_startproc
 422              		@ args = 0, pretend = 0, frame = 0
 423              		@ frame_needed = 0, uses_anonymous_args = 0
 424              		@ link register save eliminated.
 425              	.LVL19:
 426              		.loc 1 325 0
 427 0000 014B     		ldr	r3, .L47
 428 0002 1871     		strb	r0, [r3, #4]
 429 0004 7047     		bx	lr
 430              	.L48:
 431 0006 00BF     		.align	2
 432              	.L47:
 433 0008 00300240 		.word	1073885184
 434              		.cfi_endproc
 435              	.LFE123:
 436              		.size	CRC_SetIDRegister, .-CRC_SetIDRegister
 437 000c AFF30080 		.section	.text.CRC_GetIDRegister,"ax",%progbits
 438              		.align	2
 439              		.p2align 4,,15
 440              		.global	CRC_GetIDRegister
 441              		.thumb
 442              		.thumb_func
 443              		.type	CRC_GetIDRegister, %function
 444              	CRC_GetIDRegister:
 445              	.LFB124:
 446              		.loc 1 334 0
 447              		.cfi_startproc
 448              		@ args = 0, pretend = 0, frame = 0
 449              		@ frame_needed = 0, uses_anonymous_args = 0
 450              		@ link register save eliminated.
 451              		.loc 1 335 0
ARM GAS  /tmp/ccDBHEZJ.s 			page 9


 452 0000 014B     		ldr	r3, .L50
 453 0002 1879     		ldrb	r0, [r3, #4]	@ zero_extendqisi2
 454              		.loc 1 336 0
 455 0004 7047     		bx	lr
 456              	.L51:
 457 0006 00BF     		.align	2
 458              	.L50:
 459 0008 00300240 		.word	1073885184
 460              		.cfi_endproc
 461              	.LFE124:
 462              		.size	CRC_GetIDRegister, .-CRC_GetIDRegister
 463 000c AFF30080 		.text
 464              	.Letext0:
 465              		.file 2 "/usr/include/newlib/machine/_default_types.h"
 466              		.file 3 "/usr/include/newlib/stdint.h"
 467              		.file 4 "../../../../os/hal/platforms/STM32F30x/stm32f30x.h"
 468              		.file 5 "../../../../os/ports/common/ARMCMx/CMSIS/include/core_cm4.h"