ARM GAS  /tmp/cciDlJGO.s 			page 1


   1              		.syntax unified
   2              		.cpu cortex-m4
   3              		.eabi_attribute 27, 3
   4              		.fpu fpv4-sp-d16
   5              		.eabi_attribute 20, 1
   6              		.eabi_attribute 21, 1
   7              		.eabi_attribute 23, 3
   8              		.eabi_attribute 24, 1
   9              		.eabi_attribute 25, 1
  10              		.eabi_attribute 26, 1
  11              		.eabi_attribute 30, 2
  12              		.eabi_attribute 34, 1
  13              		.eabi_attribute 18, 4
  14              		.thumb
  15              		.file	"stm32f30x_comp.c"
  16              		.text
  17              	.Ltext0:
  18              		.cfi_sections	.debug_frame
  19              		.section	.text.COMP_DeInit,"ax",%progbits
  20              		.align	2
  21              		.p2align 4,,15
  22              		.global	COMP_DeInit
  23              		.thumb
  24              		.thumb_func
  25              		.type	COMP_DeInit, %function
  26              	COMP_DeInit:
  27              	.LFB111:
  28              		.file 1 "../../../../ext/stm32lib/src/stm32f30x_comp.c"
  29              		.loc 1 214 0
  30              		.cfi_startproc
  31              		@ args = 0, pretend = 0, frame = 0
  32              		@ frame_needed = 0, uses_anonymous_args = 0
  33              		@ link register save eliminated.
  34              	.LVL0:
  35              		.loc 1 216 0
  36 0000 014B     		ldr	r3, .L2
  37 0002 0022     		movs	r2, #0
  38 0004 C250     		str	r2, [r0, r3]
  39 0006 7047     		bx	lr
  40              	.L3:
  41              		.align	2
  42              	.L2:
  43 0008 1C000140 		.word	1073807388
  44              		.cfi_endproc
  45              	.LFE111:
  46              		.size	COMP_DeInit, .-COMP_DeInit
  47 000c AFF30080 		.section	.text.COMP_Init,"ax",%progbits
  48              		.align	2
  49              		.p2align 4,,15
  50              		.global	COMP_Init
  51              		.thumb
  52              		.thumb_func
  53              		.type	COMP_Init, %function
  54              	COMP_Init:
  55              	.LFB112:
  56              		.loc 1 242 0
  57              		.cfi_startproc
ARM GAS  /tmp/cciDlJGO.s 			page 2


  58              		@ args = 0, pretend = 0, frame = 0
  59              		@ frame_needed = 0, uses_anonymous_args = 0
  60              		@ link register save eliminated.
  61              	.LVL1:
  62              		.loc 1 270 0
  63 0000 01F10802 		add	r2, r1, #8
  64              		.loc 1 242 0
  65 0004 2DE9F001 		push	{r4, r5, r6, r7, r8}
  66              		.cfi_def_cfa_offset 20
  67              		.cfi_offset 4, -20
  68              		.cfi_offset 5, -16
  69              		.cfi_offset 6, -12
  70              		.cfi_offset 7, -8
  71              		.cfi_offset 8, -4
  72              		.loc 1 270 0
  73 0008 C4CA     		ldmia	r2, {r2, r6, r7}
  74              		.loc 1 269 0
  75 000a D1F80480 		ldr	r8, [r1, #4]
  76 000e D1F800C0 		ldr	ip, [r1]
  77              		.loc 1 256 0
  78 0012 094B     		ldr	r3, .L5
  79              		.loc 1 270 0
  80 0014 4D69     		ldr	r5, [r1, #20]
  81              		.loc 1 269 0
  82 0016 8C69     		ldr	r4, [r1, #24]
  83              		.loc 1 256 0
  84 0018 C158     		ldr	r1, [r0, r3]
  85              	.LVL2:
  86              		.loc 1 269 0
  87 001a 48EA0C0C 		orr	ip, r8, ip
  88 001e 4CEA0202 		orr	r2, ip, r2
  89              		.loc 1 270 0
  90 0022 3A43     		orrs	r2, r2, r7
  91 0024 3243     		orrs	r2, r2, r6
  92 0026 2A43     		orrs	r2, r2, r5
  93              		.loc 1 269 0
  94 0028 2243     		orrs	r2, r2, r4
  95              		.loc 1 259 0
  96 002a 01F00301 		and	r1, r1, #3
  97              	.LVL3:
  98              		.loc 1 269 0
  99 002e 0A43     		orrs	r2, r2, r1
 100              	.LVL4:
 101              		.loc 1 274 0
 102 0030 C250     		str	r2, [r0, r3]
 103              		.loc 1 275 0
 104 0032 BDE8F001 		pop	{r4, r5, r6, r7, r8}
 105 0036 7047     		bx	lr
 106              	.L6:
 107              		.align	2
 108              	.L5:
 109 0038 1C000140 		.word	1073807388
 110              		.cfi_endproc
 111              	.LFE112:
 112              		.size	COMP_Init, .-COMP_Init
 113 003c AFF30080 		.section	.text.COMP_StructInit,"ax",%progbits
 114              		.align	2
ARM GAS  /tmp/cciDlJGO.s 			page 3


 115              		.p2align 4,,15
 116              		.global	COMP_StructInit
 117              		.thumb
 118              		.thumb_func
 119              		.type	COMP_StructInit, %function
 120              	COMP_StructInit:
 121              	.LFB113:
 122              		.loc 1 284 0
 123              		.cfi_startproc
 124              		@ args = 0, pretend = 0, frame = 0
 125              		@ frame_needed = 0, uses_anonymous_args = 0
 126              		@ link register save eliminated.
 127              	.LVL5:
 128              		.loc 1 285 0
 129 0000 0023     		movs	r3, #0
 130              		.loc 1 291 0
 131 0002 0C22     		movs	r2, #12
 132 0004 8261     		str	r2, [r0, #24]
 133              		.loc 1 285 0
 134 0006 0360     		str	r3, [r0]
 135              		.loc 1 286 0
 136 0008 4360     		str	r3, [r0, #4]
 137              		.loc 1 287 0
 138 000a 8360     		str	r3, [r0, #8]
 139              		.loc 1 288 0
 140 000c C360     		str	r3, [r0, #12]
 141              		.loc 1 289 0
 142 000e 0361     		str	r3, [r0, #16]
 143              		.loc 1 290 0
 144 0010 4361     		str	r3, [r0, #20]
 145 0012 7047     		bx	lr
 146              		.cfi_endproc
 147              	.LFE113:
 148              		.size	COMP_StructInit, .-COMP_StructInit
 149 0014 AFF30080 		.section	.text.COMP_Cmd,"ax",%progbits
 149      AFF30080 
 149      AFF30080 
 150              		.align	2
 151              		.p2align 4,,15
 152              		.global	COMP_Cmd
 153              		.thumb
 154              		.thumb_func
 155              		.type	COMP_Cmd, %function
 156              	COMP_Cmd:
 157              	.LFB114:
 158              		.loc 1 311 0
 159              		.cfi_startproc
 160              		@ args = 0, pretend = 0, frame = 0
 161              		@ frame_needed = 0, uses_anonymous_args = 0
 162              		@ link register save eliminated.
 163              	.LVL6:
 164              		.loc 1 319 0
 165 0000 054B     		ldr	r3, .L13
 166 0002 C258     		ldr	r2, [r0, r3]
 167              		.loc 1 316 0
 168 0004 19B9     		cbnz	r1, .L12
 169              		.loc 1 324 0
ARM GAS  /tmp/cciDlJGO.s 			page 4


 170 0006 22F00102 		bic	r2, r2, #1
 171 000a C250     		str	r2, [r0, r3]
 172 000c 7047     		bx	lr
 173              	.L12:
 174              		.loc 1 319 0
 175 000e 42F00102 		orr	r2, r2, #1
 176 0012 C250     		str	r2, [r0, r3]
 177 0014 7047     		bx	lr
 178              	.L14:
 179 0016 00BF     		.align	2
 180              	.L13:
 181 0018 1C000140 		.word	1073807388
 182              		.cfi_endproc
 183              	.LFE114:
 184              		.size	COMP_Cmd, .-COMP_Cmd
 185 001c AFF30080 		.section	.text.COMP_SwitchCmd,"ax",%progbits
 186              		.align	2
 187              		.p2align 4,,15
 188              		.global	COMP_SwitchCmd
 189              		.thumb
 190              		.thumb_func
 191              		.type	COMP_SwitchCmd, %function
 192              	COMP_SwitchCmd:
 193              	.LFB115:
 194              		.loc 1 341 0
 195              		.cfi_startproc
 196              		@ args = 0, pretend = 0, frame = 0
 197              		@ frame_needed = 0, uses_anonymous_args = 0
 198              		@ link register save eliminated.
 199              	.LVL7:
 200              		.loc 1 348 0
 201 0000 054B     		ldr	r3, .L19
 202 0002 C258     		ldr	r2, [r0, r3]
 203              		.loc 1 345 0
 204 0004 19B9     		cbnz	r1, .L18
 205              		.loc 1 353 0
 206 0006 22F00202 		bic	r2, r2, #2
 207 000a C250     		str	r2, [r0, r3]
 208 000c 7047     		bx	lr
 209              	.L18:
 210              		.loc 1 348 0
 211 000e 42F00202 		orr	r2, r2, #2
 212 0012 C250     		str	r2, [r0, r3]
 213 0014 7047     		bx	lr
 214              	.L20:
 215 0016 00BF     		.align	2
 216              	.L19:
 217 0018 1C000140 		.word	1073807388
 218              		.cfi_endproc
 219              	.LFE115:
 220              		.size	COMP_SwitchCmd, .-COMP_SwitchCmd
 221 001c AFF30080 		.section	.text.COMP_GetOutputLevel,"ax",%progbits
 222              		.align	2
 223              		.p2align 4,,15
 224              		.global	COMP_GetOutputLevel
 225              		.thumb
 226              		.thumb_func
ARM GAS  /tmp/cciDlJGO.s 			page 5


 227              		.type	COMP_GetOutputLevel, %function
 228              	COMP_GetOutputLevel:
 229              	.LFB116:
 230              		.loc 1 377 0
 231              		.cfi_startproc
 232              		@ args = 0, pretend = 0, frame = 0
 233              		@ frame_needed = 0, uses_anonymous_args = 0
 234              		@ link register save eliminated.
 235              	.LVL8:
 236              		.loc 1 384 0
 237 0000 024B     		ldr	r3, .L24
 238 0002 C058     		ldr	r0, [r0, r3]
 239              	.LVL9:
 240              		.loc 1 395 0
 241 0004 00F08040 		and	r0, r0, #1073741824
 242              	.LVL10:
 243 0008 7047     		bx	lr
 244              	.L25:
 245 000a 00BF     		.align	2
 246              	.L24:
 247 000c 1C000140 		.word	1073807388
 248              		.cfi_endproc
 249              	.LFE116:
 250              		.size	COMP_GetOutputLevel, .-COMP_GetOutputLevel
 251              		.section	.text.COMP_WindowCmd,"ax",%progbits
 252              		.align	2
 253              		.p2align 4,,15
 254              		.global	COMP_WindowCmd
 255              		.thumb
 256              		.thumb_func
 257              		.type	COMP_WindowCmd, %function
 258              	COMP_WindowCmd:
 259              	.LFB117:
 260              		.loc 1 434 0
 261              		.cfi_startproc
 262              		@ args = 0, pretend = 0, frame = 0
 263              		@ frame_needed = 0, uses_anonymous_args = 0
 264              		@ link register save eliminated.
 265              	.LVL11:
 266              		.loc 1 442 0
 267 0000 054B     		ldr	r3, .L30
 268 0002 C258     		ldr	r2, [r0, r3]
 269              		.loc 1 439 0
 270 0004 19B9     		cbnz	r1, .L29
 271              		.loc 1 447 0
 272 0006 22F40072 		bic	r2, r2, #512
 273 000a C250     		str	r2, [r0, r3]
 274 000c 7047     		bx	lr
 275              	.L29:
 276              		.loc 1 442 0
 277 000e 42F40072 		orr	r2, r2, #512
 278 0012 C250     		str	r2, [r0, r3]
 279 0014 7047     		bx	lr
 280              	.L31:
 281 0016 00BF     		.align	2
 282              	.L30:
 283 0018 1C000140 		.word	1073807388
ARM GAS  /tmp/cciDlJGO.s 			page 6


 284              		.cfi_endproc
 285              	.LFE117:
 286              		.size	COMP_WindowCmd, .-COMP_WindowCmd
 287 001c AFF30080 		.section	.text.COMP_LockConfig,"ax",%progbits
 288              		.align	2
 289              		.p2align 4,,15
 290              		.global	COMP_LockConfig
 291              		.thumb
 292              		.thumb_func
 293              		.type	COMP_LockConfig, %function
 294              	COMP_LockConfig:
 295              	.LFB118:
 296              		.loc 1 479 0
 297              		.cfi_startproc
 298              		@ args = 0, pretend = 0, frame = 0
 299              		@ frame_needed = 0, uses_anonymous_args = 0
 300              		@ link register save eliminated.
 301              	.LVL12:
 302              		.loc 1 484 0
 303 0000 024B     		ldr	r3, .L33
 304 0002 C258     		ldr	r2, [r0, r3]
 305 0004 42F00042 		orr	r2, r2, #-2147483648
 306 0008 C250     		str	r2, [r0, r3]
 307 000a 7047     		bx	lr
 308              	.L34:
 309              		.align	2
 310              	.L33:
 311 000c 1C000140 		.word	1073807388
 312              		.cfi_endproc
 313              	.LFE118:
 314              		.size	COMP_LockConfig, .-COMP_LockConfig
 315              		.text
 316              	.Letext0:
 317              		.file 2 "/usr/include/newlib/machine/_default_types.h"
 318              		.file 3 "/usr/include/newlib/stdint.h"
 319              		.file 4 "../../../../os/hal/platforms/STM32F30x/stm32f30x.h"
 320              		.file 5 "../../../../ext/stm32lib/inc/stm32f30x_comp.h"
 321              		.file 6 "../../../../os/ports/common/ARMCMx/CMSIS/include/core_cm4.h"