ARM GAS  /tmp/ccYsm7RN.s 			page 1


   1              		.syntax unified
   2              		.cpu cortex-m4
   3              		.eabi_attribute 27, 3
   4              		.fpu fpv4-sp-d16
   5              		.eabi_attribute 20, 1
   6              		.eabi_attribute 21, 1
   7              		.eabi_attribute 23, 3
   8              		.eabi_attribute 24, 1
   9              		.eabi_attribute 25, 1
  10              		.eabi_attribute 26, 1
  11              		.eabi_attribute 30, 2
  12              		.eabi_attribute 34, 1
  13              		.eabi_attribute 18, 4
  14              		.thumb
  15              		.file	"usb.c"
  16              		.text
  17              	.Ltext0:
  18              		.cfi_sections	.debug_frame
  19              		.section	.text.set_address,"ax",%progbits
  20              		.align	2
  21              		.p2align 4,,15
  22              		.thumb
  23              		.thumb_func
  24              		.type	set_address, %function
  25              	set_address:
  26              	.LFB118:
  27              		.file 1 "../../../../os/hal/src/usb.c"
  28              		.loc 1 62 0
  29              		.cfi_startproc
  30              		@ args = 0, pretend = 0, frame = 0
  31              		@ frame_needed = 0, uses_anonymous_args = 0
  32              	.LVL0:
  33 0000 10B5     		push	{r4, lr}
  34              		.cfi_def_cfa_offset 8
  35              		.cfi_offset 4, -8
  36              		.cfi_offset 14, -4
  37              		.loc 1 62 0
  38 0002 0446     		mov	r4, r0
  39              		.loc 1 64 0
  40 0004 90F87630 		ldrb	r3, [r0, #118]	@ zero_extendqisi2
  41 0008 80F87E30 		strb	r3, [r0, #126]
  42              		.loc 1 65 0
  43 000c FFF7FEFF 		bl	usb_lld_set_address
  44              	.LVL1:
  45              		.loc 1 66 0
  46 0010 6368     		ldr	r3, [r4, #4]
  47 0012 1B68     		ldr	r3, [r3]
  48 0014 13B1     		cbz	r3, .L2
  49              		.loc 1 66 0 is_stmt 0 discriminator 1
  50 0016 2046     		mov	r0, r4
  51 0018 0121     		movs	r1, #1
  52 001a 9847     		blx	r3
  53              	.LVL2:
  54              	.L2:
  55              		.loc 1 67 0 is_stmt 1
  56 001c 0323     		movs	r3, #3
  57 001e 2370     		strb	r3, [r4]
ARM GAS  /tmp/ccYsm7RN.s 			page 2


  58 0020 10BD     		pop	{r4, pc}
  59              		.cfi_endproc
  60              	.LFE118:
  61              		.size	set_address, .-set_address
  62 0022 00BFAFF3 		.section	.text.usbInit,"ax",%progbits
  62      0080AFF3 
  62      0080AFF3 
  62      0080
  63              		.align	2
  64              		.p2align 4,,15
  65              		.global	usbInit
  66              		.thumb
  67              		.thumb_func
  68              		.type	usbInit, %function
  69              	usbInit:
  70              	.LFB120:
  71              		.loc 1 228 0
  72              		.cfi_startproc
  73              		@ args = 0, pretend = 0, frame = 0
  74              		@ frame_needed = 0, uses_anonymous_args = 0
  75              		@ link register save eliminated.
  76              		.loc 1 230 0
  77 0000 FFF7FEBF 		b	usb_lld_init
  78              	.LVL3:
  79              		.cfi_endproc
  80              	.LFE120:
  81              		.size	usbInit, .-usbInit
  82 0004 AFF30080 		.section	.text.usbObjectInit,"ax",%progbits
  82      AFF30080 
  82      AFF30080 
  83              		.align	2
  84              		.p2align 4,,15
  85              		.global	usbObjectInit
  86              		.thumb
  87              		.thumb_func
  88              		.type	usbObjectInit, %function
  89              	usbObjectInit:
  90              	.LFB121:
  91              		.loc 1 240 0
  92              		.cfi_startproc
  93              		@ args = 0, pretend = 0, frame = 0
  94              		@ frame_needed = 0, uses_anonymous_args = 0
  95              		@ link register save eliminated.
  96              	.LVL4:
  97              		.loc 1 243 0
  98 0000 0123     		movs	r3, #1
  99              		.loc 1 244 0
 100 0002 0021     		movs	r1, #0
 101              		.loc 1 243 0
 102 0004 0370     		strb	r3, [r0]
 103              		.loc 1 244 0
 104 0006 4160     		str	r1, [r0, #4]
 105              	.LVL5:
 106 0008 0346     		mov	r3, r0
 107 000a 0722     		movs	r2, #7
 108              	.LVL6:
 109              	.L10:
ARM GAS  /tmp/ccYsm7RN.s 			page 3


 110              		.loc 1 245 0 discriminator 2
 111 000c 013A     		subs	r2, r2, #1
 112              	.LVL7:
 113              		.loc 1 246 0 discriminator 2
 114 000e D962     		str	r1, [r3, #44]
 115              		.loc 1 247 0 discriminator 2
 116 0010 9964     		str	r1, [r3, #72]
 117              	.LVL8:
 118 0012 03F10403 		add	r3, r3, #4
 119              		.loc 1 245 0 discriminator 2
 120 0016 F9D1     		bne	.L10
 121              		.loc 1 249 0
 122 0018 0281     		strh	r2, [r0, #8]	@ movhi
 123              		.loc 1 250 0
 124 001a 4281     		strh	r2, [r0, #10]	@ movhi
 125 001c 7047     		bx	lr
 126              		.cfi_endproc
 127              	.LFE121:
 128              		.size	usbObjectInit, .-usbObjectInit
 129 001e 00BF     		.section	.text.usbStart,"ax",%progbits
 130              		.align	2
 131              		.p2align 4,,15
 132              		.global	usbStart
 133              		.thumb
 134              		.thumb_func
 135              		.type	usbStart, %function
 136              	usbStart:
 137              	.LFB122:
 138              		.loc 1 261 0
 139              		.cfi_startproc
 140              		@ args = 0, pretend = 0, frame = 0
 141              		@ frame_needed = 0, uses_anonymous_args = 0
 142              	.LVL9:
 143 0000 38B5     		push	{r3, r4, r5, lr}
 144              		.cfi_def_cfa_offset 16
 145              		.cfi_offset 3, -16
 146              		.cfi_offset 4, -12
 147              		.cfi_offset 5, -8
 148              		.cfi_offset 14, -4
 149              		.loc 1 264 0
 150 0002 0446     		mov	r4, r0
 151              		.loc 1 261 0
 152 0004 0D46     		mov	r5, r1
 153              		.loc 1 264 0
 154 0006 F8B1     		cbz	r0, .L13
 155              		.loc 1 264 0 is_stmt 0 discriminator 2
 156 0008 F1B1     		cbz	r1, .L13
 157              	.LVL10:
 158              	.L14:
 159              	.LBB30:
 160              		.loc 1 266 0 is_stmt 1
 161 000a 2023     		movs	r3, #32
 162              	@ 266 "../../../../os/hal/src/usb.c" 1
 163 000c 83F31188 		msr     BASEPRI, r3
 164              	@ 0 "" 2
 165              		.thumb
 166              	.LBE30:
ARM GAS  /tmp/ccYsm7RN.s 			page 4


 167 0010 FFF7FEFF 		bl	dbg_check_lock
 168              	.LVL11:
 169              		.loc 1 267 0
 170 0014 2378     		ldrb	r3, [r4]	@ zero_extendqisi2
 171 0016 013B     		subs	r3, r3, #1
 172 0018 012B     		cmp	r3, #1
 173 001a 02D9     		bls	.L15
 174              		.loc 1 267 0 is_stmt 0 discriminator 1
 175 001c 0C48     		ldr	r0, .L22
 176 001e FFF7FEFF 		bl	chDbgPanic
 177              	.LVL12:
 178              	.L15:
 179              		.loc 1 269 0 is_stmt 1
 180 0022 0023     		movs	r3, #0
 181 0024 6560     		str	r5, [r4, #4]
 182              	.LVL13:
 183              		.loc 1 271 0
 184 0026 1946     		mov	r1, r3
 185              	.LVL14:
 186              	.L17:
 187 0028 E218     		adds	r2, r4, r3
 188 002a 0433     		adds	r3, r3, #4
 189              		.loc 1 270 0 discriminator 2
 190 002c 202B     		cmp	r3, #32
 191              		.loc 1 271 0 discriminator 2
 192 002e D160     		str	r1, [r2, #12]
 193              		.loc 1 270 0 discriminator 2
 194 0030 FAD1     		bne	.L17
 195              		.loc 1 272 0
 196 0032 2046     		mov	r0, r4
 197 0034 FFF7FEFF 		bl	usb_lld_start
 198              	.LVL15:
 199              		.loc 1 273 0
 200 0038 0223     		movs	r3, #2
 201 003a 2370     		strb	r3, [r4]
 202              		.loc 1 274 0
 203 003c FFF7FEFF 		bl	dbg_check_unlock
 204              	.LVL16:
 205              	.LBB31:
 206 0040 0023     		movs	r3, #0
 207              	@ 274 "../../../../os/hal/src/usb.c" 1
 208 0042 83F31188 		msr     BASEPRI, r3
 209              	@ 0 "" 2
 210              		.thumb
 211 0046 38BD     		pop	{r3, r4, r5, pc}
 212              	.LVL17:
 213              	.L13:
 214              	.LBE31:
 215              		.loc 1 264 0 discriminator 1
 216 0048 0248     		ldr	r0, .L22+4
 217              	.LVL18:
 218 004a FFF7FEFF 		bl	chDbgPanic
 219              	.LVL19:
 220 004e DCE7     		b	.L14
 221              	.L23:
 222              		.align	2
 223              	.L22:
ARM GAS  /tmp/ccYsm7RN.s 			page 5


 224 0050 10000000 		.word	.LC1
 225 0054 00000000 		.word	.LC0
 226              		.cfi_endproc
 227              	.LFE122:
 228              		.size	usbStart, .-usbStart
 229 0058 AFF30080 		.section	.text.usbStop,"ax",%progbits
 229      AFF30080 
 230              		.align	2
 231              		.p2align 4,,15
 232              		.global	usbStop
 233              		.thumb
 234              		.thumb_func
 235              		.type	usbStop, %function
 236              	usbStop:
 237              	.LFB123:
 238              		.loc 1 284 0
 239              		.cfi_startproc
 240              		@ args = 0, pretend = 0, frame = 0
 241              		@ frame_needed = 0, uses_anonymous_args = 0
 242              	.LVL20:
 243 0000 10B5     		push	{r4, lr}
 244              		.cfi_def_cfa_offset 8
 245              		.cfi_offset 4, -8
 246              		.cfi_offset 14, -4
 247              		.loc 1 286 0
 248 0002 0446     		mov	r4, r0
 249 0004 B0B1     		cbz	r0, .L27
 250              	.LVL21:
 251              	.L25:
 252              	.LBB32:
 253              		.loc 1 288 0
 254 0006 2023     		movs	r3, #32
 255              	@ 288 "../../../../os/hal/src/usb.c" 1
 256 0008 83F31188 		msr     BASEPRI, r3
 257              	@ 0 "" 2
 258              		.thumb
 259              	.LBE32:
 260 000c FFF7FEFF 		bl	dbg_check_lock
 261              	.LVL22:
 262              		.loc 1 289 0
 263 0010 2378     		ldrb	r3, [r4]	@ zero_extendqisi2
 264 0012 013B     		subs	r3, r3, #1
 265 0014 032B     		cmp	r3, #3
 266 0016 02D9     		bls	.L26
 267              		.loc 1 289 0 is_stmt 0 discriminator 1
 268 0018 0848     		ldr	r0, .L28
 269 001a FFF7FEFF 		bl	chDbgPanic
 270              	.LVL23:
 271              	.L26:
 272              		.loc 1 292 0 is_stmt 1
 273 001e 2046     		mov	r0, r4
 274 0020 FFF7FEFF 		bl	usb_lld_stop
 275              	.LVL24:
 276              		.loc 1 293 0
 277 0024 0123     		movs	r3, #1
 278 0026 2370     		strb	r3, [r4]
 279              		.loc 1 294 0
ARM GAS  /tmp/ccYsm7RN.s 			page 6


 280 0028 FFF7FEFF 		bl	dbg_check_unlock
 281              	.LVL25:
 282              	.LBB33:
 283 002c 0023     		movs	r3, #0
 284              	@ 294 "../../../../os/hal/src/usb.c" 1
 285 002e 83F31188 		msr     BASEPRI, r3
 286              	@ 0 "" 2
 287              		.thumb
 288 0032 10BD     		pop	{r4, pc}
 289              	.LVL26:
 290              	.L27:
 291              	.LBE33:
 292              		.loc 1 286 0 discriminator 1
 293 0034 0248     		ldr	r0, .L28+4
 294              	.LVL27:
 295 0036 FFF7FEFF 		bl	chDbgPanic
 296              	.LVL28:
 297 003a E4E7     		b	.L25
 298              	.L29:
 299              		.align	2
 300              	.L28:
 301 003c 2C000000 		.word	.LC3
 302 0040 20000000 		.word	.LC2
 303              		.cfi_endproc
 304              	.LFE123:
 305              		.size	usbStop, .-usbStop
 306 0044 AFF30080 		.section	.text.usbInitEndpointI,"ax",%progbits
 306      AFF30080 
 306      AFF30080 
 307              		.align	2
 308              		.p2align 4,,15
 309              		.global	usbInitEndpointI
 310              		.thumb
 311              		.thumb_func
 312              		.type	usbInitEndpointI, %function
 313              	usbInitEndpointI:
 314              	.LFB124:
 315              		.loc 1 311 0
 316              		.cfi_startproc
 317              		@ args = 0, pretend = 0, frame = 0
 318              		@ frame_needed = 0, uses_anonymous_args = 0
 319              	.LVL29:
 320 0000 F8B5     		push	{r3, r4, r5, r6, r7, lr}
 321              		.cfi_def_cfa_offset 24
 322              		.cfi_offset 3, -24
 323              		.cfi_offset 4, -20
 324              		.cfi_offset 5, -16
 325              		.cfi_offset 6, -12
 326              		.cfi_offset 7, -8
 327              		.cfi_offset 14, -4
 328              		.loc 1 311 0
 329 0002 0446     		mov	r4, r0
 330 0004 0E46     		mov	r6, r1
 331 0006 1546     		mov	r5, r2
 332              		.loc 1 313 0
 333 0008 FFF7FEFF 		bl	chDbgCheckClassI
 334              	.LVL30:
ARM GAS  /tmp/ccYsm7RN.s 			page 7


 335              		.loc 1 314 0
 336 000c 04B3     		cbz	r4, .L31
 337              		.loc 1 314 0 is_stmt 0 discriminator 2
 338 000e FDB1     		cbz	r5, .L31
 339              	.L32:
 340              		.loc 1 315 0 is_stmt 1
 341 0010 2378     		ldrb	r3, [r4]	@ zero_extendqisi2
 342 0012 042B     		cmp	r3, #4
 343 0014 02D0     		beq	.L33
 344              		.loc 1 315 0 is_stmt 0 discriminator 1
 345 0016 1048     		ldr	r0, .L52
 346 0018 FFF7FEFF 		bl	chDbgPanic
 347              	.LVL31:
 348              	.L33:
 349 001c 04EB8607 		add	r7, r4, r6, lsl #2
 350              		.loc 1 317 0 is_stmt 1
 351 0020 FB68     		ldr	r3, [r7, #12]
 352 0022 13B1     		cbz	r3, .L34
 353              		.loc 1 317 0 is_stmt 0 discriminator 1
 354 0024 0D48     		ldr	r0, .L52+4
 355 0026 FFF7FEFF 		bl	chDbgPanic
 356              	.LVL32:
 357              	.L34:
 358              		.loc 1 321 0 is_stmt 1
 359 002a 6869     		ldr	r0, [r5, #20]
 360 002c 18B1     		cbz	r0, .L35
 361              		.loc 1 322 0
 362 002e 0021     		movs	r1, #0
 363 0030 1022     		movs	r2, #16
 364 0032 FFF7FEFF 		bl	memset
 365              	.LVL33:
 366              	.L35:
 367              		.loc 1 323 0
 368 0036 A869     		ldr	r0, [r5, #24]
 369 0038 18B1     		cbz	r0, .L36
 370              		.loc 1 324 0
 371 003a 0021     		movs	r1, #0
 372 003c 1422     		movs	r2, #20
 373 003e FFF7FEFF 		bl	memset
 374              	.LVL34:
 375              	.L36:
 376              		.loc 1 326 0
 377 0042 FD60     		str	r5, [r7, #12]
 378              		.loc 1 329 0
 379 0044 2046     		mov	r0, r4
 380 0046 3146     		mov	r1, r6
 381              		.loc 1 330 0
 382 0048 BDE8F840 		pop	{r3, r4, r5, r6, r7, lr}
 383              	.LVL35:
 384              		.loc 1 329 0
 385 004c FFF7FEBF 		b	usb_lld_init_endpoint
 386              	.LVL36:
 387              	.L31:
 388              		.loc 1 314 0 discriminator 1
 389 0050 0348     		ldr	r0, .L52+8
 390 0052 FFF7FEFF 		bl	chDbgPanic
 391              	.LVL37:
ARM GAS  /tmp/ccYsm7RN.s 			page 8


 392 0056 DBE7     		b	.L32
 393              	.L53:
 394              		.align	2
 395              	.L52:
 396 0058 54000000 		.word	.LC5
 397 005c 70000000 		.word	.LC6
 398 0060 3C000000 		.word	.LC4
 399              		.cfi_endproc
 400              	.LFE124:
 401              		.size	usbInitEndpointI, .-usbInitEndpointI
 402 0064 AFF30080 		.section	.text.usbDisableEndpointsI,"ax",%progbits
 402      AFF30080 
 402      AFF30080 
 403              		.align	2
 404              		.p2align 4,,15
 405              		.global	usbDisableEndpointsI
 406              		.thumb
 407              		.thumb_func
 408              		.type	usbDisableEndpointsI, %function
 409              	usbDisableEndpointsI:
 410              	.LFB125:
 411              		.loc 1 343 0
 412              		.cfi_startproc
 413              		@ args = 0, pretend = 0, frame = 0
 414              		@ frame_needed = 0, uses_anonymous_args = 0
 415              	.LVL38:
 416 0000 10B5     		push	{r4, lr}
 417              		.cfi_def_cfa_offset 8
 418              		.cfi_offset 4, -8
 419              		.cfi_offset 14, -4
 420              		.loc 1 343 0
 421 0002 0446     		mov	r4, r0
 422              		.loc 1 346 0
 423 0004 FFF7FEFF 		bl	chDbgCheckClassI
 424              	.LVL39:
 425              		.loc 1 347 0
 426 0008 CCB1     		cbz	r4, .L63
 427              	.L55:
 428              		.loc 1 348 0
 429 000a 2378     		ldrb	r3, [r4]	@ zero_extendqisi2
 430 000c 032B     		cmp	r3, #3
 431 000e 02D0     		beq	.L56
 432              		.loc 1 348 0 is_stmt 0 discriminator 1
 433 0010 0D48     		ldr	r0, .L64
 434 0012 FFF7FEFF 		bl	chDbgPanic
 435              	.LVL40:
 436              	.L56:
 437              		.loc 1 351 0 is_stmt 1
 438 0016 2189     		ldrh	r1, [r4, #8]
 439              		.loc 1 352 0
 440 0018 6289     		ldrh	r2, [r4, #10]
 441              		.loc 1 351 0
 442 001a 21F00101 		bic	r1, r1, #1
 443              		.loc 1 352 0
 444 001e 22F00102 		bic	r2, r2, #1
 445 0022 0023     		movs	r3, #0
 446              		.loc 1 351 0
ARM GAS  /tmp/ccYsm7RN.s 			page 9


 447 0024 2181     		strh	r1, [r4, #8]	@ movhi
 448              		.loc 1 352 0
 449 0026 6281     		strh	r2, [r4, #10]	@ movhi
 450              	.LVL41:
 451              		.loc 1 354 0
 452 0028 1946     		mov	r1, r3
 453              	.LVL42:
 454              	.L58:
 455 002a E218     		adds	r2, r4, r3
 456 002c 0433     		adds	r3, r3, #4
 457              		.loc 1 353 0 discriminator 2
 458 002e 1C2B     		cmp	r3, #28
 459              		.loc 1 354 0 discriminator 2
 460 0030 1161     		str	r1, [r2, #16]
 461              		.loc 1 353 0 discriminator 2
 462 0032 FAD1     		bne	.L58
 463              		.loc 1 357 0
 464 0034 2046     		mov	r0, r4
 465              		.loc 1 358 0
 466 0036 BDE81040 		pop	{r4, lr}
 467              	.LVL43:
 468              		.loc 1 357 0
 469 003a FFF7FEBF 		b	usb_lld_disable_endpoints
 470              	.LVL44:
 471              	.L63:
 472              		.loc 1 347 0 discriminator 1
 473 003e 0348     		ldr	r0, .L64+4
 474 0040 FFF7FEFF 		bl	chDbgPanic
 475              	.LVL45:
 476 0044 E1E7     		b	.L55
 477              	.L65:
 478 0046 00BF     		.align	2
 479              	.L64:
 480 0048 A8000000 		.word	.LC8
 481 004c 8C000000 		.word	.LC7
 482              		.cfi_endproc
 483              	.LFE125:
 484              		.size	usbDisableEndpointsI, .-usbDisableEndpointsI
 485              		.section	.text.usbPrepareReceive,"ax",%progbits
 486              		.align	2
 487              		.p2align 4,,15
 488              		.global	usbPrepareReceive
 489              		.thumb
 490              		.thumb_func
 491              		.type	usbPrepareReceive, %function
 492              	usbPrepareReceive:
 493              	.LFB126:
 494              		.loc 1 372 0
 495              		.cfi_startproc
 496              		@ args = 0, pretend = 0, frame = 0
 497              		@ frame_needed = 0, uses_anonymous_args = 0
 498              		@ link register save eliminated.
 499              	.LVL46:
 500 0000 30B4     		push	{r4, r5}
 501              		.cfi_def_cfa_offset 8
 502              		.cfi_offset 4, -8
 503              		.cfi_offset 5, -4
ARM GAS  /tmp/ccYsm7RN.s 			page 10


 504              		.loc 1 373 0
 505 0002 00EB8104 		add	r4, r0, r1, lsl #2
 506              		.loc 1 375 0
 507 0006 0025     		movs	r5, #0
 508              		.loc 1 373 0
 509 0008 E468     		ldr	r4, [r4, #12]
 510 000a A469     		ldr	r4, [r4, #24]
 511              	.LVL47:
 512              		.loc 1 376 0
 513 000c E260     		str	r2, [r4, #12]
 514              		.loc 1 377 0
 515 000e 6360     		str	r3, [r4, #4]
 516              		.loc 1 375 0
 517 0010 2570     		strb	r5, [r4]
 518              		.loc 1 378 0
 519 0012 A560     		str	r5, [r4, #8]
 520              		.loc 1 381 0
 521 0014 30BC     		pop	{r4, r5}
 522              	.LVL48:
 523              		.loc 1 380 0
 524 0016 FFF7FEBF 		b	usb_lld_prepare_receive
 525              	.LVL49:
 526              		.cfi_endproc
 527              	.LFE126:
 528              		.size	usbPrepareReceive, .-usbPrepareReceive
 529 001a 00BFAFF3 		.section	.text.usbPrepareTransmit,"ax",%progbits
 529      0080
 530              		.align	2
 531              		.p2align 4,,15
 532              		.global	usbPrepareTransmit
 533              		.thumb
 534              		.thumb_func
 535              		.type	usbPrepareTransmit, %function
 536              	usbPrepareTransmit:
 537              	.LFB127:
 538              		.loc 1 398 0
 539              		.cfi_startproc
 540              		@ args = 0, pretend = 0, frame = 0
 541              		@ frame_needed = 0, uses_anonymous_args = 0
 542              		@ link register save eliminated.
 543              	.LVL50:
 544 0000 30B4     		push	{r4, r5}
 545              		.cfi_def_cfa_offset 8
 546              		.cfi_offset 4, -8
 547              		.cfi_offset 5, -4
 548              		.loc 1 399 0
 549 0002 00EB8104 		add	r4, r0, r1, lsl #2
 550              		.loc 1 401 0
 551 0006 0025     		movs	r5, #0
 552              		.loc 1 399 0
 553 0008 E468     		ldr	r4, [r4, #12]
 554 000a 6469     		ldr	r4, [r4, #20]
 555              	.LVL51:
 556              		.loc 1 402 0
 557 000c E260     		str	r2, [r4, #12]
 558              		.loc 1 403 0
 559 000e 6360     		str	r3, [r4, #4]
ARM GAS  /tmp/ccYsm7RN.s 			page 11


 560              		.loc 1 401 0
 561 0010 2570     		strb	r5, [r4]
 562              		.loc 1 404 0
 563 0012 A560     		str	r5, [r4, #8]
 564              		.loc 1 407 0
 565 0014 30BC     		pop	{r4, r5}
 566              	.LVL52:
 567              		.loc 1 406 0
 568 0016 FFF7FEBF 		b	usb_lld_prepare_transmit
 569              	.LVL53:
 570              		.cfi_endproc
 571              	.LFE127:
 572              		.size	usbPrepareTransmit, .-usbPrepareTransmit
 573 001a 00BFAFF3 		.section	.text.usbPrepareQueuedReceive,"ax",%progbits
 573      0080
 574              		.align	2
 575              		.p2align 4,,15
 576              		.global	usbPrepareQueuedReceive
 577              		.thumb
 578              		.thumb_func
 579              		.type	usbPrepareQueuedReceive, %function
 580              	usbPrepareQueuedReceive:
 581              	.LFB128:
 582              		.loc 1 427 0
 583              		.cfi_startproc
 584              		@ args = 0, pretend = 0, frame = 0
 585              		@ frame_needed = 0, uses_anonymous_args = 0
 586              		@ link register save eliminated.
 587              	.LVL54:
 588 0000 70B4     		push	{r4, r5, r6}
 589              		.cfi_def_cfa_offset 12
 590              		.cfi_offset 4, -12
 591              		.cfi_offset 5, -8
 592              		.cfi_offset 6, -4
 593              		.loc 1 428 0
 594 0002 00EB8104 		add	r4, r0, r1, lsl #2
 595              		.loc 1 430 0
 596 0006 0126     		movs	r6, #1
 597              		.loc 1 428 0
 598 0008 E468     		ldr	r4, [r4, #12]
 599 000a A469     		ldr	r4, [r4, #24]
 600              	.LVL55:
 601              		.loc 1 433 0
 602 000c 0025     		movs	r5, #0
 603              		.loc 1 431 0
 604 000e E260     		str	r2, [r4, #12]
 605              		.loc 1 432 0
 606 0010 6360     		str	r3, [r4, #4]
 607              		.loc 1 430 0
 608 0012 2670     		strb	r6, [r4]
 609              		.loc 1 433 0
 610 0014 A560     		str	r5, [r4, #8]
 611              		.loc 1 436 0
 612 0016 70BC     		pop	{r4, r5, r6}
 613              	.LVL56:
 614              		.loc 1 435 0
 615 0018 FFF7FEBF 		b	usb_lld_prepare_receive
ARM GAS  /tmp/ccYsm7RN.s 			page 12


 616              	.LVL57:
 617              		.cfi_endproc
 618              	.LFE128:
 619              		.size	usbPrepareQueuedReceive, .-usbPrepareQueuedReceive
 620 001c AFF30080 		.section	.text.usbPrepareQueuedTransmit,"ax",%progbits
 621              		.align	2
 622              		.p2align 4,,15
 623              		.global	usbPrepareQueuedTransmit
 624              		.thumb
 625              		.thumb_func
 626              		.type	usbPrepareQueuedTransmit, %function
 627              	usbPrepareQueuedTransmit:
 628              	.LFB129:
 629              		.loc 1 453 0
 630              		.cfi_startproc
 631              		@ args = 0, pretend = 0, frame = 0
 632              		@ frame_needed = 0, uses_anonymous_args = 0
 633              		@ link register save eliminated.
 634              	.LVL58:
 635 0000 70B4     		push	{r4, r5, r6}
 636              		.cfi_def_cfa_offset 12
 637              		.cfi_offset 4, -12
 638              		.cfi_offset 5, -8
 639              		.cfi_offset 6, -4
 640              		.loc 1 454 0
 641 0002 00EB8104 		add	r4, r0, r1, lsl #2
 642              		.loc 1 456 0
 643 0006 0126     		movs	r6, #1
 644              		.loc 1 454 0
 645 0008 E468     		ldr	r4, [r4, #12]
 646 000a 6469     		ldr	r4, [r4, #20]
 647              	.LVL59:
 648              		.loc 1 459 0
 649 000c 0025     		movs	r5, #0
 650              		.loc 1 457 0
 651 000e E260     		str	r2, [r4, #12]
 652              		.loc 1 458 0
 653 0010 6360     		str	r3, [r4, #4]
 654              		.loc 1 456 0
 655 0012 2670     		strb	r6, [r4]
 656              		.loc 1 459 0
 657 0014 A560     		str	r5, [r4, #8]
 658              		.loc 1 462 0
 659 0016 70BC     		pop	{r4, r5, r6}
 660              	.LVL60:
 661              		.loc 1 461 0
 662 0018 FFF7FEBF 		b	usb_lld_prepare_transmit
 663              	.LVL61:
 664              		.cfi_endproc
 665              	.LFE129:
 666              		.size	usbPrepareQueuedTransmit, .-usbPrepareQueuedTransmit
 667 001c AFF30080 		.section	.text.usbStartReceiveI,"ax",%progbits
 668              		.align	2
 669              		.p2align 4,,15
 670              		.global	usbStartReceiveI
 671              		.thumb
 672              		.thumb_func
ARM GAS  /tmp/ccYsm7RN.s 			page 13


 673              		.type	usbStartReceiveI, %function
 674              	usbStartReceiveI:
 675              	.LFB130:
 676              		.loc 1 478 0
 677              		.cfi_startproc
 678              		@ args = 0, pretend = 0, frame = 0
 679              		@ frame_needed = 0, uses_anonymous_args = 0
 680              	.LVL62:
 681 0000 70B5     		push	{r4, r5, r6, lr}
 682              		.cfi_def_cfa_offset 16
 683              		.cfi_offset 4, -16
 684              		.cfi_offset 5, -12
 685              		.cfi_offset 6, -8
 686              		.cfi_offset 14, -4
 687              		.loc 1 478 0
 688 0002 0446     		mov	r4, r0
 689 0004 0D46     		mov	r5, r1
 690              		.loc 1 480 0
 691 0006 FFF7FEFF 		bl	chDbgCheckClassI
 692              	.LVL63:
 693              		.loc 1 481 0
 694 000a 8CB1     		cbz	r4, .L74
 695              	.L71:
 696              		.loc 1 483 0
 697 000c 6389     		ldrh	r3, [r4, #10]
 698 000e 43FA05F0 		asr	r0, r3, r5
 699 0012 10F00106 		ands	r6, r0, #1
 700 0016 01D0     		beq	.L75
 701              		.loc 1 484 0
 702 0018 0120     		movs	r0, #1
 703              		.loc 1 489 0
 704 001a 70BD     		pop	{r4, r5, r6, pc}
 705              	.LVL64:
 706              	.L75:
 707              		.loc 1 486 0
 708 001c 0122     		movs	r2, #1
 709 001e AA40     		lsls	r2, r2, r5
 710 0020 1343     		orrs	r3, r3, r2
 711              		.loc 1 487 0
 712 0022 2046     		mov	r0, r4
 713              		.loc 1 486 0
 714 0024 6381     		strh	r3, [r4, #10]	@ movhi
 715              		.loc 1 487 0
 716 0026 2946     		mov	r1, r5
 717 0028 FFF7FEFF 		bl	usb_lld_start_out
 718              	.LVL65:
 719              		.loc 1 488 0
 720 002c 3046     		mov	r0, r6
 721 002e 70BD     		pop	{r4, r5, r6, pc}
 722              	.LVL66:
 723              	.L74:
 724              		.loc 1 481 0 discriminator 1
 725 0030 0148     		ldr	r0, .L76
 726 0032 FFF7FEFF 		bl	chDbgPanic
 727              	.LVL67:
 728 0036 E9E7     		b	.L71
 729              	.L77:
ARM GAS  /tmp/ccYsm7RN.s 			page 14


 730              		.align	2
 731              	.L76:
 732 0038 C4000000 		.word	.LC9
 733              		.cfi_endproc
 734              	.LFE130:
 735              		.size	usbStartReceiveI, .-usbStartReceiveI
 736 003c AFF30080 		.section	.text.usbStartTransmitI,"ax",%progbits
 737              		.align	2
 738              		.p2align 4,,15
 739              		.global	usbStartTransmitI
 740              		.thumb
 741              		.thumb_func
 742              		.type	usbStartTransmitI, %function
 743              	usbStartTransmitI:
 744              	.LFB131:
 745              		.loc 1 505 0
 746              		.cfi_startproc
 747              		@ args = 0, pretend = 0, frame = 0
 748              		@ frame_needed = 0, uses_anonymous_args = 0
 749              	.LVL68:
 750 0000 70B5     		push	{r4, r5, r6, lr}
 751              		.cfi_def_cfa_offset 16
 752              		.cfi_offset 4, -16
 753              		.cfi_offset 5, -12
 754              		.cfi_offset 6, -8
 755              		.cfi_offset 14, -4
 756              		.loc 1 505 0
 757 0002 0446     		mov	r4, r0
 758 0004 0D46     		mov	r5, r1
 759              		.loc 1 507 0
 760 0006 FFF7FEFF 		bl	chDbgCheckClassI
 761              	.LVL69:
 762              		.loc 1 508 0
 763 000a 8CB1     		cbz	r4, .L82
 764              	.L79:
 765              		.loc 1 510 0
 766 000c 2389     		ldrh	r3, [r4, #8]
 767 000e 43FA05F0 		asr	r0, r3, r5
 768 0012 10F00106 		ands	r6, r0, #1
 769 0016 01D0     		beq	.L83
 770              		.loc 1 511 0
 771 0018 0120     		movs	r0, #1
 772              		.loc 1 516 0
 773 001a 70BD     		pop	{r4, r5, r6, pc}
 774              	.LVL70:
 775              	.L83:
 776              		.loc 1 513 0
 777 001c 0122     		movs	r2, #1
 778 001e AA40     		lsls	r2, r2, r5
 779 0020 1343     		orrs	r3, r3, r2
 780              		.loc 1 514 0
 781 0022 2046     		mov	r0, r4
 782              		.loc 1 513 0
 783 0024 2381     		strh	r3, [r4, #8]	@ movhi
 784              		.loc 1 514 0
 785 0026 2946     		mov	r1, r5
 786 0028 FFF7FEFF 		bl	usb_lld_start_in
ARM GAS  /tmp/ccYsm7RN.s 			page 15


 787              	.LVL71:
 788              		.loc 1 515 0
 789 002c 3046     		mov	r0, r6
 790 002e 70BD     		pop	{r4, r5, r6, pc}
 791              	.LVL72:
 792              	.L82:
 793              		.loc 1 508 0 discriminator 1
 794 0030 0148     		ldr	r0, .L84
 795 0032 FFF7FEFF 		bl	chDbgPanic
 796              	.LVL73:
 797 0036 E9E7     		b	.L79
 798              	.L85:
 799              		.align	2
 800              	.L84:
 801 0038 DC000000 		.word	.LC10
 802              		.cfi_endproc
 803              	.LFE131:
 804              		.size	usbStartTransmitI, .-usbStartTransmitI
 805 003c AFF30080 		.section	.text.usbStallReceiveI,"ax",%progbits
 806              		.align	2
 807              		.p2align 4,,15
 808              		.global	usbStallReceiveI
 809              		.thumb
 810              		.thumb_func
 811              		.type	usbStallReceiveI, %function
 812              	usbStallReceiveI:
 813              	.LFB132:
 814              		.loc 1 530 0
 815              		.cfi_startproc
 816              		@ args = 0, pretend = 0, frame = 0
 817              		@ frame_needed = 0, uses_anonymous_args = 0
 818              	.LVL74:
 819 0000 70B5     		push	{r4, r5, r6, lr}
 820              		.cfi_def_cfa_offset 16
 821              		.cfi_offset 4, -16
 822              		.cfi_offset 5, -12
 823              		.cfi_offset 6, -8
 824              		.cfi_offset 14, -4
 825              		.loc 1 530 0
 826 0002 0446     		mov	r4, r0
 827 0004 0D46     		mov	r5, r1
 828              		.loc 1 532 0
 829 0006 FFF7FEFF 		bl	chDbgCheckClassI
 830              	.LVL75:
 831              		.loc 1 533 0
 832 000a 64B1     		cbz	r4, .L90
 833              	.L87:
 834              		.loc 1 535 0
 835 000c 6089     		ldrh	r0, [r4, #10]
 836 000e 2841     		asrs	r0, r0, r5
 837 0010 10F00106 		ands	r6, r0, #1
 838 0014 01D0     		beq	.L91
 839              		.loc 1 536 0
 840 0016 0120     		movs	r0, #1
 841              		.loc 1 540 0
 842 0018 70BD     		pop	{r4, r5, r6, pc}
 843              	.LVL76:
ARM GAS  /tmp/ccYsm7RN.s 			page 16


 844              	.L91:
 845              		.loc 1 538 0
 846 001a 2046     		mov	r0, r4
 847 001c 2946     		mov	r1, r5
 848 001e FFF7FEFF 		bl	usb_lld_stall_out
 849              	.LVL77:
 850              		.loc 1 539 0
 851 0022 3046     		mov	r0, r6
 852 0024 70BD     		pop	{r4, r5, r6, pc}
 853              	.LVL78:
 854              	.L90:
 855              		.loc 1 533 0 discriminator 1
 856 0026 0248     		ldr	r0, .L92
 857 0028 FFF7FEFF 		bl	chDbgPanic
 858              	.LVL79:
 859 002c EEE7     		b	.L87
 860              	.L93:
 861 002e 00BF     		.align	2
 862              	.L92:
 863 0030 F4000000 		.word	.LC11
 864              		.cfi_endproc
 865              	.LFE132:
 866              		.size	usbStallReceiveI, .-usbStallReceiveI
 867 0034 AFF30080 		.section	.text.usbStallTransmitI,"ax",%progbits
 867      AFF30080 
 867      AFF30080 
 868              		.align	2
 869              		.p2align 4,,15
 870              		.global	usbStallTransmitI
 871              		.thumb
 872              		.thumb_func
 873              		.type	usbStallTransmitI, %function
 874              	usbStallTransmitI:
 875              	.LFB133:
 876              		.loc 1 554 0
 877              		.cfi_startproc
 878              		@ args = 0, pretend = 0, frame = 0
 879              		@ frame_needed = 0, uses_anonymous_args = 0
 880              	.LVL80:
 881 0000 70B5     		push	{r4, r5, r6, lr}
 882              		.cfi_def_cfa_offset 16
 883              		.cfi_offset 4, -16
 884              		.cfi_offset 5, -12
 885              		.cfi_offset 6, -8
 886              		.cfi_offset 14, -4
 887              		.loc 1 554 0
 888 0002 0446     		mov	r4, r0
 889 0004 0D46     		mov	r5, r1
 890              		.loc 1 556 0
 891 0006 FFF7FEFF 		bl	chDbgCheckClassI
 892              	.LVL81:
 893              		.loc 1 557 0
 894 000a 64B1     		cbz	r4, .L98
 895              	.L95:
 896              		.loc 1 559 0
 897 000c 2089     		ldrh	r0, [r4, #8]
 898 000e 2841     		asrs	r0, r0, r5
ARM GAS  /tmp/ccYsm7RN.s 			page 17


 899 0010 10F00106 		ands	r6, r0, #1
 900 0014 01D0     		beq	.L99
 901              		.loc 1 560 0
 902 0016 0120     		movs	r0, #1
 903              		.loc 1 564 0
 904 0018 70BD     		pop	{r4, r5, r6, pc}
 905              	.LVL82:
 906              	.L99:
 907              		.loc 1 562 0
 908 001a 2046     		mov	r0, r4
 909 001c 2946     		mov	r1, r5
 910 001e FFF7FEFF 		bl	usb_lld_stall_in
 911              	.LVL83:
 912              		.loc 1 563 0
 913 0022 3046     		mov	r0, r6
 914 0024 70BD     		pop	{r4, r5, r6, pc}
 915              	.LVL84:
 916              	.L98:
 917              		.loc 1 557 0 discriminator 1
 918 0026 0248     		ldr	r0, .L100
 919 0028 FFF7FEFF 		bl	chDbgPanic
 920              	.LVL85:
 921 002c EEE7     		b	.L95
 922              	.L101:
 923 002e 00BF     		.align	2
 924              	.L100:
 925 0030 0C010000 		.word	.LC12
 926              		.cfi_endproc
 927              	.LFE133:
 928              		.size	usbStallTransmitI, .-usbStallTransmitI
 929 0034 AFF30080 		.section	.text._usb_reset,"ax",%progbits
 929      AFF30080 
 929      AFF30080 
 930              		.align	2
 931              		.p2align 4,,15
 932              		.global	_usb_reset
 933              		.thumb
 934              		.thumb_func
 935              		.type	_usb_reset, %function
 936              	_usb_reset:
 937              	.LFB134:
 938              		.loc 1 575 0
 939              		.cfi_startproc
 940              		@ args = 0, pretend = 0, frame = 0
 941              		@ frame_needed = 0, uses_anonymous_args = 0
 942              		@ link register save eliminated.
 943              	.LVL86:
 944              		.loc 1 579 0
 945 0000 0022     		movs	r2, #0
 946              		.loc 1 578 0
 947 0002 0221     		movs	r1, #2
 948 0004 0170     		strb	r1, [r0]
 949              		.loc 1 583 0
 950 0006 1346     		mov	r3, r2
 951              		.loc 1 579 0
 952 0008 A0F87C20 		strh	r2, [r0, #124]	@ movhi
 953              		.loc 1 580 0
ARM GAS  /tmp/ccYsm7RN.s 			page 18


 954 000c 80F87E20 		strb	r2, [r0, #126]
 955              		.loc 1 581 0
 956 0010 80F87F20 		strb	r2, [r0, #127]
 957              		.loc 1 582 0
 958 0014 0281     		strh	r2, [r0, #8]	@ movhi
 959              		.loc 1 583 0
 960 0016 4281     		strh	r2, [r0, #10]	@ movhi
 961              	.LVL87:
 962              		.loc 1 587 0
 963 0018 1146     		mov	r1, r2
 964              	.LVL88:
 965              	.L104:
 966 001a C218     		adds	r2, r0, r3
 967 001c 0433     		adds	r3, r3, #4
 968              		.loc 1 586 0 discriminator 2
 969 001e 202B     		cmp	r3, #32
 970              		.loc 1 587 0 discriminator 2
 971 0020 D160     		str	r1, [r2, #12]
 972 0022 4FF00002 		mov	r2, #0
 973              		.loc 1 586 0 discriminator 2
 974 0026 F8D1     		bne	.L104
 975              		.loc 1 590 0
 976 0028 80F86420 		strb	r2, [r0, #100]
 977              		.loc 1 593 0
 978 002c FFF7FEBF 		b	usb_lld_reset
 979              	.LVL89:
 980              		.cfi_endproc
 981              	.LFE134:
 982              		.size	_usb_reset, .-_usb_reset
 983              		.section	.text._usb_ep0setup,"ax",%progbits
 984              		.align	2
 985              		.p2align 4,,15
 986              		.global	_usb_ep0setup
 987              		.thumb
 988              		.thumb_func
 989              		.type	_usb_ep0setup, %function
 990              	_usb_ep0setup:
 991              	.LFB135:
 992              		.loc 1 606 0
 993              		.cfi_startproc
 994              		@ args = 0, pretend = 0, frame = 0
 995              		@ frame_needed = 0, uses_anonymous_args = 0
 996              	.LVL90:
 997 0000 F8B5     		push	{r3, r4, r5, r6, r7, lr}
 998              		.cfi_def_cfa_offset 24
 999              		.cfi_offset 3, -24
 1000              		.cfi_offset 4, -20
 1001              		.cfi_offset 5, -16
 1002              		.cfi_offset 6, -12
 1003              		.cfi_offset 7, -8
 1004              		.cfi_offset 14, -4
 1005              		.loc 1 609 0
 1006 0002 0023     		movs	r3, #0
 1007              		.loc 1 606 0
 1008 0004 0446     		mov	r4, r0
 1009              		.loc 1 609 0
 1010 0006 80F86430 		strb	r3, [r0, #100]
ARM GAS  /tmp/ccYsm7RN.s 			page 19


 1011              		.loc 1 610 0
 1012 000a 00F17402 		add	r2, r0, #116
 1013 000e FFF7FEFF 		bl	usb_lld_read_setup
 1014              	.LVL91:
 1015              		.loc 1 614 0
 1016 0012 6368     		ldr	r3, [r4, #4]
 1017 0014 9B68     		ldr	r3, [r3, #8]
 1018 0016 002B     		cmp	r3, #0
 1019 0018 31D0     		beq	.L111
 1020              		.loc 1 615 0 discriminator 1
 1021 001a 2046     		mov	r0, r4
 1022 001c 9847     		blx	r3
 1023              	.LVL92:
 1024              		.loc 1 614 0 discriminator 1
 1025 001e 70B3     		cbz	r0, .L111
 1026 0020 E56E     		ldr	r5, [r4, #108]
 1027 0022 94F87430 		ldrb	r3, [r4, #116]	@ zero_extendqisi2
 1028              	.L148:
 1029              		.loc 1 634 0
 1030 0026 94F87B10 		ldrb	r1, [r4, #123]	@ zero_extendqisi2
 1031 002a 94F87A20 		ldrb	r2, [r4, #122]	@ zero_extendqisi2
 1032 002e 42EA0122 		orr	r2, r2, r1, lsl #8
 1033              	.LVL93:
 1034              		.loc 1 636 0
 1035 0032 AA42     		cmp	r2, r5
 1036              		.loc 1 637 0
 1037 0034 3CBF     		itt	cc
 1038 0036 E266     		strcc	r2, [r4, #108]
 1039 0038 1546     		movcc	r5, r2
 1040              		.loc 1 638 0
 1041 003a 13F0800F 		tst	r3, #128
 1042              	.LBB52:
 1043              	.LBB53:
 1044              		.loc 1 399 0
 1045 003e E368     		ldr	r3, [r4, #12]
 1046              	.LBE53:
 1047              	.LBE52:
 1048              		.loc 1 638 0
 1049 0040 40F09780 		bne	.L169
 1050              		.loc 1 660 0
 1051 0044 002D     		cmp	r5, #0
 1052 0046 77D1     		bne	.L170
 1053              	.LBB57:
 1054              	.LBB58:
 1055              		.loc 1 399 0
 1056 0048 5B69     		ldr	r3, [r3, #20]
 1057              	.LBE58:
 1058              	.LBE57:
 1059              		.loc 1 671 0
 1060 004a 0522     		movs	r2, #5
 1061              	.LVL94:
 1062 004c 84F86420 		strb	r2, [r4, #100]
 1063              	.LVL95:
 1064              	.LBB60:
 1065              	.LBB59:
 1066              		.loc 1 406 0
 1067 0050 2046     		mov	r0, r4
ARM GAS  /tmp/ccYsm7RN.s 			page 20


 1068              		.loc 1 401 0
 1069 0052 1D70     		strb	r5, [r3]
 1070              	.LVL96:
 1071              		.loc 1 402 0
 1072 0054 DD60     		str	r5, [r3, #12]
 1073              		.loc 1 403 0
 1074 0056 5D60     		str	r5, [r3, #4]
 1075              		.loc 1 404 0
 1076 0058 9D60     		str	r5, [r3, #8]
 1077              		.loc 1 406 0
 1078 005a 2946     		mov	r1, r5
 1079 005c FFF7FEFF 		bl	usb_lld_prepare_transmit
 1080              	.LVL97:
 1081              	.LBE59:
 1082              	.LBE60:
 1083              	.LBB61:
 1084              		.loc 1 673 0
 1085 0060 2023     		movs	r3, #32
 1086              	@ 673 "../../../../os/hal/src/usb.c" 1
 1087 0062 83F31188 		msr     BASEPRI, r3
 1088              	@ 0 "" 2
 1089              		.thumb
 1090              	.LBE61:
 1091 0066 FFF7FEFF 		bl	dbg_check_lock_from_isr
 1092              	.LVL98:
 1093              		.loc 1 674 0
 1094 006a 2946     		mov	r1, r5
 1095 006c 2046     		mov	r0, r4
 1096 006e FFF7FEFF 		bl	usbStartTransmitI
 1097              	.LVL99:
 1098              		.loc 1 675 0
 1099 0072 FFF7FEFF 		bl	dbg_check_unlock_from_isr
 1100              	.LVL100:
 1101              	.LBB62:
 1102 0076 2B46     		mov	r3, r5
 1103              	@ 675 "../../../../os/hal/src/usb.c" 1
 1104 0078 83F31188 		msr     BASEPRI, r3
 1105              	@ 0 "" 2
 1106              		.thumb
 1107 007c F8BD     		pop	{r3, r4, r5, r6, r7, pc}
 1108              	.LVL101:
 1109              	.L111:
 1110              	.LBE62:
 1111              		.loc 1 618 0
 1112 007e 94F87430 		ldrb	r3, [r4, #116]	@ zero_extendqisi2
 1113 0082 13F06007 		ands	r7, r3, #96
 1114 0086 11D0     		beq	.L171
 1115              	.L108:
 1116              		.loc 1 623 0
 1117 0088 2046     		mov	r0, r4
 1118 008a 0021     		movs	r1, #0
 1119 008c FFF7FEFF 		bl	usb_lld_stall_in
 1120              	.LVL102:
 1121              		.loc 1 624 0
 1122 0090 2046     		mov	r0, r4
 1123 0092 0021     		movs	r1, #0
 1124 0094 FFF7FEFF 		bl	usb_lld_stall_out
ARM GAS  /tmp/ccYsm7RN.s 			page 21


 1125              	.LVL103:
 1126              		.loc 1 625 0
 1127 0098 6368     		ldr	r3, [r4, #4]
 1128 009a 1B68     		ldr	r3, [r3]
 1129 009c 13B1     		cbz	r3, .L142
 1130              		.loc 1 625 0 is_stmt 0 discriminator 1
 1131 009e 2046     		mov	r0, r4
 1132 00a0 0521     		movs	r1, #5
 1133 00a2 9847     		blx	r3
 1134              	.LVL104:
 1135              	.L142:
 1136              		.loc 1 626 0 is_stmt 1
 1137 00a4 0623     		movs	r3, #6
 1138 00a6 84F86430 		strb	r3, [r4, #100]
 1139              		.loc 1 627 0
 1140 00aa F8BD     		pop	{r3, r4, r5, r6, r7, pc}
 1141              	.LVL105:
 1142              	.L171:
 1143              	.LBB63:
 1144              	.LBB64:
 1145              		.loc 1 88 0
 1146 00ac 94F87560 		ldrb	r6, [r4, #117]	@ zero_extendqisi2
 1147              		.loc 1 86 0
 1148 00b0 03F07F02 		and	r2, r3, #127
 1149              		.loc 1 87 0
 1150 00b4 42EA0626 		orr	r6, r2, r6, lsl #8
 1151              		.loc 1 86 0
 1152 00b8 B6F5407F 		cmp	r6, #768
 1153 00bc 00F00181 		beq	.L113
 1154 00c0 18DD     		ble	.L172
 1155 00c2 B6F5C06F 		cmp	r6, #1536
 1156 00c6 00F0E380 		beq	.L121
 1157 00ca 40F38B80 		ble	.L173
 1158 00ce B6F5106F 		cmp	r6, #2304
 1159 00d2 00F09580 		beq	.L125
 1160 00d6 40F60242 		movw	r2, #3074
 1161 00da 9642     		cmp	r6, r2
 1162 00dc 00F0D180 		beq	.L118
 1163 00e0 B6F5006F 		cmp	r6, #2048
 1164 00e4 D0D1     		bne	.L108
 1165              		.loc 1 135 0
 1166 00e6 04F17F02 		add	r2, r4, #127
 1167 00ea 0125     		movs	r5, #1
 1168 00ec 2767     		str	r7, [r4, #112]
 1169 00ee A266     		str	r2, [r4, #104]
 1170 00f0 E566     		str	r5, [r4, #108]
 1171 00f2 98E7     		b	.L148
 1172              	.L172:
 1173              		.loc 1 86 0
 1174 00f4 022E     		cmp	r6, #2
 1175 00f6 00F0F480 		beq	.L115
 1176 00fa 40F3B780 		ble	.L174
 1177 00fe B6F5807F 		cmp	r6, #256
 1178 0102 00F09080 		beq	.L119
 1179 0106 B6F5817F 		cmp	r6, #258
 1180 010a BDD1     		bne	.L108
 1181              		.loc 1 181 0
ARM GAS  /tmp/ccYsm7RN.s 			page 22


 1182 010c 94F87620 		ldrb	r2, [r4, #118]	@ zero_extendqisi2
 1183 0110 002A     		cmp	r2, #0
 1184 0112 B9D1     		bne	.L108
 1185              		.loc 1 184 0
 1186 0114 94F87820 		ldrb	r2, [r4, #120]	@ zero_extendqisi2
 1187 0118 12F00F01 		ands	r1, r2, #15
 1188 011c 07D0     		beq	.L140
 1189              		.loc 1 185 0
 1190 011e 1206     		lsls	r2, r2, #24
 1191              		.loc 1 186 0
 1192 0120 2046     		mov	r0, r4
 1193              		.loc 1 185 0
 1194 0122 00F10481 		bmi	.L175
 1195              	.LVL106:
 1196              		.loc 1 188 0
 1197 0126 FFF7FEFF 		bl	usb_lld_clear_out
 1198              	.LVL107:
 1199 012a 94F87430 		ldrb	r3, [r4, #116]	@ zero_extendqisi2
 1200              	.L140:
 1201              		.loc 1 203 0
 1202 012e 0025     		movs	r5, #0
 1203 0130 A566     		str	r5, [r4, #104]
 1204 0132 E566     		str	r5, [r4, #108]
 1205 0134 2567     		str	r5, [r4, #112]
 1206 0136 76E7     		b	.L148
 1207              	.LVL108:
 1208              	.L170:
 1209              	.LBE64:
 1210              	.LBE63:
 1211              	.LBB66:
 1212              	.LBB67:
 1213              		.loc 1 373 0
 1214 0138 9B69     		ldr	r3, [r3, #24]
 1215              	.LBE67:
 1216              	.LBE66:
 1217              		.loc 1 663 0
 1218 013a A26E     		ldr	r2, [r4, #104]
 1219              	.LVL109:
 1220              	.LBB70:
 1221              	.LBB68:
 1222              		.loc 1 375 0
 1223 013c 0026     		movs	r6, #0
 1224              	.LBE68:
 1225              	.LBE70:
 1226              		.loc 1 662 0
 1227 013e 0421     		movs	r1, #4
 1228              	.LVL110:
 1229 0140 84F86410 		strb	r1, [r4, #100]
 1230              	.LBB71:
 1231              	.LBB69:
 1232              		.loc 1 380 0
 1233 0144 2046     		mov	r0, r4
 1234              		.loc 1 376 0
 1235 0146 DA60     		str	r2, [r3, #12]
 1236              	.LVL111:
 1237              		.loc 1 377 0
 1238 0148 5D60     		str	r5, [r3, #4]
ARM GAS  /tmp/ccYsm7RN.s 			page 23


 1239              		.loc 1 375 0
 1240 014a 1E70     		strb	r6, [r3]
 1241              		.loc 1 378 0
 1242 014c 9E60     		str	r6, [r3, #8]
 1243              		.loc 1 380 0
 1244 014e 3146     		mov	r1, r6
 1245 0150 FFF7FEFF 		bl	usb_lld_prepare_receive
 1246              	.LVL112:
 1247              	.LBE69:
 1248              	.LBE71:
 1249              	.LBB72:
 1250              		.loc 1 664 0
 1251 0154 2023     		movs	r3, #32
 1252              	@ 664 "../../../../os/hal/src/usb.c" 1
 1253 0156 83F31188 		msr     BASEPRI, r3
 1254              	@ 0 "" 2
 1255              		.thumb
 1256              	.LBE72:
 1257 015a FFF7FEFF 		bl	dbg_check_lock_from_isr
 1258              	.LVL113:
 1259              		.loc 1 665 0
 1260 015e 3146     		mov	r1, r6
 1261 0160 2046     		mov	r0, r4
 1262 0162 FFF7FEFF 		bl	usbStartReceiveI
 1263              	.LVL114:
 1264              		.loc 1 666 0
 1265 0166 FFF7FEFF 		bl	dbg_check_unlock_from_isr
 1266              	.LVL115:
 1267              	.LBB73:
 1268 016a 3346     		mov	r3, r6
 1269              	@ 666 "../../../../os/hal/src/usb.c" 1
 1270 016c 83F31188 		msr     BASEPRI, r3
 1271              	@ 0 "" 2
 1272              		.thumb
 1273              	.LBE73:
 1274 0170 F8BD     		pop	{r3, r4, r5, r6, r7, pc}
 1275              	.LVL116:
 1276              	.L169:
 1277              		.loc 1 640 0
 1278 0172 E5B1     		cbz	r5, .L146
 1279              	.LBB74:
 1280              	.LBB54:
 1281              		.loc 1 399 0
 1282 0174 5B69     		ldr	r3, [r3, #20]
 1283              	.LBE54:
 1284              	.LBE74:
 1285              		.loc 1 643 0
 1286 0176 A26E     		ldr	r2, [r4, #104]
 1287              	.LVL117:
 1288              	.LBB75:
 1289              	.LBB55:
 1290              		.loc 1 401 0
 1291 0178 0026     		movs	r6, #0
 1292              	.LBE55:
 1293              	.LBE75:
 1294              		.loc 1 642 0
 1295 017a 0121     		movs	r1, #1
ARM GAS  /tmp/ccYsm7RN.s 			page 24


 1296              	.LVL118:
 1297 017c 84F86410 		strb	r1, [r4, #100]
 1298              	.LBB76:
 1299              	.LBB56:
 1300              		.loc 1 406 0
 1301 0180 2046     		mov	r0, r4
 1302              		.loc 1 402 0
 1303 0182 DA60     		str	r2, [r3, #12]
 1304              	.LVL119:
 1305              		.loc 1 403 0
 1306 0184 5D60     		str	r5, [r3, #4]
 1307              		.loc 1 401 0
 1308 0186 1E70     		strb	r6, [r3]
 1309              		.loc 1 404 0
 1310 0188 9E60     		str	r6, [r3, #8]
 1311              		.loc 1 406 0
 1312 018a 3146     		mov	r1, r6
 1313 018c FFF7FEFF 		bl	usb_lld_prepare_transmit
 1314              	.LVL120:
 1315              	.LBE56:
 1316              	.LBE76:
 1317              	.LBB77:
 1318              		.loc 1 644 0
 1319 0190 2023     		movs	r3, #32
 1320              	@ 644 "../../../../os/hal/src/usb.c" 1
 1321 0192 83F31188 		msr     BASEPRI, r3
 1322              	@ 0 "" 2
 1323              		.thumb
 1324              	.LBE77:
 1325 0196 FFF7FEFF 		bl	dbg_check_lock_from_isr
 1326              	.LVL121:
 1327              		.loc 1 645 0
 1328 019a 3146     		mov	r1, r6
 1329 019c 2046     		mov	r0, r4
 1330 019e FFF7FEFF 		bl	usbStartTransmitI
 1331              	.LVL122:
 1332              		.loc 1 646 0
 1333 01a2 FFF7FEFF 		bl	dbg_check_unlock_from_isr
 1334              	.LVL123:
 1335              	.LBB78:
 1336 01a6 3346     		mov	r3, r6
 1337              	@ 646 "../../../../os/hal/src/usb.c" 1
 1338 01a8 83F31188 		msr     BASEPRI, r3
 1339              	@ 0 "" 2
 1340              		.thumb
 1341              	.LBE78:
 1342 01ac F8BD     		pop	{r3, r4, r5, r6, r7, pc}
 1343              	.LVL124:
 1344              	.L146:
 1345              	.LBB79:
 1346              	.LBB80:
 1347              		.loc 1 373 0
 1348 01ae 9B69     		ldr	r3, [r3, #24]
 1349              	.LBE80:
 1350              	.LBE79:
 1351              		.loc 1 651 0
 1352 01b0 0322     		movs	r2, #3
ARM GAS  /tmp/ccYsm7RN.s 			page 25


 1353              	.LVL125:
 1354 01b2 84F86420 		strb	r2, [r4, #100]
 1355              	.LVL126:
 1356              	.LBB82:
 1357              	.LBB81:
 1358              		.loc 1 380 0
 1359 01b6 2046     		mov	r0, r4
 1360              		.loc 1 375 0
 1361 01b8 1D70     		strb	r5, [r3]
 1362              	.LVL127:
 1363              		.loc 1 376 0
 1364 01ba DD60     		str	r5, [r3, #12]
 1365              		.loc 1 377 0
 1366 01bc 5D60     		str	r5, [r3, #4]
 1367              		.loc 1 378 0
 1368 01be 9D60     		str	r5, [r3, #8]
 1369              		.loc 1 380 0
 1370 01c0 2946     		mov	r1, r5
 1371 01c2 FFF7FEFF 		bl	usb_lld_prepare_receive
 1372              	.LVL128:
 1373              	.LBE81:
 1374              	.LBE82:
 1375              	.LBB83:
 1376              		.loc 1 653 0
 1377 01c6 2023     		movs	r3, #32
 1378              	@ 653 "../../../../os/hal/src/usb.c" 1
 1379 01c8 83F31188 		msr     BASEPRI, r3
 1380              	@ 0 "" 2
 1381              		.thumb
 1382              	.LBE83:
 1383 01cc FFF7FEFF 		bl	dbg_check_lock_from_isr
 1384              	.LVL129:
 1385              		.loc 1 654 0
 1386 01d0 2946     		mov	r1, r5
 1387 01d2 2046     		mov	r0, r4
 1388 01d4 FFF7FEFF 		bl	usbStartReceiveI
 1389              	.LVL130:
 1390              		.loc 1 655 0
 1391 01d8 FFF7FEFF 		bl	dbg_check_unlock_from_isr
 1392              	.LVL131:
 1393              	.LBB84:
 1394 01dc 2B46     		mov	r3, r5
 1395              	@ 655 "../../../../os/hal/src/usb.c" 1
 1396 01de 83F31188 		msr     BASEPRI, r3
 1397              	@ 0 "" 2
 1398              		.thumb
 1399 01e2 F8BD     		pop	{r3, r4, r5, r6, r7, pc}
 1400              	.LVL132:
 1401              	.L173:
 1402              	.LBE84:
 1403              	.LBB85:
 1404              	.LBB65:
 1405              		.loc 1 86 0
 1406 01e4 40F20232 		movw	r2, #770
 1407 01e8 9642     		cmp	r6, r2
 1408 01ea 2CD0     		beq	.L123
 1409 01ec B6F5A06F 		cmp	r6, #1280
ARM GAS  /tmp/ccYsm7RN.s 			page 26


 1410 01f0 7FF44AAF 		bne	.L108
 1411              		.loc 1 121 0
 1412 01f4 534A     		ldr	r2, .L179
 1413 01f6 A766     		str	r7, [r4, #104]
 1414 01f8 E766     		str	r7, [r4, #108]
 1415 01fa 3D46     		mov	r5, r7
 1416 01fc 2267     		str	r2, [r4, #112]
 1417 01fe 12E7     		b	.L148
 1418              	.L125:
 1419              		.loc 1 139 0
 1420 0200 94F87620 		ldrb	r2, [r4, #118]	@ zero_extendqisi2
 1421 0204 84F87F20 		strb	r2, [r4, #127]
 1422              		.loc 1 140 0
 1423 0208 002A     		cmp	r2, #0
 1424 020a 40F08180 		bne	.L130
 1425              		.loc 1 141 0
 1426 020e 0322     		movs	r2, #3
 1427 0210 2270     		strb	r2, [r4]
 1428              	.L131:
 1429              		.loc 1 144 0
 1430 0212 6268     		ldr	r2, [r4, #4]
 1431 0214 1268     		ldr	r2, [r2]
 1432 0216 002A     		cmp	r2, #0
 1433 0218 89D0     		beq	.L140
 1434 021a 2046     		mov	r0, r4
 1435 021c 0221     		movs	r1, #2
 1436 021e 9047     		blx	r2
 1437              	.LVL133:
 1438 0220 94F87430 		ldrb	r3, [r4, #116]	@ zero_extendqisi2
 1439 0224 83E7     		b	.L140
 1440              	.L119:
 1441              		.loc 1 96 0
 1442 0226 94F87620 		ldrb	r2, [r4, #118]	@ zero_extendqisi2
 1443 022a 012A     		cmp	r2, #1
 1444 022c 7FF42CAF 		bne	.L108
 1445              		.loc 1 97 0
 1446 0230 B4F87C20 		ldrh	r2, [r4, #124]
 1447              		.loc 1 98 0
 1448 0234 A766     		str	r7, [r4, #104]
 1449              		.loc 1 97 0
 1450 0236 22F00202 		bic	r2, r2, #2
 1451              		.loc 1 98 0
 1452 023a E766     		str	r7, [r4, #108]
 1453 023c 2767     		str	r7, [r4, #112]
 1454 023e 3D46     		mov	r5, r7
 1455              		.loc 1 97 0
 1456 0240 A4F87C20 		strh	r2, [r4, #124]	@ movhi
 1457 0244 EFE6     		b	.L148
 1458              	.L123:
 1459              		.loc 1 194 0
 1460 0246 94F87620 		ldrb	r2, [r4, #118]	@ zero_extendqisi2
 1461 024a 002A     		cmp	r2, #0
 1462 024c 7FF41CAF 		bne	.L108
 1463              		.loc 1 197 0
 1464 0250 94F87820 		ldrb	r2, [r4, #120]	@ zero_extendqisi2
 1465 0254 12F00F01 		ands	r1, r2, #15
 1466 0258 3FF469AF 		beq	.L140
ARM GAS  /tmp/ccYsm7RN.s 			page 27


 1467              		.loc 1 198 0
 1468 025c 1306     		lsls	r3, r2, #24
 1469              		.loc 1 199 0
 1470 025e 2046     		mov	r0, r4
 1471              		.loc 1 198 0
 1472 0260 6AD4     		bmi	.L176
 1473              	.LVL134:
 1474              		.loc 1 201 0
 1475 0262 FFF7FEFF 		bl	usb_lld_stall_out
 1476              	.LVL135:
 1477 0266 94F87430 		ldrb	r3, [r4, #116]	@ zero_extendqisi2
 1478 026a 60E7     		b	.L140
 1479              	.L174:
 1480              		.loc 1 86 0
 1481 026c 36B9     		cbnz	r6, .L177
 1482              		.loc 1 91 0
 1483 026e 04F17C02 		add	r2, r4, #124
 1484 0272 0225     		movs	r5, #2
 1485 0274 2667     		str	r6, [r4, #112]
 1486 0276 A266     		str	r2, [r4, #104]
 1487 0278 E566     		str	r5, [r4, #108]
 1488 027a D4E6     		b	.L148
 1489              	.L177:
 1490              		.loc 1 86 0
 1491 027c 012E     		cmp	r6, #1
 1492 027e 7FF403AF 		bne	.L108
 1493              	.L118:
 1494              		.loc 1 151 0
 1495 0282 314A     		ldr	r2, .L179+4
 1496 0284 A266     		str	r2, [r4, #104]
 1497 0286 0225     		movs	r5, #2
 1498 0288 0022     		movs	r2, #0
 1499 028a E566     		str	r5, [r4, #108]
 1500 028c 2267     		str	r2, [r4, #112]
 1501 028e CAE6     		b	.L148
 1502              	.L121:
 1503              		.loc 1 126 0
 1504 0290 6268     		ldr	r2, [r4, #4]
 1505              		.loc 1 128 0
 1506 0292 94F87900 		ldrb	r0, [r4, #121]	@ zero_extendqisi2
 1507              		.loc 1 126 0
 1508 0296 94F87830 		ldrb	r3, [r4, #120]	@ zero_extendqisi2
 1509 029a 5568     		ldr	r5, [r2, #4]
 1510 029c 94F87710 		ldrb	r1, [r4, #119]	@ zero_extendqisi2
 1511 02a0 94F87620 		ldrb	r2, [r4, #118]	@ zero_extendqisi2
 1512 02a4 43EA0023 		orr	r3, r3, r0, lsl #8
 1513 02a8 2046     		mov	r0, r4
 1514 02aa A847     		blx	r5
 1515              	.LVL136:
 1516              		.loc 1 129 0
 1517 02ac 0028     		cmp	r0, #0
 1518 02ae 3FF4EBAE 		beq	.L108
 1519              		.loc 1 131 0
 1520 02b2 4368     		ldr	r3, [r0, #4]
 1521 02b4 0568     		ldr	r5, [r0]
 1522 02b6 E566     		str	r5, [r4, #108]
 1523 02b8 A366     		str	r3, [r4, #104]
ARM GAS  /tmp/ccYsm7RN.s 			page 28


 1524 02ba 2767     		str	r7, [r4, #112]
 1525 02bc 94F87430 		ldrb	r3, [r4, #116]	@ zero_extendqisi2
 1526 02c0 B1E6     		b	.L148
 1527              	.LVL137:
 1528              	.L113:
 1529              		.loc 1 105 0
 1530 02c2 94F87620 		ldrb	r2, [r4, #118]	@ zero_extendqisi2
 1531 02c6 012A     		cmp	r2, #1
 1532 02c8 7FF4DEAE 		bne	.L108
 1533              		.loc 1 106 0
 1534 02cc B4F87C20 		ldrh	r2, [r4, #124]
 1535              		.loc 1 107 0
 1536 02d0 A766     		str	r7, [r4, #104]
 1537              		.loc 1 106 0
 1538 02d2 42F00202 		orr	r2, r2, #2
 1539              		.loc 1 107 0
 1540 02d6 E766     		str	r7, [r4, #108]
 1541 02d8 2767     		str	r7, [r4, #112]
 1542 02da 3D46     		mov	r5, r7
 1543              		.loc 1 106 0
 1544 02dc A4F87C20 		strh	r2, [r4, #124]	@ movhi
 1545 02e0 A1E6     		b	.L148
 1546              	.L115:
 1547              		.loc 1 155 0
 1548 02e2 94F87810 		ldrb	r1, [r4, #120]	@ zero_extendqisi2
 1549 02e6 11F0800F 		tst	r1, #128
 1550              		.loc 1 156 0
 1551 02ea 2046     		mov	r0, r4
 1552 02ec 01F00F01 		and	r1, r1, #15
 1553              		.loc 1 155 0
 1554 02f0 11D1     		bne	.L178
 1555              	.LVL138:
 1556              		.loc 1 168 0
 1557 02f2 FFF7FEFF 		bl	usb_lld_get_status_out
 1558              	.LVL139:
 1559 02f6 0128     		cmp	r0, #1
 1560 02f8 11D0     		beq	.L136
 1561              	.L168:
 1562 02fa 0228     		cmp	r0, #2
 1563 02fc 7FF4C4AE 		bne	.L108
 1564              		.loc 1 173 0
 1565 0300 124B     		ldr	r3, .L179+8
 1566 0302 A366     		str	r3, [r4, #104]
 1567 0304 E066     		str	r0, [r4, #108]
 1568 0306 2767     		str	r7, [r4, #112]
 1569 0308 0546     		mov	r5, r0
 1570 030a 94F87430 		ldrb	r3, [r4, #116]	@ zero_extendqisi2
 1571 030e 8AE6     		b	.L148
 1572              	.L130:
 1573              		.loc 1 143 0
 1574 0310 0422     		movs	r2, #4
 1575 0312 2270     		strb	r2, [r4]
 1576 0314 7DE7     		b	.L131
 1577              	.LVL140:
 1578              	.L178:
 1579              		.loc 1 156 0
 1580 0316 FFF7FEFF 		bl	usb_lld_get_status_in
ARM GAS  /tmp/ccYsm7RN.s 			page 29


 1581              	.LVL141:
 1582 031a 0128     		cmp	r0, #1
 1583 031c EDD1     		bne	.L168
 1584              	.L136:
 1585              		.loc 1 170 0
 1586 031e 0C4B     		ldr	r3, .L179+12
 1587 0320 A366     		str	r3, [r4, #104]
 1588 0322 E666     		str	r6, [r4, #108]
 1589 0324 2767     		str	r7, [r4, #112]
 1590 0326 3546     		mov	r5, r6
 1591 0328 94F87430 		ldrb	r3, [r4, #116]	@ zero_extendqisi2
 1592 032c 7BE6     		b	.L148
 1593              	.LVL142:
 1594              	.L175:
 1595              		.loc 1 186 0
 1596 032e FFF7FEFF 		bl	usb_lld_clear_in
 1597              	.LVL143:
 1598 0332 94F87430 		ldrb	r3, [r4, #116]	@ zero_extendqisi2
 1599 0336 FAE6     		b	.L140
 1600              	.LVL144:
 1601              	.L176:
 1602              		.loc 1 199 0
 1603 0338 FFF7FEFF 		bl	usb_lld_stall_in
 1604              	.LVL145:
 1605 033c 94F87430 		ldrb	r3, [r4, #116]	@ zero_extendqisi2
 1606 0340 F5E6     		b	.L140
 1607              	.L180:
 1608 0342 00BF     		.align	2
 1609              	.L179:
 1610 0344 00000000 		.word	set_address
 1611 0348 00000000 		.word	.LANCHOR0
 1612 034c 00000000 		.word	.LANCHOR2
 1613 0350 00000000 		.word	.LANCHOR1
 1614              	.LBE65:
 1615              	.LBE85:
 1616              		.cfi_endproc
 1617              	.LFE135:
 1618              		.size	_usb_ep0setup, .-_usb_ep0setup
 1619 0354 AFF30080 		.section	.text._usb_ep0in,"ax",%progbits
 1619      AFF30080 
 1619      AFF30080 
 1620              		.align	2
 1621              		.p2align 4,,15
 1622              		.global	_usb_ep0in
 1623              		.thumb
 1624              		.thumb_func
 1625              		.type	_usb_ep0in, %function
 1626              	_usb_ep0in:
 1627              	.LFB136:
 1628              		.loc 1 690 0
 1629              		.cfi_startproc
 1630              		@ args = 0, pretend = 0, frame = 0
 1631              		@ frame_needed = 0, uses_anonymous_args = 0
 1632              	.LVL146:
 1633 0000 38B5     		push	{r3, r4, r5, lr}
 1634              		.cfi_def_cfa_offset 16
 1635              		.cfi_offset 3, -16
ARM GAS  /tmp/ccYsm7RN.s 			page 30


 1636              		.cfi_offset 4, -12
 1637              		.cfi_offset 5, -8
 1638              		.cfi_offset 14, -4
 1639              		.loc 1 694 0
 1640 0002 90F86430 		ldrb	r3, [r0, #100]	@ zero_extendqisi2
 1641 0006 022B     		cmp	r3, #2
 1642              		.loc 1 690 0
 1643 0008 0446     		mov	r4, r0
 1644              		.loc 1 694 0
 1645 000a 47D0     		beq	.L183
 1646 000c 052B     		cmp	r3, #5
 1647 000e 3ED0     		beq	.L184
 1648 0010 012B     		cmp	r3, #1
 1649 0012 10D0     		beq	.L198
 1650              		.loc 1 729 0
 1651 0014 0021     		movs	r1, #0
 1652              	.LVL147:
 1653 0016 FFF7FEFF 		bl	usb_lld_stall_in
 1654              	.LVL148:
 1655              		.loc 1 730 0
 1656 001a 2046     		mov	r0, r4
 1657 001c 0021     		movs	r1, #0
 1658 001e FFF7FEFF 		bl	usb_lld_stall_out
 1659              	.LVL149:
 1660              		.loc 1 731 0
 1661 0022 6368     		ldr	r3, [r4, #4]
 1662 0024 1B68     		ldr	r3, [r3]
 1663 0026 13B1     		cbz	r3, .L190
 1664              		.loc 1 731 0 is_stmt 0 discriminator 1
 1665 0028 2046     		mov	r0, r4
 1666 002a 0521     		movs	r1, #5
 1667 002c 9847     		blx	r3
 1668              	.LVL150:
 1669              	.L190:
 1670              		.loc 1 732 0 is_stmt 1
 1671 002e 0623     		movs	r3, #6
 1672 0030 84F86430 		strb	r3, [r4, #100]
 1673 0034 38BD     		pop	{r3, r4, r5, pc}
 1674              	.LVL151:
 1675              	.L198:
 1676              		.loc 1 696 0
 1677 0036 90F87B20 		ldrb	r2, [r0, #123]	@ zero_extendqisi2
 1678 003a 90F87A30 		ldrb	r3, [r0, #122]	@ zero_extendqisi2
 1679              		.loc 1 700 0
 1680 003e C56E     		ldr	r5, [r0, #108]
 1681              		.loc 1 696 0
 1682 0040 43EA0223 		orr	r3, r3, r2, lsl #8
 1683              		.loc 1 700 0
 1684 0044 AB42     		cmp	r3, r5
 1685 0046 C268     		ldr	r2, [r0, #12]
 1686 0048 05D9     		bls	.L187
 1687              		.loc 1 700 0 is_stmt 0 discriminator 1
 1688 004a 138A     		ldrh	r3, [r2, #16]
 1689 004c B5FBF3F1 		udiv	r1, r5, r3
 1690              	.LVL152:
 1691 0050 03FB1155 		mls	r5, r3, r1, r5
 1692 0054 25B3     		cbz	r5, .L199
ARM GAS  /tmp/ccYsm7RN.s 			page 31


 1693              	.LVL153:
 1694              	.L187:
 1695              	.LBB86:
 1696              	.LBB87:
 1697              		.loc 1 373 0 is_stmt 1
 1698 0056 9369     		ldr	r3, [r2, #24]
 1699              		.loc 1 375 0
 1700 0058 0025     		movs	r5, #0
 1701              	.LBE87:
 1702              	.LBE86:
 1703              		.loc 1 711 0
 1704 005a 0322     		movs	r2, #3
 1705 005c 84F86420 		strb	r2, [r4, #100]
 1706              	.LVL154:
 1707              	.LBB89:
 1708              	.LBB88:
 1709              		.loc 1 380 0
 1710 0060 2946     		mov	r1, r5
 1711              		.loc 1 375 0
 1712 0062 1D70     		strb	r5, [r3]
 1713              		.loc 1 376 0
 1714 0064 DD60     		str	r5, [r3, #12]
 1715              		.loc 1 377 0
 1716 0066 5D60     		str	r5, [r3, #4]
 1717              		.loc 1 378 0
 1718 0068 9D60     		str	r5, [r3, #8]
 1719              		.loc 1 380 0
 1720 006a 2046     		mov	r0, r4
 1721              	.LVL155:
 1722 006c FFF7FEFF 		bl	usb_lld_prepare_receive
 1723              	.LVL156:
 1724              	.LBE88:
 1725              	.LBE89:
 1726              	.LBB90:
 1727              		.loc 1 713 0
 1728 0070 2023     		movs	r3, #32
 1729              	@ 713 "../../../../os/hal/src/usb.c" 1
 1730 0072 83F31188 		msr     BASEPRI, r3
 1731              	@ 0 "" 2
 1732              		.thumb
 1733              	.LBE90:
 1734 0076 FFF7FEFF 		bl	dbg_check_lock_from_isr
 1735              	.LVL157:
 1736              		.loc 1 714 0
 1737 007a 2946     		mov	r1, r5
 1738 007c 2046     		mov	r0, r4
 1739 007e FFF7FEFF 		bl	usbStartReceiveI
 1740              	.LVL158:
 1741              		.loc 1 715 0
 1742 0082 FFF7FEFF 		bl	dbg_check_unlock_from_isr
 1743              	.LVL159:
 1744              	.LBB91:
 1745 0086 2B46     		mov	r3, r5
 1746              	@ 715 "../../../../os/hal/src/usb.c" 1
 1747 0088 83F31188 		msr     BASEPRI, r3
 1748              	@ 0 "" 2
 1749              		.thumb
ARM GAS  /tmp/ccYsm7RN.s 			page 32


 1750              	.LBE91:
 1751              		.loc 1 716 0
 1752 008c 38BD     		pop	{r3, r4, r5, pc}
 1753              	.LVL160:
 1754              	.L184:
 1755              		.loc 1 719 0
 1756 008e 036F     		ldr	r3, [r0, #112]
 1757 0090 03B1     		cbz	r3, .L189
 1758              		.loc 1 720 0
 1759 0092 9847     		blx	r3
 1760              	.LVL161:
 1761              	.L189:
 1762              		.loc 1 721 0
 1763 0094 0023     		movs	r3, #0
 1764 0096 84F86430 		strb	r3, [r4, #100]
 1765              		.loc 1 722 0
 1766 009a 38BD     		pop	{r3, r4, r5, pc}
 1767              	.LVL162:
 1768              	.L183:
 1769 009c C268     		ldr	r2, [r0, #12]
 1770 009e DAE7     		b	.L187
 1771              	.LVL163:
 1772              	.L199:
 1773              	.LBB92:
 1774              	.LBB93:
 1775              		.loc 1 399 0
 1776 00a0 5369     		ldr	r3, [r2, #20]
 1777              	.LVL164:
 1778              		.loc 1 406 0
 1779 00a2 2946     		mov	r1, r5
 1780              		.loc 1 401 0
 1781 00a4 1D70     		strb	r5, [r3]
 1782              	.LVL165:
 1783              		.loc 1 402 0
 1784 00a6 DD60     		str	r5, [r3, #12]
 1785              		.loc 1 403 0
 1786 00a8 5D60     		str	r5, [r3, #4]
 1787              		.loc 1 404 0
 1788 00aa 9D60     		str	r5, [r3, #8]
 1789              		.loc 1 406 0
 1790 00ac FFF7FEFF 		bl	usb_lld_prepare_transmit
 1791              	.LVL166:
 1792              	.LBE93:
 1793              	.LBE92:
 1794              	.LBB94:
 1795              		.loc 1 702 0
 1796 00b0 2023     		movs	r3, #32
 1797              	@ 702 "../../../../os/hal/src/usb.c" 1
 1798 00b2 83F31188 		msr     BASEPRI, r3
 1799              	@ 0 "" 2
 1800              		.thumb
 1801              	.LBE94:
 1802 00b6 FFF7FEFF 		bl	dbg_check_lock_from_isr
 1803              	.LVL167:
 1804              		.loc 1 703 0
 1805 00ba 2946     		mov	r1, r5
 1806 00bc 2046     		mov	r0, r4
ARM GAS  /tmp/ccYsm7RN.s 			page 33


 1807 00be FFF7FEFF 		bl	usbStartTransmitI
 1808              	.LVL168:
 1809              		.loc 1 704 0
 1810 00c2 FFF7FEFF 		bl	dbg_check_unlock_from_isr
 1811              	.LVL169:
 1812              	.LBB95:
 1813 00c6 2B46     		mov	r3, r5
 1814              	@ 704 "../../../../os/hal/src/usb.c" 1
 1815 00c8 83F31188 		msr     BASEPRI, r3
 1816              	@ 0 "" 2
 1817              		.thumb
 1818              	.LBE95:
 1819              		.loc 1 705 0
 1820 00cc 0223     		movs	r3, #2
 1821 00ce 84F86430 		strb	r3, [r4, #100]
 1822              		.loc 1 706 0
 1823 00d2 38BD     		pop	{r3, r4, r5, pc}
 1824              		.cfi_endproc
 1825              	.LFE136:
 1826              		.size	_usb_ep0in, .-_usb_ep0in
 1827 00d4 AFF30080 		.section	.text._usb_ep0out,"ax",%progbits
 1827      AFF30080 
 1827      AFF30080 
 1828              		.align	2
 1829              		.p2align 4,,15
 1830              		.global	_usb_ep0out
 1831              		.thumb
 1832              		.thumb_func
 1833              		.type	_usb_ep0out, %function
 1834              	_usb_ep0out:
 1835              	.LFB137:
 1836              		.loc 1 745 0
 1837              		.cfi_startproc
 1838              		@ args = 0, pretend = 0, frame = 0
 1839              		@ frame_needed = 0, uses_anonymous_args = 0
 1840              	.LVL170:
 1841 0000 38B5     		push	{r3, r4, r5, lr}
 1842              		.cfi_def_cfa_offset 16
 1843              		.cfi_offset 3, -16
 1844              		.cfi_offset 4, -12
 1845              		.cfi_offset 5, -8
 1846              		.cfi_offset 14, -4
 1847              		.loc 1 748 0
 1848 0002 90F86430 		ldrb	r3, [r0, #100]	@ zero_extendqisi2
 1849 0006 032B     		cmp	r3, #3
 1850              		.loc 1 745 0
 1851 0008 0446     		mov	r4, r0
 1852              		.loc 1 748 0
 1853 000a 2FD0     		beq	.L202
 1854 000c 042B     		cmp	r3, #4
 1855 000e 11D0     		beq	.L213
 1856              	.L201:
 1857              		.loc 1 772 0
 1858 0010 2046     		mov	r0, r4
 1859              	.LVL171:
 1860 0012 0021     		movs	r1, #0
 1861              	.LVL172:
ARM GAS  /tmp/ccYsm7RN.s 			page 34


 1862 0014 FFF7FEFF 		bl	usb_lld_stall_in
 1863              	.LVL173:
 1864              		.loc 1 773 0
 1865 0018 2046     		mov	r0, r4
 1866 001a 0021     		movs	r1, #0
 1867 001c FFF7FEFF 		bl	usb_lld_stall_out
 1868              	.LVL174:
 1869              		.loc 1 774 0
 1870 0020 6368     		ldr	r3, [r4, #4]
 1871 0022 1B68     		ldr	r3, [r3]
 1872 0024 13B1     		cbz	r3, .L206
 1873              		.loc 1 774 0 is_stmt 0 discriminator 1
 1874 0026 2046     		mov	r0, r4
 1875 0028 0521     		movs	r1, #5
 1876 002a 9847     		blx	r3
 1877              	.LVL175:
 1878              	.L206:
 1879              		.loc 1 775 0 is_stmt 1
 1880 002c 0623     		movs	r3, #6
 1881 002e 84F86430 		strb	r3, [r4, #100]
 1882 0032 38BD     		pop	{r3, r4, r5, pc}
 1883              	.LVL176:
 1884              	.L213:
 1885              	.LBB96:
 1886              	.LBB97:
 1887              		.loc 1 399 0
 1888 0034 C368     		ldr	r3, [r0, #12]
 1889 0036 5B69     		ldr	r3, [r3, #20]
 1890              		.loc 1 401 0
 1891 0038 0025     		movs	r5, #0
 1892              	.LBE97:
 1893              	.LBE96:
 1894              		.loc 1 751 0
 1895 003a 0522     		movs	r2, #5
 1896 003c 80F86420 		strb	r2, [r0, #100]
 1897              	.LVL177:
 1898              	.LBB99:
 1899              	.LBB98:
 1900              		.loc 1 406 0
 1901 0040 2946     		mov	r1, r5
 1902              	.LVL178:
 1903              		.loc 1 401 0
 1904 0042 1D70     		strb	r5, [r3]
 1905              		.loc 1 402 0
 1906 0044 DD60     		str	r5, [r3, #12]
 1907              		.loc 1 403 0
 1908 0046 5D60     		str	r5, [r3, #4]
 1909              		.loc 1 404 0
 1910 0048 9D60     		str	r5, [r3, #8]
 1911              		.loc 1 406 0
 1912 004a FFF7FEFF 		bl	usb_lld_prepare_transmit
 1913              	.LVL179:
 1914              	.LBE98:
 1915              	.LBE99:
 1916              	.LBB100:
 1917              		.loc 1 753 0
 1918 004e 2023     		movs	r3, #32
ARM GAS  /tmp/ccYsm7RN.s 			page 35


 1919              	@ 753 "../../../../os/hal/src/usb.c" 1
 1920 0050 83F31188 		msr     BASEPRI, r3
 1921              	@ 0 "" 2
 1922              		.thumb
 1923              	.LBE100:
 1924 0054 FFF7FEFF 		bl	dbg_check_lock_from_isr
 1925              	.LVL180:
 1926              		.loc 1 754 0
 1927 0058 2946     		mov	r1, r5
 1928 005a 2046     		mov	r0, r4
 1929 005c FFF7FEFF 		bl	usbStartTransmitI
 1930              	.LVL181:
 1931              		.loc 1 755 0
 1932 0060 FFF7FEFF 		bl	dbg_check_unlock_from_isr
 1933              	.LVL182:
 1934              	.LBB101:
 1935 0064 2B46     		mov	r3, r5
 1936              	@ 755 "../../../../os/hal/src/usb.c" 1
 1937 0066 83F31188 		msr     BASEPRI, r3
 1938              	@ 0 "" 2
 1939              		.thumb
 1940              	.LBE101:
 1941              		.loc 1 756 0
 1942 006a 38BD     		pop	{r3, r4, r5, pc}
 1943              	.LVL183:
 1944              	.L202:
 1945              		.loc 1 760 0
 1946 006c C368     		ldr	r3, [r0, #12]
 1947 006e 9B69     		ldr	r3, [r3, #24]
 1948 0070 9B68     		ldr	r3, [r3, #8]
 1949 0072 002B     		cmp	r3, #0
 1950 0074 CCD1     		bne	.L201
 1951              		.loc 1 762 0
 1952 0076 036F     		ldr	r3, [r0, #112]
 1953 0078 03B1     		cbz	r3, .L205
 1954              		.loc 1 763 0
 1955 007a 9847     		blx	r3
 1956              	.LVL184:
 1957              	.L205:
 1958              		.loc 1 764 0
 1959 007c 0023     		movs	r3, #0
 1960 007e 84F86430 		strb	r3, [r4, #100]
 1961              		.loc 1 765 0
 1962 0082 38BD     		pop	{r3, r4, r5, pc}
 1963              		.cfi_endproc
 1964              	.LFE137:
 1965              		.size	_usb_ep0out, .-_usb_ep0out
 1966 0084 AFF30080 		.section	.rodata.zero_status,"a",%progbits
 1966      AFF30080 
 1966      AFF30080 
 1967              		.align	2
 1968              		.set	.LANCHOR0,. + 0
 1969              		.type	zero_status, %object
 1970              		.size	zero_status, 2
 1971              	zero_status:
 1972 0000 0000     		.space	2
 1973 0002 0000     		.section	.rodata.active_status,"a",%progbits
ARM GAS  /tmp/ccYsm7RN.s 			page 36


 1974              		.align	2
 1975              		.set	.LANCHOR2,. + 0
 1976              		.type	active_status, %object
 1977              		.size	active_status, 2
 1978              	active_status:
 1979 0000 0000     		.space	2
 1980 0002 0000     		.section	.rodata.str1.4,"aMS",%progbits,1
 1981              		.align	2
 1982              	.LC0:
 1983 0000 22757362 		.ascii	"\"usbStart\"()\000"
 1983      53746172 
 1983      74222829 
 1983      00
 1984 000d 000000   		.space	3
 1985              	.LC1:
 1986 0010 75736253 		.ascii	"usbStart(), #1\000"
 1986      74617274 
 1986      28292C20 
 1986      233100
 1987 001f 00       		.space	1
 1988              	.LC2:
 1989 0020 22757362 		.ascii	"\"usbStop\"()\000"
 1989      53746F70 
 1989      22282900 
 1990              	.LC3:
 1991 002c 75736253 		.ascii	"usbStop(), #1\000"
 1991      746F7028 
 1991      292C2023 
 1991      3100
 1992 003a 0000     		.space	2
 1993              	.LC4:
 1994 003c 22757362 		.ascii	"\"usbInitEndpointI\"()\000"
 1994      496E6974 
 1994      456E6470 
 1994      6F696E74 
 1994      49222829 
 1995 0051 000000   		.space	3
 1996              	.LC5:
 1997 0054 75736245 		.ascii	"usbEnableEndpointI(), #1\000"
 1997      6E61626C 
 1997      65456E64 
 1997      706F696E 
 1997      74492829 
 1998 006d 000000   		.space	3
 1999              	.LC6:
 2000 0070 75736245 		.ascii	"usbEnableEndpointI(), #2\000"
 2000      6E61626C 
 2000      65456E64 
 2000      706F696E 
 2000      74492829 
 2001 0089 000000   		.space	3
 2002              	.LC7:
 2003 008c 22757362 		.ascii	"\"usbDisableEndpointsI\"()\000"
 2003      44697361 
 2003      626C6545 
 2003      6E64706F 
 2003      696E7473 
ARM GAS  /tmp/ccYsm7RN.s 			page 37


 2004 00a5 000000   		.space	3
 2005              	.LC8:
 2006 00a8 75736244 		.ascii	"usbDisableEndpointsI(), #1\000"
 2006      69736162 
 2006      6C65456E 
 2006      64706F69 
 2006      6E747349 
 2007 00c3 00       		.space	1
 2008              	.LC9:
 2009 00c4 22757362 		.ascii	"\"usbStartReceiveI\"()\000"
 2009      53746172 
 2009      74526563 
 2009      65697665 
 2009      49222829 
 2010 00d9 000000   		.space	3
 2011              	.LC10:
 2012 00dc 22757362 		.ascii	"\"usbStartTransmitI\"()\000"
 2012      53746172 
 2012      74547261 
 2012      6E736D69 
 2012      74492228 
 2013 00f2 0000     		.space	2
 2014              	.LC11:
 2015 00f4 22757362 		.ascii	"\"usbStallReceiveI\"()\000"
 2015      5374616C 
 2015      6C526563 
 2015      65697665 
 2015      49222829 
 2016 0109 000000   		.space	3
 2017              	.LC12:
 2018 010c 22757362 		.ascii	"\"usbStallTransmitI\"()\000"
 2018      5374616C 
 2018      6C547261 
 2018      6E736D69 
 2018      74492228 
 2019 0122 0000     		.section	.rodata.halted_status,"a",%progbits
 2020              		.align	2
 2021              		.set	.LANCHOR1,. + 0
 2022              		.type	halted_status, %object
 2023              		.size	halted_status, 2
 2024              	halted_status:
 2025 0000 01       		.byte	1
 2026 0001 00       		.byte	0
 2027 0002 0000     		.text
 2028              	.Letext0:
 2029              		.file 2 "/usr/lib/gcc/arm-none-eabi/4.8/include/stddef.h"
 2030              		.file 3 "/usr/include/newlib/machine/_default_types.h"
 2031              		.file 4 "/usr/include/newlib/stdint.h"
 2032              		.file 5 "../../../../os/ports/GCC/ARMCMx/chtypes.h"
 2033              		.file 6 "../../../../os/kernel/include/chlists.h"
 2034              		.file 7 "../../../../os/kernel/include/chthreads.h"
 2035              		.file 8 "../../../../os/ports/GCC/ARMCMx/chcore_v7m.h"
 2036              		.file 9 "../../../../os/kernel/include/chmtx.h"
 2037              		.file 10 "../../../../os/kernel/include/chqueues.h"
 2038              		.file 11 "../../../../os/hal/include/usb.h"
 2039              		.file 12 "../../../../os/hal/platforms/STM32/USBv1/usb_lld.h"
 2040              		.file 13 "../../../../os/kernel/include/chdebug.h"
ARM GAS  /tmp/ccYsm7RN.s 			page 38


 2041              		.file 14 "../../../../os/ports/common/ARMCMx/CMSIS/include/core_cm4.h"